Archive member included to satisfy reference by file (symbol)

c:/opt/bcc-2.0.2-gcc/bin/../lib/gcc/sparc-gaisler-elf/7.2.0/../../../../sparc-gaisler-elf/lib/leon/mfix-at697f\libm.a(lib_a-s_atan.o)
                              C:\Users\ajarr\AppData\Local\Temp\ccyOpeqt.o (atan)
c:/opt/bcc-2.0.2-gcc/bin/../lib/gcc/sparc-gaisler-elf/7.2.0/../../../../sparc-gaisler-elf/lib/leon/mfix-at697f\libm.a(lib_a-s_cos.o)
                              C:\Users\ajarr\AppData\Local\Temp\ccLBYgor.o (cos)
c:/opt/bcc-2.0.2-gcc/bin/../lib/gcc/sparc-gaisler-elf/7.2.0/../../../../sparc-gaisler-elf/lib/leon/mfix-at697f\libm.a(lib_a-s_fabs.o)
                              c:/opt/bcc-2.0.2-gcc/bin/../lib/gcc/sparc-gaisler-elf/7.2.0/../../../../sparc-gaisler-elf/lib/leon/mfix-at697f\libm.a(lib_a-s_atan.o) (fabs)
c:/opt/bcc-2.0.2-gcc/bin/../lib/gcc/sparc-gaisler-elf/7.2.0/../../../../sparc-gaisler-elf/lib/leon/mfix-at697f\libm.a(lib_a-s_floor.o)
                              C:\Users\ajarr\AppData\Local\Temp\ccExFPZ1.o (floor)
c:/opt/bcc-2.0.2-gcc/bin/../lib/gcc/sparc-gaisler-elf/7.2.0/../../../../sparc-gaisler-elf/lib/leon/mfix-at697f\libm.a(lib_a-s_round.o)
                              C:\Users\ajarr\AppData\Local\Temp\ccJldDN1.o (round)
c:/opt/bcc-2.0.2-gcc/bin/../lib/gcc/sparc-gaisler-elf/7.2.0/../../../../sparc-gaisler-elf/lib/leon/mfix-at697f\libm.a(lib_a-s_sin.o)
                              C:\Users\ajarr\AppData\Local\Temp\ccLBYgor.o (sin)
c:/opt/bcc-2.0.2-gcc/bin/../lib/gcc/sparc-gaisler-elf/7.2.0/../../../../sparc-gaisler-elf/lib/leon/mfix-at697f\libm.a(lib_a-s_tan.o)
                              C:\Users\ajarr\AppData\Local\Temp\ccyOpeqt.o (tan)
c:/opt/bcc-2.0.2-gcc/bin/../lib/gcc/sparc-gaisler-elf/7.2.0/../../../../sparc-gaisler-elf/lib/leon/mfix-at697f\libm.a(lib_a-w_acos.o)
                              C:\Users\ajarr\AppData\Local\Temp\cc41N2oq.o (acos)
c:/opt/bcc-2.0.2-gcc/bin/../lib/gcc/sparc-gaisler-elf/7.2.0/../../../../sparc-gaisler-elf/lib/leon/mfix-at697f\libm.a(lib_a-w_asin.o)
                              C:\Users\ajarr\AppData\Local\Temp\ccExFPZ1.o (asin)
c:/opt/bcc-2.0.2-gcc/bin/../lib/gcc/sparc-gaisler-elf/7.2.0/../../../../sparc-gaisler-elf/lib/leon/mfix-at697f\libm.a(lib_a-w_atan2.o)
                              C:\Users\ajarr\AppData\Local\Temp\cc41N2oq.o (atan2)
c:/opt/bcc-2.0.2-gcc/bin/../lib/gcc/sparc-gaisler-elf/7.2.0/../../../../sparc-gaisler-elf/lib/leon/mfix-at697f\libm.a(lib_a-w_fmod.o)
                              C:\Users\ajarr\AppData\Local\Temp\ccExFPZ1.o (fmod)
c:/opt/bcc-2.0.2-gcc/bin/../lib/gcc/sparc-gaisler-elf/7.2.0/../../../../sparc-gaisler-elf/lib/leon/mfix-at697f\libm.a(lib_a-w_pow.o)
                              C:\Users\ajarr\AppData\Local\Temp\cc41N2oq.o (pow)
c:/opt/bcc-2.0.2-gcc/bin/../lib/gcc/sparc-gaisler-elf/7.2.0/../../../../sparc-gaisler-elf/lib/leon/mfix-at697f\libm.a(lib_a-w_sqrt.o)
                              C:\Users\ajarr\AppData\Local\Temp\ccLBYgor.o (sqrt)
c:/opt/bcc-2.0.2-gcc/bin/../lib/gcc/sparc-gaisler-elf/7.2.0/../../../../sparc-gaisler-elf/lib/leon/mfix-at697f\libm.a(lib_a-e_acos.o)
                              c:/opt/bcc-2.0.2-gcc/bin/../lib/gcc/sparc-gaisler-elf/7.2.0/../../../../sparc-gaisler-elf/lib/leon/mfix-at697f\libm.a(lib_a-w_acos.o) (__ieee754_acos)
c:/opt/bcc-2.0.2-gcc/bin/../lib/gcc/sparc-gaisler-elf/7.2.0/../../../../sparc-gaisler-elf/lib/leon/mfix-at697f\libm.a(lib_a-e_asin.o)
                              c:/opt/bcc-2.0.2-gcc/bin/../lib/gcc/sparc-gaisler-elf/7.2.0/../../../../sparc-gaisler-elf/lib/leon/mfix-at697f\libm.a(lib_a-w_asin.o) (__ieee754_asin)
c:/opt/bcc-2.0.2-gcc/bin/../lib/gcc/sparc-gaisler-elf/7.2.0/../../../../sparc-gaisler-elf/lib/leon/mfix-at697f\libm.a(lib_a-e_atan2.o)
                              c:/opt/bcc-2.0.2-gcc/bin/../lib/gcc/sparc-gaisler-elf/7.2.0/../../../../sparc-gaisler-elf/lib/leon/mfix-at697f\libm.a(lib_a-w_atan2.o) (__ieee754_atan2)
c:/opt/bcc-2.0.2-gcc/bin/../lib/gcc/sparc-gaisler-elf/7.2.0/../../../../sparc-gaisler-elf/lib/leon/mfix-at697f\libm.a(lib_a-e_fmod.o)
                              c:/opt/bcc-2.0.2-gcc/bin/../lib/gcc/sparc-gaisler-elf/7.2.0/../../../../sparc-gaisler-elf/lib/leon/mfix-at697f\libm.a(lib_a-w_fmod.o) (__ieee754_fmod)
c:/opt/bcc-2.0.2-gcc/bin/../lib/gcc/sparc-gaisler-elf/7.2.0/../../../../sparc-gaisler-elf/lib/leon/mfix-at697f\libm.a(lib_a-e_pow.o)
                              c:/opt/bcc-2.0.2-gcc/bin/../lib/gcc/sparc-gaisler-elf/7.2.0/../../../../sparc-gaisler-elf/lib/leon/mfix-at697f\libm.a(lib_a-w_pow.o) (__ieee754_pow)
c:/opt/bcc-2.0.2-gcc/bin/../lib/gcc/sparc-gaisler-elf/7.2.0/../../../../sparc-gaisler-elf/lib/leon/mfix-at697f\libm.a(lib_a-e_rem_pio2.o)
                              c:/opt/bcc-2.0.2-gcc/bin/../lib/gcc/sparc-gaisler-elf/7.2.0/../../../../sparc-gaisler-elf/lib/leon/mfix-at697f\libm.a(lib_a-s_cos.o) (__ieee754_rem_pio2)
c:/opt/bcc-2.0.2-gcc/bin/../lib/gcc/sparc-gaisler-elf/7.2.0/../../../../sparc-gaisler-elf/lib/leon/mfix-at697f\libm.a(lib_a-e_sqrt.o)
                              c:/opt/bcc-2.0.2-gcc/bin/../lib/gcc/sparc-gaisler-elf/7.2.0/../../../../sparc-gaisler-elf/lib/leon/mfix-at697f\libm.a(lib_a-w_sqrt.o) (__ieee754_sqrt)
c:/opt/bcc-2.0.2-gcc/bin/../lib/gcc/sparc-gaisler-elf/7.2.0/../../../../sparc-gaisler-elf/lib/leon/mfix-at697f\libm.a(lib_a-k_cos.o)
                              c:/opt/bcc-2.0.2-gcc/bin/../lib/gcc/sparc-gaisler-elf/7.2.0/../../../../sparc-gaisler-elf/lib/leon/mfix-at697f\libm.a(lib_a-s_cos.o) (__kernel_cos)
c:/opt/bcc-2.0.2-gcc/bin/../lib/gcc/sparc-gaisler-elf/7.2.0/../../../../sparc-gaisler-elf/lib/leon/mfix-at697f\libm.a(lib_a-k_rem_pio2.o)
                              c:/opt/bcc-2.0.2-gcc/bin/../lib/gcc/sparc-gaisler-elf/7.2.0/../../../../sparc-gaisler-elf/lib/leon/mfix-at697f\libm.a(lib_a-e_rem_pio2.o) (__kernel_rem_pio2)
c:/opt/bcc-2.0.2-gcc/bin/../lib/gcc/sparc-gaisler-elf/7.2.0/../../../../sparc-gaisler-elf/lib/leon/mfix-at697f\libm.a(lib_a-k_sin.o)
                              c:/opt/bcc-2.0.2-gcc/bin/../lib/gcc/sparc-gaisler-elf/7.2.0/../../../../sparc-gaisler-elf/lib/leon/mfix-at697f\libm.a(lib_a-s_cos.o) (__kernel_sin)
c:/opt/bcc-2.0.2-gcc/bin/../lib/gcc/sparc-gaisler-elf/7.2.0/../../../../sparc-gaisler-elf/lib/leon/mfix-at697f\libm.a(lib_a-k_tan.o)
                              c:/opt/bcc-2.0.2-gcc/bin/../lib/gcc/sparc-gaisler-elf/7.2.0/../../../../sparc-gaisler-elf/lib/leon/mfix-at697f\libm.a(lib_a-s_tan.o) (__kernel_tan)
c:/opt/bcc-2.0.2-gcc/bin/../lib/gcc/sparc-gaisler-elf/7.2.0/../../../../sparc-gaisler-elf/lib/leon/mfix-at697f\libm.a(lib_a-s_finite.o)
                              c:/opt/bcc-2.0.2-gcc/bin/../lib/gcc/sparc-gaisler-elf/7.2.0/../../../../sparc-gaisler-elf/lib/leon/mfix-at697f\libm.a(lib_a-w_pow.o) (finite)
c:/opt/bcc-2.0.2-gcc/bin/../lib/gcc/sparc-gaisler-elf/7.2.0/../../../../sparc-gaisler-elf/lib/leon/mfix-at697f\libm.a(lib_a-s_lib_ver.o)
                              c:/opt/bcc-2.0.2-gcc/bin/../lib/gcc/sparc-gaisler-elf/7.2.0/../../../../sparc-gaisler-elf/lib/leon/mfix-at697f\libm.a(lib_a-w_acos.o) (__fdlib_version)
c:/opt/bcc-2.0.2-gcc/bin/../lib/gcc/sparc-gaisler-elf/7.2.0/../../../../sparc-gaisler-elf/lib/leon/mfix-at697f\libm.a(lib_a-s_matherr.o)
                              c:/opt/bcc-2.0.2-gcc/bin/../lib/gcc/sparc-gaisler-elf/7.2.0/../../../../sparc-gaisler-elf/lib/leon/mfix-at697f\libm.a(lib_a-w_acos.o) (matherr)
c:/opt/bcc-2.0.2-gcc/bin/../lib/gcc/sparc-gaisler-elf/7.2.0/../../../../sparc-gaisler-elf/lib/leon/mfix-at697f\libm.a(lib_a-s_nan.o)
                              c:/opt/bcc-2.0.2-gcc/bin/../lib/gcc/sparc-gaisler-elf/7.2.0/../../../../sparc-gaisler-elf/lib/leon/mfix-at697f\libm.a(lib_a-w_acos.o) (nan)
c:/opt/bcc-2.0.2-gcc/bin/../lib/gcc/sparc-gaisler-elf/7.2.0/../../../../sparc-gaisler-elf/lib/leon/mfix-at697f\libm.a(lib_a-s_rint.o)
                              c:/opt/bcc-2.0.2-gcc/bin/../lib/gcc/sparc-gaisler-elf/7.2.0/../../../../sparc-gaisler-elf/lib/leon/mfix-at697f\libm.a(lib_a-w_pow.o) (rint)
c:/opt/bcc-2.0.2-gcc/bin/../lib/gcc/sparc-gaisler-elf/7.2.0/../../../../sparc-gaisler-elf/lib/leon/mfix-at697f\libm.a(lib_a-s_scalbn.o)
                              c:/opt/bcc-2.0.2-gcc/bin/../lib/gcc/sparc-gaisler-elf/7.2.0/../../../../sparc-gaisler-elf/lib/leon/mfix-at697f\libm.a(lib_a-e_pow.o) (scalbn)
c:/opt/bcc-2.0.2-gcc/bin/../lib/gcc/sparc-gaisler-elf/7.2.0/../../../../sparc-gaisler-elf/lib/leon/mfix-at697f\libm.a(lib_a-s_copysign.o)
                              c:/opt/bcc-2.0.2-gcc/bin/../lib/gcc/sparc-gaisler-elf/7.2.0/../../../../sparc-gaisler-elf/lib/leon/mfix-at697f\libm.a(lib_a-s_scalbn.o) (copysign)
c:/opt/bcc-2.0.2-gcc/bin/../sparc-gaisler-elf/bsp/leon2/leon/mfix-at697f\libbcc.a(reset_trap_mvt.S.o)
                              c:/opt/bcc-2.0.2-gcc/bin/../sparc-gaisler-elf/bsp/leon2/leon/mfix-at697f/trap_table_mvt.S.o (__bcc_trap_reset_mvt)
c:/opt/bcc-2.0.2-gcc/bin/../sparc-gaisler-elf/bsp/leon2/leon/mfix-at697f\libbcc.a(window_trap.S.o)
                              c:/opt/bcc-2.0.2-gcc/bin/../sparc-gaisler-elf/bsp/leon2/leon/mfix-at697f/trap_table_mvt.S.o (__bcc_trap_window_overflow)
c:/opt/bcc-2.0.2-gcc/bin/../sparc-gaisler-elf/bsp/leon2/leon/mfix-at697f\libbcc.a(interrupt_trap.S.o)
                              c:/opt/bcc-2.0.2-gcc/bin/../sparc-gaisler-elf/bsp/leon2/leon/mfix-at697f/trap_table_mvt.S.o (__bcc_trap_interrupt)
c:/opt/bcc-2.0.2-gcc/bin/../sparc-gaisler-elf/bsp/leon2/leon/mfix-at697f\libbcc.a(flush_windows_trap.S.o)
                              c:/opt/bcc-2.0.2-gcc/bin/../sparc-gaisler-elf/bsp/leon2/leon/mfix-at697f/trap_table_mvt.S.o (__bcc_trap_flush_windows)
c:/opt/bcc-2.0.2-gcc/bin/../sparc-gaisler-elf/bsp/leon2/leon/mfix-at697f\libbcc.a(sw_trap_set_pil.S.o)
                              c:/opt/bcc-2.0.2-gcc/bin/../sparc-gaisler-elf/bsp/leon2/leon/mfix-at697f/trap_table_mvt.S.o (__bcc_trap_sw_set_pil)
c:/opt/bcc-2.0.2-gcc/bin/../sparc-gaisler-elf/bsp/leon2/leon/mfix-at697f\libbcc.a(trap.c.o)
                              C:\Users\ajarr\AppData\Local\Temp\cc6epILV.o (bcc_set_trap)
c:/opt/bcc-2.0.2-gcc/bin/../sparc-gaisler-elf/bsp/leon2/leon/mfix-at697f\libbcc.a(isr.c.o)
                              c:/opt/bcc-2.0.2-gcc/bin/../sparc-gaisler-elf/bsp/leon2/leon/mfix-at697f\libbcc.a(interrupt_trap.S.o) (__bcc_isr_list)
c:/opt/bcc-2.0.2-gcc/bin/../sparc-gaisler-elf/bsp/leon2/leon/mfix-at697f\libbcc.a(int_nest.c.o)
                              c:/opt/bcc-2.0.2-gcc/bin/../sparc-gaisler-elf/bsp/leon2/leon/mfix-at697f\libbcc.a(interrupt_trap.S.o) (__bcc_int_nest)
c:/opt/bcc-2.0.2-gcc/bin/../sparc-gaisler-elf/bsp/leon2/leon/mfix-at697f\libbcc.a(init.S.o)
                              c:/opt/bcc-2.0.2-gcc/bin/../sparc-gaisler-elf/bsp/leon2/leon/mfix-at697f\libbcc.a(reset_trap_mvt.S.o) (__bcc_init40)
c:/opt/bcc-2.0.2-gcc/bin/../sparc-gaisler-elf/bsp/leon2/leon/mfix-at697f\libbcc.a(leon_info.S.o)
                              c:/opt/bcc-2.0.2-gcc/bin/../sparc-gaisler-elf/bsp/leon2/leon/mfix-at697f/crt0.S.o (__bcc_get_leon_info)
c:/opt/bcc-2.0.2-gcc/bin/../sparc-gaisler-elf/bsp/leon2/leon/mfix-at697f\libbcc.a(dwzero.S.o)
                              c:/opt/bcc-2.0.2-gcc/bin/../sparc-gaisler-elf/bsp/leon2/leon/mfix-at697f/crt0.S.o (bcc_dwzero)
c:/opt/bcc-2.0.2-gcc/bin/../sparc-gaisler-elf/bsp/leon2/leon/mfix-at697f\libbcc.a(copy_data.c.o)
                              c:/opt/bcc-2.0.2-gcc/bin/../sparc-gaisler-elf/bsp/leon2/leon/mfix-at697f/crt0.S.o (__bcc_copy_data)
c:/opt/bcc-2.0.2-gcc/bin/../sparc-gaisler-elf/bsp/leon2/leon/mfix-at697f\libbcc.a(lowlevel.S.o)
                              c:/opt/bcc-2.0.2-gcc/bin/../sparc-gaisler-elf/bsp/leon2/leon/mfix-at697f\libbcc.a(trap.c.o) (bcc_get_tbr)
c:/opt/bcc-2.0.2-gcc/bin/../sparc-gaisler-elf/bsp/leon2/leon/mfix-at697f\libbcc.a(lowlevel_leon2.S.o)
                              C:\Users\ajarr\AppData\Local\Temp\cc6epILV.o (bcc_flush_cache)
c:/opt/bcc-2.0.2-gcc/bin/../sparc-gaisler-elf/bsp/leon2/leon/mfix-at697f\libbcc.a(int_leon2.c.o)
                              C:\Users\ajarr\AppData\Local\Temp\cc6epILV.o (bcc_int_unmask)
c:/opt/bcc-2.0.2-gcc/bin/../sparc-gaisler-elf/bsp/leon2/leon/mfix-at697f\libbcc.a(int_leon2_get_source.c.o)
                              c:/opt/bcc-2.0.2-gcc/bin/../sparc-gaisler-elf/bsp/leon2/leon/mfix-at697f\libbcc.a(interrupt_trap.S.o) (__bcc_int_get_source)
c:/opt/bcc-2.0.2-gcc/bin/../sparc-gaisler-elf/bsp/leon2/leon/mfix-at697f\libbcc.a(int_leon2_init.c.o)
                              c:/opt/bcc-2.0.2-gcc/bin/../sparc-gaisler-elf/bsp/leon2/leon/mfix-at697f/crt0.S.o (__bcc_int_init)
c:/opt/bcc-2.0.2-gcc/bin/../sparc-gaisler-elf/bsp/leon2/leon/mfix-at697f\libbcc.a(con_leon2.c.o)
                              c:/opt/bcc-2.0.2-gcc/bin/../sparc-gaisler-elf/bsp/leon2/leon/mfix-at697f/crt0.S.o (__bcc_con_init)
c:/opt/bcc-2.0.2-gcc/bin/../sparc-gaisler-elf/bsp/leon2/leon/mfix-at697f\libbcc.a(timer_leon2.c.o)
                              c:/opt/bcc-2.0.2-gcc/bin/../sparc-gaisler-elf/bsp/leon2/leon/mfix-at697f/crt0.S.o (__bcc_timer_init)
c:/opt/bcc-2.0.2-gcc/bin/../sparc-gaisler-elf/bsp/leon2/leon/mfix-at697f\libbcc.a(set_pil.S.o)
                              c:/opt/bcc-2.0.2-gcc/bin/../sparc-gaisler-elf/bsp/leon2/leon/mfix-at697f\libbcc.a(int_leon2.c.o) (bcc_set_pil)
c:/opt/bcc-2.0.2-gcc/bin/../sparc-gaisler-elf/bsp/leon2/leon/mfix-at697f\libbcc.a(int_leon2_handle.c.o)
                              c:/opt/bcc-2.0.2-gcc/bin/../sparc-gaisler-elf/bsp/leon2/leon/mfix-at697f\libbcc.a(int_leon2.c.o) (__bcc_int_handle)
c:/opt/bcc-2.0.2-gcc/bin/../sparc-gaisler-elf/bsp/leon2/leon/mfix-at697f\libbcc.a(con_handle.c.o)
                              c:/opt/bcc-2.0.2-gcc/bin/../sparc-gaisler-elf/bsp/leon2/leon/mfix-at697f\libbcc.a(con_leon2.c.o) (__bcc_con_handle)
c:/opt/bcc-2.0.2-gcc/bin/../sparc-gaisler-elf/bsp/leon2/leon/mfix-at697f\libbcc.a(timer_handle.c.o)
                              c:/opt/bcc-2.0.2-gcc/bin/../sparc-gaisler-elf/bsp/leon2/leon/mfix-at697f\libbcc.a(timer_leon2.c.o) (__bcc_timer_handle)
c:/opt/bcc-2.0.2-gcc/bin/../lib/gcc/sparc-gaisler-elf/7.2.0/../../../../sparc-gaisler-elf/lib/leon/mfix-at697f\libc.a(lib_a-atexit.o)
                              c:/opt/bcc-2.0.2-gcc/bin/../sparc-gaisler-elf/bsp/leon2/leon/mfix-at697f/crt0.S.o (atexit)
c:/opt/bcc-2.0.2-gcc/bin/../lib/gcc/sparc-gaisler-elf/7.2.0/../../../../sparc-gaisler-elf/lib/leon/mfix-at697f\libc.a(lib_a-errno.o)
                              c:/opt/bcc-2.0.2-gcc/bin/../lib/gcc/sparc-gaisler-elf/7.2.0/../../../../sparc-gaisler-elf/lib/leon/mfix-at697f\libm.a(lib_a-w_acos.o) (__errno)
c:/opt/bcc-2.0.2-gcc/bin/../lib/gcc/sparc-gaisler-elf/7.2.0/../../../../sparc-gaisler-elf/lib/leon/mfix-at697f\libc.a(lib_a-exit.o)
                              c:/opt/bcc-2.0.2-gcc/bin/../sparc-gaisler-elf/bsp/leon2/leon/mfix-at697f/crt0.S.o (exit)
c:/opt/bcc-2.0.2-gcc/bin/../lib/gcc/sparc-gaisler-elf/7.2.0/../../../../sparc-gaisler-elf/lib/leon/mfix-at697f\libc.a(lib_a-impure.o)
                              c:/opt/bcc-2.0.2-gcc/bin/../lib/gcc/sparc-gaisler-elf/7.2.0/../../../../sparc-gaisler-elf/lib/leon/mfix-at697f\libc.a(lib_a-exit.o) (_global_impure_ptr)
c:/opt/bcc-2.0.2-gcc/bin/../lib/gcc/sparc-gaisler-elf/7.2.0/../../../../sparc-gaisler-elf/lib/leon/mfix-at697f\libc.a(lib_a-memcpy.o)
                              C:\Users\ajarr\AppData\Local\Temp\cczww0RR.o (memcpy)
c:/opt/bcc-2.0.2-gcc/bin/../lib/gcc/sparc-gaisler-elf/7.2.0/../../../../sparc-gaisler-elf/lib/leon/mfix-at697f\libc.a(lib_a-__atexit.o)
                              c:/opt/bcc-2.0.2-gcc/bin/../lib/gcc/sparc-gaisler-elf/7.2.0/../../../../sparc-gaisler-elf/lib/leon/mfix-at697f\libc.a(lib_a-atexit.o) (__register_exitproc)
c:/opt/bcc-2.0.2-gcc/bin/../lib/gcc/sparc-gaisler-elf/7.2.0/../../../../sparc-gaisler-elf/lib/leon/mfix-at697f\libc.a(lib_a-__call_atexit.o)
                              c:/opt/bcc-2.0.2-gcc/bin/../lib/gcc/sparc-gaisler-elf/7.2.0/../../../../sparc-gaisler-elf/lib/leon/mfix-at697f\libc.a(lib_a-exit.o) (__call_exitprocs)
c:/opt/bcc-2.0.2-gcc/bin/../sparc-gaisler-elf/bsp/leon2/leon/mfix-at697f\libbcc.a(_exit.S.o)
                              c:/opt/bcc-2.0.2-gcc/bin/../lib/gcc/sparc-gaisler-elf/7.2.0/../../../../sparc-gaisler-elf/lib/leon/mfix-at697f\libc.a(lib_a-exit.o) (_exit)

Allocating common symbols
Common symbol       size              file

inclo               0x8               C:\Users\ajarr\AppData\Local\Temp\cceA7QRW.o
rk_Qk               0x288             C:\Users\ajarr\AppData\Local\Temp\cceA7QRW.o
DPM_Polarity        0xc               C:\Users\ajarr\AppData\Local\Temp\cceA7QRW.o
rl                  0x8               C:\Users\ajarr\AppData\Local\Temp\cceA7QRW.o
CB_Q_propagation    0x4               C:\Users\ajarr\AppData\Local\Temp\cceA7QRW.o
TC_lat_station      0x8               C:\Users\ajarr\AppData\Local\Temp\cceA7QRW.o
BDOT_Reduction_Count
                    0x4               C:\Users\ajarr\AppData\Local\Temp\cceA7QRW.o
vz                  0x8               C:\Users\ajarr\AppData\Local\Temp\cceA7QRW.o
i_jday              0x4               C:\Users\ajarr\AppData\Local\Temp\cceA7QRW.o
Rho                 0x8               C:\Users\ajarr\AppData\Local\Temp\cceA7QRW.o
OrbitModel_Start    0x4               C:\Users\ajarr\AppData\Local\Temp\cceA7QRW.o
delmo               0x8               C:\Users\ajarr\AppData\Local\Temp\cceA7QRW.o
d_DAD               0x8               C:\Users\ajarr\AppData\Local\Temp\cceA7QRW.o
q_prop_out          0x20              C:\Users\ajarr\AppData\Local\Temp\cceA7QRW.o
ActWhMom            0x20              C:\Users\ajarr\AppData\Local\Temp\cceA7QRW.o
JDTDT               0x8               C:\Users\ajarr\AppData\Local\Temp\cceA7QRW.o
Z_EPO2ECI           0x18              C:\Users\ajarr\AppData\Local\Temp\cceA7QRW.o
sampling_rate_count
                    0x4               C:\Users\ajarr\AppData\Local\Temp\ccvsnmY2.o
DeltaT_Updated      0x4               C:\Users\ajarr\AppData\Local\Temp\cceA7QRW.o
J_MAGAD             0x4               C:\Users\ajarr\AppData\Local\Temp\cceA7QRW.o
TC_wh_speed_thres   0x8               C:\Users\ajarr\AppData\Local\Temp\cceA7QRW.o
rw_count_test       0x1               C:\Users\ajarr\AppData\Local\Temp\ccoK9PBU.o
trueanomoly_GPS     0x8               C:\Users\ajarr\AppData\Local\Temp\cceA7QRW.o
latitude_temp       0x8               C:\Users\ajarr\AppData\Local\Temp\cceA7QRW.o
wcreci              0x18              C:\Users\ajarr\AppData\Local\Temp\cceA7QRW.o
xlm                 0x8               C:\Users\ajarr\AppData\Local\Temp\cceA7QRW.o
Qk_temp4            0x8               C:\Users\ajarr\AppData\Local\Temp\cceA7QRW.o
inter_HAL_IMU_Data  0x4               C:\Users\ajarr\AppData\Local\Temp\cczww0RR.o
tut                 0x8               C:\Users\ajarr\AppData\Local\Temp\cceA7QRW.o
TC_HAL_SA_Heater_Timer
                    0x4               C:\Users\ajarr\AppData\Local\Temp\ccc7OliV.o
del                 0x8               C:\Users\ajarr\AppData\Local\Temp\cceA7QRW.o
epochdays_sel       0x8               C:\Users\ajarr\AppData\Local\Temp\cceA7QRW.o
Orbit_Period_Comp   0x8               C:\Users\ajarr\AppData\Local\Temp\cceA7QRW.o
RW_Data_SlipFrame_TC
                    0x14              C:\Users\ajarr\AppData\Local\Temp\ccoK9PBU.o
agc_test            0x2               C:\Users\ajarr\AppData\Local\Temp\ccEKVXdT.o
t3                  0x8               C:\Users\ajarr\AppData\Local\Temp\cceA7QRW.o
HB                  0x18              C:\Users\ajarr\AppData\Local\Temp\cceA7QRW.o
Out_Latch_1         0x2               C:\Users\ajarr\AppData\Local\Temp\cc6epILV.o
Tdes                0x18              C:\Users\ajarr\AppData\Local\Temp\cceA7QRW.o
wkm                 0x8               C:\Users\ajarr\AppData\Local\Temp\cceA7QRW.o
IO_Latch_Register_5_Data
                    0x4               C:\Users\ajarr\AppData\Local\Temp\cc6epILV.o
func_prev_DAD       0x8               C:\Users\ajarr\AppData\Local\Temp\cceA7QRW.o
sun_quadrant        0x4               C:\Users\ajarr\AppData\Local\Temp\cczww0RR.o
pk_plus             0x288             C:\Users\ajarr\AppData\Local\Temp\cceA7QRW.o
PosR_Deployed       0x4               C:\Users\ajarr\AppData\Local\Temp\cceA7QRW.o
one_by_2            0x8               C:\Users\ajarr\AppData\Local\Temp\cceA7QRW.o
nodedf              0x8               C:\Users\ajarr\AppData\Local\Temp\cceA7QRW.o
PL_Exe_Flag         0x4               C:\Users\ajarr\AppData\Local\Temp\cchY9yN1.o
BNorth              0x8               C:\Users\ajarr\AppData\Local\Temp\cceA7QRW.o
NRB_sunmag          0xc0              C:\Users\ajarr\AppData\Local\Temp\cceA7QRW.o
GPS_Status_Data     0x4               C:\Users\ajarr\AppData\Local\Temp\ccecVsE3.o
B_rawdata           0xc               C:\Users\ajarr\AppData\Local\Temp\cczww0RR.o
Del_Q               0x20              C:\Users\ajarr\AppData\Local\Temp\cceA7QRW.o
longitude_tan_den   0x8               C:\Users\ajarr\AppData\Local\Temp\cceA7QRW.o
pow_psisq           0x8               C:\Users\ajarr\AppData\Local\Temp\cceA7QRW.o
wcrecef             0x18              C:\Users\ajarr\AppData\Local\Temp\cceA7QRW.o
argpdf              0x8               C:\Users\ajarr\AppData\Local\Temp\cceA7QRW.o
GPS_OBT_Read_2      0x2               C:\Users\ajarr\AppData\Local\Temp\ccecVsE3.o
inter_HAL_TM_Write_Word_Count
                    0x4               C:\Users\ajarr\AppData\Local\Temp\cc6epILV.o
rvdot               0x8               C:\Users\ajarr\AppData\Local\Temp\cceA7QRW.o
RW_Data_SlipFrame_Init
                    0x14              C:\Users\ajarr\AppData\Local\Temp\ccoK9PBU.o
q_by_two            0x60              C:\Users\ajarr\AppData\Local\Temp\cceA7QRW.o
RW_TM_ptr           0x4               C:\Users\ajarr\AppData\Local\Temp\ccoK9PBU.o
SS_M8               0x8               C:\Users\ajarr\AppData\Local\Temp\cceA7QRW.o
TC_StationTracking  0x4               C:\Users\ajarr\AppData\Local\Temp\cceA7QRW.o
mag_noise           0x8               C:\Users\ajarr\AppData\Local\Temp\cceA7QRW.o
IMU_On              0x4               C:\Users\ajarr\AppData\Local\Temp\cczww0RR.o
Y_SVO2ECI           0x18              C:\Users\ajarr\AppData\Local\Temp\cceA7QRW.o
cc2                 0x8               C:\Users\ajarr\AppData\Local\Temp\cceA7QRW.o
TC_gain_select_u    0x1c              C:\Users\ajarr\AppData\Local\Temp\cc6epILV.o
TC_delAT            0x8               C:\Users\ajarr\AppData\Local\Temp\cceA7QRW.o
mat_sm_DataCounter  0x4               C:\Users\ajarr\AppData\Local\Temp\cceA7QRW.o
delomg              0x8               C:\Users\ajarr\AppData\Local\Temp\cceA7QRW.o
root_DAD            0x8               C:\Users\ajarr\AppData\Local\Temp\cceA7QRW.o
ST_TC_history_Buffer
                    0x100             C:\Users\ajarr\AppData\Local\Temp\cc6epILV.o
rt_tm_frame_finish  0x1               C:\Users\ajarr\AppData\Local\Temp\cc6epILV.o
func_DAD            0x8               C:\Users\ajarr\AppData\Local\Temp\cceA7QRW.o
TC_ptr_count        0x4               C:\Users\ajarr\AppData\Local\Temp\cczww0RR.o
minor_cycle_counter_test
                    0x4               C:\Users\ajarr\AppData\Local\Temp\cc6epILV.o
cosi                0x8               C:\Users\ajarr\AppData\Local\Temp\cceA7QRW.o
xhdot1              0x8               C:\Users\ajarr\AppData\Local\Temp\cceA7QRW.o
ibexp_TLE_tc        0x8               C:\Users\ajarr\AppData\Local\Temp\cceA7QRW.o
omgcof              0x8               C:\Users\ajarr\AppData\Local\Temp\cceA7QRW.o
phi_11_temp4        0x48              C:\Users\ajarr\AppData\Local\Temp\cceA7QRW.o
eeprom_cur_addr     0x4               C:\Users\ajarr\AppData\Local\Temp\cc6epILV.o
w_REF               0x18              C:\Users\ajarr\AppData\Local\Temp\cceA7QRW.o
tempe               0x8               C:\Users\ajarr\AppData\Local\Temp\cceA7QRW.o
mu_m                0x18              C:\Users\ajarr\AppData\Local\Temp\cceA7QRW.o
el2                 0x8               C:\Users\ajarr\AppData\Local\Temp\cceA7QRW.o
MUX_data2           0x2               C:\Users\ajarr\AppData\Local\Temp\ccIUYBk4.o
Q_angle             0x8               C:\Users\ajarr\AppData\Local\Temp\cceA7QRW.o
BDOT_Counter        0x4               C:\Users\ajarr\AppData\Local\Temp\cczww0RR.o
a_DAD               0x8               C:\Users\ajarr\AppData\Local\Temp\cceA7QRW.o
gpstestbuff         0x44              C:\Users\ajarr\AppData\Local\Temp\ccecVsE3.o
Orbit_Period        0x8               C:\Users\ajarr\AppData\Local\Temp\cceA7QRW.o
ADC_Buffer_Addr     0x4               C:\Users\ajarr\AppData\Local\Temp\ccEKVXdT.o
Normal_st_table_page1
                    0x4               C:\Users\ajarr\AppData\Local\Temp\cc6epILV.o
hk_xk_minus         0x18              C:\Users\ajarr\AppData\Local\Temp\cceA7QRW.o
Roll_pos_D          0x8               C:\Users\ajarr\AppData\Local\Temp\cczww0RR.o
BlkCurrent_Cmd      0x4               C:\Users\ajarr\AppData\Local\Temp\ccIUYBk4.o
ADC_Status_Data     0x4               C:\Users\ajarr\AppData\Local\Temp\ccEKVXdT.o
count_tc_hist       0x4               C:\Users\ajarr\AppData\Local\Temp\cc6epILV.o
MUX_1               0x2               C:\Users\ajarr\AppData\Local\Temp\cc6epILV.o
GPS_Config_ptr      0x4               C:\Users\ajarr\AppData\Local\Temp\ccecVsE3.o
nutation            0x48              C:\Users\ajarr\AppData\Local\Temp\cceA7QRW.o
GPS1                0x40              C:\Users\ajarr\AppData\Local\Temp\cc6epILV.o
bstar_sel           0x8               C:\Users\ajarr\AppData\Local\Temp\cceA7QRW.o
Y_SFDO2ECI          0x18              C:\Users\ajarr\AppData\Local\Temp\cceA7QRW.o
ss_data_2           0x10              C:\Users\ajarr\AppData\Local\Temp\ccEKVXdT.o
az1                 0x8               C:\Users\ajarr\AppData\Local\Temp\cczww0RR.o
TC_max_whspeed      0x8               C:\Users\ajarr\AppData\Local\Temp\cceA7QRW.o
inter_HAL_IMU_Configure_Address
                    0x4               C:\Users\ajarr\AppData\Local\Temp\cczww0RR.o
Zt_DAD              0x18              C:\Users\ajarr\AppData\Local\Temp\cceA7QRW.o
sine_of_Wk1_Delta   0x8               C:\Users\ajarr\AppData\Local\Temp\cceA7QRW.o
Special_st_table_page3
                    0x4               C:\Users\ajarr\AppData\Local\Temp\cc6epILV.o
delmo_temp          0x8               C:\Users\ajarr\AppData\Local\Temp\cceA7QRW.o
temp_or_init        0x8               C:\Users\ajarr\AppData\Local\Temp\cceA7QRW.o
vsatx_eci           0x8               C:\Users\ajarr\AppData\Local\Temp\cceA7QRW.o
TTDT                0x8               C:\Users\ajarr\AppData\Local\Temp\cceA7QRW.o
block_test          0x1               C:\Users\ajarr\AppData\Local\Temp\cczww0RR.o
mm                  0x8               C:\Users\ajarr\AppData\Local\Temp\cceA7QRW.o
Norm_ST_Table       0x2028            C:\Users\ajarr\AppData\Local\Temp\cc6epILV.o
ecc_temp1           0x8               C:\Users\ajarr\AppData\Local\Temp\cceA7QRW.o
bstar_tc            0x8               C:\Users\ajarr\AppData\Local\Temp\cceA7QRW.o
intermediate        0x8               C:\Users\ajarr\AppData\Local\Temp\cceA7QRW.o
gN_MAGAD            0x4               C:\Users\ajarr\AppData\Local\Temp\cceA7QRW.o
Delta_TLE           0x4               C:\Users\ajarr\AppData\Local\Temp\cceA7QRW.o
tos                 0x4               C:\Users\ajarr\AppData\Local\Temp\cczww0RR.o
eeprom_chksum       0x4               C:\Users\ajarr\AppData\Local\Temp\cc6epILV.o
rtom                0x8               C:\Users\ajarr\AppData\Local\Temp\cceA7QRW.o
sinu                0x8               C:\Users\ajarr\AppData\Local\Temp\cceA7QRW.o
CB_OrbitModel       0x4               C:\Users\ajarr\AppData\Local\Temp\cceA7QRW.o
j                   0x4               C:\Users\ajarr\AppData\Local\Temp\cceA7QRW.o
Ry                  0x48              C:\Users\ajarr\AppData\Local\Temp\cceA7QRW.o
ch_obs_whsp         0x20              C:\Users\ajarr\AppData\Local\Temp\cceA7QRW.o
Pl_tm_data          0x100             C:\Users\ajarr\AppData\Local\Temp\cc6epILV.o
TM                  0x8b9             C:\Users\ajarr\AppData\Local\Temp\cc6epILV.o
k_kf                0x4               C:\Users\ajarr\AppData\Local\Temp\cceA7QRW.o
u_perp              0x18              C:\Users\ajarr\AppData\Local\Temp\cceA7QRW.o
SWHW_STATUS         0x4               C:\Users\ajarr\AppData\Local\Temp\cc6epILV.o
cp_cnt1             0x4               C:\Users\ajarr\AppData\Local\Temp\ccvsnmY2.o
Ton                 0xc               C:\Users\ajarr\AppData\Local\Temp\cceA7QRW.o
determinant         0x8               C:\Users\ajarr\AppData\Local\Temp\cceA7QRW.o
Pitch_MTREnable     0x4               C:\Users\ajarr\AppData\Local\Temp\cceA7QRW.o
hils_ptr_sh         0x4               C:\Users\ajarr\AppData\Local\Temp\cchY9yN1.o
TC_OBT_Start        0x4               C:\Users\ajarr\AppData\Local\Temp\ccvsnmY2.o
gyrodet_B           0x18              C:\Users\ajarr\AppData\Local\Temp\cczww0RR.o
SunAcq3ThreeAx_trsit_cnt
                    0x4               C:\Users\ajarr\AppData\Local\Temp\cceA7QRW.o
TTDB2               0x8               C:\Users\ajarr\AppData\Local\Temp\cceA7QRW.o
eccsq               0x8               C:\Users\ajarr\AppData\Local\Temp\cceA7QRW.o
eccanomaly          0x8               C:\Users\ajarr\AppData\Local\Temp\cceA7QRW.o
TC_count            0x2               C:\Users\ajarr\AppData\Local\Temp\ccIUYBk4.o
spin_up_avg_count   0x4               C:\Users\ajarr\AppData\Local\Temp\cceA7QRW.o
TC_GPS2TLE_Switch   0x4               C:\Users\ajarr\AppData\Local\Temp\cceA7QRW.o
ecc_GPS             0x8               C:\Users\ajarr\AppData\Local\Temp\cceA7QRW.o
NOB_SFC_Init        0x4               C:\Users\ajarr\AppData\Local\Temp\ccoK9PBU.o
radialdistance      0x8               C:\Users\ajarr\AppData\Local\Temp\cceA7QRW.o
BNorth_old          0x8               C:\Users\ajarr\AppData\Local\Temp\cceA7QRW.o
uy                  0x8               C:\Users\ajarr\AppData\Local\Temp\cceA7QRW.o
pl_configure_data   0x4               C:\Users\ajarr\AppData\Local\Temp\cchY9yN1.o
DFCcountHigh        0x4               C:\Users\ajarr\AppData\Local\Temp\cceA7QRW.o
hr_TLE_tc           0x4               C:\Users\ajarr\AppData\Local\Temp\cceA7QRW.o
Nodearray           0x2ee0            C:\Users\ajarr\AppData\Local\Temp\ccIUYBk4.o
eSpaceCraftMode     0x4               C:\Users\ajarr\AppData\Local\Temp\cceA7QRW.o
q_magad             0x350             C:\Users\ajarr\AppData\Local\Temp\cceA7QRW.o
aynl                0x8               C:\Users\ajarr\AppData\Local\Temp\cceA7QRW.o
perigee             0x8               C:\Users\ajarr\AppData\Local\Temp\cceA7QRW.o
K_DAD               0x4               C:\Users\ajarr\AppData\Local\Temp\cceA7QRW.o
gps_test_counter    0x4               C:\Users\ajarr\AppData\Local\Temp\ccecVsE3.o
SS_prcd_data_ptr    0x4               C:\Users\ajarr\AppData\Local\Temp\cczww0RR.o
Day_Of_Year_DeltaT  0x8               C:\Users\ajarr\AppData\Local\Temp\cceA7QRW.o
Del_R_theta         0x8               C:\Users\ajarr\AppData\Local\Temp\cceA7QRW.o
Z_SVO2ECI           0x18              C:\Users\ajarr\AppData\Local\Temp\cceA7QRW.o
heater_update_buffer
                    0x40              C:\Users\ajarr\AppData\Local\Temp\ccoo9rYu.o
ST_TCH_frame_count  0x2               C:\Users\ajarr\AppData\Local\Temp\cc6epILV.o
TCH_dump_finish     0x4               C:\Users\ajarr\AppData\Local\Temp\cc6epILV.o
UT1                 0x8               C:\Users\ajarr\AppData\Local\Temp\cceA7QRW.o
nut_temp            0x48              C:\Users\ajarr\AppData\Local\Temp\cceA7QRW.o
SB_RED              0x18              C:\Users\ajarr\AppData\Local\Temp\cczww0RR.o
Major_Cycle_Count   0x4               C:\Users\ajarr\AppData\Local\Temp\cc6epILV.o
GPS_msg_header_MSB  0x4               C:\Users\ajarr\AppData\Local\Temp\ccecVsE3.o
inter_TM_Pl_Buffer  0x4               C:\Users\ajarr\AppData\Local\Temp\cc6epILV.o
ActuationCycle      0x4               C:\Users\ajarr\AppData\Local\Temp\cceA7QRW.o
inter_sunsensor_i   0x4               C:\Users\ajarr\AppData\Local\Temp\cczww0RR.o
T_RWBn              0x18              C:\Users\ajarr\AppData\Local\Temp\cceA7QRW.o
SC6ImaxF            0x8               C:\Users\ajarr\AppData\Local\Temp\cczww0RR.o
Roll_MTR_Pol_Reversal
                    0x4               C:\Users\ajarr\AppData\Local\Temp\cceA7QRW.o
GYRO_Counter        0x4               C:\Users\ajarr\AppData\Local\Temp\cczww0RR.o
trueanomoly         0x8               C:\Users\ajarr\AppData\Local\Temp\cceA7QRW.o
inter_ST_TC_TM_Minor_Cycle_Count
                    0x4               C:\Users\ajarr\AppData\Local\Temp\cc6epILV.o
ST_normal           0x148             C:\Users\ajarr\AppData\Local\Temp\cc6epILV.o
temp2               0x8               C:\Users\ajarr\AppData\Local\Temp\cceA7QRW.o
B_LPF               0x18              C:\Users\ajarr\AppData\Local\Temp\cczww0RR.o
TC_input_cmd        0x8               C:\Users\ajarr\AppData\Local\Temp\cc6epILV.o
TC_TLE_Elements_select
                    0x4               C:\Users\ajarr\AppData\Local\Temp\cceA7QRW.o
TLE_Select          0x4               C:\Users\ajarr\AppData\Local\Temp\cceA7QRW.o
PL_TM_write_Flag    0x4               C:\Users\ajarr\AppData\Local\Temp\cchY9yN1.o
cos_and_sin         0x80              C:\Users\ajarr\AppData\Local\Temp\cceA7QRW.o
TC_TLE_data         0x44              C:\Users\ajarr\AppData\Local\Temp\ccIUYBk4.o
SunAcq2DetMode_counter
                    0x4               C:\Users\ajarr\AppData\Local\Temp\cceA7QRW.o
ST_end_read         0x4               C:\Users\ajarr\AppData\Local\Temp\cc6epILV.o
thermistor_15       0x4               C:\Users\ajarr\AppData\Local\Temp\ccEKVXdT.o
TC_min_whspeed      0x8               C:\Users\ajarr\AppData\Local\Temp\cceA7QRW.o
rw_init             0xb               C:\Users\ajarr\AppData\Local\Temp\ccoK9PBU.o
Hils_ptr            0x4               C:\Users\ajarr\AppData\Local\Temp\cchY9yN1.o
f                   0x28              C:\Users\ajarr\AppData\Local\Temp\cceA7QRW.o
ST_start_read       0x4               C:\Users\ajarr\AppData\Local\Temp\cc6epILV.o
TC_MDk              0x8               C:\Users\ajarr\AppData\Local\Temp\cceA7QRW.o
Vel_ECIn            0x18              C:\Users\ajarr\AppData\Local\Temp\cceA7QRW.o
UTC_mon_GPS         0x4               C:\Users\ajarr\AppData\Local\Temp\cceA7QRW.o
Antenna_ACK         0x2               C:\Users\ajarr\AppData\Local\Temp\ccc7OliV.o
B2wh_mat            0x60              C:\Users\ajarr\AppData\Local\Temp\cceA7QRW.o
SC5                 0x8               C:\Users\ajarr\AppData\Local\Temp\cczww0RR.o
Delta_by2           0x8               C:\Users\ajarr\AppData\Local\Temp\cceA7QRW.o
Q_EPO2ECI           0x20              C:\Users\ajarr\AppData\Local\Temp\cceA7QRW.o
inter_imu_i         0x4               C:\Users\ajarr\AppData\Local\Temp\cczww0RR.o
old_cos             0x8               C:\Users\ajarr\AppData\Local\Temp\cceA7QRW.o
flag_for_test       0x4               C:\Users\ajarr\AppData\Local\Temp\ccvsnmY2.o
Not_Deployed        0x4               C:\Users\ajarr\AppData\Local\Temp\cceA7QRW.o
ADC_Buffer          0xbc              C:\Users\ajarr\AppData\Local\Temp\cc6epILV.o
eccanomaly_GPS      0x8               C:\Users\ajarr\AppData\Local\Temp\cceA7QRW.o
sa_data             0x2               C:\Users\ajarr\AppData\Local\Temp\ccc7OliV.o
angmomentumvec      0x18              C:\Users\ajarr\AppData\Local\Temp\cceA7QRW.o
B_RPY               0x18              C:\Users\ajarr\AppData\Local\Temp\cczww0RR.o
out_Quat_norm       0x20              C:\Users\ajarr\AppData\Local\Temp\cceA7QRW.o
cc5                 0x8               C:\Users\ajarr\AppData\Local\Temp\cceA7QRW.o
gast                0x8               C:\Users\ajarr\AppData\Local\Temp\cceA7QRW.o
TC_ST_Table_Row_No  0x4               C:\Users\ajarr\AppData\Local\Temp\cc6epILV.o
IMU1_DATA           0x30              C:\Users\ajarr\AppData\Local\Temp\cc6epILV.o
temp_magad          0x8               C:\Users\ajarr\AppData\Local\Temp\cceA7QRW.o
nut_sid_temp        0x48              C:\Users\ajarr\AppData\Local\Temp\cceA7QRW.o
sec_sel             0x8               C:\Users\ajarr\AppData\Local\Temp\cceA7QRW.o
K_MAGAD             0x4               C:\Users\ajarr\AppData\Local\Temp\cceA7QRW.o
B_REF               0x18              C:\Users\ajarr\AppData\Local\Temp\cceA7QRW.o
ST_Out_Latch_3      0x2               C:\Users\ajarr\AppData\Local\Temp\cc6epILV.o
omecc               0x8               C:\Users\ajarr\AppData\Local\Temp\cceA7QRW.o
del_v0a             0x8               C:\Users\ajarr\AppData\Local\Temp\cceA7QRW.o
argofperigee        0x8               C:\Users\ajarr\AppData\Local\Temp\cceA7QRW.o
phi_k_T             0x288             C:\Users\ajarr\AppData\Local\Temp\cceA7QRW.o
argpo_tc            0x8               C:\Users\ajarr\AppData\Local\Temp\cceA7QRW.o
eSafeMode           0x4               C:\Users\ajarr\AppData\Local\Temp\cceA7QRW.o
Special_source      0x100             C:\Users\ajarr\AppData\Local\Temp\cc6epILV.o
Alti_GPS            0x8               C:\Users\ajarr\AppData\Local\Temp\cceA7QRW.o
PL_2_on_off_flag    0x4               C:\Users\ajarr\AppData\Local\Temp\cchY9yN1.o
SC5ImaxF            0x8               C:\Users\ajarr\AppData\Local\Temp\cczww0RR.o
TC_wAD_BODYmaxThYaw
                    0x8               C:\Users\ajarr\AppData\Local\Temp\cceA7QRW.o
IMU2_DATA           0x30              C:\Users\ajarr\AppData\Local\Temp\cc6epILV.o
T_RWB               0x18              C:\Users\ajarr\AppData\Local\Temp\cceA7QRW.o
test_3              0x8               C:\Users\ajarr\AppData\Local\Temp\cczww0RR.o
GPS_Config_Status   0x4               C:\Users\ajarr\AppData\Local\Temp\ccecVsE3.o
GPS_Config_Msg      0xc               C:\Users\ajarr\AppData\Local\Temp\ccecVsE3.o
s_magad             0x8               C:\Users\ajarr\AppData\Local\Temp\cceA7QRW.o
TC_SS_Main_Cells_Sel
                    0x4               C:\Users\ajarr\AppData\Local\Temp\cczww0RR.o
Sunlit_presence_timer
                    0x4               C:\Users\ajarr\AppData\Local\Temp\cczww0RR.o
Toff                0xc               C:\Users\ajarr\AppData\Local\Temp\cceA7QRW.o
rdotrst             0x8               C:\Users\ajarr\AppData\Local\Temp\cceA7QRW.o
pl_cmd_id           0x4               C:\Users\ajarr\AppData\Local\Temp\cchY9yN1.o
Spacecraft_Mode     0x4               C:\Users\ajarr\AppData\Local\Temp\cc6epILV.o
qerror              0x4               C:\Users\ajarr\AppData\Local\Temp\ccnWSFNQ.o
B_NED               0x18              C:\Users\ajarr\AppData\Local\Temp\cceA7QRW.o
alpha_2RW           0x8               C:\Users\ajarr\AppData\Local\Temp\cceA7QRW.o
temp1_or_init       0x8               C:\Users\ajarr\AppData\Local\Temp\cceA7QRW.o
prev_obs_whsp_ch    0x20              C:\Users\ajarr\AppData\Local\Temp\cceA7QRW.o
Wk1_one             0x48              C:\Users\ajarr\AppData\Local\Temp\cceA7QRW.o
d1                  0x8               C:\Users\ajarr\AppData\Local\Temp\cceA7QRW.o
coskp               0x8               C:\Users\ajarr\AppData\Local\Temp\cceA7QRW.o
TDB                 0x8               C:\Users\ajarr\AppData\Local\Temp\cceA7QRW.o
TC_ptr              0x4               C:\Users\ajarr\AppData\Local\Temp\ccoK9PBU.o
SunAcquisition2ThreeAxis_autotransit
                    0x4               C:\Users\ajarr\AppData\Local\Temp\cceA7QRW.o
rw_tc_count         0x4               C:\Users\ajarr\AppData\Local\Temp\ccoK9PBU.o
S_BODY              0x18              C:\Users\ajarr\AppData\Local\Temp\cczww0RR.o
AngDev_SAMtransit_thrsld
                    0x8               C:\Users\ajarr\AppData\Local\Temp\cczww0RR.o
Zt_Ssqr_Z_DAD       0x8               C:\Users\ajarr\AppData\Local\Temp\cceA7QRW.o
f_DataSort_SUNMAG   0x4               C:\Users\ajarr\AppData\Local\Temp\cceA7QRW.o
sine1               0x8               C:\Users\ajarr\AppData\Local\Temp\cceA7QRW.o
wheel_spin_logic    0x4               C:\Users\ajarr\AppData\Local\Temp\cceA7QRW.o
con42               0x8               C:\Users\ajarr\AppData\Local\Temp\cceA7QRW.o
inter_HAL_IMU_Control_Data
                    0x4               C:\Users\ajarr\AppData\Local\Temp\cczww0RR.o
normal_count1       0x4               C:\Users\ajarr\AppData\Local\Temp\ccvsnmY2.o
Epochyear_GPS       0x4               C:\Users\ajarr\AppData\Local\Temp\cceA7QRW.o
CB_DutyCycleGeneration
                    0x4               C:\Users\ajarr\AppData\Local\Temp\cceA7QRW.o
eeprom_blk_end_addr
                    0x4               C:\Users\ajarr\AppData\Local\Temp\cc6epILV.o
inclination_GPS     0x8               C:\Users\ajarr\AppData\Local\Temp\cceA7QRW.o
Roll_neg_D          0x8               C:\Users\ajarr\AppData\Local\Temp\cczww0RR.o
pl_data_rcvd        0x4               C:\Users\ajarr\AppData\Local\Temp\cchY9yN1.o
Matout341           0x18              C:\Users\ajarr\AppData\Local\Temp\cceA7QRW.o
wh2B_mat            0x60              C:\Users\ajarr\AppData\Local\Temp\cceA7QRW.o
ADCS_TC_data_command_Table
                    0xe4              C:\Users\ajarr\AppData\Local\Temp\cc6epILV.o
xmy                 0x8               C:\Users\ajarr\AppData\Local\Temp\cceA7QRW.o
gps_pulse_mic_cnt   0x2               C:\Users\ajarr\AppData\Local\Temp\ccecVsE3.o
gps_data_length     0x4               C:\Users\ajarr\AppData\Local\Temp\ccecVsE3.o
uuu                 0x8               C:\Users\ajarr\AppData\Local\Temp\cceA7QRW.o
TAI                 0x8               C:\Users\ajarr\AppData\Local\Temp\cceA7QRW.o
NMB_sunmag          0xc0              C:\Users\ajarr\AppData\Local\Temp\cceA7QRW.o
nodeo_GPS           0x8               C:\Users\ajarr\AppData\Local\Temp\cceA7QRW.o
TC_GPSvalidity_Threshold
                    0x4               C:\Users\ajarr\AppData\Local\Temp\cceA7QRW.o
CB_Torquer_Polarity_Check
                    0x4               C:\Users\ajarr\AppData\Local\Temp\cceA7QRW.o
x7thm1              0x8               C:\Users\ajarr\AppData\Local\Temp\cceA7QRW.o
GPIO_pins           0x2               C:\Users\ajarr\AppData\Local\Temp\cc6epILV.o
ak                  0x8               C:\Users\ajarr\AppData\Local\Temp\cceA7QRW.o
ecc_TLE_tc          0x8               C:\Users\ajarr\AppData\Local\Temp\cceA7QRW.o
Tv_wof              0x48              C:\Users\ajarr\AppData\Local\Temp\cceA7QRW.o
CB_AngularMomentumDumping
                    0x4               C:\Users\ajarr\AppData\Local\Temp\cceA7QRW.o
LossWhMomFilt       0x20              C:\Users\ajarr\AppData\Local\Temp\cceA7QRW.o
v0_rad_sec          0x20              C:\Users\ajarr\AppData\Local\Temp\cceA7QRW.o
TC_RW_ARC_Count_thres
                    0x4               C:\Users\ajarr\AppData\Local\Temp\cceA7QRW.o
temp12              0x8               C:\Users\ajarr\AppData\Local\Temp\cczww0RR.o
abc                 0x4               C:\Users\ajarr\AppData\Local\Temp\ccIUYBk4.o
Panel_Deployment    0x4               C:\Users\ajarr\AppData\Local\Temp\cczww0RR.o
del_temp            0x8               C:\Users\ajarr\AppData\Local\Temp\cceA7QRW.o
inter_Update_TM_With_ADC_byte_offset
                    0x4               C:\Users\ajarr\AppData\Local\Temp\ccEKVXdT.o
f_Sunlit_Presence_OBC
                    0x4               C:\Users\ajarr\AppData\Local\Temp\cceA7QRW.o
g                   0x780             C:\Users\ajarr\AppData\Local\Temp\cceA7QRW.o
rw_test_array       0x200             C:\Users\ajarr\AppData\Local\Temp\ccoK9PBU.o
TC_eesqrd           0x8               C:\Users\ajarr\AppData\Local\Temp\cceA7QRW.o
eeta                0x8               C:\Users\ajarr\AppData\Local\Temp\cceA7QRW.o
w_ABC               0x18              C:\Users\ajarr\AppData\Local\Temp\cczww0RR.o
test_attc           0x4               C:\Users\ajarr\AppData\Local\Temp\cczww0RR.o
xnode               0x8               C:\Users\ajarr\AppData\Local\Temp\cceA7QRW.o
tor_counter         0x4               C:\Users\ajarr\AppData\Local\Temp\cc6epILV.o
B_Rho               0x8               C:\Users\ajarr\AppData\Local\Temp\cceA7QRW.o
rdotl               0x8               C:\Users\ajarr\AppData\Local\Temp\cceA7QRW.o
QRD_vect_norm       0x8               C:\Users\ajarr\AppData\Local\Temp\cceA7QRW.o
Z_DAD               0x18              C:\Users\ajarr\AppData\Local\Temp\cceA7QRW.o
PL_TM_Status_flag   0x2               C:\Users\ajarr\AppData\Local\Temp\cchY9yN1.o
semimajoraxis       0x8               C:\Users\ajarr\AppData\Local\Temp\cceA7QRW.o
gmm                 0x4               C:\Users\ajarr\AppData\Local\Temp\cceA7QRW.o
S_REFn              0x18              C:\Users\ajarr\AppData\Local\Temp\cceA7QRW.o
mat_adj             0x48              C:\Users\ajarr\AppData\Local\Temp\cceA7QRW.o
TorquerPolaritySetFlag
                    0x4               C:\Users\ajarr\AppData\Local\Temp\cceA7QRW.o
temp_short          0x2               C:\Users\ajarr\AppData\Local\Temp\ccoK9PBU.o
CB_RefRate_Computation
                    0x4               C:\Users\ajarr\AppData\Local\Temp\cceA7QRW.o
B_IMU               0x18              C:\Users\ajarr\AppData\Local\Temp\cczww0RR.o
GPS_Elements_Available
                    0x4               C:\Users\ajarr\AppData\Local\Temp\cceA7QRW.o
NRBt_mag            0x240             C:\Users\ajarr\AppData\Local\Temp\cceA7QRW.o
Kk_Hk               0x288             C:\Users\ajarr\AppData\Local\Temp\cceA7QRW.o
Normal_source       0x100             C:\Users\ajarr\AppData\Local\Temp\cc6epILV.o
X_EPO2ECI           0x18              C:\Users\ajarr\AppData\Local\Temp\cceA7QRW.o
GPS_OBT_Read_1      0x2               C:\Users\ajarr\AppData\Local\Temp\ccecVsE3.o
cosim               0x8               C:\Users\ajarr\AppData\Local\Temp\cceA7QRW.o
CB_SpeedBasedMomentumDumping
                    0x4               C:\Users\ajarr\AppData\Local\Temp\cceA7QRW.o
mo_tc               0x8               C:\Users\ajarr\AppData\Local\Temp\cceA7QRW.o
i_comr              0x4               C:\Users\ajarr\AppData\Local\Temp\cceA7QRW.o
Dest_TC_final_end_addr
                    0x4               C:\Users\ajarr\AppData\Local\Temp\cc6epILV.o
MUX_3               0x2               C:\Users\ajarr\AppData\Local\Temp\cc6epILV.o
hr_sel              0x4               C:\Users\ajarr\AppData\Local\Temp\cceA7QRW.o
ab_test1            0x4               C:\Users\ajarr\AppData\Local\Temp\cczww0RR.o
ST_NM_Buffer        0x148             C:\Users\ajarr\AppData\Local\Temp\cc6epILV.o
inclm               0x8               C:\Users\ajarr\AppData\Local\Temp\cceA7QRW.o
TC_BDOT_Compute_Count
                    0x4               C:\Users\ajarr\AppData\Local\Temp\cceA7QRW.o
copy_frame_count    0x4               C:\Users\ajarr\AppData\Local\Temp\ccvsnmY2.o
mod_of_Wk1          0x8               C:\Users\ajarr\AppData\Local\Temp\cceA7QRW.o
qzms24_temp         0x8               C:\Users\ajarr\AppData\Local\Temp\cceA7QRW.o
DFriction_Compensation
                    0x4               C:\Users\ajarr\AppData\Local\Temp\cceA7QRW.o
S_DAD               0x48              C:\Users\ajarr\AppData\Local\Temp\cceA7QRW.o
input_latch_2       0x2               C:\Users\ajarr\AppData\Local\Temp\cc6epILV.o
TCH_full_dump_finish
                    0x4               C:\Users\ajarr\AppData\Local\Temp\cc6epILV.o
mm_temp             0x8               C:\Users\ajarr\AppData\Local\Temp\cceA7QRW.o
temp_temp           0x8               C:\Users\ajarr\AppData\Local\Temp\cceA7QRW.o
pk_HkT_Hk_Rk        0x48              C:\Users\ajarr\AppData\Local\Temp\cceA7QRW.o
TC_hist_data        0xfa00            C:\Users\ajarr\AppData\Local\Temp\cc6epILV.o
u_temp              0x8               C:\Users\ajarr\AppData\Local\Temp\cceA7QRW.o
TC_BDOT_Det_Thresh  0x8               C:\Users\ajarr\AppData\Local\Temp\cceA7QRW.o
NMB_NRBt            0x48              C:\Users\ajarr\AppData\Local\Temp\cceA7QRW.o
A3_magad            0x8               C:\Users\ajarr\AppData\Local\Temp\cceA7QRW.o
ecc_temp2           0x8               C:\Users\ajarr\AppData\Local\Temp\cceA7QRW.o
GPS_Buffer_Data     0x1a8             C:\Users\ajarr\AppData\Local\Temp\ccecVsE3.o
NOB_CRC_Init        0x4               C:\Users\ajarr\AppData\Local\Temp\ccoK9PBU.o
sun_sf              0x18              C:\Users\ajarr\AppData\Local\Temp\cczww0RR.o
year_GPS            0x4               C:\Users\ajarr\AppData\Local\Temp\cceA7QRW.o
AngDev_SMtransit_thrsld
                    0x8               C:\Users\ajarr\AppData\Local\Temp\cczww0RR.o
TC_exe              0x8               C:\Users\ajarr\AppData\Local\Temp\ccIUYBk4.o
Y_SPO2ECI           0x18              C:\Users\ajarr\AppData\Local\Temp\cceA7QRW.o
length              0x4               C:\Users\ajarr\AppData\Local\Temp\cchY9yN1.o
SA_thermistor1      0x4               C:\Users\ajarr\AppData\Local\Temp\ccEKVXdT.o
sigma_m             0x8               C:\Users\ajarr\AppData\Local\Temp\cceA7QRW.o
CB_ReferenceQuatComputation
                    0x4               C:\Users\ajarr\AppData\Local\Temp\cceA7QRW.o
sinkp               0x8               C:\Users\ajarr\AppData\Local\Temp\cceA7QRW.o
adj_S_DAD           0x48              C:\Users\ajarr\AppData\Local\Temp\cceA7QRW.o
p_magad             0x350             C:\Users\ajarr\AppData\Local\Temp\cceA7QRW.o
Roll_Pol            0x4               C:\Users\ajarr\AppData\Local\Temp\cckLW0x4.o
GYRO_max_threshold_count
                    0x4               C:\Users\ajarr\AppData\Local\Temp\cceA7QRW.o
block_test_array    0x190             C:\Users\ajarr\AppData\Local\Temp\ccIUYBk4.o
day_TLE_tc          0x4               C:\Users\ajarr\AppData\Local\Temp\cceA7QRW.o
Out_latch_4         0x2               C:\Users\ajarr\AppData\Local\Temp\cc6epILV.o
TC_SpeedDumpTime    0x4               C:\Users\ajarr\AppData\Local\Temp\cceA7QRW.o
H_retn              0x8               C:\Users\ajarr\AppData\Local\Temp\cceA7QRW.o
w_RPY               0x18              C:\Users\ajarr\AppData\Local\Temp\cczww0RR.o
Epochyear_TLE_tc    0x4               C:\Users\ajarr\AppData\Local\Temp\cceA7QRW.o
MY                  0x8               C:\Users\ajarr\AppData\Local\Temp\cceA7QRW.o
bstar               0x8               C:\Users\ajarr\AppData\Local\Temp\cceA7QRW.o
argpo_GPS           0x8               C:\Users\ajarr\AppData\Local\Temp\cceA7QRW.o
Q_SFDO2ECI          0x20              C:\Users\ajarr\AppData\Local\Temp\cceA7QRW.o
Ang_Deviation       0x8               C:\Users\ajarr\AppData\Local\Temp\cczww0RR.o
inter_HAL_IMU_Status_Data_2
                    0x2               C:\Users\ajarr\AppData\Local\Temp\cczww0RR.o
inter_at697f_checksum
                    0x4               C:\Users\ajarr\AppData\Local\Temp\cc6epILV.o
B_BODY_IMU2         0x18              C:\Users\ajarr\AppData\Local\Temp\cczww0RR.o
X_DAD               0x18              C:\Users\ajarr\AppData\Local\Temp\cceA7QRW.o
TC_wAD_updateTimeThresh
                    0x4               C:\Users\ajarr\AppData\Local\Temp\cceA7QRW.o
tempat              0x4               C:\Users\ajarr\AppData\Local\Temp\cczww0RR.o
Roll_neg_ND         0x8               C:\Users\ajarr\AppData\Local\Temp\cczww0RR.o
SunNPP_SAMtransit   0x4               C:\Users\ajarr\AppData\Local\Temp\cczww0RR.o
BLK_opn             0x1               C:\Users\ajarr\AppData\Local\Temp\cczww0RR.o
ecc_temp4           0x8               C:\Users\ajarr\AppData\Local\Temp\cceA7QRW.o
inter_TM_Byte_Count
                    0x4               C:\Users\ajarr\AppData\Local\Temp\cc6epILV.o
Vel_ECEF_GPS        0x18              C:\Users\ajarr\AppData\Local\Temp\cceA7QRW.o
nodecf              0x8               C:\Users\ajarr\AppData\Local\Temp\cceA7QRW.o
Tdeficit            0x18              C:\Users\ajarr\AppData\Local\Temp\cceA7QRW.o
MUX_data3           0x2               C:\Users\ajarr\AppData\Local\Temp\ccIUYBk4.o
vecnorm_mag         0x8               C:\Users\ajarr\AppData\Local\Temp\cceA7QRW.o
Vel_ECI_GPS         0x18              C:\Users\ajarr\AppData\Local\Temp\cceA7QRW.o
Q_REF_pres          0x20              C:\Users\ajarr\AppData\Local\Temp\cceA7QRW.o
phi_12_temp3        0x48              C:\Users\ajarr\AppData\Local\Temp\cceA7QRW.o
epochdays           0x8               C:\Users\ajarr\AppData\Local\Temp\cceA7QRW.o
adel                0x8               C:\Users\ajarr\AppData\Local\Temp\cceA7QRW.o
TM_Buffer           0x100             C:\Users\ajarr\AppData\Local\Temp\cc6epILV.o
xmcof               0x8               C:\Users\ajarr\AppData\Local\Temp\cceA7QRW.o
ST_SP_Buffer        0x2a1             C:\Users\ajarr\AppData\Local\Temp\cc6epILV.o
k                   0x4               C:\Users\ajarr\AppData\Local\Temp\cceA7QRW.o
TCH_read_ptr        0x4               C:\Users\ajarr\AppData\Local\Temp\cc6epILV.o
TC_momentum_dumping_gain
                    0x8               C:\Users\ajarr\AppData\Local\Temp\cceA7QRW.o
RW_TMC              0x8               C:\Users\ajarr\AppData\Local\Temp\ccoK9PBU.o
cosio2              0x8               C:\Users\ajarr\AppData\Local\Temp\cceA7QRW.o
Yk_minus_hk_Kk      0x48              C:\Users\ajarr\AppData\Local\Temp\cceA7QRW.o
inter_TM_Source_Addr
                    0x4               C:\Users\ajarr\AppData\Local\Temp\cc6epILV.o
mvt                 0x8               C:\Users\ajarr\AppData\Local\Temp\cceA7QRW.o
Rz                  0x48              C:\Users\ajarr\AppData\Local\Temp\cceA7QRW.o
St_DAD              0x48              C:\Users\ajarr\AppData\Local\Temp\cceA7QRW.o
x1mth2              0x8               C:\Users\ajarr\AppData\Local\Temp\cceA7QRW.o
t2                  0x8               C:\Users\ajarr\AppData\Local\Temp\cceA7QRW.o
speed_based_torquer_control
                    0x4               C:\Users\ajarr\AppData\Local\Temp\cceA7QRW.o
B_REFn              0x18              C:\Users\ajarr\AppData\Local\Temp\cceA7QRW.o
Tsince              0x8               C:\Users\ajarr\AppData\Local\Temp\cceA7QRW.o
B_BODYn             0x18              C:\Users\ajarr\AppData\Local\Temp\cczww0RR.o
nml_output_latch_data
                    0x3               C:\Users\ajarr\AppData\Local\Temp\cc6epILV.o
r_delta             0x8               C:\Users\ajarr\AppData\Local\Temp\cceA7QRW.o
var1                0x8               C:\Users\ajarr\AppData\Local\Temp\cceA7QRW.o
epochyr_sel         0x4               C:\Users\ajarr\AppData\Local\Temp\cceA7QRW.o
IMU_temperature     0x4               C:\Users\ajarr\AppData\Local\Temp\ccoo9rYu.o
entrytime2eclipse   0x4               C:\Users\ajarr\AppData\Local\Temp\cceA7QRW.o
em                  0x8               C:\Users\ajarr\AppData\Local\Temp\cceA7QRW.o
TM_Table            0x8088            C:\Users\ajarr\AppData\Local\Temp\cc6epILV.o
Qk_temp2            0x8               C:\Users\ajarr\AppData\Local\Temp\cceA7QRW.o
test_gps_conf4      0x4               C:\Users\ajarr\AppData\Local\Temp\ccecVsE3.o
Xk_plus_temp        0x18              C:\Users\ajarr\AppData\Local\Temp\cceA7QRW.o
Q_SPO2ECI           0x20              C:\Users\ajarr\AppData\Local\Temp\cceA7QRW.o
W_cross             0x48              C:\Users\ajarr\AppData\Local\Temp\cceA7QRW.o
Vel_ECI             0x18              C:\Users\ajarr\AppData\Local\Temp\cceA7QRW.o
pk_HkT_Hk           0x48              C:\Users\ajarr\AppData\Local\Temp\cceA7QRW.o
battery_temp_2      0x4               C:\Users\ajarr\AppData\Local\Temp\ccEKVXdT.o
Tcv_temp            0x18              C:\Users\ajarr\AppData\Local\Temp\cceA7QRW.o
NRS                 0xc0              C:\Users\ajarr\AppData\Local\Temp\cceA7QRW.o
Tdeficit_temp1      0x18              C:\Users\ajarr\AppData\Local\Temp\cceA7QRW.o
theta2              0x8               C:\Users\ajarr\AppData\Local\Temp\cceA7QRW.o
gmst_               0x8               C:\Users\ajarr\AppData\Local\Temp\cceA7QRW.o
TC_storing_buffer   0x400             C:\Users\ajarr\AppData\Local\Temp\ccIUYBk4.o
psi_sl_ecl          0x8               C:\Users\ajarr\AppData\Local\Temp\cceA7QRW.o
Pitch_MTR_Pol_Reversal
                    0x4               C:\Users\ajarr\AppData\Local\Temp\cceA7QRW.o
rsun                0x18              C:\Users\ajarr\AppData\Local\Temp\cceA7QRW.o
NOB_SFC_TC          0x4               C:\Users\ajarr\AppData\Local\Temp\ccoK9PBU.o
Yk                  0x18              C:\Users\ajarr\AppData\Local\Temp\cceA7QRW.o
CB_Wheel_Spin_updown
                    0x4               C:\Users\ajarr\AppData\Local\Temp\cceA7QRW.o
SB_MAIN             0x18              C:\Users\ajarr\AppData\Local\Temp\cczww0RR.o
vx                  0x8               C:\Users\ajarr\AppData\Local\Temp\cceA7QRW.o
inttemp             0x4               C:\Users\ajarr\AppData\Local\Temp\cceA7QRW.o
TLE_Data_Available  0x4               C:\Users\ajarr\AppData\Local\Temp\cceA7QRW.o
Q_REF_prev          0x20              C:\Users\ajarr\AppData\Local\Temp\cceA7QRW.o
BEast               0x8               C:\Users\ajarr\AppData\Local\Temp\cceA7QRW.o
SunAcq_Ang_Thres    0x8               C:\Users\ajarr\AppData\Local\Temp\cceA7QRW.o
DutyCycleGenEnable  0x4               C:\Users\ajarr\AppData\Local\Temp\cceA7QRW.o
SC7                 0x8               C:\Users\ajarr\AppData\Local\Temp\cczww0RR.o
Tmm_actual          0x18              C:\Users\ajarr\AppData\Local\Temp\cceA7QRW.o
SC2                 0x8               C:\Users\ajarr\AppData\Local\Temp\cczww0RR.o
CB_MagFieldComp     0x4               C:\Users\ajarr\AppData\Local\Temp\cceA7QRW.o
SS_Redundant_DB     0x284             C:\Users\ajarr\AppData\Local\Temp\cc6epILV.o
eDetumblingMode     0x4               C:\Users\ajarr\AppData\Local\Temp\cceA7QRW.o
tempa               0x8               C:\Users\ajarr\AppData\Local\Temp\cceA7QRW.o
IMU1_Corr           0x144             C:\Users\ajarr\AppData\Local\Temp\cc6epILV.o
xsaty_eci           0x8               C:\Users\ajarr\AppData\Local\Temp\cceA7QRW.o
gain_set            0x960             C:\Users\ajarr\AppData\Local\Temp\cc6epILV.o
pinvsq              0x8               C:\Users\ajarr\AppData\Local\Temp\cceA7QRW.o
mod_of_Wk1_square   0x8               C:\Users\ajarr\AppData\Local\Temp\cceA7QRW.o
ecc_temp3           0x8               C:\Users\ajarr\AppData\Local\Temp\cceA7QRW.o
count_arc_w3        0x4               C:\Users\ajarr\AppData\Local\Temp\cceA7QRW.o
TC_cmd_executed     0x2               C:\Users\ajarr\AppData\Local\Temp\ccIUYBk4.o
DFCcountLow         0x4               C:\Users\ajarr\AppData\Local\Temp\cceA7QRW.o
CB_ExtendedKalmanFilter
                    0x4               C:\Users\ajarr\AppData\Local\Temp\cceA7QRW.o
B_BODY              0x18              C:\Users\ajarr\AppData\Local\Temp\cczww0RR.o
RW_3                0x10              C:\Users\ajarr\AppData\Local\Temp\ccoK9PBU.o
RW_2                0x10              C:\Users\ajarr\AppData\Local\Temp\ccoK9PBU.o
no_TLE_tc           0x8               C:\Users\ajarr\AppData\Local\Temp\cceA7QRW.o
TC_elapsed_orbitTimer
                    0x8               C:\Users\ajarr\AppData\Local\Temp\cceA7QRW.o
semi_den            0x8               C:\Users\ajarr\AppData\Local\Temp\cceA7QRW.o
test_data_3         0x2               C:\Users\ajarr\AppData\Local\Temp\ccIUYBk4.o
STATION_vector      0x18              C:\Users\ajarr\AppData\Local\Temp\cceA7QRW.o
wks                 0x8               C:\Users\ajarr\AppData\Local\Temp\cceA7QRW.o
Thta_BODY_IMU2      0x18              C:\Users\ajarr\AppData\Local\Temp\cczww0RR.o
GPS_Buffer_Addr     0x4               C:\Users\ajarr\AppData\Local\Temp\ccecVsE3.o
TC_enQuest_update   0x4               C:\Users\ajarr\AppData\Local\Temp\cceA7QRW.o
pl_x_tx_data_on_flag
                    0x4               C:\Users\ajarr\AppData\Local\Temp\cchY9yN1.o
days_sel            0x4               C:\Users\ajarr\AppData\Local\Temp\cceA7QRW.o
TC_SunEarthVaryingFrame
                    0x4               C:\Users\ajarr\AppData\Local\Temp\cceA7QRW.o
big_omega           0x80              C:\Users\ajarr\AppData\Local\Temp\cceA7QRW.o
tempdays            0x4               C:\Users\ajarr\AppData\Local\Temp\cceA7QRW.o
Present_OBT         0x4               C:\Users\ajarr\AppData\Local\Temp\cceA7QRW.o
Tsince_TLE_tc       0x8               C:\Users\ajarr\AppData\Local\Temp\cceA7QRW.o
pl_buffer_len       0x4               C:\Users\ajarr\AppData\Local\Temp\cchY9yN1.o
X_SPO2ECI_mag       0x8               C:\Users\ajarr\AppData\Local\Temp\cceA7QRW.o
temparg             0x8               C:\Users\ajarr\AppData\Local\Temp\cceA7QRW.o
ibexp_sel           0x8               C:\Users\ajarr\AppData\Local\Temp\cceA7QRW.o
MUX_data1           0x2               C:\Users\ajarr\AppData\Local\Temp\ccIUYBk4.o
VelZ_ECEF_GPS       0x8               C:\Users\ajarr\AppData\Local\Temp\cceA7QRW.o
gps_data_test       0x1a8             C:\Users\ajarr\AppData\Local\Temp\ccecVsE3.o
TC_detumbling_bdot_gain
                    0x18              C:\Users\ajarr\AppData\Local\Temp\cceA7QRW.o
LPFK1HighSL         0x8               C:\Users\ajarr\AppData\Local\Temp\cceA7QRW.o
PL_TX_TM_2_EN       0x2               C:\Users\ajarr\AppData\Local\Temp\cchY9yN1.o
xinc                0x8               C:\Users\ajarr\AppData\Local\Temp\cceA7QRW.o
Twof_veh            0x48              C:\Users\ajarr\AppData\Local\Temp\cceA7QRW.o
mdot                0x8               C:\Users\ajarr\AppData\Local\Temp\cceA7QRW.o
w_AMSC              0x18              C:\Users\ajarr\AppData\Local\Temp\cczww0RR.o
DB_GyroLPF          0x8               C:\Users\ajarr\AppData\Local\Temp\cceA7QRW.o
LossWhMom           0x20              C:\Users\ajarr\AppData\Local\Temp\cceA7QRW.o
pl_data_command     0xc               C:\Users\ajarr\AppData\Local\Temp\cc6epILV.o
b_DAD               0x8               C:\Users\ajarr\AppData\Local\Temp\cceA7QRW.o
NMS                 0xc0              C:\Users\ajarr\AppData\Local\Temp\cceA7QRW.o
TC_GPS_pulse_duration
                    0x4               C:\Users\ajarr\AppData\Local\Temp\cceA7QRW.o
phi_k               0x288             C:\Users\ajarr\AppData\Local\Temp\cceA7QRW.o
xin_temp            0x8               C:\Users\ajarr\AppData\Local\Temp\cceA7QRW.o
UTC_hr_GPS          0x4               C:\Users\ajarr\AppData\Local\Temp\cceA7QRW.o
Yaw_ang_err         0x8               C:\Users\ajarr\AppData\Local\Temp\cczww0RR.o
TC_hist_read_ptr    0x4               C:\Users\ajarr\AppData\Local\Temp\ccIUYBk4.o
one_by_3            0x8               C:\Users\ajarr\AppData\Local\Temp\cceA7QRW.o
TC_command          0x4               C:\Users\ajarr\AppData\Local\Temp\cchY9yN1.o
B_BODY_IMU1         0x18              C:\Users\ajarr\AppData\Local\Temp\cczww0RR.o
axnl                0x8               C:\Users\ajarr\AppData\Local\Temp\cceA7QRW.o
Yaw_neg             0x8               C:\Users\ajarr\AppData\Local\Temp\cczww0RR.o
X_SVO2ECI_mag       0x8               C:\Users\ajarr\AppData\Local\Temp\cceA7QRW.o
LPFK1SL             0x20              C:\Users\ajarr\AppData\Local\Temp\cceA7QRW.o
bstar_TLE_tc        0x8               C:\Users\ajarr\AppData\Local\Temp\cceA7QRW.o
coef1               0x8               C:\Users\ajarr\AppData\Local\Temp\cceA7QRW.o
B_DAD               0x48              C:\Users\ajarr\AppData\Local\Temp\cceA7QRW.o
ang                 0x8               C:\Users\ajarr\AppData\Local\Temp\cceA7QRW.o
inter_TM_ST_TC_NS_Write_Source_Addr
                    0x4               C:\Users\ajarr\AppData\Local\Temp\cc6epILV.o
rsat                0x18              C:\Users\ajarr\AppData\Local\Temp\cceA7QRW.o
SA_thermistor2      0x4               C:\Users\ajarr\AppData\Local\Temp\ccEKVXdT.o
R_SFAO2ECI          0x48              C:\Users\ajarr\AppData\Local\Temp\cceA7QRW.o
magPitch_angle      0x8               C:\Users\ajarr\AppData\Local\Temp\cceA7QRW.o
beta_S_DAD          0x48              C:\Users\ajarr\AppData\Local\Temp\cceA7QRW.o
inclination_sel     0x8               C:\Users\ajarr\AppData\Local\Temp\cceA7QRW.o
SS_M4               0x8               C:\Users\ajarr\AppData\Local\Temp\cceA7QRW.o
exp_whsp_ch         0x20              C:\Users\ajarr\AppData\Local\Temp\cceA7QRW.o
Q_SVO2ECI           0x20              C:\Users\ajarr\AppData\Local\Temp\cceA7QRW.o
ST_Out_Latch_2      0x2               C:\Users\ajarr\AppData\Local\Temp\cc6epILV.o
DelThta_cat_z       0x4               C:\Users\ajarr\AppData\Local\Temp\cceA7QRW.o
Y_SFAO2ECI          0x18              C:\Users\ajarr\AppData\Local\Temp\cceA7QRW.o
thermistor_lsb      0x17              C:\Users\ajarr\AppData\Local\Temp\ccEKVXdT.o
mo_TLE_tc           0x8               C:\Users\ajarr\AppData\Local\Temp\cceA7QRW.o
TC_SunFixedAscendingFrame
                    0x4               C:\Users\ajarr\AppData\Local\Temp\cceA7QRW.o
delta_HB            0x18              C:\Users\ajarr\AppData\Local\Temp\cceA7QRW.o
inter_TM_Dest_Addr  0x4               C:\Users\ajarr\AppData\Local\Temp\cc6epILV.o
cos_of_Wk1_Delta    0x8               C:\Users\ajarr\AppData\Local\Temp\cceA7QRW.o
PosZ_ECEF_GPS       0x8               C:\Users\ajarr\AppData\Local\Temp\cceA7QRW.o
SC1                 0x8               C:\Users\ajarr\AppData\Local\Temp\cczww0RR.o
cp_cnt              0x4               C:\Users\ajarr\AppData\Local\Temp\ccvsnmY2.o
u_DTTC              0x8               C:\Users\ajarr\AppData\Local\Temp\ccIUYBk4.o
test_agc            0x4               C:\Users\ajarr\AppData\Local\Temp\ccEKVXdT.o
Tsince_TLE          0x8               C:\Users\ajarr\AppData\Local\Temp\cceA7QRW.o
pk_HkT              0xd8              C:\Users\ajarr\AppData\Local\Temp\cceA7QRW.o
sumX_DAD            0x48              C:\Users\ajarr\AppData\Local\Temp\cceA7QRW.o
phi_11_temp1        0x48              C:\Users\ajarr\AppData\Local\Temp\cceA7QRW.o
u_TC                0x8               C:\Users\ajarr\AppData\Local\Temp\ccIUYBk4.o
TC_wAD_BODYminThYaw
                    0x8               C:\Users\ajarr\AppData\Local\Temp\cceA7QRW.o
j_lict              0x4               C:\Users\ajarr\AppData\Local\Temp\cceA7QRW.o
pps_deltaT          0x8               C:\Users\ajarr\AppData\Local\Temp\cceA7QRW.o
Kk_matrix           0x288             C:\Users\ajarr\AppData\Local\Temp\cceA7QRW.o
TC_wAD_BODYminThRoll
                    0x8               C:\Users\ajarr\AppData\Local\Temp\cceA7QRW.o
theta               0x8               C:\Users\ajarr\AppData\Local\Temp\cceA7QRW.o
comb1               0x8               C:\Users\ajarr\AppData\Local\Temp\cczww0RR.o
inter_PL_TM_Source_Addr
                    0x4               C:\Users\ajarr\AppData\Local\Temp\cchY9yN1.o
f_Momentum_Dumping  0x4               C:\Users\ajarr\AppData\Local\Temp\cceA7QRW.o
SUN_ECI_mag         0x8               C:\Users\ajarr\AppData\Local\Temp\cceA7QRW.o
Tcv                 0x18              C:\Users\ajarr\AppData\Local\Temp\cceA7QRW.o
t4                  0x8               C:\Users\ajarr\AppData\Local\Temp\cceA7QRW.o
cnod                0x8               C:\Users\ajarr\AppData\Local\Temp\cceA7QRW.o
mon_sel             0x4               C:\Users\ajarr\AppData\Local\Temp\cceA7QRW.o
pl_buffer_addr      0x4               C:\Users\ajarr\AppData\Local\Temp\cchY9yN1.o
sidereal            0x48              C:\Users\ajarr\AppData\Local\Temp\cceA7QRW.o
tau_ms              0x8               C:\Users\ajarr\AppData\Local\Temp\cceA7QRW.o
j_kf                0x4               C:\Users\ajarr\AppData\Local\Temp\cceA7QRW.o
ADC_Locations       0x4               C:\Users\ajarr\AppData\Local\Temp\ccEKVXdT.o
aa                  0x2               C:\Users\ajarr\AppData\Local\Temp\ccoK9PBU.o
sine                0x8               C:\Users\ajarr\AppData\Local\Temp\cceA7QRW.o
Remote_Addr         0x4               C:\Users\ajarr\AppData\Local\Temp\ccIUYBk4.o
Z_SVO2ECI_mag       0x8               C:\Users\ajarr\AppData\Local\Temp\cceA7QRW.o
Qprop_prev          0x20              C:\Users\ajarr\AppData\Local\Temp\cceA7QRW.o
pl_test10           0x4               C:\Users\ajarr\AppData\Local\Temp\cchY9yN1.o
Out_latch_6         0x2               C:\Users\ajarr\AppData\Local\Temp\cc6epILV.o
uz                  0x8               C:\Users\ajarr\AppData\Local\Temp\cceA7QRW.o
TC_KR               0x18              C:\Users\ajarr\AppData\Local\Temp\cceA7QRW.o
ExWhMom             0x20              C:\Users\ajarr\AppData\Local\Temp\cceA7QRW.o
B_BODYtesla         0x18              C:\Users\ajarr\AppData\Local\Temp\cczww0RR.o
T_MT_2RW            0x18              C:\Users\ajarr\AppData\Local\Temp\cceA7QRW.o
agc_test1           0x1               C:\Users\ajarr\AppData\Local\Temp\ccEKVXdT.o
one_magad           0x8               C:\Users\ajarr\AppData\Local\Temp\cceA7QRW.o
S_ECI               0x18              C:\Users\ajarr\AppData\Local\Temp\cceA7QRW.o
minorcyclecount     0x4               C:\Users\ajarr\AppData\Local\Temp\cceA7QRW.o
RW_Data_SlipFrame_TMC
                    0x14              C:\Users\ajarr\AppData\Local\Temp\ccoK9PBU.o
Q_quest_DAD_den     0x8               C:\Users\ajarr\AppData\Local\Temp\cceA7QRW.o
gyrodet_w           0x18              C:\Users\ajarr\AppData\Local\Temp\cczww0RR.o
two_magad           0x8               C:\Users\ajarr\AppData\Local\Temp\cceA7QRW.o
Hk_temp             0xd8              C:\Users\ajarr\AppData\Local\Temp\cceA7QRW.o
SunNPP_SMtransit    0x4               C:\Users\ajarr\AppData\Local\Temp\cczww0RR.o
heaters             0x2               C:\Users\ajarr\AppData\Local\Temp\cc6epILV.o
xincp               0x8               C:\Users\ajarr\AppData\Local\Temp\cceA7QRW.o
Rx                  0x48              C:\Users\ajarr\AppData\Local\Temp\cceA7QRW.o
z                   0x8               C:\Users\ajarr\AppData\Local\Temp\cceA7QRW.o
chksum_arr          0x20              C:\Users\ajarr\AppData\Local\Temp\cc6epILV.o
MTR_ActuationCycle  0x4               C:\Users\ajarr\AppData\Local\Temp\cceA7QRW.o
BDOTnorm            0x8               C:\Users\ajarr\AppData\Local\Temp\cceA7QRW.o
pl_tx_tm_flag       0x4               C:\Users\ajarr\AppData\Local\Temp\cchY9yN1.o
B_ECI               0x18              C:\Users\ajarr\AppData\Local\Temp\cceA7QRW.o
IO_Latch_Register_4_Data
                    0x4               C:\Users\ajarr\AppData\Local\Temp\cc6epILV.o
SAT_ANGLE_STAT      0x8               C:\Users\ajarr\AppData\Local\Temp\cceA7QRW.o
sigma_DAD           0x8               C:\Users\ajarr\AppData\Local\Temp\cceA7QRW.o
f_DataSort_MAG      0x4               C:\Users\ajarr\AppData\Local\Temp\cceA7QRW.o
Thta_rawdata        0x18              C:\Users\ajarr\AppData\Local\Temp\cczww0RR.o
aycof               0x8               C:\Users\ajarr\AppData\Local\Temp\cceA7QRW.o
argpo_TLE_tc        0x8               C:\Users\ajarr\AppData\Local\Temp\cceA7QRW.o
test_thermistor_1   0x2               C:\Users\ajarr\AppData\Local\Temp\ccEKVXdT.o
count_arc_w1        0x4               C:\Users\ajarr\AppData\Local\Temp\cceA7QRW.o
PL_1_on_off_flag    0x4               C:\Users\ajarr\AppData\Local\Temp\cchY9yN1.o
j_gh                0x1               C:\Users\ajarr\AppData\Local\Temp\cceA7QRW.o
SC8                 0x8               C:\Users\ajarr\AppData\Local\Temp\cczww0RR.o
orbit_time          0x4               C:\Users\ajarr\AppData\Local\Temp\cceA7QRW.o
temp1               0x8               C:\Users\ajarr\AppData\Local\Temp\cceA7QRW.o
coef                0x8               C:\Users\ajarr\AppData\Local\Temp\cceA7QRW.o
eSunAcquisitionMode
                    0x4               C:\Users\ajarr\AppData\Local\Temp\cceA7QRW.o
w_BODYdeg           0x18              C:\Users\ajarr\AppData\Local\Temp\cczww0RR.o
storage_page_count  0x4               C:\Users\ajarr\AppData\Local\Temp\cc6epILV.o
sigma_u             0x8               C:\Users\ajarr\AppData\Local\Temp\cceA7QRW.o
etasq               0x8               C:\Users\ajarr\AppData\Local\Temp\cceA7QRW.o
T_SD_RW             0x20              C:\Users\ajarr\AppData\Local\Temp\cceA7QRW.o
ele2                0x8               C:\Users\ajarr\AppData\Local\Temp\cczww0RR.o
cos2u               0x8               C:\Users\ajarr\AppData\Local\Temp\cceA7QRW.o
st_magad            0x8               C:\Users\ajarr\AppData\Local\Temp\cceA7QRW.o
Tc                  0x18              C:\Users\ajarr\AppData\Local\Temp\cceA7QRW.o
UTC                 0x8               C:\Users\ajarr\AppData\Local\Temp\cceA7QRW.o
GPS_msg_header      0x4               C:\Users\ajarr\AppData\Local\Temp\ccecVsE3.o
B_BiasCor           0x18              C:\Users\ajarr\AppData\Local\Temp\cczww0RR.o
out_Quat_mult       0x20              C:\Users\ajarr\AppData\Local\Temp\cceA7QRW.o
Block_array         0x10000           C:\Users\ajarr\AppData\Local\Temp\ccIUYBk4.o
CB_Wheel_Auto_Reconfiguration
                    0x4               C:\Users\ajarr\AppData\Local\Temp\cceA7QRW.o
Del_P_theta         0x8               C:\Users\ajarr\AppData\Local\Temp\cceA7QRW.o
diff_obs_exp_ch     0x20              C:\Users\ajarr\AppData\Local\Temp\cceA7QRW.o
DTTCarray           0x1f40            C:\Users\ajarr\AppData\Local\Temp\ccIUYBk4.o
ST_output_latch     0x4               C:\Users\ajarr\AppData\Local\Temp\cc6epILV.o
test_gps_conf6      0x4               C:\Users\ajarr\AppData\Local\Temp\ccecVsE3.o
GPSDataReady        0x4               C:\Users\ajarr\AppData\Local\Temp\cceA7QRW.o
mo_sel              0x8               C:\Users\ajarr\AppData\Local\Temp\cceA7QRW.o
NRBt_sunmag         0xc0              C:\Users\ajarr\AppData\Local\Temp\cceA7QRW.o
trace_S_DAD         0x8               C:\Users\ajarr\AppData\Local\Temp\cceA7QRW.o
SS_Redundant_2Exe_DB
                    0x284             C:\Users\ajarr\AppData\Local\Temp\cc6epILV.o
ct_magad            0x8               C:\Users\ajarr\AppData\Local\Temp\cceA7QRW.o
BDOT_Threshold_Count
                    0x4               C:\Users\ajarr\AppData\Local\Temp\cceA7QRW.o
i                   0x4               C:\Users\ajarr\AppData\Local\Temp\cceA7QRW.o
mu_m_temp           0x18              C:\Users\ajarr\AppData\Local\Temp\cceA7QRW.o
SC1ImaxF            0x8               C:\Users\ajarr\AppData\Local\Temp\cczww0RR.o
TC_yp               0x8               C:\Users\ajarr\AppData\Local\Temp\cceA7QRW.o
CB_Two_RW_control   0x4               C:\Users\ajarr\AppData\Local\Temp\cceA7QRW.o
Out_latch_5         0x2               C:\Users\ajarr\AppData\Local\Temp\cc6epILV.o
j_rfc               0x4               C:\Users\ajarr\AppData\Local\Temp\cceA7QRW.o
real_storage        0x4               C:\Users\ajarr\AppData\Local\Temp\ccvsnmY2.o
rw_tmtc_count       0x4               C:\Users\ajarr\AppData\Local\Temp\ccoK9PBU.o
IMU_Sen2Bdy         0x48              C:\Users\ajarr\AppData\Local\Temp\cczww0RR.o
LPFK2SL             0x20              C:\Users\ajarr\AppData\Local\Temp\cceA7QRW.o
ktr                 0x4               C:\Users\ajarr\AppData\Local\Temp\cceA7QRW.o
I_MFC               0x4               C:\Users\ajarr\AppData\Local\Temp\cceA7QRW.o
DelThta_cat_y       0x4               C:\Users\ajarr\AppData\Local\Temp\cceA7QRW.o
magYaw_angle        0x8               C:\Users\ajarr\AppData\Local\Temp\cceA7QRW.o
Init_data_ptr       0x4               C:\Users\ajarr\AppData\Local\Temp\ccoK9PBU.o
epochdays_TLE_tc    0x8               C:\Users\ajarr\AppData\Local\Temp\cceA7QRW.o
v0c                 0x20              C:\Users\ajarr\AppData\Local\Temp\cceA7QRW.o
CB_DAD_quest        0x4               C:\Users\ajarr\AppData\Local\Temp\cceA7QRW.o
RW_TM_ptr_init      0x4               C:\Users\ajarr\AppData\Local\Temp\ccoK9PBU.o
T_RW_sdump          0x20              C:\Users\ajarr\AppData\Local\Temp\cceA7QRW.o
TMC_data_ptr        0x4               C:\Users\ajarr\AppData\Local\Temp\ccoK9PBU.o
no_sel              0x8               C:\Users\ajarr\AppData\Local\Temp\cceA7QRW.o
po                  0x8               C:\Users\ajarr\AppData\Local\Temp\cceA7QRW.o
NMB_mag             0x240             C:\Users\ajarr\AppData\Local\Temp\cceA7QRW.o
Vel_ECEFn           0x18              C:\Users\ajarr\AppData\Local\Temp\cceA7QRW.o
j_MatEq             0x4               C:\Users\ajarr\AppData\Local\Temp\cczww0RR.o
TC_Status_Data      0x4               C:\Users\ajarr\AppData\Local\Temp\ccIUYBk4.o
Storage             0x3e800           C:\Users\ajarr\AppData\Local\Temp\cc6epILV.o
ST_special          0x2a1             C:\Users\ajarr\AppData\Local\Temp\cc6epILV.o
xmdf                0x8               C:\Users\ajarr\AppData\Local\Temp\cceA7QRW.o
Enable_PL_TM_flag   0x4               C:\Users\ajarr\AppData\Local\Temp\cchY9yN1.o
cc3                 0x8               C:\Users\ajarr\AppData\Local\Temp\cceA7QRW.o
Rk                  0x48              C:\Users\ajarr\AppData\Local\Temp\cceA7QRW.o
TC_Hmax             0x8               C:\Users\ajarr\AppData\Local\Temp\cceA7QRW.o
Trwa                0x20              C:\Users\ajarr\AppData\Local\Temp\cceA7QRW.o
qzms24              0x8               C:\Users\ajarr\AppData\Local\Temp\cceA7QRW.o
TC_SunFixedDescendingFrame
                    0x4               C:\Users\ajarr\AppData\Local\Temp\cceA7QRW.o
T_RW                0x20              C:\Users\ajarr\AppData\Local\Temp\cceA7QRW.o
w_LPF               0x18              C:\Users\ajarr\AppData\Local\Temp\cczww0RR.o
GAIN_DATA_SET       0x4e0             C:\Users\ajarr\AppData\Local\Temp\cc6epILV.o
longitude_GPS       0x8               C:\Users\ajarr\AppData\Local\Temp\cceA7QRW.o
sini                0x8               C:\Users\ajarr\AppData\Local\Temp\cceA7QRW.o
Out_Latch_2         0x2               C:\Users\ajarr\AppData\Local\Temp\cc6epILV.o
xsatz_eci           0x8               C:\Users\ajarr\AppData\Local\Temp\cceA7QRW.o
inter_HAL_ADC_Data_Ready
                    0x4               C:\Users\ajarr\AppData\Local\Temp\ccEKVXdT.o
DFCGainLow          0x8               C:\Users\ajarr\AppData\Local\Temp\cceA7QRW.o
inter_TM_Status_Data
                    0x2               C:\Users\ajarr\AppData\Local\Temp\cc6epILV.o
i_pini              0x4               C:\Users\ajarr\AppData\Local\Temp\cceA7QRW.o
SC3ImaxF            0x8               C:\Users\ajarr\AppData\Local\Temp\cczww0RR.o
DTTCtime_reference  0x4               C:\Users\ajarr\AppData\Local\Temp\cczww0RR.o
Hk                  0xd8              C:\Users\ajarr\AppData\Local\Temp\cceA7QRW.o
MUX_data4           0x2               C:\Users\ajarr\AppData\Local\Temp\ccIUYBk4.o
test_gps_conf1      0x4               C:\Users\ajarr\AppData\Local\Temp\ccecVsE3.o
Delta               0x8               C:\Users\ajarr\AppData\Local\Temp\cceA7QRW.o
imu_data_ready_count_1
                    0x4               C:\Users\ajarr\AppData\Local\Temp\ccTwgEYO.o
Z_SFDO2ECI_mag      0x8               C:\Users\ajarr\AppData\Local\Temp\cceA7QRW.o
u_parl              0x18              C:\Users\ajarr\AppData\Local\Temp\cceA7QRW.o
B_AMSC              0x18              C:\Users\ajarr\AppData\Local\Temp\cczww0RR.o
I_DAD               0x4               C:\Users\ajarr\AppData\Local\Temp\cceA7QRW.o
IMU_Diag_Done       0x4               C:\Users\ajarr\AppData\Local\Temp\cczww0RR.o
i_MatEq             0x4               C:\Users\ajarr\AppData\Local\Temp\cczww0RR.o
year_TLE_tc         0x4               C:\Users\ajarr\AppData\Local\Temp\cceA7QRW.o
TC_data_ptr         0x4               C:\Users\ajarr\AppData\Local\Temp\ccoK9PBU.o
MUX_4               0x2               C:\Users\ajarr\AppData\Local\Temp\cc6epILV.o
ecose               0x8               C:\Users\ajarr\AppData\Local\Temp\cceA7QRW.o
TC_authentic_pulse_rcvd
                    0x4               C:\Users\ajarr\AppData\Local\Temp\ccIUYBk4.o
Pos_ECEF            0x18              C:\Users\ajarr\AppData\Local\Temp\cceA7QRW.o
NRB_mag             0x240             C:\Users\ajarr\AppData\Local\Temp\cceA7QRW.o
w_BiasCor           0x18              C:\Users\ajarr\AppData\Local\Temp\cczww0RR.o
inter_TM_Main_Buffer_Empty
                    0x4               C:\Users\ajarr\AppData\Local\Temp\cc6epILV.o
SunNPP_SAMtransit_counter
                    0x4               C:\Users\ajarr\AppData\Local\Temp\cczww0RR.o
ecc_temp6           0x8               C:\Users\ajarr\AppData\Local\Temp\cceA7QRW.o
j_pini              0x4               C:\Users\ajarr\AppData\Local\Temp\cceA7QRW.o
GPS_Data_Read_Status
                    0x4               C:\Users\ajarr\AppData\Local\Temp\ccecVsE3.o
Q_REF_diff          0x20              C:\Users\ajarr\AppData\Local\Temp\cceA7QRW.o
ECEFtoECI           0x48              C:\Users\ajarr\AppData\Local\Temp\cceA7QRW.o
t5cof               0x8               C:\Users\ajarr\AppData\Local\Temp\cceA7QRW.o
ep                  0x8               C:\Users\ajarr\AppData\Local\Temp\cceA7QRW.o
NOB_CRC_TC          0x4               C:\Users\ajarr\AppData\Local\Temp\ccoK9PBU.o
check_dump_wh       0x10              C:\Users\ajarr\AppData\Local\Temp\cceA7QRW.o
TC_DATA             0x8               C:\Users\ajarr\AppData\Local\Temp\ccIUYBk4.o
read_str_ptr        0x4               C:\Users\ajarr\AppData\Local\Temp\cc6epILV.o
pl_mode             0x2               C:\Users\ajarr\AppData\Local\Temp\cchY9yN1.o
epochyr             0x4               C:\Users\ajarr\AppData\Local\Temp\cceA7QRW.o
Bpresent            0x18              C:\Users\ajarr\AppData\Local\Temp\cczww0RR.o
tc_ecv_test         0x190             C:\Users\ajarr\AppData\Local\Temp\cczww0RR.o
Yaw_MTR_Pol_Reversal
                    0x4               C:\Users\ajarr\AppData\Local\Temp\cceA7QRW.o
nodem               0x8               C:\Users\ajarr\AppData\Local\Temp\cceA7QRW.o
STATION_ECIn        0x18              C:\Users\ajarr\AppData\Local\Temp\cceA7QRW.o
TC_xp               0x8               C:\Users\ajarr\AppData\Local\Temp\cceA7QRW.o
argpp               0x8               C:\Users\ajarr\AppData\Local\Temp\cceA7QRW.o
pl_data_rx          0x12              C:\Users\ajarr\AppData\Local\Temp\cchY9yN1.o
TC_ARC_Time_Cycle   0x4               C:\Users\ajarr\AppData\Local\Temp\cceA7QRW.o
count_arc_w0        0x4               C:\Users\ajarr\AppData\Local\Temp\cceA7QRW.o
TC_ARC_RPM_Thres    0x8               C:\Users\ajarr\AppData\Local\Temp\cceA7QRW.o
ECItoECEF           0x48              C:\Users\ajarr\AppData\Local\Temp\cceA7QRW.o
rw_tc_count_test    0x4               C:\Users\ajarr\AppData\Local\Temp\ccoK9PBU.o
Init_ptr            0x4               C:\Users\ajarr\AppData\Local\Temp\ccoK9PBU.o
sinip               0x8               C:\Users\ajarr\AppData\Local\Temp\cceA7QRW.o
pl_config_addr_ptr  0x4               C:\Users\ajarr\AppData\Local\Temp\cchY9yN1.o
Bt_DAD              0x48              C:\Users\ajarr\AppData\Local\Temp\cceA7QRW.o
inclo_tc            0x8               C:\Users\ajarr\AppData\Local\Temp\cceA7QRW.o
RW_Wheel_Speed      0x10              C:\Users\ajarr\AppData\Local\Temp\ccoK9PBU.o
rot_ang             0x8               C:\Users\ajarr\AppData\Local\Temp\cceA7QRW.o
alpha_2RW_temp      0x18              C:\Users\ajarr\AppData\Local\Temp\cceA7QRW.o
coslongacnode       0x8               C:\Users\ajarr\AppData\Local\Temp\cceA7QRW.o
temp11              0x8               C:\Users\ajarr\AppData\Local\Temp\cczww0RR.o
ram_scrub_addr      0x4               C:\Users\ajarr\AppData\Local\Temp\cc6epILV.o
TC_str_ptr          0x4               C:\Users\ajarr\AppData\Local\Temp\cc6epILV.o
eThreeAxisControlMode
                    0x4               C:\Users\ajarr\AppData\Local\Temp\cceA7QRW.o
f_threeaxis2safe    0x4               C:\Users\ajarr\AppData\Local\Temp\cceA7QRW.o
DeltaT_MFC          0x4               C:\Users\ajarr\AppData\Local\Temp\cceA7QRW.o
TC_detumbling_rate_gain
                    0x18              C:\Users\ajarr\AppData\Local\Temp\cceA7QRW.o
esine               0x8               C:\Users\ajarr\AppData\Local\Temp\cceA7QRW.o
gps_obt_count_prev  0x4               C:\Users\ajarr\AppData\Local\Temp\ccecVsE3.o
block_test2         0x1               C:\Users\ajarr\AppData\Local\Temp\cczww0RR.o
T_RW_spin           0x20              C:\Users\ajarr\AppData\Local\Temp\cceA7QRW.o
pl_ack_count        0x2               C:\Users\ajarr\AppData\Local\Temp\cchY9yN1.o
Wk1                 0x48              C:\Users\ajarr\AppData\Local\Temp\cceA7QRW.o
wc_qst              0x4               C:\Users\ajarr\AppData\Local\Temp\cceA7QRW.o
Cross_Product       0x18              C:\Users\ajarr\AppData\Local\Temp\cceA7QRW.o
sd_magad            0x8               C:\Users\ajarr\AppData\Local\Temp\cceA7QRW.o
i_QDP               0x4               C:\Users\ajarr\AppData\Local\Temp\cceA7QRW.o
Z_SPO2ECI           0x18              C:\Users\ajarr\AppData\Local\Temp\cceA7QRW.o
d2                  0x8               C:\Users\ajarr\AppData\Local\Temp\cceA7QRW.o
inter_TM_DP_Addr    0x4               C:\Users\ajarr\AppData\Local\Temp\cc6epILV.o
f_Sunlit_Presence   0x4               C:\Users\ajarr\AppData\Local\Temp\cczww0RR.o
TC_Det_GYRO_Compute_Count
                    0x4               C:\Users\ajarr\AppData\Local\Temp\cceA7QRW.o
pl                  0x8               C:\Users\ajarr\AppData\Local\Temp\cceA7QRW.o
Norm_out            0x18              C:\Users\ajarr\AppData\Local\Temp\cceA7QRW.o
RW_TC               0x10              C:\Users\ajarr\AppData\Local\Temp\ccoK9PBU.o
NRSt                0xc0              C:\Users\ajarr\AppData\Local\Temp\cceA7QRW.o
wheel_index         0x10              C:\Users\ajarr\AppData\Local\Temp\cceA7QRW.o
L_Msun              0x8               C:\Users\ajarr\AppData\Local\Temp\cceA7QRW.o
inter_HAL_IMU_Locations
                    0x4               C:\Users\ajarr\AppData\Local\Temp\cczww0RR.o
vpef                0x18              C:\Users\ajarr\AppData\Local\Temp\cceA7QRW.o
inclination         0x8               C:\Users\ajarr\AppData\Local\Temp\cceA7QRW.o
temp_data_1         0x2               C:\Users\ajarr\AppData\Local\Temp\cchY9yN1.o
TMTC_gain_select_u  0x8               C:\Users\ajarr\AppData\Local\Temp\cc6epILV.o
FirstSpeed          0x10              C:\Users\ajarr\AppData\Local\Temp\cceA7QRW.o
cosio               0x8               C:\Users\ajarr\AppData\Local\Temp\cceA7QRW.o
i_kf                0x4               C:\Users\ajarr\AppData\Local\Temp\cceA7QRW.o
sinlongacnode       0x8               C:\Users\ajarr\AppData\Local\Temp\cceA7QRW.o
ram_scrub_cnt       0x4               C:\Users\ajarr\AppData\Local\Temp\ccIUYBk4.o
minute_sel          0x4               C:\Users\ajarr\AppData\Local\Temp\cceA7QRW.o
SS_M5               0x8               C:\Users\ajarr\AppData\Local\Temp\cceA7QRW.o
inter_at697_var     0x4               C:\Users\ajarr\AppData\Local\Temp\cc6epILV.o
mrt                 0x8               C:\Users\ajarr\AppData\Local\Temp\cceA7QRW.o
PL_on_off_sts_flag  0x2               C:\Users\ajarr\AppData\Local\Temp\cchY9yN1.o
SunAcq2ThreeAx_trsit_cnt_thres
                    0x4               C:\Users\ajarr\AppData\Local\Temp\cceA7QRW.o
block_test1         0x1               C:\Users\ajarr\AppData\Local\Temp\cczww0RR.o
MR                  0x8               C:\Users\ajarr\AppData\Local\Temp\cceA7QRW.o
Qk                  0x288             C:\Users\ajarr\AppData\Local\Temp\cceA7QRW.o
TC_history_table    0x810             C:\Users\ajarr\AppData\Local\Temp\cc6epILV.o
VelY_ECEF_GPS       0x8               C:\Users\ajarr\AppData\Local\Temp\cceA7QRW.o
Bprev               0x18              C:\Users\ajarr\AppData\Local\Temp\cczww0RR.o
inter_sunsensor_j   0x4               C:\Users\ajarr\AppData\Local\Temp\cczww0RR.o
SC4ImaxF            0x8               C:\Users\ajarr\AppData\Local\Temp\cczww0RR.o
Matout33            0x48              C:\Users\ajarr\AppData\Local\Temp\cceA7QRW.o
mon_TLE_tc          0x4               C:\Users\ajarr\AppData\Local\Temp\cceA7QRW.o
TC_GYRO_Det_Min_Thresh
                    0x8               C:\Users\ajarr\AppData\Local\Temp\cceA7QRW.o
betal               0x8               C:\Users\ajarr\AppData\Local\Temp\cceA7QRW.o
Qquest_update       0x20              C:\Users\ajarr\AppData\Local\Temp\cceA7QRW.o
ST_TC_header_Buffer
                    0xc               C:\Users\ajarr\AppData\Local\Temp\cc6epILV.o
i_god               0x4               C:\Users\ajarr\AppData\Local\Temp\cceA7QRW.o
mo                  0x8               C:\Users\ajarr\AppData\Local\Temp\cceA7QRW.o
TC_magMax_angle     0x8               C:\Users\ajarr\AppData\Local\Temp\cceA7QRW.o
heater_manual_tc    0x2               C:\Users\ajarr\AppData\Local\Temp\ccoo9rYu.o
tt                  0x20              C:\Users\ajarr\AppData\Local\Temp\cceA7QRW.o
hk                  0x18              C:\Users\ajarr\AppData\Local\Temp\cceA7QRW.o
dpsi                0x8               C:\Users\ajarr\AppData\Local\Temp\cceA7QRW.o
Spec_ST_Table_Row_No
                    0x4               C:\Users\ajarr\AppData\Local\Temp\cc6epILV.o
RW_Buffer_u_rx      0x200             C:\Users\ajarr\AppData\Local\Temp\ccoK9PBU.o
con41               0x8               C:\Users\ajarr\AppData\Local\Temp\cceA7QRW.o
CB_Sun_model        0x4               C:\Users\ajarr\AppData\Local\Temp\cceA7QRW.o
SunNPP_SAMtransit_count_limit
                    0x4               C:\Users\ajarr\AppData\Local\Temp\cczww0RR.o
R_SVO2ECI           0x48              C:\Users\ajarr\AppData\Local\Temp\cceA7QRW.o
qk_plus_temp        0x20              C:\Users\ajarr\AppData\Local\Temp\cceA7QRW.o
delta_hmag          0x8               C:\Users\ajarr\AppData\Local\Temp\cceA7QRW.o
Roll_pos_ND         0x8               C:\Users\ajarr\AppData\Local\Temp\cczww0RR.o
Q_REF_conj          0x20              C:\Users\ajarr\AppData\Local\Temp\cceA7QRW.o
RW_ARC_Logic        0x4               C:\Users\ajarr\AppData\Local\Temp\cceA7QRW.o
MP                  0x8               C:\Users\ajarr\AppData\Local\Temp\cceA7QRW.o
ltp12               0x4               C:\Users\ajarr\AppData\Local\Temp\ccoo9rYu.o
GPS_obc_checkum     0x1               C:\Users\ajarr\AppData\Local\Temp\ccecVsE3.o
Remote_minotoring_addr
                    0x4               C:\Users\ajarr\AppData\Local\Temp\ccIUYBk4.o
Matout31            0x18              C:\Users\ajarr\AppData\Local\Temp\cceA7QRW.o
DelThta_cat_x       0x4               C:\Users\ajarr\AppData\Local\Temp\cceA7QRW.o
inclination_temp    0x8               C:\Users\ajarr\AppData\Local\Temp\cceA7QRW.o
Xk_plus             0x48              C:\Users\ajarr\AppData\Local\Temp\cceA7QRW.o
tempdata2           0x1               C:\Users\ajarr\AppData\Local\Temp\cczww0RR.o
IMU2_Corr           0x144             C:\Users\ajarr\AppData\Local\Temp\cc6epILV.o
eol                 0x8               C:\Users\ajarr\AppData\Local\Temp\cceA7QRW.o
spin_up_avg_count_2
                    0x4               C:\Users\ajarr\AppData\Local\Temp\cceA7QRW.o
tc_cnt_test         0x4               C:\Users\ajarr\AppData\Local\Temp\cczww0RR.o
tsi                 0x8               C:\Users\ajarr\AppData\Local\Temp\cceA7QRW.o
phi_11              0x48              C:\Users\ajarr\AppData\Local\Temp\cceA7QRW.o
BDOT                0x18              C:\Users\ajarr\AppData\Local\Temp\cczww0RR.o
TC_data_command_Table
                    0x68              C:\Users\ajarr\AppData\Local\Temp\cc6epILV.o
pl_test12           0x4               C:\Users\ajarr\AppData\Local\Temp\cchY9yN1.o
GPS_pulse_rcvd      0x4               C:\Users\ajarr\AppData\Local\Temp\ccecVsE3.o
tempta              0x8               C:\Users\ajarr\AppData\Local\Temp\cceA7QRW.o
Cond1               0x8               C:\Users\ajarr\AppData\Local\Temp\cceA7QRW.o
RW_Write_ptr        0x4               C:\Users\ajarr\AppData\Local\Temp\ccoK9PBU.o
phi_12_temp1        0x48              C:\Users\ajarr\AppData\Local\Temp\cceA7QRW.o
GPS2_ptr            0x4               C:\Users\ajarr\AppData\Local\Temp\ccecVsE3.o
Yaw_MTREnable       0x4               C:\Users\ajarr\AppData\Local\Temp\cceA7QRW.o
J_DAD               0x4               C:\Users\ajarr\AppData\Local\Temp\cceA7QRW.o
CB_RefVectorGeneration
                    0x4               C:\Users\ajarr\AppData\Local\Temp\cceA7QRW.o
magrsun             0x8               C:\Users\ajarr\AppData\Local\Temp\cceA7QRW.o
inter_HAL_IMU_Buffer_Addr
                    0x4               C:\Users\ajarr\AppData\Local\Temp\cczww0RR.o
ao_temp             0x8               C:\Users\ajarr\AppData\Local\Temp\cceA7QRW.o
bbbb                0x4               C:\Users\ajarr\AppData\Local\Temp\cc6epILV.o
TachoHyst           0x10              C:\Users\ajarr\AppData\Local\Temp\cceA7QRW.o
TC_wp_QDP           0x4               C:\Users\ajarr\AppData\Local\Temp\cceA7QRW.o
pl_HLT_en           0x1               C:\Users\ajarr\AppData\Local\Temp\cchY9yN1.o
pk_plus_one         0x288             C:\Users\ajarr\AppData\Local\Temp\cceA7QRW.o
CB_Wheel_Dynamic_Friction
                    0x4               C:\Users\ajarr\AppData\Local\Temp\cceA7QRW.o
B_ECEF              0x18              C:\Users\ajarr\AppData\Local\Temp\cceA7QRW.o
Sun_Dis             0x8               C:\Users\ajarr\AppData\Local\Temp\cceA7QRW.o
A_R                 0x8               C:\Users\ajarr\AppData\Local\Temp\cceA7QRW.o
RW_TM_Raw_Data_ptr  0x4               C:\Users\ajarr\AppData\Local\Temp\ccoK9PBU.o
vy                  0x8               C:\Users\ajarr\AppData\Local\Temp\cceA7QRW.o
no                  0x8               C:\Users\ajarr\AppData\Local\Temp\cceA7QRW.o
beta_DAD            0x8               C:\Users\ajarr\AppData\Local\Temp\cceA7QRW.o
mo_GPS              0x8               C:\Users\ajarr\AppData\Local\Temp\cceA7QRW.o
alpha_DAD           0x8               C:\Users\ajarr\AppData\Local\Temp\cceA7QRW.o
B_ASC               0x18              C:\Users\ajarr\AppData\Local\Temp\cczww0RR.o
Top_index           0x4               C:\Users\ajarr\AppData\Local\Temp\ccIUYBk4.o
SC3                 0x8               C:\Users\ajarr\AppData\Local\Temp\cczww0RR.o
DCM2Q_out           0x20              C:\Users\ajarr\AppData\Local\Temp\cceA7QRW.o
data                0x4               C:\Users\ajarr\AppData\Local\Temp\cchY9yN1.o
Q_SFAO2ECI          0x20              C:\Users\ajarr\AppData\Local\Temp\cceA7QRW.o
SS_prcd_data        0x18              C:\Users\ajarr\AppData\Local\Temp\cczww0RR.o
Minor_Cycle_Count   0x4               C:\Users\ajarr\AppData\Local\Temp\cc6epILV.o
rk_Qk_rk_T          0x288             C:\Users\ajarr\AppData\Local\Temp\cceA7QRW.o
ee_blk_no           0x1               C:\Users\ajarr\AppData\Local\Temp\cc6epILV.o
ao                  0x8               C:\Users\ajarr\AppData\Local\Temp\cceA7QRW.o
Numofdays           0x4               C:\Users\ajarr\AppData\Local\Temp\cceA7QRW.o
TC_SunMagAD         0x4               C:\Users\ajarr\AppData\Local\Temp\cceA7QRW.o
S_ECIn              0x18              C:\Users\ajarr\AppData\Local\Temp\cceA7QRW.o
longitude           0x8               C:\Users\ajarr\AppData\Local\Temp\cceA7QRW.o
Quest_update_available
                    0x4               C:\Users\ajarr\AppData\Local\Temp\cceA7QRW.o
N_ecc               0x8               C:\Users\ajarr\AppData\Local\Temp\cceA7QRW.o
ab_test             0x4               C:\Users\ajarr\AppData\Local\Temp\cczww0RR.o
M_MAGAD             0x4               C:\Users\ajarr\AppData\Local\Temp\cceA7QRW.o
minute_TLE_tc       0x4               C:\Users\ajarr\AppData\Local\Temp\cceA7QRW.o
cossu               0x8               C:\Users\ajarr\AppData\Local\Temp\cceA7QRW.o
sin_of_W_norm_Delta_by2_W_norm_and_big_omega
                    0x80              C:\Users\ajarr\AppData\Local\Temp\cceA7QRW.o
cc4                 0x8               C:\Users\ajarr\AppData\Local\Temp\cceA7QRW.o
phi_k_pk_plus       0x288             C:\Users\ajarr\AppData\Local\Temp\cceA7QRW.o
Manual_flag         0x4               C:\Users\ajarr\AppData\Local\Temp\ccoo9rYu.o
trueanomoly_sel     0x8               C:\Users\ajarr\AppData\Local\Temp\cceA7QRW.o
MOI_wh              0x8               C:\Users\ajarr\AppData\Local\Temp\cceA7QRW.o
STATION_ECEF        0x18              C:\Users\ajarr\AppData\Local\Temp\cceA7QRW.o
ele1                0x8               C:\Users\ajarr\AppData\Local\Temp\cczww0RR.o
fN_MAGAD            0x4               C:\Users\ajarr\AppData\Local\Temp\cceA7QRW.o
DFCGainSL           0x20              C:\Users\ajarr\AppData\Local\Temp\cceA7QRW.o
sinmao              0x8               C:\Users\ajarr\AppData\Local\Temp\cceA7QRW.o
snod                0x8               C:\Users\ajarr\AppData\Local\Temp\cceA7QRW.o
cos_of_W_norm_Delta_by2_with_I
                    0x80              C:\Users\ajarr\AppData\Local\Temp\cceA7QRW.o
cl_magad            0x70              C:\Users\ajarr\AppData\Local\Temp\cceA7QRW.o
i_gh                0x1               C:\Users\ajarr\AppData\Local\Temp\cceA7QRW.o
Tdet                0x18              C:\Users\ajarr\AppData\Local\Temp\cceA7QRW.o
ST_frame_count      0x2               C:\Users\ajarr\AppData\Local\Temp\cc6epILV.o
nm                  0x8               C:\Users\ajarr\AppData\Local\Temp\cceA7QRW.o
TTDB3               0x8               C:\Users\ajarr\AppData\Local\Temp\cceA7QRW.o
ST_Dest_Addr        0x4               C:\Users\ajarr\AppData\Local\Temp\cc6epILV.o
del_Vw              0x20              C:\Users\ajarr\AppData\Local\Temp\cceA7QRW.o
d4                  0x8               C:\Users\ajarr\AppData\Local\Temp\cceA7QRW.o
SC6                 0x8               C:\Users\ajarr\AppData\Local\Temp\cczww0RR.o
alpha_I_DAD         0x48              C:\Users\ajarr\AppData\Local\Temp\cceA7QRW.o
sc_qst              0x4               C:\Users\ajarr\AppData\Local\Temp\cceA7QRW.o
t2cof               0x8               C:\Users\ajarr\AppData\Local\Temp\cceA7QRW.o
rpef                0x18              C:\Users\ajarr\AppData\Local\Temp\cceA7QRW.o
CB_LinearController
                    0x4               C:\Users\ajarr\AppData\Local\Temp\cceA7QRW.o
Thermistor_Selection
                    0x38              C:\Users\ajarr\AppData\Local\Temp\ccoo9rYu.o
RW_4                0x10              C:\Users\ajarr\AppData\Local\Temp\ccoK9PBU.o
TC_Bdot_Gain        0x18              C:\Users\ajarr\AppData\Local\Temp\cceA7QRW.o
block_test3         0x1               C:\Users\ajarr\AppData\Local\Temp\cczww0RR.o
TC_wAD_BODYmaxThPitch
                    0x8               C:\Users\ajarr\AppData\Local\Temp\cceA7QRW.o
LPFK2HighSL         0x8               C:\Users\ajarr\AppData\Local\Temp\cceA7QRW.o
suu                 0x8               C:\Users\ajarr\AppData\Local\Temp\cceA7QRW.o
Pos_ECI_GPS         0x18              C:\Users\ajarr\AppData\Local\Temp\cceA7QRW.o
Alti_Mod            0x8               C:\Users\ajarr\AppData\Local\Temp\cceA7QRW.o
pl_x_tx_data_off_flag
                    0x4               C:\Users\ajarr\AppData\Local\Temp\cchY9yN1.o
Msun                0x8               C:\Users\ajarr\AppData\Local\Temp\cceA7QRW.o
alpha_2RW_tempnorm  0x8               C:\Users\ajarr\AppData\Local\Temp\cceA7QRW.o
X_SFAO2ECI          0x18              C:\Users\ajarr\AppData\Local\Temp\cceA7QRW.o
ss_main_db_checksum_obc
                    0x4               C:\Users\ajarr\AppData\Local\Temp\cc6epILV.o
Q_REF               0x20              C:\Users\ajarr\AppData\Local\Temp\cceA7QRW.o
rp                  0x8               C:\Users\ajarr\AppData\Local\Temp\cceA7QRW.o
nodeo_tc            0x8               C:\Users\ajarr\AppData\Local\Temp\cceA7QRW.o
DelThta_rawdata     0x18              C:\Users\ajarr\AppData\Local\Temp\cczww0RR.o
Y_EPO2ECI           0x18              C:\Users\ajarr\AppData\Local\Temp\cceA7QRW.o
GPS1_ptr            0x4               C:\Users\ajarr\AppData\Local\Temp\ccecVsE3.o
temp_data_rw        0x2               C:\Users\ajarr\AppData\Local\Temp\cczww0RR.o
w_BODYnorm          0x8               C:\Users\ajarr\AppData\Local\Temp\cczww0RR.o
radialdistance_ecef
                    0x8               C:\Users\ajarr\AppData\Local\Temp\cceA7QRW.o
CB_QuestDataProcessing
                    0x4               C:\Users\ajarr\AppData\Local\Temp\cceA7QRW.o
ST_Out_latch_5      0x2               C:\Users\ajarr\AppData\Local\Temp\cc6epILV.o
year_sel            0x4               C:\Users\ajarr\AppData\Local\Temp\cceA7QRW.o
sinio               0x8               C:\Users\ajarr\AppData\Local\Temp\cceA7QRW.o
TC_EarthPointingFrame
                    0x4               C:\Users\ajarr\AppData\Local\Temp\cceA7QRW.o
Epsilon             0x8               C:\Users\ajarr\AppData\Local\Temp\cceA7QRW.o
j_god               0x4               C:\Users\ajarr\AppData\Local\Temp\cceA7QRW.o
Qk_temp1            0x8               C:\Users\ajarr\AppData\Local\Temp\cceA7QRW.o
TTDB                0x8               C:\Users\ajarr\AppData\Local\Temp\cceA7QRW.o
TC_SpeedAngularMomemtumDumping
                    0x4               C:\Users\ajarr\AppData\Local\Temp\cceA7QRW.o
pre_temp            0x48              C:\Users\ajarr\AppData\Local\Temp\cceA7QRW.o
VelX_ECEF_GPS       0x8               C:\Users\ajarr\AppData\Local\Temp\cceA7QRW.o
Z_SFDO2ECI          0x18              C:\Users\ajarr\AppData\Local\Temp\cceA7QRW.o
X_SFDO2ECI_mag      0x8               C:\Users\ajarr\AppData\Local\Temp\cceA7QRW.o
imu_data_ready_count
                    0x4               C:\Users\ajarr\AppData\Local\Temp\ccTwgEYO.o
battery_temp_1      0x4               C:\Users\ajarr\AppData\Local\Temp\ccEKVXdT.o
LPFK1LowSL          0x8               C:\Users\ajarr\AppData\Local\Temp\cceA7QRW.o
BLK_number          0x1               C:\Users\ajarr\AppData\Local\Temp\cczww0RR.o
DFCCountLimSL       0x10              C:\Users\ajarr\AppData\Local\Temp\cceA7QRW.o
am_temp             0x8               C:\Users\ajarr\AppData\Local\Temp\cceA7QRW.o
k_DAD               0x8               C:\Users\ajarr\AppData\Local\Temp\cceA7QRW.o
Qk_temp3            0x8               C:\Users\ajarr\AppData\Local\Temp\cceA7QRW.o
TCH_read_full_ptr   0x4               C:\Users\ajarr\AppData\Local\Temp\cc6epILV.o
sec_TLE_tc          0x8               C:\Users\ajarr\AppData\Local\Temp\cceA7QRW.o
ss_data             0x1e              C:\Users\ajarr\AppData\Local\Temp\ccEKVXdT.o
SS_M1               0x8               C:\Users\ajarr\AppData\Local\Temp\cceA7QRW.o
GPS_Status2_Msg     0x2               C:\Users\ajarr\AppData\Local\Temp\ccecVsE3.o
HILS_packet         0x40              C:\Users\ajarr\AppData\Local\Temp\cc6epILV.o
inter_at697f_count  0x4               C:\Users\ajarr\AppData\Local\Temp\cc6epILV.o
invangmomentumvecmag
                    0x8               C:\Users\ajarr\AppData\Local\Temp\cceA7QRW.o
TMTC_boolean_u      0x8               C:\Users\ajarr\AppData\Local\Temp\cc6epILV.o
rvdotl              0x8               C:\Users\ajarr\AppData\Local\Temp\cceA7QRW.o
sa_test             0x4               C:\Users\ajarr\AppData\Local\Temp\ccc7OliV.o
Pos_ECEFn           0x18              C:\Users\ajarr\AppData\Local\Temp\cceA7QRW.o
Block_Index         0x100             C:\Users\ajarr\AppData\Local\Temp\ccIUYBk4.o
X_EPO2ECI_mag       0x8               C:\Users\ajarr\AppData\Local\Temp\cceA7QRW.o
emsq                0x8               C:\Users\ajarr\AppData\Local\Temp\cceA7QRW.o
c_DAD               0x8               C:\Users\ajarr\AppData\Local\Temp\cceA7QRW.o
Pitch_pos           0x8               C:\Users\ajarr\AppData\Local\Temp\cczww0RR.o
ST_TC_history_final_Buffer
                    0xfa00            C:\Users\ajarr\AppData\Local\Temp\cc6epILV.o
NEDtoECEF           0x48              C:\Users\ajarr\AppData\Local\Temp\cceA7QRW.o
TM_IMU2             0x18              C:\Users\ajarr\AppData\Local\Temp\cc6epILV.o
sine2               0x8               C:\Users\ajarr\AppData\Local\Temp\cceA7QRW.o
TB_sMD              0x18              C:\Users\ajarr\AppData\Local\Temp\cceA7QRW.o
DB_MagLPF           0x8               C:\Users\ajarr\AppData\Local\Temp\cceA7QRW.o
ss_redundant_db_checksum_obc
                    0x4               C:\Users\ajarr\AppData\Local\Temp\cc6epILV.o
GPSDataReady_NA_count
                    0x4               C:\Users\ajarr\AppData\Local\Temp\cceA7QRW.o
ecc                 0x8               C:\Users\ajarr\AppData\Local\Temp\cceA7QRW.o
ref_cross           0x48              C:\Users\ajarr\AppData\Local\Temp\cceA7QRW.o
cosip               0x8               C:\Users\ajarr\AppData\Local\Temp\cceA7QRW.o
CB_ErrorComputation
                    0x4               C:\Users\ajarr\AppData\Local\Temp\cceA7QRW.o
rw_tm_count         0x4               C:\Users\ajarr\AppData\Local\Temp\ccoK9PBU.o
ecc_r               0x8               C:\Users\ajarr\AppData\Local\Temp\cceA7QRW.o
Thta_BODY_IMU1      0x18              C:\Users\ajarr\AppData\Local\Temp\cczww0RR.o
Norm_ST_Table_Row_No
                    0x4               C:\Users\ajarr\AppData\Local\Temp\cc6epILV.o
TC_long_station     0x8               C:\Users\ajarr\AppData\Local\Temp\cceA7QRW.o
manual_on_off       0x4               C:\Users\ajarr\AppData\Local\Temp\ccoo9rYu.o
H_wh                0x20              C:\Users\ajarr\AppData\Local\Temp\cceA7QRW.o
SS_Data             0x80              C:\Users\ajarr\AppData\Local\Temp\cczww0RR.o
wh_sdump_start      0x10              C:\Users\ajarr\AppData\Local\Temp\cceA7QRW.o
temp_prop           0x8               C:\Users\ajarr\AppData\Local\Temp\cceA7QRW.o
Z_SFAO2ECI_mag      0x8               C:\Users\ajarr\AppData\Local\Temp\cceA7QRW.o
Tsince_GPS          0x8               C:\Users\ajarr\AppData\Local\Temp\cceA7QRW.o
Pitch_Pol           0x4               C:\Users\ajarr\AppData\Local\Temp\cckLW0x4.o
SC2ImaxF            0x8               C:\Users\ajarr\AppData\Local\Temp\cczww0RR.o
pres_exp_whsp_ch    0x20              C:\Users\ajarr\AppData\Local\Temp\cceA7QRW.o
m_gh                0x1               C:\Users\ajarr\AppData\Local\Temp\cceA7QRW.o
B_ECItesla          0x18              C:\Users\ajarr\AppData\Local\Temp\cceA7QRW.o
Result_of_sine_Delta_cube
                    0x8               C:\Users\ajarr\AppData\Local\Temp\cceA7QRW.o
Pse_Inv_Dist_Mat    0x60              C:\Users\ajarr\AppData\Local\Temp\cceA7QRW.o
LPFK2LowSL          0x8               C:\Users\ajarr\AppData\Local\Temp\cceA7QRW.o
pl_hlt_flag         0x2               C:\Users\ajarr\AppData\Local\Temp\cchY9yN1.o
ux                  0x8               C:\Users\ajarr\AppData\Local\Temp\cceA7QRW.o
TC_KP               0x18              C:\Users\ajarr\AppData\Local\Temp\cceA7QRW.o
templ               0x8               C:\Users\ajarr\AppData\Local\Temp\cceA7QRW.o
GPS_Data            0x4               C:\Users\ajarr\AppData\Local\Temp\ccecVsE3.o
cos_of_W_norm_and_Delta_by2
                    0x8               C:\Users\ajarr\AppData\Local\Temp\cceA7QRW.o
Q_StP2ECI           0x20              C:\Users\ajarr\AppData\Local\Temp\cceA7QRW.o
phi_11_temp3        0x48              C:\Users\ajarr\AppData\Local\Temp\cceA7QRW.o
phi_11_temp2        0x48              C:\Users\ajarr\AppData\Local\Temp\cceA7QRW.o
Normal_st_table_page3
                    0x4               C:\Users\ajarr\AppData\Local\Temp\cc6epILV.o
wo                  0x8               C:\Users\ajarr\AppData\Local\Temp\cceA7QRW.o
gamma_DAD           0x8               C:\Users\ajarr\AppData\Local\Temp\cceA7QRW.o
epochdays_GPS       0x8               C:\Users\ajarr\AppData\Local\Temp\cceA7QRW.o
UTC_min_GPS         0x4               C:\Users\ajarr\AppData\Local\Temp\cceA7QRW.o
CB_Detumbling_Mode  0x4               C:\Users\ajarr\AppData\Local\Temp\cceA7QRW.o
phi_k_pk_plus_phi_k_T
                    0x288             C:\Users\ajarr\AppData\Local\Temp\cceA7QRW.o
comb2               0x8               C:\Users\ajarr\AppData\Local\Temp\cczww0RR.o
imu2_db_checksum_obc
                    0x4               C:\Users\ajarr\AppData\Local\Temp\cczww0RR.o
Qerror              0x20              C:\Users\ajarr\AppData\Local\Temp\cceA7QRW.o
TC_delUT1           0x8               C:\Users\ajarr\AppData\Local\Temp\cceA7QRW.o
OBT_at_TLE_uplink   0x4               C:\Users\ajarr\AppData\Local\Temp\cceA7QRW.o
MP_Polarity         0x4               C:\Users\ajarr\AppData\Local\Temp\cceA7QRW.o
argpo               0x8               C:\Users\ajarr\AppData\Local\Temp\cceA7QRW.o
am_den              0x8               C:\Users\ajarr\AppData\Local\Temp\cceA7QRW.o
Nodeptr             0xfa0             C:\Users\ajarr\AppData\Local\Temp\ccIUYBk4.o
mat_mult            0x48              C:\Users\ajarr\AppData\Local\Temp\cceA7QRW.o
delm                0x8               C:\Users\ajarr\AppData\Local\Temp\cceA7QRW.o
RW_Write_Data       0x14              C:\Users\ajarr\AppData\Local\Temp\ccoK9PBU.o
Tdefnorm            0x8               C:\Users\ajarr\AppData\Local\Temp\cceA7QRW.o
GPS_RCVD_DATA       0x1a8             C:\Users\ajarr\AppData\Local\Temp\ccecVsE3.o
WhMom0              0x20              C:\Users\ajarr\AppData\Local\Temp\cceA7QRW.o
Pos_ECIn            0x18              C:\Users\ajarr\AppData\Local\Temp\cceA7QRW.o
cc1sq               0x8               C:\Users\ajarr\AppData\Local\Temp\cceA7QRW.o
TC_wAD_BODYmaxThRoll
                    0x8               C:\Users\ajarr\AppData\Local\Temp\cceA7QRW.o
TC_wAD_BODYminThPitch
                    0x8               C:\Users\ajarr\AppData\Local\Temp\cceA7QRW.o
I_MAGAD             0x4               C:\Users\ajarr\AppData\Local\Temp\cceA7QRW.o
ecc_temp5           0x8               C:\Users\ajarr\AppData\Local\Temp\cceA7QRW.o
Special_st_table_page2
                    0x4               C:\Users\ajarr\AppData\Local\Temp\cc6epILV.o
jd_time             0x8               C:\Users\ajarr\AppData\Local\Temp\cceA7QRW.o
ecco                0x8               C:\Users\ajarr\AppData\Local\Temp\cceA7QRW.o
vsaty_eci           0x8               C:\Users\ajarr\AppData\Local\Temp\cceA7QRW.o
aaaa                0x4               C:\Users\ajarr\AppData\Local\Temp\cc6epILV.o
eeprom_flag         0x1               C:\Users\ajarr\AppData\Local\Temp\cc6epILV.o
xlcof               0x8               C:\Users\ajarr\AppData\Local\Temp\cceA7QRW.o
K_temp              0x48              C:\Users\ajarr\AppData\Local\Temp\cceA7QRW.o
inter_Update_TM_With_ADC_offset
                    0x4               C:\Users\ajarr\AppData\Local\Temp\ccEKVXdT.o
h                   0x780             C:\Users\ajarr\AppData\Local\Temp\cceA7QRW.o
gps_obt_counter     0x4               C:\Users\ajarr\AppData\Local\Temp\ccecVsE3.o
NMS_NRSt            0x48              C:\Users\ajarr\AppData\Local\Temp\cceA7QRW.o
IMU_Config_Done     0x4               C:\Users\ajarr\AppData\Local\Temp\cczww0RR.o
latitude            0x8               C:\Users\ajarr\AppData\Local\Temp\cceA7QRW.o
TC_buffer_count     0x4b0             C:\Users\ajarr\AppData\Local\Temp\ccIUYBk4.o
Absolutetime        0x4               C:\Users\ajarr\AppData\Local\Temp\ccIUYBk4.o
addr_pointer_TM     0x4               C:\Users\ajarr\AppData\Local\Temp\cc6epILV.o
TC_Det_Bprev_Count  0x4               C:\Users\ajarr\AppData\Local\Temp\cceA7QRW.o
pl_acq_flag         0x4               C:\Users\ajarr\AppData\Local\Temp\cchY9yN1.o
GPS_TM_Buffer_Addr_USC
                    0x4               C:\Users\ajarr\AppData\Local\Temp\ccecVsE3.o
Vel_ECEF_temp       0x18              C:\Users\ajarr\AppData\Local\Temp\cceA7QRW.o
count_arc_w2        0x4               C:\Users\ajarr\AppData\Local\Temp\cceA7QRW.o
Y_EPO2ECI_mag       0x8               C:\Users\ajarr\AppData\Local\Temp\cceA7QRW.o
cd_magad            0x8               C:\Users\ajarr\AppData\Local\Temp\cceA7QRW.o
imu1_db_checksum_obc
                    0x4               C:\Users\ajarr\AppData\Local\Temp\cczww0RR.o
latitude_GPS        0x8               C:\Users\ajarr\AppData\Local\Temp\cceA7QRW.o
del_v0              0x20              C:\Users\ajarr\AppData\Local\Temp\cceA7QRW.o
RW_ARC_Count        0x4               C:\Users\ajarr\AppData\Local\Temp\cceA7QRW.o
RW_TM               0x200             C:\Users\ajarr\AppData\Local\Temp\ccoK9PBU.o
TC_AutoTransitAnyMode2Det
                    0x4               C:\Users\ajarr\AppData\Local\Temp\cceA7QRW.o
DFCTorq             0x20              C:\Users\ajarr\AppData\Local\Temp\cceA7QRW.o
Spec_ST_Table       0x2028            C:\Users\ajarr\AppData\Local\Temp\cc6epILV.o
sinim               0x8               C:\Users\ajarr\AppData\Local\Temp\cceA7QRW.o
var                 0x8               C:\Users\ajarr\AppData\Local\Temp\cceA7QRW.o
qk_minus            0x20              C:\Users\ajarr\AppData\Local\Temp\cceA7QRW.o
Q_REF_prev_conj     0x20              C:\Users\ajarr\AppData\Local\Temp\cceA7QRW.o
cosu                0x8               C:\Users\ajarr\AppData\Local\Temp\cceA7QRW.o
BDOTNormCount       0x4               C:\Users\ajarr\AppData\Local\Temp\cceA7QRW.o
BDOT_Norm_Count     0x4               C:\Users\ajarr\AppData\Local\Temp\cceA7QRW.o
Susp_cnt            0x4               C:\Users\ajarr\AppData\Local\Temp\cceA7QRW.o
Buffer              0x8b9             C:\Users\ajarr\AppData\Local\Temp\cc6epILV.o
Out_Latch_3         0x2               C:\Users\ajarr\AppData\Local\Temp\cc6epILV.o
SS_Main_DB          0x284             C:\Users\ajarr\AppData\Local\Temp\cc6epILV.o
ao_sfour            0x8               C:\Users\ajarr\AppData\Local\Temp\cceA7QRW.o
precession          0x48              C:\Users\ajarr\AppData\Local\Temp\cceA7QRW.o
Z_SFAO2ECI          0x18              C:\Users\ajarr\AppData\Local\Temp\cceA7QRW.o
S_sqr_DAD           0x48              C:\Users\ajarr\AppData\Local\Temp\cceA7QRW.o
nodeo               0x8               C:\Users\ajarr\AppData\Local\Temp\cceA7QRW.o
R_StP2ECI           0x48              C:\Users\ajarr\AppData\Local\Temp\cceA7QRW.o
inter_HAL_RW_Read_Addr
                    0x4               C:\Users\ajarr\AppData\Local\Temp\ccoK9PBU.o
theta1              0x8               C:\Users\ajarr\AppData\Local\Temp\cceA7QRW.o
sun_noise           0x8               C:\Users\ajarr\AppData\Local\Temp\cceA7QRW.o
TC_Hmin             0x8               C:\Users\ajarr\AppData\Local\Temp\cceA7QRW.o
TC_magMin_angle     0x8               C:\Users\ajarr\AppData\Local\Temp\cceA7QRW.o
IMU_Data_Available  0x4               C:\Users\ajarr\AppData\Local\Temp\cczww0RR.o
ecc_sel             0x8               C:\Users\ajarr\AppData\Local\Temp\cceA7QRW.o
n_gh                0x1               C:\Users\ajarr\AppData\Local\Temp\cceA7QRW.o
ecc_temp7           0x8               C:\Users\ajarr\AppData\Local\Temp\cceA7QRW.o
etempe              0x8               C:\Users\ajarr\AppData\Local\Temp\cceA7QRW.o
Dest_end_addr       0x4               C:\Users\ajarr\AppData\Local\Temp\cc6epILV.o
A1_magad            0x8               C:\Users\ajarr\AppData\Local\Temp\cceA7QRW.o
R_SPO2ECI           0x48              C:\Users\ajarr\AppData\Local\Temp\cceA7QRW.o
xsatx_eci           0x8               C:\Users\ajarr\AppData\Local\Temp\cceA7QRW.o
no_GPS              0x8               C:\Users\ajarr\AppData\Local\Temp\cceA7QRW.o
Yk_minus_hk         0x18              C:\Users\ajarr\AppData\Local\Temp\cceA7QRW.o
__bcc_isr_list      0x80              c:/opt/bcc-2.0.2-gcc/bin/../sparc-gaisler-elf/bsp/leon2/leon/mfix-at697f\libbcc.a(isr.c.o)
TDT                 0x8               C:\Users\ajarr\AppData\Local\Temp\cceA7QRW.o
test_gps_conf5      0x4               C:\Users\ajarr\AppData\Local\Temp\ccecVsE3.o
w_BODY_IMU1         0x18              C:\Users\ajarr\AppData\Local\Temp\cczww0RR.o
B_ABC               0x18              C:\Users\ajarr\AppData\Local\Temp\cczww0RR.o
qk_DCM              0x48              C:\Users\ajarr\AppData\Local\Temp\cceA7QRW.o
TMC_ptr             0x4               C:\Users\ajarr\AppData\Local\Temp\ccoK9PBU.o
mat_mag_DataCounter
                    0x4               C:\Users\ajarr\AppData\Local\Temp\cceA7QRW.o
argpo_sel           0x8               C:\Users\ajarr\AppData\Local\Temp\cceA7QRW.o
dak                 0x4               C:\Users\ajarr\AppData\Local\Temp\ccoK9PBU.o
SunNPP_SMtransit_counter
                    0x4               C:\Users\ajarr\AppData\Local\Temp\cczww0RR.o
psetasq             0x8               C:\Users\ajarr\AppData\Local\Temp\cceA7QRW.o
f_battery_safemode  0x4               C:\Users\ajarr\AppData\Local\Temp\cceA7QRW.o
Pos_ECI             0x18              C:\Users\ajarr\AppData\Local\Temp\cceA7QRW.o
e_vecdtr            0x8               C:\Users\ajarr\AppData\Local\Temp\cceA7QRW.o
nodeo_TLE_tc        0x8               C:\Users\ajarr\AppData\Local\Temp\cceA7QRW.o
inter_HAL_IMU_Status_Data
                    0x4               C:\Users\ajarr\AppData\Local\Temp\cczww0RR.o
pl_diag_flag        0x4               C:\Users\ajarr\AppData\Local\Temp\cchY9yN1.o
L_Ecliptic          0x8               C:\Users\ajarr\AppData\Local\Temp\cceA7QRW.o
trueanomoly_TLE_tc  0x8               C:\Users\ajarr\AppData\Local\Temp\cceA7QRW.o
w_q_update_satisfy  0x4               C:\Users\ajarr\AppData\Local\Temp\cceA7QRW.o
rteosq              0x8               C:\Users\ajarr\AppData\Local\Temp\cceA7QRW.o
lmonth              0x34              C:\Users\ajarr\AppData\Local\Temp\cceA7QRW.o
R_SFDO2ECI          0x48              C:\Users\ajarr\AppData\Local\Temp\cceA7QRW.o
UTC_sec_GPS         0x8               C:\Users\ajarr\AppData\Local\Temp\cceA7QRW.o
M_quad              0x8               C:\Users\ajarr\AppData\Local\Temp\cceA7QRW.o
ss2b                0x48              C:\Users\ajarr\AppData\Local\Temp\cczww0RR.o
GPS_msg_header_LSB  0x4               C:\Users\ajarr\AppData\Local\Temp\ccecVsE3.o
speedDFCch          0x8               C:\Users\ajarr\AppData\Local\Temp\cceA7QRW.o
dc_qst              0x4               C:\Users\ajarr\AppData\Local\Temp\cceA7QRW.o
IMU_1_DB            0x144             C:\Users\ajarr\AppData\Local\Temp\cc6epILV.o
inter_HAL_RW_Read_Limit
                    0x4               C:\Users\ajarr\AppData\Local\Temp\ccoK9PBU.o
cc1                 0x8               C:\Users\ajarr\AppData\Local\Temp\cceA7QRW.o
X_SVO2ECI           0x18              C:\Users\ajarr\AppData\Local\Temp\cceA7QRW.o
tut1                0x8               C:\Users\ajarr\AppData\Local\Temp\cceA7QRW.o
Tdeficit_temp2      0x18              C:\Users\ajarr\AppData\Local\Temp\cceA7QRW.o
GPS2                0x40              C:\Users\ajarr\AppData\Local\Temp\cc6epILV.o
Delta_T             0x8               C:\Users\ajarr\AppData\Local\Temp\cceA7QRW.o
PL_ACK              0x2               C:\Users\ajarr\AppData\Local\Temp\cchY9yN1.o
GPS_Addr_Count      0x4               C:\Users\ajarr\AppData\Local\Temp\ccecVsE3.o
Kk_Hk_with_minus_one
                    0x288             C:\Users\ajarr\AppData\Local\Temp\cceA7QRW.o
commandptr          0x4               C:\Users\ajarr\AppData\Local\Temp\ccIUYBk4.o
Bsq                 0x8               C:\Users\ajarr\AppData\Local\Temp\cczww0RR.o
BDown               0x8               C:\Users\ajarr\AppData\Local\Temp\cceA7QRW.o
dumping_on          0x4               C:\Users\ajarr\AppData\Local\Temp\cceA7QRW.o
wAD_updatecount     0x4               C:\Users\ajarr\AppData\Local\Temp\cceA7QRW.o
IO_In_Latch_Register_4_Data
                    0x4               C:\Users\ajarr\AppData\Local\Temp\cc6epILV.o
polarmotion         0x48              C:\Users\ajarr\AppData\Local\Temp\cceA7QRW.o
IO_Latch_Register_3_Data
                    0x4               C:\Users\ajarr\AppData\Local\Temp\cc6epILV.o
inter_HAL_Antenna_Addr
                    0x4               C:\Users\ajarr\AppData\Local\Temp\ccc7OliV.o
posq                0x8               C:\Users\ajarr\AppData\Local\Temp\cceA7QRW.o
X_SFDO2ECI          0x18              C:\Users\ajarr\AppData\Local\Temp\cceA7QRW.o
IMU_prcd_data_ptr   0x4               C:\Users\ajarr\AppData\Local\Temp\cczww0RR.o
TC_AngMomDump_Thrsld
                    0x8               C:\Users\ajarr\AppData\Local\Temp\cceA7QRW.o
TM_IMU1             0x18              C:\Users\ajarr\AppData\Local\Temp\cc6epILV.o
t3cof               0x8               C:\Users\ajarr\AppData\Local\Temp\cceA7QRW.o
FDI_NMI_Count       0x1               C:\Users\ajarr\AppData\Local\Temp\cc6epILV.o
real_tm_finish      0x4               C:\Users\ajarr\AppData\Local\Temp\ccvsnmY2.o
ThreeAxis2DetMode_counter
                    0x4               C:\Users\ajarr\AppData\Local\Temp\cceA7QRW.o
co_dec              0x8               C:\Users\ajarr\AppData\Local\Temp\cceA7QRW.o
RW_Buffer_u         0x200             C:\Users\ajarr\AppData\Local\Temp\ccoK9PBU.o
IMU_1               0x10              C:\Users\ajarr\AppData\Local\Temp\cczww0RR.o
Roll_MTREnable      0x4               C:\Users\ajarr\AppData\Local\Temp\cceA7QRW.o
k_comr              0x4               C:\Users\ajarr\AppData\Local\Temp\cceA7QRW.o
STATION_ECI         0x18              C:\Users\ajarr\AppData\Local\Temp\cceA7QRW.o
Normal_st_table_page2
                    0x4               C:\Users\ajarr\AppData\Local\Temp\cc6epILV.o
GPS_OBT_Latch_enable
                    0x2               C:\Users\ajarr\AppData\Local\Temp\ccecVsE3.o
MUX_2               0x2               C:\Users\ajarr\AppData\Local\Temp\cc6epILV.o
eps                 0x8               C:\Users\ajarr\AppData\Local\Temp\cceA7QRW.o
Y_SPO2ECI_mag       0x8               C:\Users\ajarr\AppData\Local\Temp\cceA7QRW.o
write_str_ptr       0x4               C:\Users\ajarr\AppData\Local\Temp\cc6epILV.o
B_ECIn              0x18              C:\Users\ajarr\AppData\Local\Temp\cceA7QRW.o
vsatz_eci           0x8               C:\Users\ajarr\AppData\Local\Temp\cceA7QRW.o
mod_of_Wk1_cube     0x8               C:\Users\ajarr\AppData\Local\Temp\cceA7QRW.o
Yaw_pos             0x8               C:\Users\ajarr\AppData\Local\Temp\cczww0RR.o
sin2u               0x8               C:\Users\ajarr\AppData\Local\Temp\cceA7QRW.o
RW_Measured         0x10              C:\Users\ajarr\AppData\Local\Temp\ccoK9PBU.o
inter_imu_j         0x4               C:\Users\ajarr\AppData\Local\Temp\cczww0RR.o
data_nc             0x4               C:\Users\ajarr\AppData\Local\Temp\cchY9yN1.o
TC_flag             0x4               C:\Users\ajarr\AppData\Local\Temp\ccIUYBk4.o
pl_sts_chk_flag     0x4               C:\Users\ajarr\AppData\Local\Temp\cchY9yN1.o
TC_boolean_u        0x3f              C:\Users\ajarr\AppData\Local\Temp\cc6epILV.o
velmag              0x8               C:\Users\ajarr\AppData\Local\Temp\cceA7QRW.o
A2_magad            0x8               C:\Users\ajarr\AppData\Local\Temp\cceA7QRW.o
pl_i                0x4               C:\Users\ajarr\AppData\Local\Temp\cchY9yN1.o
TC_Buffer_Addr      0x4               C:\Users\ajarr\AppData\Local\Temp\ccIUYBk4.o
sl_magad            0x70              C:\Users\ajarr\AppData\Local\Temp\cceA7QRW.o
Result_of_sine_Delta
                    0x8               C:\Users\ajarr\AppData\Local\Temp\cceA7QRW.o
Dfunc_DAD           0x8               C:\Users\ajarr\AppData\Local\Temp\cceA7QRW.o
cosio4              0x8               C:\Users\ajarr\AppData\Local\Temp\cceA7QRW.o
flag_mni            0x4               C:\Users\ajarr\AppData\Local\Temp\ccIUYBk4.o
ST_source_Buffer    0x100             C:\Users\ajarr\AppData\Local\Temp\cc6epILV.o
TM_page_count       0x4               C:\Users\ajarr\AppData\Local\Temp\cc6epILV.o
temp_om             0x8               C:\Users\ajarr\AppData\Local\Temp\cceA7QRW.o
data_x_tx           0x4               C:\Users\ajarr\AppData\Local\Temp\cchY9yN1.o
Pos_ECEF_GPS        0x18              C:\Users\ajarr\AppData\Local\Temp\cceA7QRW.o
min_TW              0x8               C:\Users\ajarr\AppData\Local\Temp\cceA7QRW.o
w_ASC               0x18              C:\Users\ajarr\AppData\Local\Temp\cczww0RR.o
LTP_data            0x2               C:\Users\ajarr\AppData\Local\Temp\ccoo9rYu.o
Zt_S_Z_DAD          0x8               C:\Users\ajarr\AppData\Local\Temp\cceA7QRW.o
deps                0x8               C:\Users\ajarr\AppData\Local\Temp\cceA7QRW.o
Ndte_vec            0x8               C:\Users\ajarr\AppData\Local\Temp\cceA7QRW.o
TC_command_pending  0x2               C:\Users\ajarr\AppData\Local\Temp\ccIUYBk4.o
CB_Wheel_OverSpeed_TorqueCutOff
                    0x4               C:\Users\ajarr\AppData\Local\Temp\cceA7QRW.o
test_gps_conf2      0x4               C:\Users\ajarr\AppData\Local\Temp\ccecVsE3.o
W_norm              0x8               C:\Users\ajarr\AppData\Local\Temp\cceA7QRW.o
Det_BDOT_MC_Count   0x4               C:\Users\ajarr\AppData\Local\Temp\cczww0RR.o
TC_KalmanFilter_ENABLE
                    0x4               C:\Users\ajarr\AppData\Local\Temp\cceA7QRW.o
xmx                 0x8               C:\Users\ajarr\AppData\Local\Temp\cceA7QRW.o
Q_quest_DAD         0x20              C:\Users\ajarr\AppData\Local\Temp\cceA7QRW.o
DFCGainHigh         0x8               C:\Users\ajarr\AppData\Local\Temp\cceA7QRW.o
Torquer_Shutdown    0x4               C:\Users\ajarr\AppData\Local\Temp\cceA7QRW.o
nodeo_sel           0x8               C:\Users\ajarr\AppData\Local\Temp\cceA7QRW.o
qk_plus             0x20              C:\Users\ajarr\AppData\Local\Temp\cceA7QRW.o
magRoll_angle       0x8               C:\Users\ajarr\AppData\Local\Temp\cceA7QRW.o
sigma_v             0x8               C:\Users\ajarr\AppData\Local\Temp\cceA7QRW.o
inter_HAL_IMU_Addr_Count
                    0x4               C:\Users\ajarr\AppData\Local\Temp\cczww0RR.o
f_GPS_Valid_Data    0x4               C:\Users\ajarr\AppData\Local\Temp\ccecVsE3.o
j_comr              0x4               C:\Users\ajarr\AppData\Local\Temp\cceA7QRW.o
SS_M2               0x8               C:\Users\ajarr\AppData\Local\Temp\cceA7QRW.o
sin_of_W_norm_and_Delta_by2
                    0x8               C:\Users\ajarr\AppData\Local\Temp\cceA7QRW.o
ibexp               0x8               C:\Users\ajarr\AppData\Local\Temp\cceA7QRW.o
GYRO_Threshold_Count
                    0x4               C:\Users\ajarr\AppData\Local\Temp\cceA7QRW.o
inter_PL_TM_Dest_Addr
                    0x4               C:\Users\ajarr\AppData\Local\Temp\cchY9yN1.o
MY_Polarity         0x4               C:\Users\ajarr\AppData\Local\Temp\cceA7QRW.o
inclination_TLE_tc  0x8               C:\Users\ajarr\AppData\Local\Temp\cceA7QRW.o
PosY_ECEF_GPS       0x8               C:\Users\ajarr\AppData\Local\Temp\cceA7QRW.o
heaters_auto        0x4               C:\Users\ajarr\AppData\Local\Temp\ccoo9rYu.o
Roll_ang_err        0x8               C:\Users\ajarr\AppData\Local\Temp\cczww0RR.o
heaters_manual      0x4               C:\Users\ajarr\AppData\Local\Temp\cc6epILV.o
Yaw_Pol             0x4               C:\Users\ajarr\AppData\Local\Temp\cckLW0x4.o
CB_BDOT_Computation
                    0x4               C:\Users\ajarr\AppData\Local\Temp\cceA7QRW.o
Qbody               0x20              C:\Users\ajarr\AppData\Local\Temp\cceA7QRW.o
S_BODYn             0x18              C:\Users\ajarr\AppData\Local\Temp\cczww0RR.o
eSuspendedMode      0x4               C:\Users\ajarr\AppData\Local\Temp\cceA7QRW.o
i_lict              0x4               C:\Users\ajarr\AppData\Local\Temp\cceA7QRW.o
IMU_prcd_data       0x30              C:\Users\ajarr\AppData\Local\Temp\cczww0RR.o
delta_DAD           0x8               C:\Users\ajarr\AppData\Local\Temp\cceA7QRW.o
temp3               0x8               C:\Users\ajarr\AppData\Local\Temp\cceA7QRW.o
B_Tef_ANG           0x8               C:\Users\ajarr\AppData\Local\Temp\cceA7QRW.o
X_SPO2ECI           0x18              C:\Users\ajarr\AppData\Local\Temp\cceA7QRW.o
sine_of_Wk1_Delta_by_Wk1
                    0x8               C:\Users\ajarr\AppData\Local\Temp\cceA7QRW.o
ADC_Addr_Count      0x4               C:\Users\ajarr\AppData\Local\Temp\ccEKVXdT.o
PosX_ECEF_GPS       0x8               C:\Users\ajarr\AppData\Local\Temp\cceA7QRW.o
TC_hist_write_ptr   0x4               C:\Users\ajarr\AppData\Local\Temp\ccIUYBk4.o
SS_M7               0x8               C:\Users\ajarr\AppData\Local\Temp\cceA7QRW.o
i_tc_test           0x4               C:\Users\ajarr\AppData\Local\Temp\cczww0RR.o
SS_M6               0x8               C:\Users\ajarr\AppData\Local\Temp\cceA7QRW.o
temp_data_2         0x2               C:\Users\ajarr\AppData\Local\Temp\cchY9yN1.o
Q_axis              0x18              C:\Users\ajarr\AppData\Local\Temp\cceA7QRW.o
Wheel_Config        0x4               C:\Users\ajarr\AppData\Local\Temp\cceA7QRW.o
psisq               0x8               C:\Users\ajarr\AppData\Local\Temp\cceA7QRW.o
N_MAGAD             0x4               C:\Users\ajarr\AppData\Local\Temp\cceA7QRW.o
argpm               0x8               C:\Users\ajarr\AppData\Local\Temp\cceA7QRW.o
tm_ds_en_flag       0x4               C:\Users\ajarr\AppData\Local\Temp\cchY9yN1.o
Remote_data_addr    0x4               C:\Users\ajarr\AppData\Local\Temp\cc6epILV.o
mp                  0x8               C:\Users\ajarr\AppData\Local\Temp\cceA7QRW.o
am                  0x8               C:\Users\ajarr\AppData\Local\Temp\cceA7QRW.o
Remote_data         0x4               C:\Users\ajarr\AppData\Local\Temp\ccIUYBk4.o
UTP_data            0x2               C:\Users\ajarr\AppData\Local\Temp\ccoo9rYu.o
TC_comd_pitch_rate  0x8               C:\Users\ajarr\AppData\Local\Temp\cceA7QRW.o
TorquerDutyCycle    0x18              C:\Users\ajarr\AppData\Local\Temp\cceA7QRW.o
test_gps_conf3      0x4               C:\Users\ajarr\AppData\Local\Temp\ccecVsE3.o
bbb                 0x2               C:\Users\ajarr\AppData\Local\Temp\cc6epILV.o
All_Deployed        0x4               C:\Users\ajarr\AppData\Local\Temp\cceA7QRW.o
Special_st_table_page1
                    0x4               C:\Users\ajarr\AppData\Local\Temp\cc6epILV.o
xl                  0x8               C:\Users\ajarr\AppData\Local\Temp\cceA7QRW.o
dayofyr             0x4               C:\Users\ajarr\AppData\Local\Temp\cceA7QRW.o
pl_tm_ptr           0x4               C:\Users\ajarr\AppData\Local\Temp\cchY9yN1.o
rw_data             0x2               C:\Users\ajarr\AppData\Local\Temp\cczww0RR.o
eta                 0x8               C:\Users\ajarr\AppData\Local\Temp\cceA7QRW.o
w_BODY              0x18              C:\Users\ajarr\AppData\Local\Temp\cczww0RR.o
NOB_CRC_TMC         0x4               C:\Users\ajarr\AppData\Local\Temp\ccoK9PBU.o
ibexp_tc            0x8               C:\Users\ajarr\AppData\Local\Temp\cceA7QRW.o
SunNPP_SMtransit_count_limit
                    0x4               C:\Users\ajarr\AppData\Local\Temp\cczww0RR.o
tempdata1           0x1               C:\Users\ajarr\AppData\Local\Temp\cczww0RR.o
TC_BDOT_Norm_Threshold
                    0x8               C:\Users\ajarr\AppData\Local\Temp\cceA7QRW.o
CB_IMUDataProcessing
                    0x4               C:\Users\ajarr\AppData\Local\Temp\cceA7QRW.o
nodep               0x8               C:\Users\ajarr\AppData\Local\Temp\cceA7QRW.o
NMI_fail_count      0x1               C:\Users\ajarr\AppData\Local\Temp\cc6epILV.o
inter_TM_real_Minor_Cycle_Count
                    0x4               C:\Users\ajarr\AppData\Local\Temp\cc6epILV.o
Vel_ECI_temp        0x18              C:\Users\ajarr\AppData\Local\Temp\cceA7QRW.o
inter_ST_TM_Minor_Cycle_Count
                    0x4               C:\Users\ajarr\AppData\Local\Temp\cc6epILV.o
GPS_Locations       0x4               C:\Users\ajarr\AppData\Local\Temp\ccecVsE3.o
omeosq              0x8               C:\Users\ajarr\AppData\Local\Temp\cceA7QRW.o
Matout431           0x20              C:\Users\ajarr\AppData\Local\Temp\cceA7QRW.o
R_EPO2ECI           0x48              C:\Users\ajarr\AppData\Local\Temp\cceA7QRW.o
majorcyclecount     0x4               C:\Users\ajarr\AppData\Local\Temp\cceA7QRW.o
i_GPS_B_Count       0x4               C:\Users\ajarr\AppData\Local\Temp\ccecVsE3.o
inter_TM_Minor_Cycle_Count
                    0x4               C:\Users\ajarr\AppData\Local\Temp\cc6epILV.o
phi_12              0x48              C:\Users\ajarr\AppData\Local\Temp\cceA7QRW.o
Alti                0x8               C:\Users\ajarr\AppData\Local\Temp\cceA7QRW.o
MR_Polarity         0x4               C:\Users\ajarr\AppData\Local\Temp\cceA7QRW.o
temp_jday           0x8               C:\Users\ajarr\AppData\Local\Temp\cceA7QRW.o
NOB_SFC_TMC         0x4               C:\Users\ajarr\AppData\Local\Temp\ccoK9PBU.o
Del_Y_theta         0x8               C:\Users\ajarr\AppData\Local\Temp\cceA7QRW.o
RWS                 0x10              C:\Users\ajarr\AppData\Local\Temp\ccoK9PBU.o
pk                  0x288             C:\Users\ajarr\AppData\Local\Temp\cceA7QRW.o
USIF_u              0x4               C:\Users\ajarr\AppData\Local\Temp\ccoK9PBU.o
Pitch_neg           0x8               C:\Users\ajarr\AppData\Local\Temp\cczww0RR.o
longitude_tan_num   0x8               C:\Users\ajarr\AppData\Local\Temp\cceA7QRW.o
input_latch_1       0x2               C:\Users\ajarr\AppData\Local\Temp\cc6epILV.o
DFCCount            0x10              C:\Users\ajarr\AppData\Local\Temp\cceA7QRW.o
cos_of_Wk1_Delta_by_Wk1_square
                    0x8               C:\Users\ajarr\AppData\Local\Temp\cceA7QRW.o
ADC_Data            0x4               C:\Users\ajarr\AppData\Local\Temp\ccEKVXdT.o
IMU_2               0x10              C:\Users\ajarr\AppData\Local\Temp\cczww0RR.o
Julian_day          0x8               C:\Users\ajarr\AppData\Local\Temp\cceA7QRW.o
SS_M3               0x8               C:\Users\ajarr\AppData\Local\Temp\cceA7QRW.o
GPS_Select          0x4               C:\Users\ajarr\AppData\Local\Temp\cceA7QRW.o
Trwa_mt_comp        0x18              C:\Users\ajarr\AppData\Local\Temp\cceA7QRW.o
ak_temp             0x8               C:\Users\ajarr\AppData\Local\Temp\cceA7QRW.o
BDOT_deltaT         0x8               C:\Users\ajarr\AppData\Local\Temp\cceA7QRW.o
sinsu               0x8               C:\Users\ajarr\AppData\Local\Temp\cceA7QRW.o
zeta                0x8               C:\Users\ajarr\AppData\Local\Temp\cceA7QRW.o
IMU_2_DB            0x144             C:\Users\ajarr\AppData\Local\Temp\cc6epILV.o
velmagsq            0x8               C:\Users\ajarr\AppData\Local\Temp\cceA7QRW.o
CB_Sl_Ecl_OnBrd_detection
                    0x4               C:\Users\ajarr\AppData\Local\Temp\cceA7QRW.o
nodedot             0x8               C:\Users\ajarr\AppData\Local\Temp\cceA7QRW.o
e_vec               0x18              C:\Users\ajarr\AppData\Local\Temp\cceA7QRW.o
TM_Table_Row_No     0x4               C:\Users\ajarr\AppData\Local\Temp\cc6epILV.o
wheel_index_ARCsum  0x4               C:\Users\ajarr\AppData\Local\Temp\cceA7QRW.o
RWSpeed             0x20              C:\Users\ajarr\AppData\Local\Temp\cceA7QRW.o
TCH_cpy_ptr         0x4               C:\Users\ajarr\AppData\Local\Temp\cc6epILV.o
sin_of_W_norm_Delta_by2_and_W_norm
                    0x8               C:\Users\ajarr\AppData\Local\Temp\cceA7QRW.o
S_REF               0x18              C:\Users\ajarr\AppData\Local\Temp\cceA7QRW.o
Xk                  0x48              C:\Users\ajarr\AppData\Local\Temp\cceA7QRW.o
RAAN                0x8               C:\Users\ajarr\AppData\Local\Temp\cceA7QRW.o
NegR_Deployed       0x4               C:\Users\ajarr\AppData\Local\Temp\cceA7QRW.o
Zt_Z_DAD            0x8               C:\Users\ajarr\AppData\Local\Temp\cceA7QRW.o
w_BODY_IMU2         0x18              C:\Users\ajarr\AppData\Local\Temp\cczww0RR.o
nm_temp             0x8               C:\Users\ajarr\AppData\Local\Temp\cceA7QRW.o
Vel_ECEF            0x18              C:\Users\ajarr\AppData\Local\Temp\cceA7QRW.o
REF_FRAME_DCM       0x48              C:\Users\ajarr\AppData\Local\Temp\cceA7QRW.o
sfour               0x8               C:\Users\ajarr\AppData\Local\Temp\cceA7QRW.o
angmomentumvecmag   0x8               C:\Users\ajarr\AppData\Local\Temp\cceA7QRW.o
Invmatout33         0x48              C:\Users\ajarr\AppData\Local\Temp\cceA7QRW.o
Telecommand_ptr     0x4               C:\Users\ajarr\AppData\Local\Temp\ccIUYBk4.o
Matout441           0x20              C:\Users\ajarr\AppData\Local\Temp\cceA7QRW.o
gmst0               0x8               C:\Users\ajarr\AppData\Local\Temp\cceA7QRW.o
IO_Latch_Register_2_Data
                    0x4               C:\Users\ajarr\AppData\Local\Temp\cc6epILV.o
atp                 0x4               C:\Users\ajarr\AppData\Local\Temp\cczww0RR.o
argpdot             0x8               C:\Users\ajarr\AppData\Local\Temp\cceA7QRW.o
cose                0x8               C:\Users\ajarr\AppData\Local\Temp\cceA7QRW.o
DPM                 0x18              C:\Users\ajarr\AppData\Local\Temp\cceA7QRW.o
TC_SpeedDumpLimit   0x8               C:\Users\ajarr\AppData\Local\Temp\cceA7QRW.o
d3                  0x8               C:\Users\ajarr\AppData\Local\Temp\cceA7QRW.o
SC4                 0x8               C:\Users\ajarr\AppData\Local\Temp\cczww0RR.o
ccc                 0x2               C:\Users\ajarr\AppData\Local\Temp\cc6epILV.o
t4cof               0x8               C:\Users\ajarr\AppData\Local\Temp\cceA7QRW.o
TCH_start_buffer_ready
                    0x1               C:\Users\ajarr\AppData\Local\Temp\cc6epILV.o
rdtv                0x8               C:\Users\ajarr\AppData\Local\Temp\cceA7QRW.o
semimajoraxis_GPS   0x8               C:\Users\ajarr\AppData\Local\Temp\cceA7QRW.o
JDTDB               0x8               C:\Users\ajarr\AppData\Local\Temp\cceA7QRW.o
r1                  0x8               C:\Users\ajarr\AppData\Local\Temp\cceA7QRW.o
phi_12_temp2        0x48              C:\Users\ajarr\AppData\Local\Temp\cceA7QRW.o
RW_1                0x10              C:\Users\ajarr\AppData\Local\Temp\ccoK9PBU.o
SS_Main_2Exe_DB     0x284             C:\Users\ajarr\AppData\Local\Temp\cc6epILV.o
X_SFAO2ECI_mag      0x8               C:\Users\ajarr\AppData\Local\Temp\cceA7QRW.o
TC_Rcvd             0x1               C:\Users\ajarr\AppData\Local\Temp\ccIUYBk4.o
UTC_day_GPS         0x4               C:\Users\ajarr\AppData\Local\Temp\cceA7QRW.o
i_rfc               0x4               C:\Users\ajarr\AppData\Local\Temp\cceA7QRW.o
CB_SunSensorDataProcessing
                    0x4               C:\Users\ajarr\AppData\Local\Temp\cceA7QRW.o
TC_cmd_executed_count
                    0x4               C:\Users\ajarr\AppData\Local\Temp\ccIUYBk4.o

Memory Configuration

Name             Origin             Length             Attributes
rom              0x0000000000000000 0x0000000020000000
ram              0x0000000040000000 0x0000000040000000
*default*        0x0000000000000000 0xffffffffffffffff

Linker script and memory map

LOAD c:/opt/bcc-2.0.2-gcc/bin/../sparc-gaisler-elf/bsp/leon2/leon/mfix-at697f/trap_table_mvt.S.o
LOAD c:/opt/bcc-2.0.2-gcc/bin/../sparc-gaisler-elf/bsp/leon2/leon/mfix-at697f/crt0.S.o
LOAD c:/opt/bcc-2.0.2-gcc/bin/../lib/gcc/sparc-gaisler-elf/7.2.0/leon/mfix-at697f/crti.o
LOAD c:/opt/bcc-2.0.2-gcc/bin/../lib/gcc/sparc-gaisler-elf/7.2.0/leon/mfix-at697f/crtbegin.o
LOAD C:\Users\ajarr\AppData\Local\Temp\cc6epILV.o
LOAD C:\Users\ajarr\AppData\Local\Temp\ccIUYBk4.o
LOAD C:\Users\ajarr\AppData\Local\Temp\ccvsnmY2.o
LOAD C:\Users\ajarr\AppData\Local\Temp\cczww0RR.o
LOAD C:\Users\ajarr\AppData\Local\Temp\ccXWfUhL.o
LOAD C:\Users\ajarr\AppData\Local\Temp\ccm9LEki.o
LOAD C:\Users\ajarr\AppData\Local\Temp\cchY9yN1.o
LOAD C:\Users\ajarr\AppData\Local\Temp\ccsnkR1R.o
LOAD C:\Users\ajarr\AppData\Local\Temp\ccTwgEYO.o
LOAD C:\Users\ajarr\AppData\Local\Temp\ccEKVXdT.o
LOAD C:\Users\ajarr\AppData\Local\Temp\ccecVsE3.o
LOAD C:\Users\ajarr\AppData\Local\Temp\ccoo9rYu.o
LOAD C:\Users\ajarr\AppData\Local\Temp\cckLW0x4.o
LOAD C:\Users\ajarr\AppData\Local\Temp\ccoK9PBU.o
LOAD C:\Users\ajarr\AppData\Local\Temp\ccc7OliV.o
LOAD C:\Users\ajarr\AppData\Local\Temp\ccLBYgor.o
LOAD C:\Users\ajarr\AppData\Local\Temp\cc41N2oq.o
LOAD C:\Users\ajarr\AppData\Local\Temp\cczww3Ay.o
LOAD C:\Users\ajarr\AppData\Local\Temp\ccJldDN1.o
LOAD C:\Users\ajarr\AppData\Local\Temp\ccnWSFNQ.o
LOAD C:\Users\ajarr\AppData\Local\Temp\ccegvyo6.o
LOAD C:\Users\ajarr\AppData\Local\Temp\ccyOpeqt.o
LOAD C:\Users\ajarr\AppData\Local\Temp\cceA7QRW.o
LOAD C:\Users\ajarr\AppData\Local\Temp\ccExFPZ1.o
LOAD C:\Users\ajarr\AppData\Local\Temp\ccd1pLAc.o
LOAD C:\Users\ajarr\AppData\Local\Temp\ccG5Eq4q.o
LOAD c:/opt/bcc-2.0.2-gcc/bin/../lib/gcc/sparc-gaisler-elf/7.2.0/../../../../sparc-gaisler-elf/lib/leon/mfix-at697f\libm.a
                0x0000000000000000                PROVIDE (__bcc_cfg_skip_clear_bss, 0x0)

.text           0x0000000040000000    0x3f6d0
 CREATE_OBJECT_SYMBOLS
                0x0000000040000000                __text_start = .
                0x0000000040000000                . = ALIGN (0x1000)
 *(.text.traptable)
 .text.traptable
                0x0000000040000000     0x1000 c:/opt/bcc-2.0.2-gcc/bin/../sparc-gaisler-elf/bsp/leon2/leon/mfix-at697f/trap_table_mvt.S.o
                0x0000000040000000                __bcc_entry_point
                0x0000000040000000                __bcc_trap_table
 *(.text .text.*)
 .text          0x0000000040001000        0x0 c:/opt/bcc-2.0.2-gcc/bin/../sparc-gaisler-elf/bsp/leon2/leon/mfix-at697f/trap_table_mvt.S.o
 .text          0x0000000040001000       0xb8 c:/opt/bcc-2.0.2-gcc/bin/../sparc-gaisler-elf/bsp/leon2/leon/mfix-at697f/crt0.S.o
                0x0000000040001000                __bcc_crt0
 .text          0x00000000400010b8        0x0 c:/opt/bcc-2.0.2-gcc/bin/../lib/gcc/sparc-gaisler-elf/7.2.0/leon/mfix-at697f/crti.o
 .text          0x00000000400010b8      0x180 c:/opt/bcc-2.0.2-gcc/bin/../lib/gcc/sparc-gaisler-elf/7.2.0/leon/mfix-at697f/crtbegin.o
 .text          0x0000000040001238      0x974 C:\Users\ajarr\AppData\Local\Temp\cc6epILV.o
                0x0000000040001238                rMinCycle_Wait
                0x00000000400012d4                OBC_Process
                0x0000000040001b5c                rMinCycle_Flag_Reset
 .text.startup  0x0000000040001bac       0xa0 C:\Users\ajarr\AppData\Local\Temp\cc6epILV.o
                0x0000000040001bac                main
 .text          0x0000000040001c4c      0xaac C:\Users\ajarr\AppData\Local\Temp\ccIUYBk4.o
                0x0000000040001c6c                Init_Memory
                0x0000000040001ca0                checksum_u32
                0x0000000040001d0c                checksum_u8
                0x0000000040001d5c                rOutput_Latch_Update
                0x0000000040001f38                ST_output_update
                0x0000000040002150                NMI_interrupt_test
                0x000000004000220c                MUX_Output
                0x000000004000254c                EEPROM_RST
                0x0000000040002580                EEPROM_RES
                0x00000000400025b0                s_ram_scrub
                0x000000004000262c                prom_chksum
 .text          0x00000000400026f8     0xd7ec C:\Users\ajarr\AppData\Local\Temp\ccvsnmY2.o
                0x00000000400028e4                rHAL_TM_Write
                0x0000000040002b48                rHAL_TM_HW_Status_Update
                0x0000000040002c6c                rTM_Address_Table_Init
                0x000000004000c8ec                rTM_Copy_Subframe
                0x000000004000c95c                Sampling_Rate_Select
                0x000000004000c9b8                Frame_Address_Select
                0x000000004000cb24                rTCH_full_dump_cpy_buf
                0x000000004000cca0                rTCH_dump_cpy_buf
                0x000000004000d048                TC_Hist_dumping
                0x000000004000d094                copy_frame
                0x000000004000d14c                ST_Copy_Subframe
                0x000000004000d5e4                StorageTelemetry
                0x000000004000d67c                Storage_Telemetry_Write
                0x000000004000d6a4                Norm_ST_1_Table_Init
                0x000000004000ef60                Spec_ST_Table_Init
                0x000000004000fbfc                ST_DUMPING
                0x000000004000fd60                rTM_Real_st_write
                0x000000004000fea0                ST_full_dump
 .text          0x000000004000fee4     0x65f0 C:\Users\ajarr\AppData\Local\Temp\cczww0RR.o
                0x00000000400100c0                TC_IMU1_On
                0x0000000040010100                TC_IMU2_On
                0x0000000040010140                TC_IMU1_Off
                0x0000000040010180                TC_IMU2_Off
                0x00000000400101c0                TC_NMI_count_reset
                0x00000000400101d4                TC_GPS1_ON
                0x0000000040010204                TC_GPS1_OFF
                0x0000000040010238                TC_GPS2_on
                0x000000004001026c                TC_GPS2_off
                0x00000000400102a4                TC_W1_ON
                0x00000000400102d4                TC_W2_ON
                0x0000000040010308                TC_W3_ON
                0x0000000040010338                TC_W4_ON
                0x0000000040010368                TC_W1_OFF
                0x0000000040010398                TC_W2_OFF
                0x00000000400103c8                TC_W3_OFF
                0x00000000400103f8                TC_W4_OFF
                0x0000000040010428                rTC_Detumbling_ModePreprocessing_BDOT
                0x0000000040010438                rTC_Detumbling_ModePreprocessing_GYRO
                0x0000000040010448                rTC_SunAcquisition_ModePreprocessing
                0x0000000040010458                rTC_ThreeAxis_ModePreprocessing
                0x0000000040010468                rTC_Suspended_ModePreprocessing
                0x0000000040010474                PL_K_CMD_HLT
                0x00000000400104a4                Antenna_mechanism_ON
                0x00000000400104d4                Antenna_mechanism_OFF
                0x0000000040010504                S_band_tx_on
                0x0000000040010534                S_band_tx_off
                0x0000000040010564                SA_DEPLOYMENT_MECHANISM_MAIN_OFF
                0x0000000040010598                SA_DEPLOYMENT_MECHANISM_RED_OFF
                0x00000000400105cc                sunlit
                0x00000000400105dc                eclipse
                0x00000000400105e8                Sunlit_eclipse_both
                0x00000000400105f8                rSafe_mode_PreProcessing
                0x0000000040010608                eeprom_en
                0x0000000040010618                eeprom_dis
                0x0000000040010624                TC_ATTC_CMD_clear
                0x00000000400106e4                imu1_db_execute
                0x00000000400106f0                imu2_db_execute
                0x00000000400106fc                TC_ACC_Ang_RESET
                0x0000000040010708                TC_GPS1_NMEA_VTG_enable
                0x0000000040010734                TC_GPS1_NMEA_VTG_disable
                0x0000000040010760                TC_GPS1_NMEA_GGA_enable
                0x000000004001078c                TC_GPS1_NMEA_GGA_disable
                0x00000000400107b8                TC_GPS1_NMEA_GSA_enable
                0x00000000400107e4                TC_GPS1_NMEA_GSA_disable
                0x0000000040010810                TC_GPS1_cold_start
                0x000000004001083c                TC_GPS1_factory_reset
                0x0000000040010868                TC_GPS2_NMEA_VTG_enable
                0x0000000040010894                TC_GPS2_NMEA_VTG_disable
                0x00000000400108c0                TC_GPS2_NMEA_GGA_enable
                0x00000000400108ec                TC_GPS2_NMEA_GGA_disable
                0x0000000040010918                TC_GPS2_NMEA_GSA_enable
                0x0000000040010944                TC_GPS2_NMEA_GSA_disable
                0x0000000040010970                TC_GPS2_cold_start
                0x000000004001099c                TC_GPS2_factory_reset
                0x00000000400109c8                TC_GPS1_NMEA_NMEA_GSV_Enable
                0x00000000400109f4                TC_GPS1_NMEA_NMEA_GSV_disable
                0x0000000040010a20                TC_GPS2_NMEA_NMEA_GSV_Enable
                0x0000000040010a4c                TC_GPS2_NMEA_NMEA_GSV_disable
                0x0000000040010a78                TC_MTR_ON
                0x0000000040010a84                TC_MTR_OFF
                0x0000000040010a90                payload_1_on
                0x0000000040010ab8                payload_1_off
                0x0000000040010ac4                PL_K_CMD_STS
                0x0000000040010ad0                PL_K_CMD_ACQ
                0x0000000040010adc                PL_K_DIAG
                0x0000000040010ae8                PL_K_CMD_OFF
                0x0000000040010af4                PL_K_CMD_ON
                0x0000000040010b00                ss_main_db_execute
                0x0000000040010b0c                ss_redundant_db_execute
                0x0000000040010b18                TC_init_RW1
                0x0000000040010b4c                TC_init_RW2
                0x0000000040010b80                TC_init_RW3
                0x0000000040010bb4                TC_init_RW4
                0x0000000040010be8                TC_MTR_Yaw_Positive
                0x0000000040010bfc                TC_MTR_Yaw_Negative
                0x0000000040010c10                TC_MTR_Pitch_Positive
                0x0000000040010c24                TC_MTR_Pitch_Negative
                0x0000000040010c38                TC_MTR_Roll_Positive
                0x0000000040010c4c                TC_MTR_Roll_Negative
                0x0000000040010c60                TC_MTR_Roll_No_cuurent
                0x0000000040010c74                TC_MTR_Pitch_No_cuurent
                0x0000000040010c88                TC_MTR_Yaw_No_cuurent
                0x0000000040010c9c                payload_2_on
                0x0000000040010cc4                payload_2_off
                0x0000000040010cd0                X_band_tx_on
                0x0000000040010cf8                X_band_tx_off
                0x0000000040010d04                SA_DEPLOYMENT_MECHANISM_MAIN_ON
                0x0000000040010d10                SA_DEPLOYMENT_MECHANISM_RED_ON
                0x0000000040010d1c                Antenna_mechanism_arm
                0x0000000040010d28                Antenna_deploy
                0x0000000040010d34                Antenna_mechanism_disarm
                0x0000000040010d40                TC_pl_debug
                0x0000000040010d4c                TC_TM_DS_EN
                0x0000000040010d58                Antenna_RESET_command
                0x0000000040010d64                Antenna_deploy_with_override
                0x0000000040010d70                Antenna_system_temp
                0x0000000040010d7c                Antenna_deploy_status_report
                0x0000000040010d88                Antenna_deploy_activation_count
                0x0000000040010d94                Antenna_deploy_activation_time
                0x0000000040010ea4                TC_pl_tm
                0x0000000040010eac                imu1_db_checksum
                0x0000000040010eb4                imu2_db_checksum
                0x0000000040010ebc                imu_test_sys_sel
                0x0000000040010ec4                TC_Drift_Uplink_Compenstation_Update_IMU1
                0x0000000040010ecc                TC_Drift_Uplink_Compenstation_Update_IMU2
                0x0000000040010ed4                TC_Gyro_Misalignment_Update_IMU1
                0x0000000040010edc                TC_Gyro_Misalignment_Update_IMU2
                0x0000000040010ee4                TC_Gyro_Scale_Factor_Update_IMU1
                0x0000000040010eec                TC_Gyro_Scale_Factor_Update_IMU2
                0x0000000040010ef4                TC_MagBias_Uplink_Compenstation_Update_IMU1
                0x0000000040010efc                TC_MagBias_Uplink_Compenstation_Update_IMU2
                0x0000000040010f04                TC_Mag_Misalignment_Update_IMU1
                0x0000000040010f0c                TC_Mag_Misalignment_Update_IMU2
                0x0000000040010f14                TC_Mag_Scale_Factor_Update_IMU1
                0x0000000040010f1c                TC_Mag_Scale_Factor_Update_IMU2
                0x0000000040010f24                TC_Mag_LPF_Gain_Update_IMU1
                0x0000000040010f2c                TC_Mag_LPF_Gain_Update_IMU2
                0x0000000040010f34                TC_Gyro_LPF_Gain_Update_IMU1
                0x0000000040010f3c                TC_Gyro_LPF_Gain_Update_IMU2
                0x0000000040010f44                TC_Panel2_Deploy
                0x0000000040010f4c                TC_Nominal_wheel_speed_execute
                0x0000000040010f54                Pitch_Torquer_ON
                0x0000000040010f5c                Yaw_Torquer_ON
                0x0000000040010f64                Pitch_Torquer_OFF
                0x0000000040010f6c                Yaw_Torquer_OFF
                0x0000000040010f74                rHeater1_on
                0x0000000040010f7c                rHeater1_off
                0x0000000040010f84                rHeater2_on
                0x0000000040010f8c                rHeater2_off
                0x0000000040010f94                rHeater3_on
                0x0000000040010f9c                rHeater3_off
                0x0000000040010fa4                rHeater4_on
                0x0000000040010fac                rHeater4_off
                0x0000000040010fb4                rHeater5_on
                0x0000000040010fbc                rHeater5_off
                0x0000000040010fc4                rHeater6_on
                0x0000000040010fcc                rHeater6_off
                0x0000000040010fd4                RX_TX_deployed
                0x0000000040010fdc                ss_main_db_checksum
                0x0000000040010fe4                ss_redundant_db_checksum
                0x0000000040010fec                TC_Qinit
                0x0000000040010ff4                OBC_ON
                0x0000000040010ffc                OBC_OFF
                0x0000000040011004                SA1_DEPLOYMENT_AND_SA2_DEPLOYMENT_REDUNDANT_SPARE_BUS_ON
                0x000000004001100c                SA1_DEPLOYMENT_AND_SA2_DEPLOYMENT_REDUNDANT_SPARE_BUS_OFF
                0x0000000040011014                Test_ON
                0x000000004001101c                Test_OFF
                0x0000000040011024                rTC_write_tC_history
                0x000000004001104c                TC_status_reset
                0x0000000040011060                rContingency_TC
                0x0000000040011068                rData_TC
                0x00000000400115cc                rADCS_Data_TC
                0x00000000400129b0                rRemote_base_addr_TC
                0x0000000040012a60                rRemote_data_view
                0x0000000040012ad8                rBoolean_TC
                0x0000000040012b28                rFuncExecute_TC
                0x0000000040012b8c                rRemoteProgram_Addr_TC
                0x0000000040012be0                rRemoteProgram_Data_TC
                0x0000000040012c0c                rDifferential_TimeTag_TC
                0x0000000040012c68                initNodetable
                0x0000000040012ca4                getNode
                0x0000000040012ce0                freeNode
                0x0000000040012d18                rAbsoluteTTC_Update
                0x0000000040012ed0                rAbsolute_TimeTag_TC
                0x0000000040012edc                rDifferential_TimeTag_Update
                0x0000000040012f38                rDifferential_TimeTag_Execute
                0x0000000040013090                rDifferentialTTC_Execute
                0x000000004001309c                rAbsoluteTTC_Delete
                0x0000000040013220                rAbsoluteTTC_Clear
                0x00000000400132e0                rInit_Block
                0x0000000040013328                Block_update
                0x00000000400135a4                rBlock_TC
                0x00000000400135b0                TMTC_Assignment
                0x0000000040013d00                invertReverse
                0x0000000040013d28                BCHEncoder
                0x0000000040013ec8                rHAL_TC_Read
                0x0000000040014194                TC_detumbling_rate_gain_1
                0x00000000400145d8                TC_detumbling_bdot_gain_1
                0x0000000040014a1c                TC_BDOT_Det_Thresh_1
                0x0000000040014bb0                TC_GYRO_Det_Min_Thres_1
                0x0000000040014d44                TC_AngMomDump_Thrsld_1
                0x0000000040014ed8                TC_SpeedDump_Thrsld_1
                0x0000000040015004                TC_SpeedDump_TimeSelect_1
                0x0000000040015198                TC_comd_pitch_rate_1
                0x000000004001532c                TC_Gyro_LPF_Gain_IMU1_1
                0x0000000040015564                TC_Gyro_LPF_Gain_IMU2_1
                0x000000004001579c                TC_Mag_LPF_Gain_IMU1_1
                0x00000000400159d4                TC_Mag_LPF_Gain_IMU2_1
                0x0000000040015c0c                TC_Wheel_Cutoff_Threshold_1
                0x0000000040015da0                adcsgains
                0x0000000040015e84                rGainSelect_TC
                0x0000000040015ed8                rReal_Time_TC
                0x000000004001615c                rTelecommand
                0x00000000400162d4                rAbsoluteTTC_Execute
                0x00000000400163f4                rBlockTC_Execute
 .text          0x00000000400164d4       0x38 C:\Users\ajarr\AppData\Local\Temp\ccXWfUhL.o
                0x00000000400164d4                fdi_nmi_int_handler
 .text          0x000000004001650c     0x1670 C:\Users\ajarr\AppData\Local\Temp\ccm9LEki.o
                0x000000004001650c                rPOR_Init
 .text          0x0000000040017b7c      0xd00 C:\Users\ajarr\AppData\Local\Temp\cchY9yN1.o
                0x0000000040017ba4                rHAL_pl1_ON
                0x0000000040017c24                rHAL_pl1_OFF
                0x0000000040017c74                rHAL_pl2_ON
                0x0000000040017cf4                rHAL_pl2_OFF
                0x0000000040017d44                rHAL_tm_ds_en
                0x0000000040017d80                rHAL_X_Tx_ON
                0x0000000040017db4                rHAL_X_Tx_OFF
                0x0000000040017de8                rHAL_pl_sts_check
                0x0000000040017e18                rHAL_pl_cmd_hlt
                0x0000000040017e90                rHAL_pl_debug
                0x0000000040017f50                rHAL_pl_x_tx_data_on
                0x0000000040018040                rHAL_pl_cmd_acq
                0x0000000040018120                rHAL_pl_x_tx_data_off
                0x0000000040018160                rHAL_pl_diag
                0x00000000400181d8                pl_tx_tm
                0x0000000040018300                pl_tx_tm_2
                0x00000000400183d8                rpl_read
                0x00000000400184c4                rpl_tm_write
 .text          0x000000004001887c      0x4a8 C:\Users\ajarr\AppData\Local\Temp\ccsnkR1R.o
                0x000000004001887c                rHAL_EPS_Hardware_Status
                0x00000000400188e4                rHAL_Battery_load_shedding
                0x0000000040018940                rHAL_EPS_shunt_switch
 .text          0x0000000040018d24      0x1b4 C:\Users\ajarr\AppData\Local\Temp\ccTwgEYO.o
                0x0000000040018d24                rIMU_Init
                0x0000000040018d90                HAL_IMU_Read
 .text          0x0000000040018ed8      0x3b4 C:\Users\ajarr\AppData\Local\Temp\ccEKVXdT.o
                0x0000000040018ed8                rHAL_ADC_Read
                0x0000000040018f34                rHAL_ADC_TM_Copy
                0x0000000040019160                sun_Sensor_data
                0x0000000040019274                rHAL_ADC_StatusREG_Enable
 .text          0x000000004001928c     0x1010 C:\Users\ajarr\AppData\Local\Temp\ccecVsE3.o
                0x000000004001928c                rGPS_Buffer_Init
                0x00000000400194f4                rGPS_pulsecheck
                0x0000000040019590                rHAL_GPS_Read
                0x0000000040019800                GPS_1_DATA
                0x0000000040019864                rHAL_GPS_Config
                0x0000000040019f64                rGPS_TM_Extract
                0x000000004001a238                ST_TM_gps_data
 .text          0x000000004001a29c     0x1114 C:\Users\ajarr\AppData\Local\Temp\ccoo9rYu.o
                0x000000004001a29c                Thermister_select
                0x000000004001a2e0                UTP_selection
                0x000000004001a334                LTP_selection
                0x000000004001a394                Heater_1_auto_control
                0x000000004001a404                Heater_2_auto_control
                0x000000004001a474                Heater_3_auto_control
                0x000000004001a4e4                Heater_4_auto_control
                0x000000004001a554                Heater_5_auto_control
                0x000000004001a5c4                Heater_6_auto_control
                0x000000004001a634                Heater_7_auto_control
                0x000000004001a688                Heater_8_auto_control
                0x000000004001a6dc                Heater_9_auto_control
                0x000000004001a730                Heater_10_auto_control
                0x000000004001a784                Heater_11_auto_control
                0x000000004001a7d8                Heater_12_auto_control
                0x000000004001a82c                Heater_13_auto_control
                0x000000004001a888                Heater_14_auto_control
                0x000000004001a8e4                Heater_1_manual_control
                0x000000004001a950                Heater_2_manual_control
                0x000000004001a9bc                Heater_3_manual_control
                0x000000004001aa28                Heater_4_manual_control
                0x000000004001aa94                Heater_5_manual_control
                0x000000004001ab00                Heater_6_manual_control
                0x000000004001ab6c                Heater_control_auto_manual
                0x000000004001b210                Heater_7_manual_control
                0x000000004001b240                Heater_8_manual_control
                0x000000004001b270                Heater_9_manual_control
                0x000000004001b2a0                Heater_10_manual_control
                0x000000004001b2d0                Heater_11_manual_control
                0x000000004001b300                Heater_12_manual_control
                0x000000004001b330                Heater_13_manual_control
                0x000000004001b370                Heater_14_manual_control
 .text          0x000000004001b3b0      0x8dc C:\Users\ajarr\AppData\Local\Temp\cckLW0x4.o
                0x000000004001b3b0                rHAL_MTR_ON
                0x000000004001b3e4                rHAL_MTR_OFF
                0x000000004001b418                rHAL_MTR
                0x000000004001ba50                MTR_Monitoring
                0x000000004001ba7c                rHAL_MTR_TC
 .text          0x000000004001bc8c     0x143c C:\Users\ajarr\AppData\Local\Temp\ccoK9PBU.o
                0x000000004001bc8c                RW_Init
                0x000000004001be08                HAL_RW_CRC_Check
                0x000000004001be74                rHAL_RW_TM_Read
                0x000000004001c244                rRW_SlipFrame_Check
                0x000000004001c488                rHAL_RW_TC_Write
                0x000000004001c660                rHAL_RW_TM_Write
                0x000000004001c7c0                rHAL_RW_ConfigBuffer_Write
                0x000000004001c864                rRW_Data_Write
                0x000000004001ca70                rRW_Data_Request
                0x000000004001cbac                rRW_Data_Read
                0x000000004001cf58                rRW_init_cmd
 .text          0x000000004001d0c8      0x6dc C:\Users\ajarr\AppData\Local\Temp\ccc7OliV.o
                0x000000004001d0c8                antennaCommand1
                0x000000004001d114                antennaCommand2
                0x000000004001d160                antennaCommand3
                0x000000004001d1ac                antennaCommand4
                0x000000004001d1f8                antennaCommand5
                0x000000004001d244                antennaCommand6
                0x000000004001d290                antennaCommand7
                0x000000004001d2d8                antennaCommand8
                0x000000004001d324                antennaCommand9
                0x000000004001d370                rHAL_Antenna_Read
                0x000000004001d3b8                rHAL_SA_MAIN_Deploy_on
                0x000000004001d430                rHAL_SA_RED_Deploy_on
                0x000000004001d498                rHAL_SA1_Deploy_status_check
                0x000000004001d580                rHAL_SA2_Deploy_status_check
                0x000000004001d668                rHAL_SA_Deploy_Status_new
 .text          0x000000004001d7a4     0x32f0 C:\Users\ajarr\AppData\Local\Temp\ccLBYgor.o
                0x000000004001d8d4                rQ_Propagation
                0x000000004001d904                rQuestDataProcessing
                0x000000004001de50                rDAD_quest
                0x000000004001ede0                rErrorComputation
                0x000000004001f3bc                rExtendedKalmanFilter1_p1
                0x00000000400200f8                rExtendedKalmanFilter1_p2
 .text          0x0000000040020a94     0x2bec C:\Users\ajarr\AppData\Local\Temp\cc41N2oq.o
                0x0000000040020a94                rGH_generation
                0x0000000040020c58                rMagFieldComp1
                0x00000000400216a8                rMagFieldComp2
                0x0000000040021dc0                rSun_Ephemeris
                0x0000000040022000                rReferenceQuatComputation
                0x0000000040022ad4                rRefVectorGeneration
                0x00000000400231d0                rRefRate_Computation
                0x00000000400234b4                rSl_Ecl_OnBrd_detection
 .text          0x0000000040023680        0x0 C:\Users\ajarr\AppData\Local\Temp\cczww3Ay.o
 .text          0x0000000040023680     0x2868 C:\Users\ajarr\AppData\Local\Temp\ccJldDN1.o
                0x00000000400237bc                rLinearController
                0x00000000400241a8                rDutyCycleGeneration
                0x000000004002432c                rAngularMomentumDumping
                0x00000000400247c8                rTorquer_Polarity_Check
                0x00000000400247fc                rSpeedBasedMomentumDumping
                0x0000000040024f54                rWheel_Spin_updown
                0x00000000400252e4                rWheel_Auto_Reconfiguration
 .text          0x0000000040025ee8     0x10f8 C:\Users\ajarr\AppData\Local\Temp\ccnWSFNQ.o
                0x0000000040025f00                rSuspended_ModePreprocessing
                0x0000000040025f74                rDetumbling_ModePreprocessing_BDOT_Logic
                0x00000000400263e4                rDetumbling_ModePreprocessing_GYRO_Logic
                0x000000004002682c                rSunAcquisition_ModePreprocessing
                0x0000000040026be4                rThreeAxis_ModePreprocessing
                0x0000000040026e30                rRateReductionCheck
                0x0000000040026f2c                rSafeMode_Preprocessing
                0x0000000040026f68                rScModeSelection
 .text          0x0000000040026fe0     0x4a04 C:\Users\ajarr\AppData\Local\Temp\ccegvyo6.o
                0x0000000040026fe0                rADCS_Pon_vars
 .text          0x000000004002b9e4     0x9494 C:\Users\ajarr\AppData\Local\Temp\ccyOpeqt.o
                0x000000004002b9e4                rIMUDataCorrection
                0x000000004002cd80                rIMU_1_DB_Copy
                0x000000004002d620                rIMU_2_DB_Copy
                0x000000004002dec0                rIMU_1_DB_Init
                0x000000004002e760                rIMU_2_DB_Init
                0x000000004002f000                rIMU_Angle_Reset
                0x000000004002f048                rIMUDataProcessing
                0x00000000400302dc                rTheta_Limit
                0x000000004003033c                rIMU1_DB_Execute
                0x0000000040030360                rIMU2_DB_Execute
                0x0000000040030384                rBDOT_Computation
                0x00000000400305b0                rSunSensorVectorComp
                0x00000000400336a0                rSunSensorDataProcessing
                0x0000000040033a7c                rSS_Read_Data
                0x0000000040033adc                rSS_Main_DB_Init
                0x0000000040033af4                rSS_Redundant_DB_Init
                0x0000000040033b00                rSS_Main_DB_Copy
                0x0000000040034458                rSS_Redundant_DB_Copy
                0x0000000040034db0                rSS_Main_DB_Execute
                0x0000000040034e14                rSS_Redundant_DB_Execute
 .text          0x0000000040034e78        0x0 C:\Users\ajarr\AppData\Local\Temp\cceA7QRW.o
 .text          0x0000000040034e78     0x4768 C:\Users\ajarr\AppData\Local\Temp\ccExFPZ1.o
                0x0000000040036558                rOrbit_Initialization
                0x0000000040037928                rOrbit_Propagation
                0x0000000040038cac                rOrbitalElements_computation
                0x0000000040038cd4                rOrbitalElements_TLE
                0x0000000040038d0c                rGPS_data_validity
                0x0000000040038d14                rJulian_Day
                0x0000000040038d50                rNEDtoECEF
                0x0000000040038e44                rECEFtoECItoECEF
                0x0000000040038e6c                rast_args
                0x0000000040038f78                rnut_iau1980
                0x00000000400390d4                rGPS2OE
                0x0000000040039558                rGPSDataProcessing
 .text          0x00000000400395e0      0xd4c C:\Users\ajarr\AppData\Local\Temp\ccd1pLAc.o
                0x00000000400395e0                rxRot
                0x0000000040039670                ryRot
                0x0000000040039700                rzRot
                0x0000000040039788                rMatInv
                0x0000000040039940                rCross_Product
                0x00000000400399a8                rMatMul3x1
                0x0000000040039a20                rMatMul3x3
                0x0000000040039ad8                rRM_to_Quat
                0x0000000040039e0c                rQs_Normalization
                0x0000000040039f14                rQs_Multiplication
                0x0000000040039ff0                rVectorNorm
                0x000000004003a0c0                rMat_adjoint3
                0x000000004003a1bc                rMatMul34x1
                0x000000004003a238                rMatMul43x1
                0x000000004003a2b4                rMatMul44x1
 .text          0x000000004003a32c      0x284 C:\Users\ajarr\AppData\Local\Temp\ccG5Eq4q.o
                0x000000004003a32c                rSus_mode_remote_entry_hook
                0x000000004003a358                rSus_mode_remote_exit_hook
                0x000000004003a364                rDBDOT_mode_remote_entry_hook
                0x000000004003a370                rDBDOT_mode_remote_exit_hook
                0x000000004003a37c                rDGYRO_mode_remote_entry_hook
                0x000000004003a388                rDGYRO_mode_remote_exit_hook
                0x000000004003a394                rSACQ_mode_remote_entry_hook
                0x000000004003a3a0                rSACQ_mode_remote_exit_hook
                0x000000004003a3ac                r3AXIS_mode_remote_entry_hook
                0x000000004003a3b8                r3AXIS_mode_remote_exit_hook
                0x000000004003a3c4                rSAFE_mode_remote_entry_hook
                0x000000004003a3d0                rSAFE_mode_remote_exit_hook
                0x000000004003a3dc                rRemote_patch_area_1
                0x000000004003a574                rRemote_patch_area_2
                0x000000004003a580                rRemote_patch_area_3
                0x000000004003a58c                rRemote_patch_area_4
                0x000000004003a598                rRemote_patch_area_5
                0x000000004003a5a4                rRemote_patch_area_6
 .text          0x000000004003a5b0      0x2d0 c:/opt/bcc-2.0.2-gcc/bin/../lib/gcc/sparc-gaisler-elf/7.2.0/../../../../sparc-gaisler-elf/lib/leon/mfix-at697f\libm.a(lib_a-s_atan.o)
                0x000000004003a5b0                atan
 .text          0x000000004003a880       0xe4 c:/opt/bcc-2.0.2-gcc/bin/../lib/gcc/sparc-gaisler-elf/7.2.0/../../../../sparc-gaisler-elf/lib/leon/mfix-at697f\libm.a(lib_a-s_cos.o)
                0x000000004003a880                cos
 .text          0x000000004003a964       0x28 c:/opt/bcc-2.0.2-gcc/bin/../lib/gcc/sparc-gaisler-elf/7.2.0/../../../../sparc-gaisler-elf/lib/leon/mfix-at697f\libm.a(lib_a-s_fabs.o)
                0x000000004003a964                fabs
 .text          0x000000004003a98c      0x1f0 c:/opt/bcc-2.0.2-gcc/bin/../lib/gcc/sparc-gaisler-elf/7.2.0/../../../../sparc-gaisler-elf/lib/leon/mfix-at697f\libm.a(lib_a-s_floor.o)
                0x000000004003a98c                floor
 .text          0x000000004003ab7c       0xf4 c:/opt/bcc-2.0.2-gcc/bin/../lib/gcc/sparc-gaisler-elf/7.2.0/../../../../sparc-gaisler-elf/lib/leon/mfix-at697f\libm.a(lib_a-s_round.o)
                0x000000004003ab7c                round
 .text          0x000000004003ac70       0xe8 c:/opt/bcc-2.0.2-gcc/bin/../lib/gcc/sparc-gaisler-elf/7.2.0/../../../../sparc-gaisler-elf/lib/leon/mfix-at697f\libm.a(lib_a-s_sin.o)
                0x000000004003ac70                sin
 .text          0x000000004003ad58       0x9c c:/opt/bcc-2.0.2-gcc/bin/../lib/gcc/sparc-gaisler-elf/7.2.0/../../../../sparc-gaisler-elf/lib/leon/mfix-at697f\libm.a(lib_a-s_tan.o)
                0x000000004003ad58                tan
 .text          0x000000004003adf4      0x128 c:/opt/bcc-2.0.2-gcc/bin/../lib/gcc/sparc-gaisler-elf/7.2.0/../../../../sparc-gaisler-elf/lib/leon/mfix-at697f\libm.a(lib_a-w_acos.o)
                0x000000004003adf4                acos
 .text          0x000000004003af1c      0x128 c:/opt/bcc-2.0.2-gcc/bin/../lib/gcc/sparc-gaisler-elf/7.2.0/../../../../sparc-gaisler-elf/lib/leon/mfix-at697f\libm.a(lib_a-w_asin.o)
                0x000000004003af1c                asin
 .text          0x000000004003b044        0xc c:/opt/bcc-2.0.2-gcc/bin/../lib/gcc/sparc-gaisler-elf/7.2.0/../../../../sparc-gaisler-elf/lib/leon/mfix-at697f\libm.a(lib_a-w_atan2.o)
                0x000000004003b044                atan2
 .text          0x000000004003b050      0x148 c:/opt/bcc-2.0.2-gcc/bin/../lib/gcc/sparc-gaisler-elf/7.2.0/../../../../sparc-gaisler-elf/lib/leon/mfix-at697f\libm.a(lib_a-w_fmod.o)
                0x000000004003b050                fmod
 .text          0x000000004003b198      0x4a8 c:/opt/bcc-2.0.2-gcc/bin/../lib/gcc/sparc-gaisler-elf/7.2.0/../../../../sparc-gaisler-elf/lib/leon/mfix-at697f\libm.a(lib_a-w_pow.o)
                0x000000004003b198                pow
 .text          0x000000004003b640       0xfc c:/opt/bcc-2.0.2-gcc/bin/../lib/gcc/sparc-gaisler-elf/7.2.0/../../../../sparc-gaisler-elf/lib/leon/mfix-at697f\libm.a(lib_a-w_sqrt.o)
                0x000000004003b640                sqrt
 .text          0x000000004003b73c      0x37c c:/opt/bcc-2.0.2-gcc/bin/../lib/gcc/sparc-gaisler-elf/7.2.0/../../../../sparc-gaisler-elf/lib/leon/mfix-at697f\libm.a(lib_a-e_acos.o)
                0x000000004003b73c                __ieee754_acos
 .text          0x000000004003bab8      0x310 c:/opt/bcc-2.0.2-gcc/bin/../lib/gcc/sparc-gaisler-elf/7.2.0/../../../../sparc-gaisler-elf/lib/leon/mfix-at697f\libm.a(lib_a-e_asin.o)
                0x000000004003bab8                __ieee754_asin
 .text          0x000000004003bdc8      0x2b4 c:/opt/bcc-2.0.2-gcc/bin/../lib/gcc/sparc-gaisler-elf/7.2.0/../../../../sparc-gaisler-elf/lib/leon/mfix-at697f\libm.a(lib_a-e_atan2.o)
                0x000000004003bdc8                __ieee754_atan2
 .text          0x000000004003c07c      0x3ac c:/opt/bcc-2.0.2-gcc/bin/../lib/gcc/sparc-gaisler-elf/7.2.0/../../../../sparc-gaisler-elf/lib/leon/mfix-at697f\libm.a(lib_a-e_fmod.o)
                0x000000004003c07c                __ieee754_fmod
 .text          0x000000004003c428      0x8dc c:/opt/bcc-2.0.2-gcc/bin/../lib/gcc/sparc-gaisler-elf/7.2.0/../../../../sparc-gaisler-elf/lib/leon/mfix-at697f\libm.a(lib_a-e_pow.o)
                0x000000004003c428                __ieee754_pow
 .text          0x000000004003cd04      0x39c c:/opt/bcc-2.0.2-gcc/bin/../lib/gcc/sparc-gaisler-elf/7.2.0/../../../../sparc-gaisler-elf/lib/leon/mfix-at697f\libm.a(lib_a-e_rem_pio2.o)
                0x000000004003cd04                __ieee754_rem_pio2
 .text          0x000000004003d0a0      0x270 c:/opt/bcc-2.0.2-gcc/bin/../lib/gcc/sparc-gaisler-elf/7.2.0/../../../../sparc-gaisler-elf/lib/leon/mfix-at697f\libm.a(lib_a-e_sqrt.o)
                0x000000004003d0a0                __ieee754_sqrt
 .text          0x000000004003d310      0x1bc c:/opt/bcc-2.0.2-gcc/bin/../lib/gcc/sparc-gaisler-elf/7.2.0/../../../../sparc-gaisler-elf/lib/leon/mfix-at697f\libm.a(lib_a-k_cos.o)
                0x000000004003d310                __kernel_cos
 .text          0x000000004003d4cc      0xbdc c:/opt/bcc-2.0.2-gcc/bin/../lib/gcc/sparc-gaisler-elf/7.2.0/../../../../sparc-gaisler-elf/lib/leon/mfix-at697f\libm.a(lib_a-k_rem_pio2.o)
                0x000000004003d4cc                __kernel_rem_pio2
 .text          0x000000004003e0a8      0x100 c:/opt/bcc-2.0.2-gcc/bin/../lib/gcc/sparc-gaisler-elf/7.2.0/../../../../sparc-gaisler-elf/lib/leon/mfix-at697f\libm.a(lib_a-k_sin.o)
                0x000000004003e0a8                __kernel_sin
 .text          0x000000004003e1a8      0x290 c:/opt/bcc-2.0.2-gcc/bin/../lib/gcc/sparc-gaisler-elf/7.2.0/../../../../sparc-gaisler-elf/lib/leon/mfix-at697f\libm.a(lib_a-k_tan.o)
                0x000000004003e1a8                __kernel_tan
 .text          0x000000004003e438       0x18 c:/opt/bcc-2.0.2-gcc/bin/../lib/gcc/sparc-gaisler-elf/7.2.0/../../../../sparc-gaisler-elf/lib/leon/mfix-at697f\libm.a(lib_a-s_finite.o)
                0x000000004003e438                finite
 .text          0x000000004003e450        0x0 c:/opt/bcc-2.0.2-gcc/bin/../lib/gcc/sparc-gaisler-elf/7.2.0/../../../../sparc-gaisler-elf/lib/leon/mfix-at697f\libm.a(lib_a-s_lib_ver.o)
 .text          0x000000004003e450        0x8 c:/opt/bcc-2.0.2-gcc/bin/../lib/gcc/sparc-gaisler-elf/7.2.0/../../../../sparc-gaisler-elf/lib/leon/mfix-at697f\libm.a(lib_a-s_matherr.o)
                0x000000004003e450                matherr
 .text          0x000000004003e458        0xc c:/opt/bcc-2.0.2-gcc/bin/../lib/gcc/sparc-gaisler-elf/7.2.0/../../../../sparc-gaisler-elf/lib/leon/mfix-at697f\libm.a(lib_a-s_nan.o)
                0x000000004003e458                nan
 .text          0x000000004003e464      0x1ac c:/opt/bcc-2.0.2-gcc/bin/../lib/gcc/sparc-gaisler-elf/7.2.0/../../../../sparc-gaisler-elf/lib/leon/mfix-at697f\libm.a(lib_a-s_rint.o)
                0x000000004003e464                rint
 .text          0x000000004003e610      0x14c c:/opt/bcc-2.0.2-gcc/bin/../lib/gcc/sparc-gaisler-elf/7.2.0/../../../../sparc-gaisler-elf/lib/leon/mfix-at697f\libm.a(lib_a-s_scalbn.o)
                0x000000004003e610                scalbn
 .text          0x000000004003e75c       0x30 c:/opt/bcc-2.0.2-gcc/bin/../lib/gcc/sparc-gaisler-elf/7.2.0/../../../../sparc-gaisler-elf/lib/leon/mfix-at697f\libm.a(lib_a-s_copysign.o)
                0x000000004003e75c                copysign
 .text          0x000000004003e78c       0x7c c:/opt/bcc-2.0.2-gcc/bin/../sparc-gaisler-elf/bsp/leon2/leon/mfix-at697f\libbcc.a(reset_trap_mvt.S.o)
                0x000000004003e78c                __bcc_trap_reset_mvt
 .text          0x000000004003e808       0xb0 c:/opt/bcc-2.0.2-gcc/bin/../sparc-gaisler-elf/bsp/leon2/leon/mfix-at697f\libbcc.a(window_trap.S.o)
                0x000000004003e808                __bcc_trap_window_overflow
                0x000000004003e858                __bcc_trap_window_underflow
 .text          0x000000004003e8b8      0x1b4 c:/opt/bcc-2.0.2-gcc/bin/../sparc-gaisler-elf/bsp/leon2/leon/mfix-at697f\libbcc.a(interrupt_trap.S.o)
                0x000000004003e8b8                __bcc_trap_interrupt_svt
                0x000000004003e8bc                __bcc_trap_interrupt
 .text          0x000000004003ea6c       0x88 c:/opt/bcc-2.0.2-gcc/bin/../sparc-gaisler-elf/bsp/leon2/leon/mfix-at697f\libbcc.a(flush_windows_trap.S.o)
                0x000000004003ea6c                __bcc_trap_flush_windows
 .text          0x000000004003eaf4       0x2c c:/opt/bcc-2.0.2-gcc/bin/../sparc-gaisler-elf/bsp/leon2/leon/mfix-at697f\libbcc.a(sw_trap_set_pil.S.o)
                0x000000004003eaf4                __bcc_trap_sw_set_pil
 .text          0x000000004003eb20       0xb0 c:/opt/bcc-2.0.2-gcc/bin/../sparc-gaisler-elf/bsp/leon2/leon/mfix-at697f\libbcc.a(trap.c.o)
                0x000000004003eb20                bcc_set_trap
 .text          0x000000004003ebd0        0x0 c:/opt/bcc-2.0.2-gcc/bin/../sparc-gaisler-elf/bsp/leon2/leon/mfix-at697f\libbcc.a(isr.c.o)
 .text          0x000000004003ebd0        0x0 c:/opt/bcc-2.0.2-gcc/bin/../sparc-gaisler-elf/bsp/leon2/leon/mfix-at697f\libbcc.a(int_nest.c.o)
 .text          0x000000004003ebd0        0x8 c:/opt/bcc-2.0.2-gcc/bin/../sparc-gaisler-elf/bsp/leon2/leon/mfix-at697f\libbcc.a(init.S.o)
                0x000000004003ebd0                __bcc_init40
                0x000000004003ebd0                __bcc_init70
                0x000000004003ebd0                __bcc_init60
                0x000000004003ebd0                __bcc_init50
 .text          0x000000004003ebd8       0x84 c:/opt/bcc-2.0.2-gcc/bin/../sparc-gaisler-elf/bsp/leon2/leon/mfix-at697f\libbcc.a(leon_info.S.o)
                0x000000004003ebd8                __bcc_get_leon_info
                0x000000004003ec4c                bcc_get_cpuid
 .text          0x000000004003ec5c       0x2c c:/opt/bcc-2.0.2-gcc/bin/../sparc-gaisler-elf/bsp/leon2/leon/mfix-at697f\libbcc.a(dwzero.S.o)
                0x000000004003ec5c                bcc_dwzero
 .text          0x000000004003ec88       0x5c c:/opt/bcc-2.0.2-gcc/bin/../sparc-gaisler-elf/bsp/leon2/leon/mfix-at697f\libbcc.a(copy_data.c.o)
                0x000000004003ec88                __bcc_copy_data
 *fill*         0x000000004003ece4        0xc 
 .text          0x000000004003ecf0       0x90 c:/opt/bcc-2.0.2-gcc/bin/../sparc-gaisler-elf/bsp/leon2/leon/mfix-at697f\libbcc.a(lowlevel.S.o)
                0x000000004003ecf0                bcc_loadnocache
                0x000000004003ecfc                bcc_loadnocache16
                0x000000004003ed08                bcc_loadnocache8
                0x000000004003ed20                bcc_ldstub
                0x000000004003ed2c                bcc_set_psr
                0x000000004003ed44                bcc_get_psr
                0x000000004003ed4c                bcc_get_pil
                0x000000004003ed5c                bcc_set_tbr
                0x000000004003ed74                bcc_get_tbr
 .text          0x000000004003ed80       0x50 c:/opt/bcc-2.0.2-gcc/bin/../sparc-gaisler-elf/bsp/leon2/leon/mfix-at697f\libbcc.a(lowlevel_leon2.S.o)
                0x000000004003ed80                bcc_set_ccr
                0x000000004003ed90                bcc_get_ccr
                0x000000004003eda0                bcc_flush_cache
                0x000000004003edac                bcc_flush_icache
                0x000000004003edb4                bcc_flush_dcache
                0x000000004003edbc                bcc_power_down
 .text          0x000000004003edd0      0x160 c:/opt/bcc-2.0.2-gcc/bin/../sparc-gaisler-elf/bsp/leon2/leon/mfix-at697f\libbcc.a(int_leon2.c.o)
                0x000000004003edd0                bcc_int_mask
                0x000000004003ee20                bcc_int_unmask
                0x000000004003ee70                bcc_int_clear
                0x000000004003eea8                bcc_int_force
                0x000000004003eeec                bcc_int_pend
 .text          0x000000004003ef30        0x8 c:/opt/bcc-2.0.2-gcc/bin/../sparc-gaisler-elf/bsp/leon2/leon/mfix-at697f\libbcc.a(int_leon2_get_source.c.o)
                0x000000004003ef30                __bcc_int_get_source
 .text          0x000000004003ef38        0x8 c:/opt/bcc-2.0.2-gcc/bin/../sparc-gaisler-elf/bsp/leon2/leon/mfix-at697f\libbcc.a(int_leon2_init.c.o)
                0x000000004003ef38                __bcc_int_init
 .text          0x000000004003ef40       0x70 c:/opt/bcc-2.0.2-gcc/bin/../sparc-gaisler-elf/bsp/leon2/leon/mfix-at697f\libbcc.a(con_leon2.c.o)
                0x000000004003ef40                __bcc_con_init
                0x000000004003ef48                __bcc_con_outbyte
                0x000000004003ef7c                __bcc_con_inbyte
 .text          0x000000004003efb0       0x30 c:/opt/bcc-2.0.2-gcc/bin/../sparc-gaisler-elf/bsp/leon2/leon/mfix-at697f\libbcc.a(timer_leon2.c.o)
                0x000000004003efb0                __bcc_timer_init
                0x000000004003efb8                bcc_timer_get_us
 .text          0x000000004003efe0        0xc c:/opt/bcc-2.0.2-gcc/bin/../sparc-gaisler-elf/bsp/leon2/leon/mfix-at697f\libbcc.a(set_pil.S.o)
                0x000000004003efe0                bcc_set_pil
 .text          0x000000004003efec        0x0 c:/opt/bcc-2.0.2-gcc/bin/../sparc-gaisler-elf/bsp/leon2/leon/mfix-at697f\libbcc.a(int_leon2_handle.c.o)
 .text          0x000000004003efec        0x0 c:/opt/bcc-2.0.2-gcc/bin/../sparc-gaisler-elf/bsp/leon2/leon/mfix-at697f\libbcc.a(con_handle.c.o)
 .text          0x000000004003efec        0x0 c:/opt/bcc-2.0.2-gcc/bin/../sparc-gaisler-elf/bsp/leon2/leon/mfix-at697f\libbcc.a(timer_handle.c.o)
 .text          0x000000004003efec       0x1c c:/opt/bcc-2.0.2-gcc/bin/../lib/gcc/sparc-gaisler-elf/7.2.0/../../../../sparc-gaisler-elf/lib/leon/mfix-at697f\libc.a(lib_a-atexit.o)
                0x000000004003efec                atexit
 .text          0x000000004003f008        0xc c:/opt/bcc-2.0.2-gcc/bin/../lib/gcc/sparc-gaisler-elf/7.2.0/../../../../sparc-gaisler-elf/lib/leon/mfix-at697f\libc.a(lib_a-errno.o)
                0x000000004003f008                __errno
 .text          0x000000004003f014       0x3c c:/opt/bcc-2.0.2-gcc/bin/../lib/gcc/sparc-gaisler-elf/7.2.0/../../../../sparc-gaisler-elf/lib/leon/mfix-at697f\libc.a(lib_a-exit.o)
                0x000000004003f014                exit
 .text          0x000000004003f050        0x0 c:/opt/bcc-2.0.2-gcc/bin/../lib/gcc/sparc-gaisler-elf/7.2.0/../../../../sparc-gaisler-elf/lib/leon/mfix-at697f\libc.a(lib_a-impure.o)
 .text          0x000000004003f050      0x19c c:/opt/bcc-2.0.2-gcc/bin/../lib/gcc/sparc-gaisler-elf/7.2.0/../../../../sparc-gaisler-elf/lib/leon/mfix-at697f\libc.a(lib_a-memcpy.o)
                0x000000004003f050                memcpy
 .text          0x000000004003f1ec      0x158 c:/opt/bcc-2.0.2-gcc/bin/../lib/gcc/sparc-gaisler-elf/7.2.0/../../../../sparc-gaisler-elf/lib/leon/mfix-at697f\libc.a(lib_a-__atexit.o)
                0x000000004003f1ec                __register_exitproc
 .text          0x000000004003f344      0x2b4 c:/opt/bcc-2.0.2-gcc/bin/../lib/gcc/sparc-gaisler-elf/7.2.0/../../../../sparc-gaisler-elf/lib/leon/mfix-at697f\libc.a(lib_a-__call_atexit.o)
                0x000000004003f344                __call_exitprocs
 .text          0x000000004003f5f8       0x18 c:/opt/bcc-2.0.2-gcc/bin/../sparc-gaisler-elf/bsp/leon2/leon/mfix-at697f\libbcc.a(_exit.S.o)
                0x000000004003f5f8                _exit
 .text          0x000000004003f610       0x48 c:/opt/bcc-2.0.2-gcc/bin/../lib/gcc/sparc-gaisler-elf/7.2.0/leon/mfix-at697f/crtend.o
 .text          0x000000004003f658        0x0 c:/opt/bcc-2.0.2-gcc/bin/../lib/gcc/sparc-gaisler-elf/7.2.0/leon/mfix-at697f/crtn.o
                0x000000004003f660                . = ALIGN (0x10)
 *fill*         0x000000004003f658        0x8 
 *(.eh_frame)
 .eh_frame      0x000000004003f660        0x0 c:/opt/bcc-2.0.2-gcc/bin/../lib/gcc/sparc-gaisler-elf/7.2.0/leon/mfix-at697f/crtbegin.o
 .eh_frame      0x000000004003f660        0x4 c:/opt/bcc-2.0.2-gcc/bin/../lib/gcc/sparc-gaisler-elf/7.2.0/leon/mfix-at697f/crtend.o
                0x000000004003f670                . = ALIGN (0x10)
 *fill*         0x000000004003f664        0xc 
 *(.gnu.linkonce.t*)
                0x000000004003f670                ___CTOR_LIST__ = .
                0x000000004003f670        0x4 LONG 0x2 (((___CTOR_END__ - ___CTOR_LIST__) / 0x4) - 0x2)
 *(SORT(.ctors.*))
 *(.ctors)
 .ctors         0x000000004003f674        0x4 c:/opt/bcc-2.0.2-gcc/bin/../lib/gcc/sparc-gaisler-elf/7.2.0/leon/mfix-at697f/crtbegin.o
 .ctors         0x000000004003f678        0x4 c:/opt/bcc-2.0.2-gcc/bin/../lib/gcc/sparc-gaisler-elf/7.2.0/leon/mfix-at697f/crtend.o
                0x000000004003f67c        0x4 LONG 0x0
                0x000000004003f680                ___CTOR_END__ = .
                0x000000004003f680                ___DTOR_LIST__ = .
                0x000000004003f680        0x4 LONG 0x2 (((___DTOR_END__ - ___DTOR_LIST__) / 0x4) - 0x2)
 *(SORT(.dtors.*))
 *(.dtors)
 .dtors         0x000000004003f684        0x4 c:/opt/bcc-2.0.2-gcc/bin/../lib/gcc/sparc-gaisler-elf/7.2.0/leon/mfix-at697f/crtbegin.o
 .dtors         0x000000004003f688        0x4 c:/opt/bcc-2.0.2-gcc/bin/../lib/gcc/sparc-gaisler-elf/7.2.0/leon/mfix-at697f/crtend.o
                0x000000004003f688                __DTOR_END__
                0x000000004003f68c        0x4 LONG 0x0
                0x000000004003f690                ___DTOR_END__ = .
 *(.gnu.linkonce*)
 *(.init)
 .init          0x000000004003f690        0x4 c:/opt/bcc-2.0.2-gcc/bin/../lib/gcc/sparc-gaisler-elf/7.2.0/leon/mfix-at697f/crti.o
                0x000000004003f690                _init
 .init          0x000000004003f694        0x8 c:/opt/bcc-2.0.2-gcc/bin/../lib/gcc/sparc-gaisler-elf/7.2.0/leon/mfix-at697f/crtbegin.o
 .init          0x000000004003f69c        0x8 c:/opt/bcc-2.0.2-gcc/bin/../lib/gcc/sparc-gaisler-elf/7.2.0/leon/mfix-at697f/crtend.o
 .init          0x000000004003f6a4        0xc c:/opt/bcc-2.0.2-gcc/bin/../lib/gcc/sparc-gaisler-elf/7.2.0/leon/mfix-at697f/crtn.o
 *(.fini)
 .fini          0x000000004003f6b0        0x4 c:/opt/bcc-2.0.2-gcc/bin/../lib/gcc/sparc-gaisler-elf/7.2.0/leon/mfix-at697f/crti.o
                0x000000004003f6b0                _fini
 .fini          0x000000004003f6b4        0x8 c:/opt/bcc-2.0.2-gcc/bin/../lib/gcc/sparc-gaisler-elf/7.2.0/leon/mfix-at697f/crtbegin.o
 .fini          0x000000004003f6bc        0xc c:/opt/bcc-2.0.2-gcc/bin/../lib/gcc/sparc-gaisler-elf/7.2.0/leon/mfix-at697f/crtn.o
 *(.lit)
 *(.shdata)
                0x000000004003f6d0                . = ALIGN (0x10)
 *fill*         0x000000004003f6c8        0x8 
                0x000000004003f6d0                __text_end = .

.gcc_except_table
 *(.gcc_except_table)

.rodata         0x000000004003f6d0     0x5130
                0x000000004003f6d0                __rodata_start = .
 *(.rodata*)
 .rodata.cst8   0x000000004003f6d0       0x38 C:\Users\ajarr\AppData\Local\Temp\cc6epILV.o
 .rodata        0x000000004003f708        0x0 C:\Users\ajarr\AppData\Local\Temp\ccIUYBk4.o
 .rodata        0x000000004003f708       0x10 C:\Users\ajarr\AppData\Local\Temp\ccvsnmY2.o
 .rodata.cst4   0x000000004003f718        0x4 C:\Users\ajarr\AppData\Local\Temp\cczww0RR.o
 .rodata        0x000000004003f71c        0x0 C:\Users\ajarr\AppData\Local\Temp\cczww0RR.o
 .rodata        0x000000004003f71c        0x0 C:\Users\ajarr\AppData\Local\Temp\cchY9yN1.o
 *fill*         0x000000004003f71c        0x4 
 .rodata.cst8   0x000000004003f720        0x8 C:\Users\ajarr\AppData\Local\Temp\ccoK9PBU.o
 .rodata.cst8   0x000000004003f728       0x58 C:\Users\ajarr\AppData\Local\Temp\ccLBYgor.o
                                         0xc8 (size before relaxing)
 .rodata.cst4   0x000000004003f780        0x4 C:\Users\ajarr\AppData\Local\Temp\ccLBYgor.o
 *fill*         0x000000004003f784        0x4 
 .rodata.cst8   0x000000004003f788       0x18 C:\Users\ajarr\AppData\Local\Temp\cc41N2oq.o
                                         0x78 (size before relaxing)
 .rodata        0x000000004003f7a0     0x4724 C:\Users\ajarr\AppData\Local\Temp\cczww3Ay.o
                0x000000004003f7a0                c_I_nine_cross_nine
                0x000000004003fa28                c_I_three_cross_three
                0x000000004003fa70                c_Tv_wof_0034
                0x000000004003fab8                c_Tv_wof_0204
                0x000000004003fb00                c_Tv_wof_0230
                0x000000004003fb48                c_Tv_wof_1004
                0x000000004003fb90                c_Tv_wof_1030
                0x000000004003fbd8                c_Tv_wof_1200
                0x000000004003fc20                c_B2wh_mat_0034
                0x000000004003fc80                c_B2wh_mat_0204
                0x000000004003fce0                c_B2wh_mat_0230
                0x000000004003fd40                c_B2wh_mat_1004
                0x000000004003fda0                c_B2wh_mat_1030
                0x000000004003fe00                c_B2wh_mat_1200
                0x000000004003fe60                c_B2wh_mat_0234
                0x000000004003fec0                c_B2wh_mat_1034
                0x000000004003ff20                c_B2wh_mat_1204
                0x000000004003ff80                c_B2wh_mat_1230
                0x000000004003ffe0                c_B2wh_mat_4RW
                0x0000000040040040                c_wh2B_mat_0034
                0x00000000400400a0                c_wh2B_mat_0204
                0x0000000040040100                c_wh2B_mat_0230
                0x0000000040040160                c_wh2B_mat_1004
                0x00000000400401c0                c_wh2B_mat_1030
                0x0000000040040220                c_wh2B_mat_1200
                0x0000000040040280                c_wh2B_mat_0234
                0x00000000400402e0                c_wh2B_mat_1034
                0x0000000040040340                c_wh2B_mat_1204
                0x00000000400403a0                c_wh2B_mat_1230
                0x0000000040040400                c_wh2B_mat_4RW
                0x0000000040040460                c_MOI_wh
                0x0000000040040468                c_MOI_wh4
                0x0000000040040470                c_MOI_wh3
                0x0000000040040478                c_MOI_wh2
                0x0000000040040480                c_MOI_wh1
                0x0000000040040488                TC_T_RW_MAX
                0x0000000040040490                c_RADps2RPM
                0x0000000040040498                c_RPM2RADpS
                0x00000000400404a0                c_DPMMAX
                0x00000000400404a8                c_wkm_sunmag
                0x00000000400404b0                c_wks_sunmag
                0x00000000400404b8                c_wkm_mag
                0x00000000400404c0                c_wks_mag
                0x00000000400404c8                c_ss2b4156
                0x0000000040040510                c_ss2b3456
                0x0000000040040558                c_ss2b2356
                0x00000000400405a0                c_ss2b1256
                0x00000000400405e8                c_misaln_cor146
                0x0000000040040630                c_misaln_cor145
                0x0000000040040678                c_misaln_cor346
                0x00000000400406c0                c_misaln_cor345
                0x0000000040040708                c_misaln_cor326
                0x0000000040040750                c_misaln_cor325
                0x0000000040040798                c_misaln_cor126
                0x00000000400407e0                c_misaln_cor125
                0x0000000040040828                c_AngDev_SAMtransit_thrsld
                0x0000000040040830                c_AngDev_SMtransit_thrsld
                0x0000000040040838                c_Sunlit_Thrsld
                0x0000000040040840                c_SSThrsld
                0x0000000040040848                c_Imax_YN_Main
                0x0000000040040850                c_Imax_YP_Main
                0x0000000040040858                c_Imax_PN_Main
                0x0000000040040860                c_Imax_PP_Main
                0x0000000040040868                c_Imax_RNND_Main
                0x0000000040040870                c_Imax_RPND_Main
                0x0000000040040878                c_Imax_RND_Main
                0x0000000040040880                c_Imax_RPD_Main
                0x0000000040040888                c_Imax_YN_Red
                0x0000000040040890                c_Imax_YP_Red
                0x0000000040040898                c_Imax_PN_Red
                0x00000000400408a0                c_Imax_PP_Red
                0x00000000400408a8                c_Imax_RNND_Red
                0x00000000400408b0                c_Imax_RPND_Red
                0x00000000400408b8                c_Imax_RND_Red
                0x00000000400408c0                c_Imax_RPD_Red
                0x00000000400408c8                c_KDset3
                0x00000000400408d0                c_KDset2
                0x00000000400408d8                c_KDset1
                0x00000000400408e0                c_Epsilon2
                0x00000000400408e8                c_Epsilon1
                0x00000000400408f0                c_Sun_Dis3
                0x00000000400408f8                c_Sun_Dis2
                0x0000000040040900                c_Sun_Dis1
                0x0000000040040908                c_L_Ecliptic2
                0x0000000040040910                c_L_Ecliptic1
                0x0000000040040918                c_Msun2
                0x0000000040040920                c_Msun1
                0x0000000040040928                c_L_Msun2
                0x0000000040040930                c_L_Msun1
                0x0000000040040938                c_hsval
                0x0000000040040c78                c_hval
                0x0000000040040fb8                c_gsval
                0x00000000400412f8                c_gval
                0x0000000040041638                c_sdmax
                0x0000000040041640                c_a
                0x0000000040041648                c_Pibytwo
                0x0000000040041650                c_Kmax
                0x0000000040041654                c_Nmax
                0x0000000040041658                nut
                0x0000000040043778                fc
                0x0000000040043840                c_rk_T
                0x0000000040043ac8                c_rk
                0x0000000040043d50                c_I_four_cross_four
                0x0000000040043d90                c_onesecond
                0x0000000040043d98                c_oneminute
                0x0000000040043da0                c_halfhour
                0x0000000040043da8                c_Mmax
                0x0000000040043db0                c_AS2R
                0x0000000040043db8                c_R2D
                0x0000000040043dc0                c_D2R
                0x0000000040043dc8                c_min_per_day
                0x0000000040043dd0                c_temp4
                0x0000000040043dd8                c_j4
                0x0000000040043de0                c_j3oj2
                0x0000000040043de8                c_qzms2t
                0x0000000040043df0                c_ss
                0x0000000040043df8                c_xpdotp
                0x0000000040043e00                c_Pi
                0x0000000040043e08                c_Day_To_Seconds
                0x0000000040043e10                c_invmu
                0x0000000040043e18                c_mu
                0x0000000040043e20                c_dividebyzerovalue
                0x0000000040043e28                c_xke
                0x0000000040043e30                c_x2o3
                0x0000000040043e38                c_Twopi
                0x0000000040043e40                c_j2
                0x0000000040043e48                c_au
                0x0000000040043e50                c_auer
                0x0000000040043e58                c_radiusearthkm
                0x0000000040043e60                c_vkmpersec
                0x0000000040043e68                c_OMEGAE
                0x0000000040043e70                c_tsince_min
                0x0000000040043e78                c_twomu
                0x0000000040043e80                c_MiC
                0x0000000040043e88                c_MaC
                0x0000000040043e90                c_TM_RW_Resol
                0x0000000040043e98                c_TM_Resol_B
                0x0000000040043ea0                c_TM_Resol_w
                0x0000000040043ea8                c_TM_Resol_DelThta
                0x0000000040043eb0                c_Resol_DelThta
                0x0000000040043eb8                c_Resol_B
                0x0000000040043ec0                c_FFFF
 *fill*         0x0000000040043ec4        0x4 
 .rodata.cst8   0x0000000040043ec8       0x58 C:\Users\ajarr\AppData\Local\Temp\ccJldDN1.o
                                         0xb0 (size before relaxing)
 .rodata.cst8   0x0000000040043f20       0x30 C:\Users\ajarr\AppData\Local\Temp\ccnWSFNQ.o
                                         0x78 (size before relaxing)
 .rodata        0x0000000040043f50        0x0 C:\Users\ajarr\AppData\Local\Temp\ccnWSFNQ.o
 .rodata.cst8   0x0000000040043f50       0x48 C:\Users\ajarr\AppData\Local\Temp\ccegvyo6.o
                                         0x68 (size before relaxing)
 .rodata.cst4   0x0000000040043f98        0x8 C:\Users\ajarr\AppData\Local\Temp\ccegvyo6.o
 .rodata.cst8   0x0000000040043fa0       0x38 C:\Users\ajarr\AppData\Local\Temp\ccyOpeqt.o
                                         0xa0 (size before relaxing)
 .rodata.cst4   0x0000000040043fd8        0x8 C:\Users\ajarr\AppData\Local\Temp\ccyOpeqt.o
                                          0xc (size before relaxing)
 .rodata.cst8   0x0000000040043fe0      0x290 C:\Users\ajarr\AppData\Local\Temp\ccExFPZ1.o
                                        0x3c0 (size before relaxing)
 .rodata.cst8   0x0000000040044270       0x88 C:\Users\ajarr\AppData\Local\Temp\ccd1pLAc.o
 .rodata.cst8   0x0000000040044270       0xa8 c:/opt/bcc-2.0.2-gcc/bin/../lib/gcc/sparc-gaisler-elf/7.2.0/../../../../sparc-gaisler-elf/lib/leon/mfix-at697f\libm.a(lib_a-s_atan.o)
                                         0xd0 (size before relaxing)
 .rodata.cst8   0x0000000040044318       0x10 c:/opt/bcc-2.0.2-gcc/bin/../lib/gcc/sparc-gaisler-elf/7.2.0/../../../../sparc-gaisler-elf/lib/leon/mfix-at697f\libm.a(lib_a-s_floor.o)
 .rodata.str1.8
                0x0000000040044318        0x9 c:/opt/bcc-2.0.2-gcc/bin/../lib/gcc/sparc-gaisler-elf/7.2.0/../../../../sparc-gaisler-elf/lib/leon/mfix-at697f\libm.a(lib_a-w_acos.o)
 .rodata.cst8   0x0000000040044321        0x8 c:/opt/bcc-2.0.2-gcc/bin/../lib/gcc/sparc-gaisler-elf/7.2.0/../../../../sparc-gaisler-elf/lib/leon/mfix-at697f\libm.a(lib_a-w_acos.o)
 *fill*         0x0000000040044321        0x7 
 .rodata.str1.8
                0x0000000040044328        0x5 c:/opt/bcc-2.0.2-gcc/bin/../lib/gcc/sparc-gaisler-elf/7.2.0/../../../../sparc-gaisler-elf/lib/leon/mfix-at697f\libm.a(lib_a-w_asin.o)
                                          0x9 (size before relaxing)
 .rodata.cst8   0x000000004004432d        0x8 c:/opt/bcc-2.0.2-gcc/bin/../lib/gcc/sparc-gaisler-elf/7.2.0/../../../../sparc-gaisler-elf/lib/leon/mfix-at697f\libm.a(lib_a-w_asin.o)
 *fill*         0x000000004004432d        0x3 
 .rodata.str1.8
                0x0000000040044330        0x5 c:/opt/bcc-2.0.2-gcc/bin/../lib/gcc/sparc-gaisler-elf/7.2.0/../../../../sparc-gaisler-elf/lib/leon/mfix-at697f\libm.a(lib_a-w_fmod.o)
 .rodata.cst8   0x0000000040044335        0x8 c:/opt/bcc-2.0.2-gcc/bin/../lib/gcc/sparc-gaisler-elf/7.2.0/../../../../sparc-gaisler-elf/lib/leon/mfix-at697f\libm.a(lib_a-w_fmod.o)
 *fill*         0x0000000040044335        0x3 
 .rodata.str1.8
                0x0000000040044338        0x4 c:/opt/bcc-2.0.2-gcc/bin/../lib/gcc/sparc-gaisler-elf/7.2.0/../../../../sparc-gaisler-elf/lib/leon/mfix-at697f\libm.a(lib_a-w_pow.o)
 *fill*         0x000000004004433c        0x4 
 .rodata.cst8   0x0000000040044340       0x20 c:/opt/bcc-2.0.2-gcc/bin/../lib/gcc/sparc-gaisler-elf/7.2.0/../../../../sparc-gaisler-elf/lib/leon/mfix-at697f\libm.a(lib_a-w_pow.o)
                                         0x38 (size before relaxing)
 .rodata.str1.8
                0x0000000040044360        0x8 c:/opt/bcc-2.0.2-gcc/bin/../lib/gcc/sparc-gaisler-elf/7.2.0/../../../../sparc-gaisler-elf/lib/leon/mfix-at697f\libm.a(lib_a-w_sqrt.o)
                                          0x5 (size before relaxing)
 .rodata.cst8   0x0000000040044368        0x8 c:/opt/bcc-2.0.2-gcc/bin/../lib/gcc/sparc-gaisler-elf/7.2.0/../../../../sparc-gaisler-elf/lib/leon/mfix-at697f\libm.a(lib_a-w_sqrt.o)
 .rodata.cst8   0x0000000040044368       0x58 c:/opt/bcc-2.0.2-gcc/bin/../lib/gcc/sparc-gaisler-elf/7.2.0/../../../../sparc-gaisler-elf/lib/leon/mfix-at697f\libm.a(lib_a-e_acos.o)
                                         0x80 (size before relaxing)
 .rodata.cst8   0x00000000400443c0       0x80 c:/opt/bcc-2.0.2-gcc/bin/../lib/gcc/sparc-gaisler-elf/7.2.0/../../../../sparc-gaisler-elf/lib/leon/mfix-at697f\libm.a(lib_a-e_asin.o)
 .rodata.cst8   0x00000000400443c0       0x28 c:/opt/bcc-2.0.2-gcc/bin/../lib/gcc/sparc-gaisler-elf/7.2.0/../../../../sparc-gaisler-elf/lib/leon/mfix-at697f\libm.a(lib_a-e_atan2.o)
                                         0x58 (size before relaxing)
 .rodata        0x00000000400443e8       0x10 c:/opt/bcc-2.0.2-gcc/bin/../lib/gcc/sparc-gaisler-elf/7.2.0/../../../../sparc-gaisler-elf/lib/leon/mfix-at697f\libm.a(lib_a-e_fmod.o)
 .rodata.str1.8
                0x00000000400443f8        0x1 c:/opt/bcc-2.0.2-gcc/bin/../lib/gcc/sparc-gaisler-elf/7.2.0/../../../../sparc-gaisler-elf/lib/leon/mfix-at697f\libm.a(lib_a-e_pow.o)
 .rodata.cst8   0x00000000400443f8       0xc8 c:/opt/bcc-2.0.2-gcc/bin/../lib/gcc/sparc-gaisler-elf/7.2.0/../../../../sparc-gaisler-elf/lib/leon/mfix-at697f\libm.a(lib_a-e_pow.o)
                                        0x120 (size before relaxing)
 .rodata.cst8   0x00000000400444c0       0x40 c:/opt/bcc-2.0.2-gcc/bin/../lib/gcc/sparc-gaisler-elf/7.2.0/../../../../sparc-gaisler-elf/lib/leon/mfix-at697f\libm.a(lib_a-e_rem_pio2.o)
                                         0x50 (size before relaxing)
 .rodata        0x0000000040044500      0x188 c:/opt/bcc-2.0.2-gcc/bin/../lib/gcc/sparc-gaisler-elf/7.2.0/../../../../sparc-gaisler-elf/lib/leon/mfix-at697f\libm.a(lib_a-e_rem_pio2.o)
 .rodata.cst8   0x0000000040044688       0x40 c:/opt/bcc-2.0.2-gcc/bin/../lib/gcc/sparc-gaisler-elf/7.2.0/../../../../sparc-gaisler-elf/lib/leon/mfix-at697f\libm.a(lib_a-k_cos.o)
                                         0x50 (size before relaxing)
 .rodata.cst8   0x00000000400446c8       0x50 c:/opt/bcc-2.0.2-gcc/bin/../lib/gcc/sparc-gaisler-elf/7.2.0/../../../../sparc-gaisler-elf/lib/leon/mfix-at697f\libm.a(lib_a-k_rem_pio2.o)
                                         0x78 (size before relaxing)
 .rodata        0x0000000040044718       0x10 c:/opt/bcc-2.0.2-gcc/bin/../lib/gcc/sparc-gaisler-elf/7.2.0/../../../../sparc-gaisler-elf/lib/leon/mfix-at697f\libm.a(lib_a-k_rem_pio2.o)
 .rodata.cst8   0x0000000040044728       0x30 c:/opt/bcc-2.0.2-gcc/bin/../lib/gcc/sparc-gaisler-elf/7.2.0/../../../../sparc-gaisler-elf/lib/leon/mfix-at697f\libm.a(lib_a-k_sin.o)
                                         0x38 (size before relaxing)
 .rodata.cst8   0x0000000040044758       0x68 c:/opt/bcc-2.0.2-gcc/bin/../lib/gcc/sparc-gaisler-elf/7.2.0/../../../../sparc-gaisler-elf/lib/leon/mfix-at697f\libm.a(lib_a-k_tan.o)
                                         0x90 (size before relaxing)
 .rodata.cst8   0x00000000400447c0        0x8 c:/opt/bcc-2.0.2-gcc/bin/../lib/gcc/sparc-gaisler-elf/7.2.0/../../../../sparc-gaisler-elf/lib/leon/mfix-at697f\libm.a(lib_a-s_nan.o)
 .rodata        0x00000000400447c8       0x10 c:/opt/bcc-2.0.2-gcc/bin/../lib/gcc/sparc-gaisler-elf/7.2.0/../../../../sparc-gaisler-elf/lib/leon/mfix-at697f\libm.a(lib_a-s_rint.o)
 .rodata.cst8   0x00000000400447d8       0x18 c:/opt/bcc-2.0.2-gcc/bin/../lib/gcc/sparc-gaisler-elf/7.2.0/../../../../sparc-gaisler-elf/lib/leon/mfix-at697f\libm.a(lib_a-s_scalbn.o)
                                         0x20 (size before relaxing)
 .rodata        0x00000000400447f0        0x4 c:/opt/bcc-2.0.2-gcc/bin/../lib/gcc/sparc-gaisler-elf/7.2.0/../../../../sparc-gaisler-elf/lib/leon/mfix-at697f\libc.a(lib_a-impure.o)
                0x00000000400447f0                _global_impure_ptr
 *(.gnu.linkonce.r*)
                0x0000000040044800                . = ALIGN (0x10)
 *fill*         0x00000000400447f4        0xc 
                0x0000000040044800                __rodata_end = .

.rela.dyn       0x0000000040044800        0x0
 .rela.iplt     0x0000000040044800        0x0 c:/opt/bcc-2.0.2-gcc/bin/../sparc-gaisler-elf/bsp/leon2/leon/mfix-at697f/trap_table_mvt.S.o
 .rela.text.traptable
                0x0000000040044800        0x0 c:/opt/bcc-2.0.2-gcc/bin/../sparc-gaisler-elf/bsp/leon2/leon/mfix-at697f/trap_table_mvt.S.o
 .rela.text     0x0000000040044800        0x0 c:/opt/bcc-2.0.2-gcc/bin/../sparc-gaisler-elf/bsp/leon2/leon/mfix-at697f/trap_table_mvt.S.o
 .rela.text.startup
                0x0000000040044800        0x0 c:/opt/bcc-2.0.2-gcc/bin/../sparc-gaisler-elf/bsp/leon2/leon/mfix-at697f/trap_table_mvt.S.o
 .rela.data     0x0000000040044800        0x0 c:/opt/bcc-2.0.2-gcc/bin/../sparc-gaisler-elf/bsp/leon2/leon/mfix-at697f/trap_table_mvt.S.o

.ext.data       0x0000000040044800        0x0
                0x0000000040044800                . = ALIGN (0x8)
                0x0000000040044800                __extdata_start = .
 *(.data.ext)
                0x0000000040044800                . = ALIGN (0x8)
                0x0000000040044800                __extdata_end = .
                0x0000000040044800                __extdata_start_lma = LOADADDR (.ext.data)
                0x0000000000000000                __extdata_size = SIZEOF (.ext.data)

.data           0x0000000040044800      0x550
                0x0000000040044800                . = ALIGN (0x8)
                0x0000000040044800                __data_start = .
 *(.data .data.*)
 .data          0x0000000040044800        0x0 c:/opt/bcc-2.0.2-gcc/bin/../sparc-gaisler-elf/bsp/leon2/leon/mfix-at697f/trap_table_mvt.S.o
 .data          0x0000000040044800        0x0 c:/opt/bcc-2.0.2-gcc/bin/../sparc-gaisler-elf/bsp/leon2/leon/mfix-at697f/crt0.S.o
 .data          0x0000000040044800        0x0 c:/opt/bcc-2.0.2-gcc/bin/../lib/gcc/sparc-gaisler-elf/7.2.0/leon/mfix-at697f/crti.o
 .data          0x0000000040044800        0x4 c:/opt/bcc-2.0.2-gcc/bin/../lib/gcc/sparc-gaisler-elf/7.2.0/leon/mfix-at697f/crtbegin.o
                0x0000000040044800                __dso_handle
 .data          0x0000000040044804        0x0 C:\Users\ajarr\AppData\Local\Temp\cc6epILV.o
 .data          0x0000000040044804        0x0 C:\Users\ajarr\AppData\Local\Temp\ccIUYBk4.o
 .data          0x0000000040044804       0x18 C:\Users\ajarr\AppData\Local\Temp\ccvsnmY2.o
                0x0000000040044818                real_tm_wait
 .data          0x000000004004481c      0x3ac C:\Users\ajarr\AppData\Local\Temp\cczww0RR.o
                0x000000004004481c                Resol_Table_Adcs
                0x0000000040044900                BlkExe_Status
                0x0000000040044904                FuncExecute_Table
                0x0000000040044b5c                Resol_Table
 .data          0x0000000040044bc8        0x0 C:\Users\ajarr\AppData\Local\Temp\ccXWfUhL.o
 .data          0x0000000040044bc8        0x0 C:\Users\ajarr\AppData\Local\Temp\ccm9LEki.o
 .data          0x0000000040044bc8        0x8 C:\Users\ajarr\AppData\Local\Temp\cchY9yN1.o
                0x0000000040044bc8                PL_Debug_Data
 .data          0x0000000040044bd0       0x20 C:\Users\ajarr\AppData\Local\Temp\ccsnkR1R.o
                0x0000000040044bd0                inter_HAL_EPS_Hardware_Status_SEL
 .data          0x0000000040044bf0        0x0 C:\Users\ajarr\AppData\Local\Temp\ccTwgEYO.o
 .data          0x0000000040044bf0        0x0 C:\Users\ajarr\AppData\Local\Temp\ccEKVXdT.o
 .data          0x0000000040044bf0        0x0 C:\Users\ajarr\AppData\Local\Temp\ccecVsE3.o
 .data          0x0000000040044bf0       0xbc C:\Users\ajarr\AppData\Local\Temp\ccoo9rYu.o
                0x0000000040044bf0                Auto_manual
                0x0000000040044bf4                UTP
                0x0000000040044c34                LTP
                0x0000000040044c74                Thermister_index_select
 .data          0x0000000040044cac        0x0 C:\Users\ajarr\AppData\Local\Temp\cckLW0x4.o
 *fill*         0x0000000040044cac        0x4 
 .data          0x0000000040044cb0        0x4 C:\Users\ajarr\AppData\Local\Temp\ccoK9PBU.o
                0x0000000040044cb0                NSP_addr_table
 .data          0x0000000040044cb4        0x0 C:\Users\ajarr\AppData\Local\Temp\ccc7OliV.o
 .data          0x0000000040044cb4        0x0 C:\Users\ajarr\AppData\Local\Temp\ccLBYgor.o
 .data          0x0000000040044cb4        0x0 C:\Users\ajarr\AppData\Local\Temp\cc41N2oq.o
 .data          0x0000000040044cb4        0x0 C:\Users\ajarr\AppData\Local\Temp\cczww3Ay.o
 .data          0x0000000040044cb4        0x0 C:\Users\ajarr\AppData\Local\Temp\ccJldDN1.o
 .data          0x0000000040044cb4        0x0 C:\Users\ajarr\AppData\Local\Temp\ccnWSFNQ.o
 .data          0x0000000040044cb4        0x0 C:\Users\ajarr\AppData\Local\Temp\ccegvyo6.o
 .data          0x0000000040044cb4        0x0 C:\Users\ajarr\AppData\Local\Temp\ccyOpeqt.o
 .data          0x0000000040044cb4        0x0 C:\Users\ajarr\AppData\Local\Temp\cceA7QRW.o
 .data          0x0000000040044cb4        0x0 C:\Users\ajarr\AppData\Local\Temp\ccExFPZ1.o
 .data          0x0000000040044cb4        0x0 C:\Users\ajarr\AppData\Local\Temp\ccd1pLAc.o
 .data          0x0000000040044cb4        0x0 C:\Users\ajarr\AppData\Local\Temp\ccG5Eq4q.o
 .data          0x0000000040044cb4        0x0 c:/opt/bcc-2.0.2-gcc/bin/../lib/gcc/sparc-gaisler-elf/7.2.0/../../../../sparc-gaisler-elf/lib/leon/mfix-at697f\libm.a(lib_a-s_atan.o)
 .data          0x0000000040044cb4        0x0 c:/opt/bcc-2.0.2-gcc/bin/../lib/gcc/sparc-gaisler-elf/7.2.0/../../../../sparc-gaisler-elf/lib/leon/mfix-at697f\libm.a(lib_a-s_cos.o)
 .data          0x0000000040044cb4        0x0 c:/opt/bcc-2.0.2-gcc/bin/../lib/gcc/sparc-gaisler-elf/7.2.0/../../../../sparc-gaisler-elf/lib/leon/mfix-at697f\libm.a(lib_a-s_fabs.o)
 .data          0x0000000040044cb4        0x0 c:/opt/bcc-2.0.2-gcc/bin/../lib/gcc/sparc-gaisler-elf/7.2.0/../../../../sparc-gaisler-elf/lib/leon/mfix-at697f\libm.a(lib_a-s_floor.o)
 .data          0x0000000040044cb4        0x0 c:/opt/bcc-2.0.2-gcc/bin/../lib/gcc/sparc-gaisler-elf/7.2.0/../../../../sparc-gaisler-elf/lib/leon/mfix-at697f\libm.a(lib_a-s_round.o)
 .data          0x0000000040044cb4        0x0 c:/opt/bcc-2.0.2-gcc/bin/../lib/gcc/sparc-gaisler-elf/7.2.0/../../../../sparc-gaisler-elf/lib/leon/mfix-at697f\libm.a(lib_a-s_sin.o)
 .data          0x0000000040044cb4        0x0 c:/opt/bcc-2.0.2-gcc/bin/../lib/gcc/sparc-gaisler-elf/7.2.0/../../../../sparc-gaisler-elf/lib/leon/mfix-at697f\libm.a(lib_a-s_tan.o)
 .data          0x0000000040044cb4        0x0 c:/opt/bcc-2.0.2-gcc/bin/../lib/gcc/sparc-gaisler-elf/7.2.0/../../../../sparc-gaisler-elf/lib/leon/mfix-at697f\libm.a(lib_a-w_acos.o)
 .data          0x0000000040044cb4        0x0 c:/opt/bcc-2.0.2-gcc/bin/../lib/gcc/sparc-gaisler-elf/7.2.0/../../../../sparc-gaisler-elf/lib/leon/mfix-at697f\libm.a(lib_a-w_asin.o)
 .data          0x0000000040044cb4        0x0 c:/opt/bcc-2.0.2-gcc/bin/../lib/gcc/sparc-gaisler-elf/7.2.0/../../../../sparc-gaisler-elf/lib/leon/mfix-at697f\libm.a(lib_a-w_atan2.o)
 .data          0x0000000040044cb4        0x0 c:/opt/bcc-2.0.2-gcc/bin/../lib/gcc/sparc-gaisler-elf/7.2.0/../../../../sparc-gaisler-elf/lib/leon/mfix-at697f\libm.a(lib_a-w_fmod.o)
 .data          0x0000000040044cb4        0x0 c:/opt/bcc-2.0.2-gcc/bin/../lib/gcc/sparc-gaisler-elf/7.2.0/../../../../sparc-gaisler-elf/lib/leon/mfix-at697f\libm.a(lib_a-w_pow.o)
 .data          0x0000000040044cb4        0x0 c:/opt/bcc-2.0.2-gcc/bin/../lib/gcc/sparc-gaisler-elf/7.2.0/../../../../sparc-gaisler-elf/lib/leon/mfix-at697f\libm.a(lib_a-w_sqrt.o)
 .data          0x0000000040044cb4        0x0 c:/opt/bcc-2.0.2-gcc/bin/../lib/gcc/sparc-gaisler-elf/7.2.0/../../../../sparc-gaisler-elf/lib/leon/mfix-at697f\libm.a(lib_a-e_acos.o)
 .data          0x0000000040044cb4        0x0 c:/opt/bcc-2.0.2-gcc/bin/../lib/gcc/sparc-gaisler-elf/7.2.0/../../../../sparc-gaisler-elf/lib/leon/mfix-at697f\libm.a(lib_a-e_asin.o)
 .data          0x0000000040044cb4        0x0 c:/opt/bcc-2.0.2-gcc/bin/../lib/gcc/sparc-gaisler-elf/7.2.0/../../../../sparc-gaisler-elf/lib/leon/mfix-at697f\libm.a(lib_a-e_atan2.o)
 .data          0x0000000040044cb4        0x0 c:/opt/bcc-2.0.2-gcc/bin/../lib/gcc/sparc-gaisler-elf/7.2.0/../../../../sparc-gaisler-elf/lib/leon/mfix-at697f\libm.a(lib_a-e_fmod.o)
 .data          0x0000000040044cb4        0x0 c:/opt/bcc-2.0.2-gcc/bin/../lib/gcc/sparc-gaisler-elf/7.2.0/../../../../sparc-gaisler-elf/lib/leon/mfix-at697f\libm.a(lib_a-e_pow.o)
 .data          0x0000000040044cb4        0x0 c:/opt/bcc-2.0.2-gcc/bin/../lib/gcc/sparc-gaisler-elf/7.2.0/../../../../sparc-gaisler-elf/lib/leon/mfix-at697f\libm.a(lib_a-e_rem_pio2.o)
 .data          0x0000000040044cb4        0x0 c:/opt/bcc-2.0.2-gcc/bin/../lib/gcc/sparc-gaisler-elf/7.2.0/../../../../sparc-gaisler-elf/lib/leon/mfix-at697f\libm.a(lib_a-e_sqrt.o)
 .data          0x0000000040044cb4        0x0 c:/opt/bcc-2.0.2-gcc/bin/../lib/gcc/sparc-gaisler-elf/7.2.0/../../../../sparc-gaisler-elf/lib/leon/mfix-at697f\libm.a(lib_a-k_cos.o)
 .data          0x0000000040044cb4        0x0 c:/opt/bcc-2.0.2-gcc/bin/../lib/gcc/sparc-gaisler-elf/7.2.0/../../../../sparc-gaisler-elf/lib/leon/mfix-at697f\libm.a(lib_a-k_rem_pio2.o)
 .data          0x0000000040044cb4        0x0 c:/opt/bcc-2.0.2-gcc/bin/../lib/gcc/sparc-gaisler-elf/7.2.0/../../../../sparc-gaisler-elf/lib/leon/mfix-at697f\libm.a(lib_a-k_sin.o)
 .data          0x0000000040044cb4        0x0 c:/opt/bcc-2.0.2-gcc/bin/../lib/gcc/sparc-gaisler-elf/7.2.0/../../../../sparc-gaisler-elf/lib/leon/mfix-at697f\libm.a(lib_a-k_tan.o)
 .data          0x0000000040044cb4        0x0 c:/opt/bcc-2.0.2-gcc/bin/../lib/gcc/sparc-gaisler-elf/7.2.0/../../../../sparc-gaisler-elf/lib/leon/mfix-at697f\libm.a(lib_a-s_finite.o)
 .data          0x0000000040044cb4        0x4 c:/opt/bcc-2.0.2-gcc/bin/../lib/gcc/sparc-gaisler-elf/7.2.0/../../../../sparc-gaisler-elf/lib/leon/mfix-at697f\libm.a(lib_a-s_lib_ver.o)
                0x0000000040044cb4                __fdlib_version
 .data          0x0000000040044cb8        0x0 c:/opt/bcc-2.0.2-gcc/bin/../lib/gcc/sparc-gaisler-elf/7.2.0/../../../../sparc-gaisler-elf/lib/leon/mfix-at697f\libm.a(lib_a-s_matherr.o)
 .data          0x0000000040044cb8        0x0 c:/opt/bcc-2.0.2-gcc/bin/../lib/gcc/sparc-gaisler-elf/7.2.0/../../../../sparc-gaisler-elf/lib/leon/mfix-at697f\libm.a(lib_a-s_nan.o)
 .data          0x0000000040044cb8        0x0 c:/opt/bcc-2.0.2-gcc/bin/../lib/gcc/sparc-gaisler-elf/7.2.0/../../../../sparc-gaisler-elf/lib/leon/mfix-at697f\libm.a(lib_a-s_rint.o)
 .data          0x0000000040044cb8        0x0 c:/opt/bcc-2.0.2-gcc/bin/../lib/gcc/sparc-gaisler-elf/7.2.0/../../../../sparc-gaisler-elf/lib/leon/mfix-at697f\libm.a(lib_a-s_scalbn.o)
 .data          0x0000000040044cb8        0x0 c:/opt/bcc-2.0.2-gcc/bin/../lib/gcc/sparc-gaisler-elf/7.2.0/../../../../sparc-gaisler-elf/lib/leon/mfix-at697f\libm.a(lib_a-s_copysign.o)
 .data          0x0000000040044cb8        0x0 c:/opt/bcc-2.0.2-gcc/bin/../sparc-gaisler-elf/bsp/leon2/leon/mfix-at697f\libbcc.a(reset_trap_mvt.S.o)
 .data          0x0000000040044cb8        0x0 c:/opt/bcc-2.0.2-gcc/bin/../sparc-gaisler-elf/bsp/leon2/leon/mfix-at697f\libbcc.a(window_trap.S.o)
 .data          0x0000000040044cb8        0x0 c:/opt/bcc-2.0.2-gcc/bin/../sparc-gaisler-elf/bsp/leon2/leon/mfix-at697f\libbcc.a(interrupt_trap.S.o)
 .data          0x0000000040044cb8        0x0 c:/opt/bcc-2.0.2-gcc/bin/../sparc-gaisler-elf/bsp/leon2/leon/mfix-at697f\libbcc.a(flush_windows_trap.S.o)
 .data          0x0000000040044cb8        0x0 c:/opt/bcc-2.0.2-gcc/bin/../sparc-gaisler-elf/bsp/leon2/leon/mfix-at697f\libbcc.a(sw_trap_set_pil.S.o)
 .data          0x0000000040044cb8        0x0 c:/opt/bcc-2.0.2-gcc/bin/../sparc-gaisler-elf/bsp/leon2/leon/mfix-at697f\libbcc.a(trap.c.o)
 .data          0x0000000040044cb8        0x0 c:/opt/bcc-2.0.2-gcc/bin/../sparc-gaisler-elf/bsp/leon2/leon/mfix-at697f\libbcc.a(isr.c.o)
 .data          0x0000000040044cb8       0x10 c:/opt/bcc-2.0.2-gcc/bin/../sparc-gaisler-elf/bsp/leon2/leon/mfix-at697f\libbcc.a(int_nest.c.o)
                0x0000000040044cb8                __bcc_int_nest
 .data          0x0000000040044cc8        0x0 c:/opt/bcc-2.0.2-gcc/bin/../sparc-gaisler-elf/bsp/leon2/leon/mfix-at697f\libbcc.a(init.S.o)
 .data          0x0000000040044cc8       0x10 c:/opt/bcc-2.0.2-gcc/bin/../sparc-gaisler-elf/bsp/leon2/leon/mfix-at697f\libbcc.a(leon_info.S.o)
                0x0000000040044cc8                __bcc_leon_version
                0x0000000040044ccc                __bcc_nwindows_min1
                0x0000000040044cd0                __bcc_nwindows
                0x0000000040044cd4                __bcc_cpuid
 .data          0x0000000040044cd8        0x0 c:/opt/bcc-2.0.2-gcc/bin/../sparc-gaisler-elf/bsp/leon2/leon/mfix-at697f\libbcc.a(dwzero.S.o)
 .data          0x0000000040044cd8        0x0 c:/opt/bcc-2.0.2-gcc/bin/../sparc-gaisler-elf/bsp/leon2/leon/mfix-at697f\libbcc.a(copy_data.c.o)
 .data          0x0000000040044cd8        0x0 c:/opt/bcc-2.0.2-gcc/bin/../sparc-gaisler-elf/bsp/leon2/leon/mfix-at697f\libbcc.a(lowlevel.S.o)
 .data          0x0000000040044cd8        0x0 c:/opt/bcc-2.0.2-gcc/bin/../sparc-gaisler-elf/bsp/leon2/leon/mfix-at697f\libbcc.a(lowlevel_leon2.S.o)
 .data          0x0000000040044cd8        0x0 c:/opt/bcc-2.0.2-gcc/bin/../sparc-gaisler-elf/bsp/leon2/leon/mfix-at697f\libbcc.a(int_leon2.c.o)
 .data          0x0000000040044cd8        0x0 c:/opt/bcc-2.0.2-gcc/bin/../sparc-gaisler-elf/bsp/leon2/leon/mfix-at697f\libbcc.a(int_leon2_get_source.c.o)
 .data          0x0000000040044cd8        0x0 c:/opt/bcc-2.0.2-gcc/bin/../sparc-gaisler-elf/bsp/leon2/leon/mfix-at697f\libbcc.a(int_leon2_init.c.o)
 .data          0x0000000040044cd8        0x0 c:/opt/bcc-2.0.2-gcc/bin/../sparc-gaisler-elf/bsp/leon2/leon/mfix-at697f\libbcc.a(con_leon2.c.o)
 .data          0x0000000040044cd8        0x0 c:/opt/bcc-2.0.2-gcc/bin/../sparc-gaisler-elf/bsp/leon2/leon/mfix-at697f\libbcc.a(timer_leon2.c.o)
 .data          0x0000000040044cd8        0x0 c:/opt/bcc-2.0.2-gcc/bin/../sparc-gaisler-elf/bsp/leon2/leon/mfix-at697f\libbcc.a(set_pil.S.o)
 .data          0x0000000040044cd8        0x4 c:/opt/bcc-2.0.2-gcc/bin/../sparc-gaisler-elf/bsp/leon2/leon/mfix-at697f\libbcc.a(int_leon2_handle.c.o)
                0x0000000040044cd8                __bcc_int_handle
 .data          0x0000000040044cdc        0x4 c:/opt/bcc-2.0.2-gcc/bin/../sparc-gaisler-elf/bsp/leon2/leon/mfix-at697f\libbcc.a(con_handle.c.o)
                0x0000000040044cdc                __bcc_con_handle
 .data          0x0000000040044ce0        0x8 c:/opt/bcc-2.0.2-gcc/bin/../sparc-gaisler-elf/bsp/leon2/leon/mfix-at697f\libbcc.a(timer_handle.c.o)
                0x0000000040044ce0                __bcc_timer_interrupt
                0x0000000040044ce4                __bcc_timer_handle
 .data          0x0000000040044ce8        0x0 c:/opt/bcc-2.0.2-gcc/bin/../lib/gcc/sparc-gaisler-elf/7.2.0/../../../../sparc-gaisler-elf/lib/leon/mfix-at697f\libc.a(lib_a-atexit.o)
 .data          0x0000000040044ce8        0x0 c:/opt/bcc-2.0.2-gcc/bin/../lib/gcc/sparc-gaisler-elf/7.2.0/../../../../sparc-gaisler-elf/lib/leon/mfix-at697f\libc.a(lib_a-errno.o)
 .data          0x0000000040044ce8        0x0 c:/opt/bcc-2.0.2-gcc/bin/../lib/gcc/sparc-gaisler-elf/7.2.0/../../../../sparc-gaisler-elf/lib/leon/mfix-at697f\libc.a(lib_a-exit.o)
 .data          0x0000000040044ce8       0x64 c:/opt/bcc-2.0.2-gcc/bin/../lib/gcc/sparc-gaisler-elf/7.2.0/../../../../sparc-gaisler-elf/lib/leon/mfix-at697f\libc.a(lib_a-impure.o)
                0x0000000040044ce8                _impure_ptr
 .data          0x0000000040044d4c        0x0 c:/opt/bcc-2.0.2-gcc/bin/../lib/gcc/sparc-gaisler-elf/7.2.0/../../../../sparc-gaisler-elf/lib/leon/mfix-at697f\libc.a(lib_a-memcpy.o)
 .data          0x0000000040044d4c        0x0 c:/opt/bcc-2.0.2-gcc/bin/../lib/gcc/sparc-gaisler-elf/7.2.0/../../../../sparc-gaisler-elf/lib/leon/mfix-at697f\libc.a(lib_a-__atexit.o)
 .data          0x0000000040044d4c        0x0 c:/opt/bcc-2.0.2-gcc/bin/../lib/gcc/sparc-gaisler-elf/7.2.0/../../../../sparc-gaisler-elf/lib/leon/mfix-at697f\libc.a(lib_a-__call_atexit.o)
 .data          0x0000000040044d4c        0x0 c:/opt/bcc-2.0.2-gcc/bin/../sparc-gaisler-elf/bsp/leon2/leon/mfix-at697f\libbcc.a(_exit.S.o)
 .data          0x0000000040044d4c        0x0 c:/opt/bcc-2.0.2-gcc/bin/../lib/gcc/sparc-gaisler-elf/7.2.0/leon/mfix-at697f/crtend.o
 .data          0x0000000040044d4c        0x0 c:/opt/bcc-2.0.2-gcc/bin/../lib/gcc/sparc-gaisler-elf/7.2.0/leon/mfix-at697f/crtn.o
                0x0000000040044d50                . = ALIGN (0x8)
 *fill*         0x0000000040044d4c        0x4 
                0x0000000040044d50                __data_end = .
                0x0000000040044800                __data_start_lma = LOADADDR (.data)
                0x0000000000000550                __data_size = SIZEOF (.data)

.iplt           0x0000000040044d50        0x0
 .iplt          0x0000000040044d50        0x0 c:/opt/bcc-2.0.2-gcc/bin/../sparc-gaisler-elf/bsp/leon2/leon/mfix-at697f/trap_table_mvt.S.o

.tm_clone_table
                0x0000000040044d50        0x0
 .tm_clone_table
                0x0000000040044d50        0x0 c:/opt/bcc-2.0.2-gcc/bin/../lib/gcc/sparc-gaisler-elf/7.2.0/leon/mfix-at697f/crtbegin.o
 .tm_clone_table
                0x0000000040044d50        0x0 c:/opt/bcc-2.0.2-gcc/bin/../lib/gcc/sparc-gaisler-elf/7.2.0/leon/mfix-at697f/crtend.o

.bss            0x0000000040044d50    0x8e980
                0x0000000040044d50                . = ALIGN (0x8)
                0x0000000040044d50                __bss_start = .
 *(.bss .bss.*)
 .bss           0x0000000040044d50        0x0 c:/opt/bcc-2.0.2-gcc/bin/../sparc-gaisler-elf/bsp/leon2/leon/mfix-at697f/trap_table_mvt.S.o
 .bss           0x0000000040044d50        0x4 c:/opt/bcc-2.0.2-gcc/bin/../sparc-gaisler-elf/bsp/leon2/leon/mfix-at697f/crt0.S.o
                0x0000000040044d50                __bcc_sp_at_entry
 .bss           0x0000000040044d54        0x0 c:/opt/bcc-2.0.2-gcc/bin/../lib/gcc/sparc-gaisler-elf/7.2.0/leon/mfix-at697f/crti.o
 .bss           0x0000000040044d54       0x20 c:/opt/bcc-2.0.2-gcc/bin/../lib/gcc/sparc-gaisler-elf/7.2.0/leon/mfix-at697f/crtbegin.o
 .bss           0x0000000040044d74        0x0 C:\Users\ajarr\AppData\Local\Temp\cc6epILV.o
 .bss           0x0000000040044d74        0x1 C:\Users\ajarr\AppData\Local\Temp\ccIUYBk4.o
 *fill*         0x0000000040044d75        0x3 
 .bss           0x0000000040044d78        0x8 C:\Users\ajarr\AppData\Local\Temp\ccvsnmY2.o
                0x0000000040044d78                test_st_sp
                0x0000000040044d79                filler_byte
                0x0000000040044d7c                repeat_count
 .bss           0x0000000040044d80       0x22 C:\Users\ajarr\AppData\Local\Temp\cczww0RR.o
                0x0000000040044d80                Diff_stop_srl_num
                0x0000000040044d84                Diff_start_srl_num
                0x0000000040044d88                DTTC_count
                0x0000000040044d8c                head
                0x0000000040044d90                ATTC_count
                0x0000000040044d94                ATTC_exe_en
                0x0000000040044d98                ATTC_Master_en
                0x0000000040044d9c                Nodeptrempty_flag
                0x0000000040044da0                ComputedParity
                0x0000000040044da1                RcvdParity
 .bss           0x0000000040044da2        0x0 C:\Users\ajarr\AppData\Local\Temp\ccXWfUhL.o
 .bss           0x0000000040044da2        0x0 C:\Users\ajarr\AppData\Local\Temp\ccm9LEki.o
 .bss           0x0000000040044da2        0x0 C:\Users\ajarr\AppData\Local\Temp\cchY9yN1.o
 *fill*         0x0000000040044da2        0x2 
 .bss           0x0000000040044da4        0x8 C:\Users\ajarr\AppData\Local\Temp\ccsnkR1R.o
                0x0000000040044da4                load_shedding_flag
                0x0000000040044da5                low_battery_voltage
                0x0000000040044da8                inter_HAL_EPS_Hardware_Status_count
 .bss           0x0000000040044dac        0x4 C:\Users\ajarr\AppData\Local\Temp\ccTwgEYO.o
                0x0000000040044dac                imu_count
 .bss           0x0000000040044db0        0x0 C:\Users\ajarr\AppData\Local\Temp\ccEKVXdT.o
 .bss           0x0000000040044db0        0xc C:\Users\ajarr\AppData\Local\Temp\ccecVsE3.o
                0x0000000040044db0                gpstest
                0x0000000040044db4                gps_ready_bit
                0x0000000040044db8                gps_count
 .bss           0x0000000040044dbc        0x0 C:\Users\ajarr\AppData\Local\Temp\ccoo9rYu.o
 .bss           0x0000000040044dbc        0x4 C:\Users\ajarr\AppData\Local\Temp\cckLW0x4.o
                0x0000000040044dbc                MTR_Reset_Flag
 .bss           0x0000000040044dc0        0xe C:\Users\ajarr\AppData\Local\Temp\ccoK9PBU.o
                0x0000000040044dcc                crc_test
 *fill*         0x0000000040044dce        0x2 
 .bss           0x0000000040044dd0       0x18 C:\Users\ajarr\AppData\Local\Temp\ccc7OliV.o
                0x0000000040044dd0                SA2_status
                0x0000000040044dd4                SA1_status
                0x0000000040044dd8                TC_HAL_SA_Deploy
                0x0000000040044ddc                SA_Command_Type
                0x0000000040044de0                SA2_Deploy_cmd_rcvd_time
                0x0000000040044de4                SA1_Deploy_cmd_rcvd_time
 .bss           0x0000000040044de8        0x0 C:\Users\ajarr\AppData\Local\Temp\ccLBYgor.o
 .bss           0x0000000040044de8        0x0 C:\Users\ajarr\AppData\Local\Temp\cc41N2oq.o
 .bss           0x0000000040044de8        0x0 C:\Users\ajarr\AppData\Local\Temp\cczww3Ay.o
 .bss           0x0000000040044de8        0x0 C:\Users\ajarr\AppData\Local\Temp\ccJldDN1.o
 .bss           0x0000000040044de8        0x0 C:\Users\ajarr\AppData\Local\Temp\ccnWSFNQ.o
 .bss           0x0000000040044de8        0x0 C:\Users\ajarr\AppData\Local\Temp\ccegvyo6.o
 .bss           0x0000000040044de8        0x0 C:\Users\ajarr\AppData\Local\Temp\ccyOpeqt.o
 .bss           0x0000000040044de8       0x30 C:\Users\ajarr\AppData\Local\Temp\cceA7QRW.o
                0x0000000040044de8                tmin
                0x0000000040044df0                distsqrd
                0x0000000040044df8                adotb
                0x0000000040044e00                asqrd
                0x0000000040044e08                bsqrd
                0x0000000040044e10                tempse
 .bss           0x0000000040044e18        0x0 C:\Users\ajarr\AppData\Local\Temp\ccExFPZ1.o
 .bss           0x0000000040044e18        0x0 C:\Users\ajarr\AppData\Local\Temp\ccd1pLAc.o
 .bss           0x0000000040044e18        0x0 C:\Users\ajarr\AppData\Local\Temp\ccG5Eq4q.o
 .bss           0x0000000040044e18        0x0 c:/opt/bcc-2.0.2-gcc/bin/../lib/gcc/sparc-gaisler-elf/7.2.0/../../../../sparc-gaisler-elf/lib/leon/mfix-at697f\libm.a(lib_a-s_atan.o)
 .bss           0x0000000040044e18        0x0 c:/opt/bcc-2.0.2-gcc/bin/../lib/gcc/sparc-gaisler-elf/7.2.0/../../../../sparc-gaisler-elf/lib/leon/mfix-at697f\libm.a(lib_a-s_cos.o)
 .bss           0x0000000040044e18        0x0 c:/opt/bcc-2.0.2-gcc/bin/../lib/gcc/sparc-gaisler-elf/7.2.0/../../../../sparc-gaisler-elf/lib/leon/mfix-at697f\libm.a(lib_a-s_fabs.o)
 .bss           0x0000000040044e18        0x0 c:/opt/bcc-2.0.2-gcc/bin/../lib/gcc/sparc-gaisler-elf/7.2.0/../../../../sparc-gaisler-elf/lib/leon/mfix-at697f\libm.a(lib_a-s_floor.o)
 .bss           0x0000000040044e18        0x0 c:/opt/bcc-2.0.2-gcc/bin/../lib/gcc/sparc-gaisler-elf/7.2.0/../../../../sparc-gaisler-elf/lib/leon/mfix-at697f\libm.a(lib_a-s_round.o)
 .bss           0x0000000040044e18        0x0 c:/opt/bcc-2.0.2-gcc/bin/../lib/gcc/sparc-gaisler-elf/7.2.0/../../../../sparc-gaisler-elf/lib/leon/mfix-at697f\libm.a(lib_a-s_sin.o)
 .bss           0x0000000040044e18        0x0 c:/opt/bcc-2.0.2-gcc/bin/../lib/gcc/sparc-gaisler-elf/7.2.0/../../../../sparc-gaisler-elf/lib/leon/mfix-at697f\libm.a(lib_a-s_tan.o)
 .bss           0x0000000040044e18        0x0 c:/opt/bcc-2.0.2-gcc/bin/../lib/gcc/sparc-gaisler-elf/7.2.0/../../../../sparc-gaisler-elf/lib/leon/mfix-at697f\libm.a(lib_a-w_acos.o)
 .bss           0x0000000040044e18        0x0 c:/opt/bcc-2.0.2-gcc/bin/../lib/gcc/sparc-gaisler-elf/7.2.0/../../../../sparc-gaisler-elf/lib/leon/mfix-at697f\libm.a(lib_a-w_asin.o)
 .bss           0x0000000040044e18        0x0 c:/opt/bcc-2.0.2-gcc/bin/../lib/gcc/sparc-gaisler-elf/7.2.0/../../../../sparc-gaisler-elf/lib/leon/mfix-at697f\libm.a(lib_a-w_atan2.o)
 .bss           0x0000000040044e18        0x0 c:/opt/bcc-2.0.2-gcc/bin/../lib/gcc/sparc-gaisler-elf/7.2.0/../../../../sparc-gaisler-elf/lib/leon/mfix-at697f\libm.a(lib_a-w_fmod.o)
 .bss           0x0000000040044e18        0x0 c:/opt/bcc-2.0.2-gcc/bin/../lib/gcc/sparc-gaisler-elf/7.2.0/../../../../sparc-gaisler-elf/lib/leon/mfix-at697f\libm.a(lib_a-w_pow.o)
 .bss           0x0000000040044e18        0x0 c:/opt/bcc-2.0.2-gcc/bin/../lib/gcc/sparc-gaisler-elf/7.2.0/../../../../sparc-gaisler-elf/lib/leon/mfix-at697f\libm.a(lib_a-w_sqrt.o)
 .bss           0x0000000040044e18        0x0 c:/opt/bcc-2.0.2-gcc/bin/../lib/gcc/sparc-gaisler-elf/7.2.0/../../../../sparc-gaisler-elf/lib/leon/mfix-at697f\libm.a(lib_a-e_acos.o)
 .bss           0x0000000040044e18        0x0 c:/opt/bcc-2.0.2-gcc/bin/../lib/gcc/sparc-gaisler-elf/7.2.0/../../../../sparc-gaisler-elf/lib/leon/mfix-at697f\libm.a(lib_a-e_asin.o)
 .bss           0x0000000040044e18        0x0 c:/opt/bcc-2.0.2-gcc/bin/../lib/gcc/sparc-gaisler-elf/7.2.0/../../../../sparc-gaisler-elf/lib/leon/mfix-at697f\libm.a(lib_a-e_atan2.o)
 .bss           0x0000000040044e18        0x0 c:/opt/bcc-2.0.2-gcc/bin/../lib/gcc/sparc-gaisler-elf/7.2.0/../../../../sparc-gaisler-elf/lib/leon/mfix-at697f\libm.a(lib_a-e_fmod.o)
 .bss           0x0000000040044e18        0x0 c:/opt/bcc-2.0.2-gcc/bin/../lib/gcc/sparc-gaisler-elf/7.2.0/../../../../sparc-gaisler-elf/lib/leon/mfix-at697f\libm.a(lib_a-e_pow.o)
 .bss           0x0000000040044e18        0x0 c:/opt/bcc-2.0.2-gcc/bin/../lib/gcc/sparc-gaisler-elf/7.2.0/../../../../sparc-gaisler-elf/lib/leon/mfix-at697f\libm.a(lib_a-e_rem_pio2.o)
 .bss           0x0000000040044e18        0x0 c:/opt/bcc-2.0.2-gcc/bin/../lib/gcc/sparc-gaisler-elf/7.2.0/../../../../sparc-gaisler-elf/lib/leon/mfix-at697f\libm.a(lib_a-e_sqrt.o)
 .bss           0x0000000040044e18        0x0 c:/opt/bcc-2.0.2-gcc/bin/../lib/gcc/sparc-gaisler-elf/7.2.0/../../../../sparc-gaisler-elf/lib/leon/mfix-at697f\libm.a(lib_a-k_cos.o)
 .bss           0x0000000040044e18        0x0 c:/opt/bcc-2.0.2-gcc/bin/../lib/gcc/sparc-gaisler-elf/7.2.0/../../../../sparc-gaisler-elf/lib/leon/mfix-at697f\libm.a(lib_a-k_rem_pio2.o)
 .bss           0x0000000040044e18        0x0 c:/opt/bcc-2.0.2-gcc/bin/../lib/gcc/sparc-gaisler-elf/7.2.0/../../../../sparc-gaisler-elf/lib/leon/mfix-at697f\libm.a(lib_a-k_sin.o)
 .bss           0x0000000040044e18        0x0 c:/opt/bcc-2.0.2-gcc/bin/../lib/gcc/sparc-gaisler-elf/7.2.0/../../../../sparc-gaisler-elf/lib/leon/mfix-at697f\libm.a(lib_a-k_tan.o)
 .bss           0x0000000040044e18        0x0 c:/opt/bcc-2.0.2-gcc/bin/../lib/gcc/sparc-gaisler-elf/7.2.0/../../../../sparc-gaisler-elf/lib/leon/mfix-at697f\libm.a(lib_a-s_finite.o)
 .bss           0x0000000040044e18        0x0 c:/opt/bcc-2.0.2-gcc/bin/../lib/gcc/sparc-gaisler-elf/7.2.0/../../../../sparc-gaisler-elf/lib/leon/mfix-at697f\libm.a(lib_a-s_lib_ver.o)
 .bss           0x0000000040044e18        0x0 c:/opt/bcc-2.0.2-gcc/bin/../lib/gcc/sparc-gaisler-elf/7.2.0/../../../../sparc-gaisler-elf/lib/leon/mfix-at697f\libm.a(lib_a-s_matherr.o)
 .bss           0x0000000040044e18        0x0 c:/opt/bcc-2.0.2-gcc/bin/../lib/gcc/sparc-gaisler-elf/7.2.0/../../../../sparc-gaisler-elf/lib/leon/mfix-at697f\libm.a(lib_a-s_nan.o)
 .bss           0x0000000040044e18        0x0 c:/opt/bcc-2.0.2-gcc/bin/../lib/gcc/sparc-gaisler-elf/7.2.0/../../../../sparc-gaisler-elf/lib/leon/mfix-at697f\libm.a(lib_a-s_rint.o)
 .bss           0x0000000040044e18        0x0 c:/opt/bcc-2.0.2-gcc/bin/../lib/gcc/sparc-gaisler-elf/7.2.0/../../../../sparc-gaisler-elf/lib/leon/mfix-at697f\libm.a(lib_a-s_scalbn.o)
 .bss           0x0000000040044e18        0x0 c:/opt/bcc-2.0.2-gcc/bin/../lib/gcc/sparc-gaisler-elf/7.2.0/../../../../sparc-gaisler-elf/lib/leon/mfix-at697f\libm.a(lib_a-s_copysign.o)
 .bss           0x0000000040044e18        0x0 c:/opt/bcc-2.0.2-gcc/bin/../sparc-gaisler-elf/bsp/leon2/leon/mfix-at697f\libbcc.a(reset_trap_mvt.S.o)
 .bss           0x0000000040044e18        0x0 c:/opt/bcc-2.0.2-gcc/bin/../sparc-gaisler-elf/bsp/leon2/leon/mfix-at697f\libbcc.a(window_trap.S.o)
 .bss           0x0000000040044e18        0x0 c:/opt/bcc-2.0.2-gcc/bin/../sparc-gaisler-elf/bsp/leon2/leon/mfix-at697f\libbcc.a(interrupt_trap.S.o)
 .bss           0x0000000040044e18       0x14 c:/opt/bcc-2.0.2-gcc/bin/../sparc-gaisler-elf/bsp/leon2/leon/mfix-at697f\libbcc.a(flush_windows_trap.S.o)
 .bss           0x0000000040044e2c        0x0 c:/opt/bcc-2.0.2-gcc/bin/../sparc-gaisler-elf/bsp/leon2/leon/mfix-at697f\libbcc.a(sw_trap_set_pil.S.o)
 .bss           0x0000000040044e2c        0x0 c:/opt/bcc-2.0.2-gcc/bin/../sparc-gaisler-elf/bsp/leon2/leon/mfix-at697f\libbcc.a(trap.c.o)
 .bss           0x0000000040044e2c        0x0 c:/opt/bcc-2.0.2-gcc/bin/../sparc-gaisler-elf/bsp/leon2/leon/mfix-at697f\libbcc.a(isr.c.o)
 .bss           0x0000000040044e2c        0x0 c:/opt/bcc-2.0.2-gcc/bin/../sparc-gaisler-elf/bsp/leon2/leon/mfix-at697f\libbcc.a(int_nest.c.o)
 .bss           0x0000000040044e2c        0x0 c:/opt/bcc-2.0.2-gcc/bin/../sparc-gaisler-elf/bsp/leon2/leon/mfix-at697f\libbcc.a(init.S.o)
 .bss           0x0000000040044e2c        0x0 c:/opt/bcc-2.0.2-gcc/bin/../sparc-gaisler-elf/bsp/leon2/leon/mfix-at697f\libbcc.a(leon_info.S.o)
 .bss           0x0000000040044e2c        0x0 c:/opt/bcc-2.0.2-gcc/bin/../sparc-gaisler-elf/bsp/leon2/leon/mfix-at697f\libbcc.a(dwzero.S.o)
 .bss           0x0000000040044e2c        0x0 c:/opt/bcc-2.0.2-gcc/bin/../sparc-gaisler-elf/bsp/leon2/leon/mfix-at697f\libbcc.a(copy_data.c.o)
 .bss           0x0000000040044e2c        0x0 c:/opt/bcc-2.0.2-gcc/bin/../sparc-gaisler-elf/bsp/leon2/leon/mfix-at697f\libbcc.a(lowlevel.S.o)
 .bss           0x0000000040044e2c        0x0 c:/opt/bcc-2.0.2-gcc/bin/../sparc-gaisler-elf/bsp/leon2/leon/mfix-at697f\libbcc.a(lowlevel_leon2.S.o)
 .bss           0x0000000040044e2c        0x0 c:/opt/bcc-2.0.2-gcc/bin/../sparc-gaisler-elf/bsp/leon2/leon/mfix-at697f\libbcc.a(int_leon2.c.o)
 .bss           0x0000000040044e2c        0x0 c:/opt/bcc-2.0.2-gcc/bin/../sparc-gaisler-elf/bsp/leon2/leon/mfix-at697f\libbcc.a(int_leon2_get_source.c.o)
 .bss           0x0000000040044e2c        0x0 c:/opt/bcc-2.0.2-gcc/bin/../sparc-gaisler-elf/bsp/leon2/leon/mfix-at697f\libbcc.a(int_leon2_init.c.o)
 .bss           0x0000000040044e2c        0x0 c:/opt/bcc-2.0.2-gcc/bin/../sparc-gaisler-elf/bsp/leon2/leon/mfix-at697f\libbcc.a(con_leon2.c.o)
 .bss           0x0000000040044e2c        0x0 c:/opt/bcc-2.0.2-gcc/bin/../sparc-gaisler-elf/bsp/leon2/leon/mfix-at697f\libbcc.a(timer_leon2.c.o)
 .bss           0x0000000040044e2c        0x0 c:/opt/bcc-2.0.2-gcc/bin/../sparc-gaisler-elf/bsp/leon2/leon/mfix-at697f\libbcc.a(set_pil.S.o)
 .bss           0x0000000040044e2c        0x0 c:/opt/bcc-2.0.2-gcc/bin/../sparc-gaisler-elf/bsp/leon2/leon/mfix-at697f\libbcc.a(int_leon2_handle.c.o)
 .bss           0x0000000040044e2c        0x0 c:/opt/bcc-2.0.2-gcc/bin/../sparc-gaisler-elf/bsp/leon2/leon/mfix-at697f\libbcc.a(con_handle.c.o)
 .bss           0x0000000040044e2c        0x0 c:/opt/bcc-2.0.2-gcc/bin/../sparc-gaisler-elf/bsp/leon2/leon/mfix-at697f\libbcc.a(timer_handle.c.o)
 .bss           0x0000000040044e2c        0x0 c:/opt/bcc-2.0.2-gcc/bin/../lib/gcc/sparc-gaisler-elf/7.2.0/../../../../sparc-gaisler-elf/lib/leon/mfix-at697f\libc.a(lib_a-atexit.o)
 .bss           0x0000000040044e2c        0x0 c:/opt/bcc-2.0.2-gcc/bin/../lib/gcc/sparc-gaisler-elf/7.2.0/../../../../sparc-gaisler-elf/lib/leon/mfix-at697f\libc.a(lib_a-errno.o)
 .bss           0x0000000040044e2c        0x0 c:/opt/bcc-2.0.2-gcc/bin/../lib/gcc/sparc-gaisler-elf/7.2.0/../../../../sparc-gaisler-elf/lib/leon/mfix-at697f\libc.a(lib_a-exit.o)
 .bss           0x0000000040044e2c        0x0 c:/opt/bcc-2.0.2-gcc/bin/../lib/gcc/sparc-gaisler-elf/7.2.0/../../../../sparc-gaisler-elf/lib/leon/mfix-at697f\libc.a(lib_a-impure.o)
 .bss           0x0000000040044e2c        0x0 c:/opt/bcc-2.0.2-gcc/bin/../lib/gcc/sparc-gaisler-elf/7.2.0/../../../../sparc-gaisler-elf/lib/leon/mfix-at697f\libc.a(lib_a-memcpy.o)
 .bss           0x0000000040044e2c       0x8c c:/opt/bcc-2.0.2-gcc/bin/../lib/gcc/sparc-gaisler-elf/7.2.0/../../../../sparc-gaisler-elf/lib/leon/mfix-at697f\libc.a(lib_a-__atexit.o)
 .bss           0x0000000040044eb8        0x4 c:/opt/bcc-2.0.2-gcc/bin/../lib/gcc/sparc-gaisler-elf/7.2.0/../../../../sparc-gaisler-elf/lib/leon/mfix-at697f\libc.a(lib_a-__call_atexit.o)
                0x0000000040044eb8                _global_atexit
 .bss           0x0000000040044ebc        0x0 c:/opt/bcc-2.0.2-gcc/bin/../sparc-gaisler-elf/bsp/leon2/leon/mfix-at697f\libbcc.a(_exit.S.o)
 .bss           0x0000000040044ebc        0x0 c:/opt/bcc-2.0.2-gcc/bin/../lib/gcc/sparc-gaisler-elf/7.2.0/leon/mfix-at697f/crtend.o
 .bss           0x0000000040044ebc        0x0 c:/opt/bcc-2.0.2-gcc/bin/../lib/gcc/sparc-gaisler-elf/7.2.0/leon/mfix-at697f/crtn.o
 *(COMMON)
 *fill*         0x0000000040044ebc        0x4 
 COMMON         0x0000000040044ec0    0x6e707 C:\Users\ajarr\AppData\Local\Temp\cc6epILV.o
                0x0000000040044ec0                Out_Latch_1
                0x0000000040044ec4                IO_Latch_Register_5_Data
                0x0000000040044ec8                inter_HAL_TM_Write_Word_Count
                0x0000000040044ecc                TC_gain_select_u
                0x0000000040044ee8                ST_TC_history_Buffer
                0x0000000040044fe8                rt_tm_frame_finish
                0x0000000040044fec                minor_cycle_counter_test
                0x0000000040044ff0                eeprom_cur_addr
                0x0000000040044ff4                Normal_st_table_page1
                0x0000000040044ff8                count_tc_hist
                0x0000000040044ffc                MUX_1
                0x0000000040045000                GPS1
                0x0000000040045040                Special_st_table_page3
                0x0000000040045044                Norm_ST_Table
                0x000000004004706c                eeprom_chksum
                0x0000000040047070                Pl_tm_data
                0x0000000040047170                TM
                0x0000000040047a29                SWHW_STATUS
                0x0000000040047a2e                ST_TCH_frame_count
                0x0000000040047a30                TCH_dump_finish
                0x0000000040047a34                Major_Cycle_Count
                0x0000000040047a38                inter_TM_Pl_Buffer
                0x0000000040047a3c                inter_ST_TC_TM_Minor_Cycle_Count
                0x0000000040047a40                ST_normal
                0x0000000040047b88                TC_input_cmd
                0x0000000040047b90                ST_end_read
                0x0000000040047b94                ST_start_read
                0x0000000040047b98                ADC_Buffer
                0x0000000040047c54                TC_ST_Table_Row_No
                0x0000000040047c58                IMU1_DATA
                0x0000000040047c88                ST_Out_Latch_3
                0x0000000040047c90                Special_source
                0x0000000040047d90                IMU2_DATA
                0x0000000040047dc0                Spacecraft_Mode
                0x0000000040047dc4                eeprom_blk_end_addr
                0x0000000040047dc8                ADCS_TC_data_command_Table
                0x0000000040047eac                GPIO_pins
                0x0000000040047eb0                tor_counter
                0x0000000040047eb8                Normal_source
                0x0000000040047fb8                Dest_TC_final_end_addr
                0x0000000040047fbc                MUX_3
                0x0000000040047fbe                ST_NM_Buffer
                0x0000000040048106                input_latch_2
                0x0000000040048108                TCH_full_dump_finish
                0x0000000040048110                TC_hist_data
                0x0000000040057b10                Out_latch_4
                0x0000000040057b14                inter_at697f_checksum
                0x0000000040057b18                inter_TM_Byte_Count
                0x0000000040057b20                TM_Buffer
                0x0000000040057c20                ST_SP_Buffer
                0x0000000040057ec4                TCH_read_ptr
                0x0000000040057ec8                inter_TM_Source_Addr
                0x0000000040057ecc                nml_output_latch_data
                0x0000000040057ecf                TM_Table
                0x000000004005ff57                SS_Redundant_DB
                0x00000000400601db                IMU1_Corr
                0x0000000040060320                gain_set
                0x0000000040060c80                pl_data_command
                0x0000000040060c8c                inter_TM_ST_TC_NS_Write_Source_Addr
                0x0000000040060c90                ST_Out_Latch_2
                0x0000000040060c94                inter_TM_Dest_Addr
                0x0000000040060c98                Out_latch_6
                0x0000000040060c9a                heaters
                0x0000000040060c9c                chksum_arr
                0x0000000040060cbc                IO_Latch_Register_4_Data
                0x0000000040060cc0                storage_page_count
                0x0000000040060cc4                ST_output_latch
                0x0000000040060cc8                SS_Redundant_2Exe_DB
                0x0000000040060f4c                Out_latch_5
                0x0000000040060f50                Storage
                0x000000004009f750                ST_special
                0x000000004009f9f1                GAIN_DATA_SET
                0x000000004009fed1                Out_Latch_2
                0x000000004009fed4                inter_TM_Status_Data
                0x000000004009fed6                MUX_4
                0x000000004009fed8                inter_TM_Main_Buffer_Empty
                0x000000004009fedc                read_str_ptr
                0x000000004009fee0                ram_scrub_addr
                0x000000004009fee4                TC_str_ptr
                0x000000004009fee8                inter_TM_DP_Addr
                0x000000004009feec                TMTC_gain_select_u
                0x000000004009fef4                inter_at697_var
                0x000000004009fef8                TC_history_table
                0x00000000400a0708                ST_TC_header_Buffer
                0x00000000400a0714                Spec_ST_Table_Row_No
                0x00000000400a0718                IMU2_Corr
                0x00000000400a085c                TC_data_command_Table
                0x00000000400a08c4                bbbb
                0x00000000400a08c8                Minor_Cycle_Count
                0x00000000400a08cc                ee_blk_no
                0x00000000400a08ce                ST_frame_count
                0x00000000400a08d0                ST_Dest_Addr
                0x00000000400a08d4                ss_main_db_checksum_obc
                0x00000000400a08d8                ST_Out_latch_5
                0x00000000400a08dc                TCH_read_full_ptr
                0x00000000400a08e0                HILS_packet
                0x00000000400a0920                inter_at697f_count
                0x00000000400a0924                TMTC_boolean_u
                0x00000000400a0930                ST_TC_history_final_Buffer
                0x00000000400b0330                TM_IMU2
                0x00000000400b0348                ss_redundant_db_checksum_obc
                0x00000000400b034c                Norm_ST_Table_Row_No
                0x00000000400b0350                Normal_st_table_page3
                0x00000000400b0354                Special_st_table_page2
                0x00000000400b0358                aaaa
                0x00000000400b035c                eeprom_flag
                0x00000000400b0360                addr_pointer_TM
                0x00000000400b0364                Spec_ST_Table
                0x00000000400b238c                Buffer
                0x00000000400b2c45                Out_Latch_3
                0x00000000400b2c47                SS_Main_DB
                0x00000000400b2ecc                Dest_end_addr
                0x00000000400b2ed0                IMU_1_DB
                0x00000000400b3014                GPS2
                0x00000000400b3054                IO_In_Latch_Register_4_Data
                0x00000000400b3058                IO_Latch_Register_3_Data
                0x00000000400b305c                TM_IMU1
                0x00000000400b3074                FDI_NMI_Count
                0x00000000400b3078                Normal_st_table_page2
                0x00000000400b307c                MUX_2
                0x00000000400b3080                write_str_ptr
                0x00000000400b3084                TC_boolean_u
                0x00000000400b30c8                ST_source_Buffer
                0x00000000400b31c8                TM_page_count
                0x00000000400b31cc                heaters_manual
                0x00000000400b31d0                Remote_data_addr
                0x00000000400b31d4                bbb
                0x00000000400b31d8                Special_st_table_page1
                0x00000000400b31dc                NMI_fail_count
                0x00000000400b31e0                inter_TM_real_Minor_Cycle_Count
                0x00000000400b31e4                inter_ST_TM_Minor_Cycle_Count
                0x00000000400b31e8                inter_TM_Minor_Cycle_Count
                0x00000000400b31ec                input_latch_1
                0x00000000400b31ee                IMU_2_DB
                0x00000000400b3334                TM_Table_Row_No
                0x00000000400b3338                TCH_cpy_ptr
                0x00000000400b333c                IO_Latch_Register_2_Data
                0x00000000400b3340                ccc
                0x00000000400b3342                TCH_start_buffer_ready
                0x00000000400b3343                SS_Main_2Exe_DB
 *fill*         0x00000000400b35c7        0x1 
 COMMON         0x00000000400b35c8    0x169d4 C:\Users\ajarr\AppData\Local\Temp\ccIUYBk4.o
                0x00000000400b35c8                MUX_data2
                0x00000000400b35cc                BlkCurrent_Cmd
                0x00000000400b35d0                TC_count
                0x00000000400b35d2                Nodearray
                0x00000000400b64b4                TC_TLE_data
                0x00000000400b64f8                abc
                0x00000000400b6500                TC_exe
                0x00000000400b6508                block_test_array
                0x00000000400b6698                MUX_data3
                0x00000000400b669c                TC_storing_buffer
                0x00000000400b6a9c                TC_cmd_executed
                0x00000000400b6a9e                test_data_3
                0x00000000400b6aa0                MUX_data1
                0x00000000400b6aa4                TC_hist_read_ptr
                0x00000000400b6aa8                u_DTTC
                0x00000000400b6ab0                u_TC
                0x00000000400b6ab8                Remote_Addr
                0x00000000400b6ac0                Block_array
                0x00000000400c6ac0                DTTCarray
                0x00000000400c8a00                TC_Status_Data
                0x00000000400c8a04                MUX_data4
                0x00000000400c8a08                TC_authentic_pulse_rcvd
                0x00000000400c8a0c                TC_DATA
                0x00000000400c8a14                ram_scrub_cnt
                0x00000000400c8a18                Remote_minotoring_addr
                0x00000000400c8a1c                Top_index
                0x00000000400c8a20                Block_Index
                0x00000000400c8b20                Nodeptr
                0x00000000400c9ac0                TC_buffer_count
                0x00000000400c9f70                Absolutetime
                0x00000000400c9f74                commandptr
                0x00000000400c9f78                TC_flag
                0x00000000400c9f7c                TC_Buffer_Addr
                0x00000000400c9f80                flag_mni
                0x00000000400c9f84                TC_command_pending
                0x00000000400c9f88                TC_hist_write_ptr
                0x00000000400c9f8c                Remote_data
                0x00000000400c9f90                Telecommand_ptr
                0x00000000400c9f94                TC_Rcvd
                0x00000000400c9f98                TC_cmd_executed_count
 COMMON         0x00000000400c9f9c       0x24 C:\Users\ajarr\AppData\Local\Temp\ccvsnmY2.o
                0x00000000400c9f9c                sampling_rate_count
                0x00000000400c9fa0                cp_cnt1
                0x00000000400c9fa4                TC_OBT_Start
                0x00000000400c9fa8                flag_for_test
                0x00000000400c9fac                normal_count1
                0x00000000400c9fb0                copy_frame_count
                0x00000000400c9fb4                cp_cnt
                0x00000000400c9fb8                real_storage
                0x00000000400c9fbc                real_tm_finish
 COMMON         0x00000000400c9fc0      0x8e0 C:\Users\ajarr\AppData\Local\Temp\cczww0RR.o
                0x00000000400c9fc0                inter_HAL_IMU_Data
                0x00000000400c9fc4                sun_quadrant
                0x00000000400c9fc8                B_rawdata
                0x00000000400c9fd4                IMU_On
                0x00000000400c9fd8                TC_ptr_count
                0x00000000400c9fdc                BDOT_Counter
                0x00000000400c9fe0                Roll_pos_D
                0x00000000400c9fe8                az1
                0x00000000400c9ff0                inter_HAL_IMU_Configure_Address
                0x00000000400c9ff4                block_test
                0x00000000400c9ff8                tos
                0x00000000400ca000                gyrodet_B
                0x00000000400ca018                SS_prcd_data_ptr
                0x00000000400ca020                SB_RED
                0x00000000400ca038                inter_sunsensor_i
                0x00000000400ca040                SC6ImaxF
                0x00000000400ca048                GYRO_Counter
                0x00000000400ca050                B_LPF
                0x00000000400ca068                SC5
                0x00000000400ca070                inter_imu_i
                0x00000000400ca078                B_RPY
                0x00000000400ca090                SC5ImaxF
                0x00000000400ca098                test_3
                0x00000000400ca0a0                TC_SS_Main_Cells_Sel
                0x00000000400ca0a4                Sunlit_presence_timer
                0x00000000400ca0a8                S_BODY
                0x00000000400ca0c0                AngDev_SAMtransit_thrsld
                0x00000000400ca0c8                inter_HAL_IMU_Control_Data
                0x00000000400ca0d0                Roll_neg_D
                0x00000000400ca0d8                temp12
                0x00000000400ca0e0                Panel_Deployment
                0x00000000400ca0e8                w_ABC
                0x00000000400ca100                test_attc
                0x00000000400ca108                B_IMU
                0x00000000400ca120                ab_test1
                0x00000000400ca128                sun_sf
                0x00000000400ca140                AngDev_SMtransit_thrsld
                0x00000000400ca148                w_RPY
                0x00000000400ca160                Ang_Deviation
                0x00000000400ca168                inter_HAL_IMU_Status_Data_2
                0x00000000400ca170                B_BODY_IMU2
                0x00000000400ca188                tempat
                0x00000000400ca190                Roll_neg_ND
                0x00000000400ca198                SunNPP_SAMtransit
                0x00000000400ca19c                BLK_opn
                0x00000000400ca1a0                B_BODYn
                0x00000000400ca1b8                SB_MAIN
                0x00000000400ca1d0                SC7
                0x00000000400ca1d8                SC2
                0x00000000400ca1e0                B_BODY
                0x00000000400ca1f8                Thta_BODY_IMU2
                0x00000000400ca210                w_AMSC
                0x00000000400ca228                Yaw_ang_err
                0x00000000400ca230                B_BODY_IMU1
                0x00000000400ca248                Yaw_neg
                0x00000000400ca250                SC1
                0x00000000400ca258                comb1
                0x00000000400ca260                B_BODYtesla
                0x00000000400ca278                gyrodet_w
                0x00000000400ca290                SunNPP_SMtransit
                0x00000000400ca298                Thta_rawdata
                0x00000000400ca2b0                SC8
                0x00000000400ca2b8                w_BODYdeg
                0x00000000400ca2d0                ele2
                0x00000000400ca2d8                B_BiasCor
                0x00000000400ca2f0                SC1ImaxF
                0x00000000400ca2f8                IMU_Sen2Bdy
                0x00000000400ca340                j_MatEq
                0x00000000400ca348                w_LPF
                0x00000000400ca360                SC3ImaxF
                0x00000000400ca368                DTTCtime_reference
                0x00000000400ca370                B_AMSC
                0x00000000400ca388                IMU_Diag_Done
                0x00000000400ca38c                i_MatEq
                0x00000000400ca390                w_BiasCor
                0x00000000400ca3a8                SunNPP_SAMtransit_counter
                0x00000000400ca3b0                Bpresent
                0x00000000400ca3c8                tc_ecv_test
                0x00000000400ca558                temp11
                0x00000000400ca560                block_test2
                0x00000000400ca564                f_Sunlit_Presence
                0x00000000400ca568                inter_HAL_IMU_Locations
                0x00000000400ca56c                block_test1
                0x00000000400ca570                Bprev
                0x00000000400ca588                inter_sunsensor_j
                0x00000000400ca590                SC4ImaxF
                0x00000000400ca598                SunNPP_SAMtransit_count_limit
                0x00000000400ca5a0                Roll_pos_ND
                0x00000000400ca5a8                tempdata2
                0x00000000400ca5ac                tc_cnt_test
                0x00000000400ca5b0                BDOT
                0x00000000400ca5c8                inter_HAL_IMU_Buffer_Addr
                0x00000000400ca5d0                B_ASC
                0x00000000400ca5e8                SC3
                0x00000000400ca5f0                SS_prcd_data
                0x00000000400ca608                ab_test
                0x00000000400ca610                ele1
                0x00000000400ca618                SC6
                0x00000000400ca620                block_test3
                0x00000000400ca628                DelThta_rawdata
                0x00000000400ca640                temp_data_rw
                0x00000000400ca648                w_BODYnorm
                0x00000000400ca650                BLK_number
                0x00000000400ca658                Pitch_pos
                0x00000000400ca660                Thta_BODY_IMU1
                0x00000000400ca678                SS_Data
                0x00000000400ca6f8                SC2ImaxF
                0x00000000400ca700                comb2
                0x00000000400ca708                imu2_db_checksum_obc
                0x00000000400ca70c                IMU_Config_Done
                0x00000000400ca710                imu1_db_checksum_obc
                0x00000000400ca714                IMU_Data_Available
                0x00000000400ca718                w_BODY_IMU1
                0x00000000400ca730                B_ABC
                0x00000000400ca748                SunNPP_SMtransit_counter
                0x00000000400ca74c                inter_HAL_IMU_Status_Data
                0x00000000400ca750                ss2b
                0x00000000400ca798                Bsq
                0x00000000400ca7a0                IMU_prcd_data_ptr
                0x00000000400ca7a4                IMU_1
                0x00000000400ca7b8                Yaw_pos
                0x00000000400ca7c0                inter_imu_j
                0x00000000400ca7c8                w_ASC
                0x00000000400ca7e0                Det_BDOT_MC_Count
                0x00000000400ca7e4                inter_HAL_IMU_Addr_Count
                0x00000000400ca7e8                Roll_ang_err
                0x00000000400ca7f0                S_BODYn
                0x00000000400ca808                IMU_prcd_data
                0x00000000400ca838                i_tc_test
                0x00000000400ca83c                rw_data
                0x00000000400ca840                w_BODY
                0x00000000400ca858                SunNPP_SMtransit_count_limit
                0x00000000400ca85c                tempdata1
                0x00000000400ca860                Pitch_neg
                0x00000000400ca868                IMU_2
                0x00000000400ca878                w_BODY_IMU2
                0x00000000400ca890                atp
                0x00000000400ca898                SC4
 COMMON         0x00000000400ca8a0       0xb0 C:\Users\ajarr\AppData\Local\Temp\cchY9yN1.o
                0x00000000400ca8a0                PL_Exe_Flag
                0x00000000400ca8a4                hils_ptr_sh
                0x00000000400ca8a8                pl_configure_data
                0x00000000400ca8ac                PL_TM_write_Flag
                0x00000000400ca8b0                Hils_ptr
                0x00000000400ca8b4                PL_2_on_off_flag
                0x00000000400ca8b8                pl_cmd_id
                0x00000000400ca8bc                pl_data_rcvd
                0x00000000400ca8c0                PL_TM_Status_flag
                0x00000000400ca8c4                length
                0x00000000400ca8c8                pl_x_tx_data_on_flag
                0x00000000400ca8cc                pl_buffer_len
                0x00000000400ca8d0                PL_TX_TM_2_EN
                0x00000000400ca8d4                TC_command
                0x00000000400ca8d8                inter_PL_TM_Source_Addr
                0x00000000400ca8dc                pl_buffer_addr
                0x00000000400ca8e0                pl_test10
                0x00000000400ca8e4                pl_tx_tm_flag
                0x00000000400ca8e8                PL_1_on_off_flag
                0x00000000400ca8ec                Enable_PL_TM_flag
                0x00000000400ca8f0                pl_mode
                0x00000000400ca8f2                pl_data_rx
                0x00000000400ca904                pl_config_addr_ptr
                0x00000000400ca908                pl_ack_count
                0x00000000400ca90a                temp_data_1
                0x00000000400ca90c                PL_on_off_sts_flag
                0x00000000400ca910                pl_test12
                0x00000000400ca914                pl_HLT_en
                0x00000000400ca918                data
                0x00000000400ca91c                pl_x_tx_data_off_flag
                0x00000000400ca920                pl_hlt_flag
                0x00000000400ca924                pl_acq_flag
                0x00000000400ca928                pl_diag_flag
                0x00000000400ca92c                PL_ACK
                0x00000000400ca930                data_nc
                0x00000000400ca934                pl_sts_chk_flag
                0x00000000400ca938                pl_i
                0x00000000400ca93c                data_x_tx
                0x00000000400ca940                inter_PL_TM_Dest_Addr
                0x00000000400ca944                temp_data_2
                0x00000000400ca948                tm_ds_en_flag
                0x00000000400ca94c                pl_tm_ptr
 COMMON         0x00000000400ca950        0x8 C:\Users\ajarr\AppData\Local\Temp\ccTwgEYO.o
                0x00000000400ca950                imu_data_ready_count_1
                0x00000000400ca954                imu_data_ready_count
 COMMON         0x00000000400ca958       0x8c C:\Users\ajarr\AppData\Local\Temp\ccEKVXdT.o
                0x00000000400ca958                agc_test
                0x00000000400ca95c                ADC_Buffer_Addr
                0x00000000400ca960                ADC_Status_Data
                0x00000000400ca968                ss_data_2
                0x00000000400ca978                thermistor_15
                0x00000000400ca97c                inter_Update_TM_With_ADC_byte_offset
                0x00000000400ca980                SA_thermistor1
                0x00000000400ca984                battery_temp_2
                0x00000000400ca988                SA_thermistor2
                0x00000000400ca98c                thermistor_lsb
                0x00000000400ca9a4                test_agc
                0x00000000400ca9a8                ADC_Locations
                0x00000000400ca9ac                agc_test1
                0x00000000400ca9ae                test_thermistor_1
                0x00000000400ca9b0                inter_HAL_ADC_Data_Ready
                0x00000000400ca9b4                battery_temp_1
                0x00000000400ca9b8                ss_data
                0x00000000400ca9d8                inter_Update_TM_With_ADC_offset
                0x00000000400ca9dc                ADC_Addr_Count
                0x00000000400ca9e0                ADC_Data
 COMMON         0x00000000400ca9e4      0x5cc C:\Users\ajarr\AppData\Local\Temp\ccecVsE3.o
                0x00000000400ca9e4                GPS_Status_Data
                0x00000000400ca9e8                GPS_OBT_Read_2
                0x00000000400ca9ec                gpstestbuff
                0x00000000400caa30                GPS_Config_ptr
                0x00000000400caa34                gps_test_counter
                0x00000000400caa38                GPS_msg_header_MSB
                0x00000000400caa3c                GPS_Config_Status
                0x00000000400caa40                GPS_Config_Msg
                0x00000000400caa4c                gps_pulse_mic_cnt
                0x00000000400caa50                gps_data_length
                0x00000000400caa54                GPS_OBT_Read_1
                0x00000000400caa58                GPS_Buffer_Data
                0x00000000400cac00                test_gps_conf4
                0x00000000400cac04                GPS_Buffer_Addr
                0x00000000400cac08                gps_data_test
                0x00000000400cadb0                GPS_msg_header
                0x00000000400cadb4                test_gps_conf6
                0x00000000400cadb8                test_gps_conf1
                0x00000000400cadbc                GPS_Data_Read_Status
                0x00000000400cadc0                gps_obt_count_prev
                0x00000000400cadc4                GPS_obc_checkum
                0x00000000400cadc8                GPS_pulse_rcvd
                0x00000000400cadcc                GPS2_ptr
                0x00000000400cadd0                GPS1_ptr
                0x00000000400cadd4                GPS_Status2_Msg
                0x00000000400cadd8                GPS_Data
                0x00000000400caddc                GPS_RCVD_DATA
                0x00000000400caf84                gps_obt_counter
                0x00000000400caf88                GPS_TM_Buffer_Addr_USC
                0x00000000400caf8c                test_gps_conf5
                0x00000000400caf90                GPS_msg_header_LSB
                0x00000000400caf94                GPS_Addr_Count
                0x00000000400caf98                GPS_OBT_Latch_enable
                0x00000000400caf9c                test_gps_conf2
                0x00000000400cafa0                f_GPS_Valid_Data
                0x00000000400cafa4                test_gps_conf3
                0x00000000400cafa8                GPS_Locations
                0x00000000400cafac                i_GPS_B_Count
 COMMON         0x00000000400cafb0       0x96 C:\Users\ajarr\AppData\Local\Temp\ccoo9rYu.o
                0x00000000400cafb0                heater_update_buffer
                0x00000000400caff0                IMU_temperature
                0x00000000400caff4                heater_manual_tc
                0x00000000400caff8                ltp12
                0x00000000400caffc                Manual_flag
                0x00000000400cb000                Thermistor_Selection
                0x00000000400cb038                manual_on_off
                0x00000000400cb03c                LTP_data
                0x00000000400cb040                heaters_auto
                0x00000000400cb044                UTP_data
 *fill*         0x00000000400cb046        0x2 
 COMMON         0x00000000400cb048        0xc C:\Users\ajarr\AppData\Local\Temp\cckLW0x4.o
                0x00000000400cb048                Roll_Pol
                0x00000000400cb04c                Pitch_Pol
                0x00000000400cb050                Yaw_Pol
 *fill*         0x00000000400cb054        0x4 
 COMMON         0x00000000400cb058      0x958 C:\Users\ajarr\AppData\Local\Temp\ccoK9PBU.o
                0x00000000400cb058                rw_count_test
                0x00000000400cb060                RW_Data_SlipFrame_TC
                0x00000000400cb078                RW_Data_SlipFrame_Init
                0x00000000400cb08c                RW_TM_ptr
                0x00000000400cb090                NOB_SFC_Init
                0x00000000400cb094                rw_init
                0x00000000400cb0a0                TC_ptr
                0x00000000400cb0a4                rw_tc_count
                0x00000000400cb0a8                rw_test_array
                0x00000000400cb2a8                temp_short
                0x00000000400cb2ac                NOB_CRC_Init
                0x00000000400cb2b0                RW_TMC
                0x00000000400cb2b8                NOB_SFC_TC
                0x00000000400cb2bc                RW_3
                0x00000000400cb2cc                RW_2
                0x00000000400cb2dc                aa
                0x00000000400cb2e0                RW_Data_SlipFrame_TMC
                0x00000000400cb2f4                rw_tmtc_count
                0x00000000400cb2f8                Init_data_ptr
                0x00000000400cb2fc                RW_TM_ptr_init
                0x00000000400cb300                TMC_data_ptr
                0x00000000400cb304                TC_data_ptr
                0x00000000400cb308                NOB_CRC_TC
                0x00000000400cb30c                rw_tc_count_test
                0x00000000400cb310                Init_ptr
                0x00000000400cb314                RW_Wheel_Speed
                0x00000000400cb324                RW_TC
                0x00000000400cb334                RW_Buffer_u_rx
                0x00000000400cb534                RW_Write_ptr
                0x00000000400cb538                RW_TM_Raw_Data_ptr
                0x00000000400cb53c                RW_4
                0x00000000400cb54c                rw_tm_count
                0x00000000400cb550                RW_Write_Data
                0x00000000400cb564                RW_TM
                0x00000000400cb764                inter_HAL_RW_Read_Addr
                0x00000000400cb768                TMC_ptr
                0x00000000400cb76c                dak
                0x00000000400cb770                inter_HAL_RW_Read_Limit
                0x00000000400cb774                RW_Buffer_u
                0x00000000400cb974                RW_Measured
                0x00000000400cb984                NOB_CRC_TMC
                0x00000000400cb988                NOB_SFC_TMC
                0x00000000400cb98c                RWS
                0x00000000400cb99c                USIF_u
                0x00000000400cb9a0                RW_1
 COMMON         0x00000000400cb9b0       0x10 C:\Users\ajarr\AppData\Local\Temp\ccc7OliV.o
                0x00000000400cb9b0                TC_HAL_SA_Heater_Timer
                0x00000000400cb9b4                Antenna_ACK
                0x00000000400cb9b6                sa_data
                0x00000000400cb9b8                sa_test
                0x00000000400cb9bc                inter_HAL_Antenna_Addr
 COMMON         0x00000000400cb9c0        0x4 C:\Users\ajarr\AppData\Local\Temp\ccnWSFNQ.o
                0x00000000400cb9c0                qerror
 *fill*         0x00000000400cb9c4        0x4 
 COMMON         0x00000000400cb9c8     0x7c84 C:\Users\ajarr\AppData\Local\Temp\cceA7QRW.o
                0x00000000400cb9c8                inclo
                0x00000000400cb9d0                rk_Qk
                0x00000000400cbc58                DPM_Polarity
                0x00000000400cbc68                rl
                0x00000000400cbc70                CB_Q_propagation
                0x00000000400cbc78                TC_lat_station
                0x00000000400cbc80                BDOT_Reduction_Count
                0x00000000400cbc88                vz
                0x00000000400cbc90                i_jday
                0x00000000400cbc98                Rho
                0x00000000400cbca0                OrbitModel_Start
                0x00000000400cbca8                delmo
                0x00000000400cbcb0                d_DAD
                0x00000000400cbcb8                q_prop_out
                0x00000000400cbcd8                ActWhMom
                0x00000000400cbcf8                JDTDT
                0x00000000400cbd00                Z_EPO2ECI
                0x00000000400cbd18                DeltaT_Updated
                0x00000000400cbd1c                J_MAGAD
                0x00000000400cbd20                TC_wh_speed_thres
                0x00000000400cbd28                trueanomoly_GPS
                0x00000000400cbd30                latitude_temp
                0x00000000400cbd38                wcreci
                0x00000000400cbd50                xlm
                0x00000000400cbd58                Qk_temp4
                0x00000000400cbd60                tut
                0x00000000400cbd68                del
                0x00000000400cbd70                epochdays_sel
                0x00000000400cbd78                Orbit_Period_Comp
                0x00000000400cbd80                t3
                0x00000000400cbd88                HB
                0x00000000400cbda0                Tdes
                0x00000000400cbdb8                wkm
                0x00000000400cbdc0                func_prev_DAD
                0x00000000400cbdc8                pk_plus
                0x00000000400cc050                PosR_Deployed
                0x00000000400cc058                one_by_2
                0x00000000400cc060                nodedf
                0x00000000400cc068                BNorth
                0x00000000400cc070                NRB_sunmag
                0x00000000400cc130                Del_Q
                0x00000000400cc150                longitude_tan_den
                0x00000000400cc158                pow_psisq
                0x00000000400cc160                wcrecef
                0x00000000400cc178                argpdf
                0x00000000400cc180                rvdot
                0x00000000400cc188                q_by_two
                0x00000000400cc1e8                SS_M8
                0x00000000400cc1f0                TC_StationTracking
                0x00000000400cc1f8                mag_noise
                0x00000000400cc200                Y_SVO2ECI
                0x00000000400cc218                cc2
                0x00000000400cc220                TC_delAT
                0x00000000400cc228                mat_sm_DataCounter
                0x00000000400cc230                delomg
                0x00000000400cc238                root_DAD
                0x00000000400cc240                func_DAD
                0x00000000400cc248                cosi
                0x00000000400cc250                xhdot1
                0x00000000400cc258                ibexp_TLE_tc
                0x00000000400cc260                omgcof
                0x00000000400cc268                phi_11_temp4
                0x00000000400cc2b0                w_REF
                0x00000000400cc2c8                tempe
                0x00000000400cc2d0                mu_m
                0x00000000400cc2e8                el2
                0x00000000400cc2f0                Q_angle
                0x00000000400cc2f8                a_DAD
                0x00000000400cc300                Orbit_Period
                0x00000000400cc308                hk_xk_minus
                0x00000000400cc320                nutation
                0x00000000400cc368                bstar_sel
                0x00000000400cc370                Y_SFDO2ECI
                0x00000000400cc388                TC_max_whspeed
                0x00000000400cc390                Zt_DAD
                0x00000000400cc3a8                sine_of_Wk1_Delta
                0x00000000400cc3b0                delmo_temp
                0x00000000400cc3b8                temp_or_init
                0x00000000400cc3c0                vsatx_eci
                0x00000000400cc3c8                TTDT
                0x00000000400cc3d0                mm
                0x00000000400cc3d8                ecc_temp1
                0x00000000400cc3e0                bstar_tc
                0x00000000400cc3e8                intermediate
                0x00000000400cc3f0                gN_MAGAD
                0x00000000400cc3f4                Delta_TLE
                0x00000000400cc3f8                rtom
                0x00000000400cc400                sinu
                0x00000000400cc408                CB_OrbitModel
                0x00000000400cc40c                j
                0x00000000400cc410                Ry
                0x00000000400cc458                ch_obs_whsp
                0x00000000400cc478                k_kf
                0x00000000400cc480                u_perp
                0x00000000400cc498                Ton
                0x00000000400cc4a8                determinant
                0x00000000400cc4b0                Pitch_MTREnable
                0x00000000400cc4b4                SunAcq3ThreeAx_trsit_cnt
                0x00000000400cc4b8                TTDB2
                0x00000000400cc4c0                eccsq
                0x00000000400cc4c8                eccanomaly
                0x00000000400cc4d0                spin_up_avg_count
                0x00000000400cc4d4                TC_GPS2TLE_Switch
                0x00000000400cc4d8                ecc_GPS
                0x00000000400cc4e0                radialdistance
                0x00000000400cc4e8                BNorth_old
                0x00000000400cc4f0                uy
                0x00000000400cc4f8                DFCcountHigh
                0x00000000400cc4fc                hr_TLE_tc
                0x00000000400cc500                eSpaceCraftMode
                0x00000000400cc508                q_magad
                0x00000000400cc858                aynl
                0x00000000400cc860                perigee
                0x00000000400cc868                K_DAD
                0x00000000400cc870                Day_Of_Year_DeltaT
                0x00000000400cc878                Del_R_theta
                0x00000000400cc880                Z_SVO2ECI
                0x00000000400cc898                UT1
                0x00000000400cc8a0                nut_temp
                0x00000000400cc8e8                ActuationCycle
                0x00000000400cc8f0                T_RWBn
                0x00000000400cc908                Roll_MTR_Pol_Reversal
                0x00000000400cc910                trueanomoly
                0x00000000400cc918                temp2
                0x00000000400cc920                TC_TLE_Elements_select
                0x00000000400cc924                TLE_Select
                0x00000000400cc928                cos_and_sin
                0x00000000400cc9a8                SunAcq2DetMode_counter
                0x00000000400cc9b0                TC_min_whspeed
                0x00000000400cc9b8                f
                0x00000000400cc9e0                TC_MDk
                0x00000000400cc9e8                Vel_ECIn
                0x00000000400cca00                UTC_mon_GPS
                0x00000000400cca08                B2wh_mat
                0x00000000400cca68                Delta_by2
                0x00000000400cca70                Q_EPO2ECI
                0x00000000400cca90                old_cos
                0x00000000400cca98                Not_Deployed
                0x00000000400ccaa0                eccanomaly_GPS
                0x00000000400ccaa8                angmomentumvec
                0x00000000400ccac0                out_Quat_norm
                0x00000000400ccae0                cc5
                0x00000000400ccae8                gast
                0x00000000400ccaf0                temp_magad
                0x00000000400ccaf8                nut_sid_temp
                0x00000000400ccb40                sec_sel
                0x00000000400ccb48                K_MAGAD
                0x00000000400ccb50                B_REF
                0x00000000400ccb68                omecc
                0x00000000400ccb70                del_v0a
                0x00000000400ccb78                argofperigee
                0x00000000400ccb80                phi_k_T
                0x00000000400cce08                argpo_tc
                0x00000000400cce10                eSafeMode
                0x00000000400cce18                Alti_GPS
                0x00000000400cce20                TC_wAD_BODYmaxThYaw
                0x00000000400cce28                T_RWB
                0x00000000400cce40                s_magad
                0x00000000400cce48                Toff
                0x00000000400cce58                rdotrst
                0x00000000400cce60                B_NED
                0x00000000400cce78                alpha_2RW
                0x00000000400cce80                temp1_or_init
                0x00000000400cce88                prev_obs_whsp_ch
                0x00000000400ccea8                Wk1_one
                0x00000000400ccef0                d1
                0x00000000400ccef8                coskp
                0x00000000400ccf00                TDB
                0x00000000400ccf08                SunAcquisition2ThreeAxis_autotransit
                0x00000000400ccf10                Zt_Ssqr_Z_DAD
                0x00000000400ccf18                f_DataSort_SUNMAG
                0x00000000400ccf20                sine1
                0x00000000400ccf28                wheel_spin_logic
                0x00000000400ccf30                con42
                0x00000000400ccf38                Epochyear_GPS
                0x00000000400ccf3c                CB_DutyCycleGeneration
                0x00000000400ccf40                inclination_GPS
                0x00000000400ccf48                Matout341
                0x00000000400ccf60                wh2B_mat
                0x00000000400ccfc0                xmy
                0x00000000400ccfc8                uuu
                0x00000000400ccfd0                TAI
                0x00000000400ccfd8                NMB_sunmag
                0x00000000400cd098                nodeo_GPS
                0x00000000400cd0a0                TC_GPSvalidity_Threshold
                0x00000000400cd0a4                CB_Torquer_Polarity_Check
                0x00000000400cd0a8                x7thm1
                0x00000000400cd0b0                ak
                0x00000000400cd0b8                ecc_TLE_tc
                0x00000000400cd0c0                Tv_wof
                0x00000000400cd108                CB_AngularMomentumDumping
                0x00000000400cd110                LossWhMomFilt
                0x00000000400cd130                v0_rad_sec
                0x00000000400cd150                TC_RW_ARC_Count_thres
                0x00000000400cd158                del_temp
                0x00000000400cd160                f_Sunlit_Presence_OBC
                0x00000000400cd168                g
                0x00000000400cd8e8                TC_eesqrd
                0x00000000400cd8f0                eeta
                0x00000000400cd8f8                xnode
                0x00000000400cd900                B_Rho
                0x00000000400cd908                rdotl
                0x00000000400cd910                QRD_vect_norm
                0x00000000400cd918                Z_DAD
                0x00000000400cd930                semimajoraxis
                0x00000000400cd938                gmm
                0x00000000400cd940                S_REFn
                0x00000000400cd958                mat_adj
                0x00000000400cd9a0                TorquerPolaritySetFlag
                0x00000000400cd9a4                CB_RefRate_Computation
                0x00000000400cd9a8                GPS_Elements_Available
                0x00000000400cd9b0                NRBt_mag
                0x00000000400cdbf0                Kk_Hk
                0x00000000400cde78                X_EPO2ECI
                0x00000000400cde90                cosim
                0x00000000400cde98                CB_SpeedBasedMomentumDumping
                0x00000000400cdea0                mo_tc
                0x00000000400cdea8                i_comr
                0x00000000400cdeac                hr_sel
                0x00000000400cdeb0                inclm
                0x00000000400cdeb8                TC_BDOT_Compute_Count
                0x00000000400cdec0                mod_of_Wk1
                0x00000000400cdec8                qzms24_temp
                0x00000000400cded0                DFriction_Compensation
                0x00000000400cded8                S_DAD
                0x00000000400cdf20                mm_temp
                0x00000000400cdf28                temp_temp
                0x00000000400cdf30                pk_HkT_Hk_Rk
                0x00000000400cdf78                u_temp
                0x00000000400cdf80                TC_BDOT_Det_Thresh
                0x00000000400cdf88                NMB_NRBt
                0x00000000400cdfd0                A3_magad
                0x00000000400cdfd8                ecc_temp2
                0x00000000400cdfe0                year_GPS
                0x00000000400cdfe8                Y_SPO2ECI
                0x00000000400ce000                sigma_m
                0x00000000400ce008                CB_ReferenceQuatComputation
                0x00000000400ce010                sinkp
                0x00000000400ce018                adj_S_DAD
                0x00000000400ce060                p_magad
                0x00000000400ce3b0                GYRO_max_threshold_count
                0x00000000400ce3b4                day_TLE_tc
                0x00000000400ce3b8                TC_SpeedDumpTime
                0x00000000400ce3c0                H_retn
                0x00000000400ce3c8                Epochyear_TLE_tc
                0x00000000400ce3d0                MY
                0x00000000400ce3d8                bstar
                0x00000000400ce3e0                argpo_GPS
                0x00000000400ce3e8                Q_SFDO2ECI
                0x00000000400ce408                X_DAD
                0x00000000400ce420                TC_wAD_updateTimeThresh
                0x00000000400ce428                ecc_temp4
                0x00000000400ce430                Vel_ECEF_GPS
                0x00000000400ce448                nodecf
                0x00000000400ce450                Tdeficit
                0x00000000400ce468                vecnorm_mag
                0x00000000400ce470                Vel_ECI_GPS
                0x00000000400ce488                Q_REF_pres
                0x00000000400ce4a8                phi_12_temp3
                0x00000000400ce4f0                epochdays
                0x00000000400ce4f8                adel
                0x00000000400ce500                xmcof
                0x00000000400ce508                k
                0x00000000400ce510                TC_momentum_dumping_gain
                0x00000000400ce518                cosio2
                0x00000000400ce520                Yk_minus_hk_Kk
                0x00000000400ce568                mvt
                0x00000000400ce570                Rz
                0x00000000400ce5b8                St_DAD
                0x00000000400ce600                x1mth2
                0x00000000400ce608                t2
                0x00000000400ce610                speed_based_torquer_control
                0x00000000400ce618                B_REFn
                0x00000000400ce630                Tsince
                0x00000000400ce638                r_delta
                0x00000000400ce640                var1
                0x00000000400ce648                epochyr_sel
                0x00000000400ce64c                entrytime2eclipse
                0x00000000400ce650                em
                0x00000000400ce658                Qk_temp2
                0x00000000400ce660                Xk_plus_temp
                0x00000000400ce678                Q_SPO2ECI
                0x00000000400ce698                W_cross
                0x00000000400ce6e0                Vel_ECI
                0x00000000400ce6f8                pk_HkT_Hk
                0x00000000400ce740                Tcv_temp
                0x00000000400ce758                NRS
                0x00000000400ce818                Tdeficit_temp1
                0x00000000400ce830                theta2
                0x00000000400ce838                gmst_
                0x00000000400ce840                psi_sl_ecl
                0x00000000400ce848                Pitch_MTR_Pol_Reversal
                0x00000000400ce850                rsun
                0x00000000400ce868                Yk
                0x00000000400ce880                CB_Wheel_Spin_updown
                0x00000000400ce888                vx
                0x00000000400ce890                inttemp
                0x00000000400ce894                TLE_Data_Available
                0x00000000400ce898                Q_REF_prev
                0x00000000400ce8b8                BEast
                0x00000000400ce8c0                SunAcq_Ang_Thres
                0x00000000400ce8c8                DutyCycleGenEnable
                0x00000000400ce8d0                Tmm_actual
                0x00000000400ce8e8                CB_MagFieldComp
                0x00000000400ce8ec                eDetumblingMode
                0x00000000400ce8f0                tempa
                0x00000000400ce8f8                xsaty_eci
                0x00000000400ce900                pinvsq
                0x00000000400ce908                mod_of_Wk1_square
                0x00000000400ce910                ecc_temp3
                0x00000000400ce918                count_arc_w3
                0x00000000400ce91c                DFCcountLow
                0x00000000400ce920                CB_ExtendedKalmanFilter
                0x00000000400ce928                no_TLE_tc
                0x00000000400ce930                TC_elapsed_orbitTimer
                0x00000000400ce938                semi_den
                0x00000000400ce940                STATION_vector
                0x00000000400ce958                wks
                0x00000000400ce960                TC_enQuest_update
                0x00000000400ce964                days_sel
                0x00000000400ce968                TC_SunEarthVaryingFrame
                0x00000000400ce970                big_omega
                0x00000000400ce9f0                tempdays
                0x00000000400ce9f4                Present_OBT
                0x00000000400ce9f8                Tsince_TLE_tc
                0x00000000400cea00                X_SPO2ECI_mag
                0x00000000400cea08                temparg
                0x00000000400cea10                ibexp_sel
                0x00000000400cea18                VelZ_ECEF_GPS
                0x00000000400cea20                TC_detumbling_bdot_gain
                0x00000000400cea38                LPFK1HighSL
                0x00000000400cea40                xinc
                0x00000000400cea48                Twof_veh
                0x00000000400cea90                mdot
                0x00000000400cea98                DB_GyroLPF
                0x00000000400ceaa0                LossWhMom
                0x00000000400ceac0                b_DAD
                0x00000000400ceac8                NMS
                0x00000000400ceb88                TC_GPS_pulse_duration
                0x00000000400ceb90                phi_k
                0x00000000400cee18                xin_temp
                0x00000000400cee20                UTC_hr_GPS
                0x00000000400cee28                one_by_3
                0x00000000400cee30                axnl
                0x00000000400cee38                X_SVO2ECI_mag
                0x00000000400cee40                LPFK1SL
                0x00000000400cee60                bstar_TLE_tc
                0x00000000400cee68                coef1
                0x00000000400cee70                B_DAD
                0x00000000400ceeb8                ang
                0x00000000400ceec0                rsat
                0x00000000400ceed8                R_SFAO2ECI
                0x00000000400cef20                magPitch_angle
                0x00000000400cef28                beta_S_DAD
                0x00000000400cef70                inclination_sel
                0x00000000400cef78                SS_M4
                0x00000000400cef80                exp_whsp_ch
                0x00000000400cefa0                Q_SVO2ECI
                0x00000000400cefc0                DelThta_cat_z
                0x00000000400cefc8                Y_SFAO2ECI
                0x00000000400cefe0                mo_TLE_tc
                0x00000000400cefe8                TC_SunFixedAscendingFrame
                0x00000000400ceff0                delta_HB
                0x00000000400cf008                cos_of_Wk1_Delta
                0x00000000400cf010                PosZ_ECEF_GPS
                0x00000000400cf018                Tsince_TLE
                0x00000000400cf020                pk_HkT
                0x00000000400cf0f8                sumX_DAD
                0x00000000400cf140                phi_11_temp1
                0x00000000400cf188                TC_wAD_BODYminThYaw
                0x00000000400cf190                j_lict
                0x00000000400cf198                pps_deltaT
                0x00000000400cf1a0                Kk_matrix
                0x00000000400cf428                TC_wAD_BODYminThRoll
                0x00000000400cf430                theta
                0x00000000400cf438                f_Momentum_Dumping
                0x00000000400cf440                SUN_ECI_mag
                0x00000000400cf448                Tcv
                0x00000000400cf460                t4
                0x00000000400cf468                cnod
                0x00000000400cf470                mon_sel
                0x00000000400cf478                sidereal
                0x00000000400cf4c0                tau_ms
                0x00000000400cf4c8                j_kf
                0x00000000400cf4d0                sine
                0x00000000400cf4d8                Z_SVO2ECI_mag
                0x00000000400cf4e0                Qprop_prev
                0x00000000400cf500                uz
                0x00000000400cf508                TC_KR
                0x00000000400cf520                ExWhMom
                0x00000000400cf540                T_MT_2RW
                0x00000000400cf558                one_magad
                0x00000000400cf560                S_ECI
                0x00000000400cf578                minorcyclecount
                0x00000000400cf580                Q_quest_DAD_den
                0x00000000400cf588                two_magad
                0x00000000400cf590                Hk_temp
                0x00000000400cf668                xincp
                0x00000000400cf670                Rx
                0x00000000400cf6b8                z
                0x00000000400cf6c0                MTR_ActuationCycle
                0x00000000400cf6c8                BDOTnorm
                0x00000000400cf6d0                B_ECI
                0x00000000400cf6e8                SAT_ANGLE_STAT
                0x00000000400cf6f0                sigma_DAD
                0x00000000400cf6f8                f_DataSort_MAG
                0x00000000400cf700                aycof
                0x00000000400cf708                argpo_TLE_tc
                0x00000000400cf710                count_arc_w1
                0x00000000400cf714                j_gh
                0x00000000400cf718                orbit_time
                0x00000000400cf720                temp1
                0x00000000400cf728                coef
                0x00000000400cf730                eSunAcquisitionMode
                0x00000000400cf738                sigma_u
                0x00000000400cf740                etasq
                0x00000000400cf748                T_SD_RW
                0x00000000400cf768                cos2u
                0x00000000400cf770                st_magad
                0x00000000400cf778                Tc
                0x00000000400cf790                UTC
                0x00000000400cf798                out_Quat_mult
                0x00000000400cf7b8                CB_Wheel_Auto_Reconfiguration
                0x00000000400cf7c0                Del_P_theta
                0x00000000400cf7c8                diff_obs_exp_ch
                0x00000000400cf7e8                GPSDataReady
                0x00000000400cf7f0                mo_sel
                0x00000000400cf7f8                NRBt_sunmag
                0x00000000400cf8b8                trace_S_DAD
                0x00000000400cf8c0                ct_magad
                0x00000000400cf8c8                BDOT_Threshold_Count
                0x00000000400cf8cc                i
                0x00000000400cf8d0                mu_m_temp
                0x00000000400cf8e8                TC_yp
                0x00000000400cf8f0                CB_Two_RW_control
                0x00000000400cf8f4                j_rfc
                0x00000000400cf8f8                LPFK2SL
                0x00000000400cf918                ktr
                0x00000000400cf91c                I_MFC
                0x00000000400cf920                DelThta_cat_y
                0x00000000400cf928                magYaw_angle
                0x00000000400cf930                epochdays_TLE_tc
                0x00000000400cf938                v0c
                0x00000000400cf958                CB_DAD_quest
                0x00000000400cf960                T_RW_sdump
                0x00000000400cf980                no_sel
                0x00000000400cf988                po
                0x00000000400cf990                NMB_mag
                0x00000000400cfbd0                Vel_ECEFn
                0x00000000400cfbe8                xmdf
                0x00000000400cfbf0                cc3
                0x00000000400cfbf8                Rk
                0x00000000400cfc40                TC_Hmax
                0x00000000400cfc48                Trwa
                0x00000000400cfc68                qzms24
                0x00000000400cfc70                TC_SunFixedDescendingFrame
                0x00000000400cfc78                T_RW
                0x00000000400cfc98                longitude_GPS
                0x00000000400cfca0                sini
                0x00000000400cfca8                xsatz_eci
                0x00000000400cfcb0                DFCGainLow
                0x00000000400cfcb8                i_pini
                0x00000000400cfcc0                Hk
                0x00000000400cfd98                Delta
                0x00000000400cfda0                Z_SFDO2ECI_mag
                0x00000000400cfda8                u_parl
                0x00000000400cfdc0                I_DAD
                0x00000000400cfdc4                year_TLE_tc
                0x00000000400cfdc8                ecose
                0x00000000400cfdd0                Pos_ECEF
                0x00000000400cfde8                NRB_mag
                0x00000000400d0028                ecc_temp6
                0x00000000400d0030                j_pini
                0x00000000400d0038                Q_REF_diff
                0x00000000400d0058                ECEFtoECI
                0x00000000400d00a0                t5cof
                0x00000000400d00a8                ep
                0x00000000400d00b0                check_dump_wh
                0x00000000400d00c0                epochyr
                0x00000000400d00c4                Yaw_MTR_Pol_Reversal
                0x00000000400d00c8                nodem
                0x00000000400d00d0                STATION_ECIn
                0x00000000400d00e8                TC_xp
                0x00000000400d00f0                argpp
                0x00000000400d00f8                TC_ARC_Time_Cycle
                0x00000000400d00fc                count_arc_w0
                0x00000000400d0100                TC_ARC_RPM_Thres
                0x00000000400d0108                ECItoECEF
                0x00000000400d0150                sinip
                0x00000000400d0158                Bt_DAD
                0x00000000400d01a0                inclo_tc
                0x00000000400d01a8                rot_ang
                0x00000000400d01b0                alpha_2RW_temp
                0x00000000400d01c8                coslongacnode
                0x00000000400d01d0                eThreeAxisControlMode
                0x00000000400d01d4                f_threeaxis2safe
                0x00000000400d01d8                DeltaT_MFC
                0x00000000400d01e0                TC_detumbling_rate_gain
                0x00000000400d01f8                esine
                0x00000000400d0200                T_RW_spin
                0x00000000400d0220                Wk1
                0x00000000400d0268                wc_qst
                0x00000000400d0270                Cross_Product
                0x00000000400d0288                sd_magad
                0x00000000400d0290                i_QDP
                0x00000000400d0298                Z_SPO2ECI
                0x00000000400d02b0                d2
                0x00000000400d02b8                TC_Det_GYRO_Compute_Count
                0x00000000400d02c0                pl
                0x00000000400d02c8                Norm_out
                0x00000000400d02e0                NRSt
                0x00000000400d03a0                wheel_index
                0x00000000400d03b0                L_Msun
                0x00000000400d03b8                vpef
                0x00000000400d03d0                inclination
                0x00000000400d03d8                FirstSpeed
                0x00000000400d03e8                cosio
                0x00000000400d03f0                i_kf
                0x00000000400d03f8                sinlongacnode
                0x00000000400d0400                minute_sel
                0x00000000400d0408                SS_M5
                0x00000000400d0410                mrt
                0x00000000400d0418                SunAcq2ThreeAx_trsit_cnt_thres
                0x00000000400d0420                MR
                0x00000000400d0428                Qk
                0x00000000400d06b0                VelY_ECEF_GPS
                0x00000000400d06b8                Matout33
                0x00000000400d0700                mon_TLE_tc
                0x00000000400d0708                TC_GYRO_Det_Min_Thresh
                0x00000000400d0710                betal
                0x00000000400d0718                Qquest_update
                0x00000000400d0738                i_god
                0x00000000400d0740                mo
                0x00000000400d0748                TC_magMax_angle
                0x00000000400d0750                tt
                0x00000000400d0770                hk
                0x00000000400d0788                dpsi
                0x00000000400d0790                con41
                0x00000000400d0798                CB_Sun_model
                0x00000000400d07a0                R_SVO2ECI
                0x00000000400d07e8                qk_plus_temp
                0x00000000400d0808                delta_hmag
                0x00000000400d0810                Q_REF_conj
                0x00000000400d0830                RW_ARC_Logic
                0x00000000400d0838                MP
                0x00000000400d0840                Matout31
                0x00000000400d0858                DelThta_cat_x
                0x00000000400d0860                inclination_temp
                0x00000000400d0868                Xk_plus
                0x00000000400d08b0                eol
                0x00000000400d08b8                spin_up_avg_count_2
                0x00000000400d08c0                tsi
                0x00000000400d08c8                phi_11
                0x00000000400d0910                tempta
                0x00000000400d0918                Cond1
                0x00000000400d0920                phi_12_temp1
                0x00000000400d0968                Yaw_MTREnable
                0x00000000400d096c                J_DAD
                0x00000000400d0970                CB_RefVectorGeneration
                0x00000000400d0978                magrsun
                0x00000000400d0980                ao_temp
                0x00000000400d0988                TachoHyst
                0x00000000400d0998                TC_wp_QDP
                0x00000000400d09a0                pk_plus_one
                0x00000000400d0c28                CB_Wheel_Dynamic_Friction
                0x00000000400d0c30                B_ECEF
                0x00000000400d0c48                Sun_Dis
                0x00000000400d0c50                A_R
                0x00000000400d0c58                vy
                0x00000000400d0c60                no
                0x00000000400d0c68                beta_DAD
                0x00000000400d0c70                mo_GPS
                0x00000000400d0c78                alpha_DAD
                0x00000000400d0c80                DCM2Q_out
                0x00000000400d0ca0                Q_SFAO2ECI
                0x00000000400d0cc0                rk_Qk_rk_T
                0x00000000400d0f48                ao
                0x00000000400d0f50                Numofdays
                0x00000000400d0f54                TC_SunMagAD
                0x00000000400d0f58                S_ECIn
                0x00000000400d0f70                longitude
                0x00000000400d0f78                Quest_update_available
                0x00000000400d0f80                N_ecc
                0x00000000400d0f88                M_MAGAD
                0x00000000400d0f8c                minute_TLE_tc
                0x00000000400d0f90                cossu
                0x00000000400d0f98                sin_of_W_norm_Delta_by2_W_norm_and_big_omega
                0x00000000400d1018                cc4
                0x00000000400d1020                phi_k_pk_plus
                0x00000000400d12a8                trueanomoly_sel
                0x00000000400d12b0                MOI_wh
                0x00000000400d12b8                STATION_ECEF
                0x00000000400d12d0                fN_MAGAD
                0x00000000400d12d8                DFCGainSL
                0x00000000400d12f8                sinmao
                0x00000000400d1300                snod
                0x00000000400d1308                cos_of_W_norm_Delta_by2_with_I
                0x00000000400d1388                cl_magad
                0x00000000400d13f8                i_gh
                0x00000000400d1400                Tdet
                0x00000000400d1418                nm
                0x00000000400d1420                TTDB3
                0x00000000400d1428                del_Vw
                0x00000000400d1448                d4
                0x00000000400d1450                alpha_I_DAD
                0x00000000400d1498                sc_qst
                0x00000000400d14a0                t2cof
                0x00000000400d14a8                rpef
                0x00000000400d14c0                CB_LinearController
                0x00000000400d14c8                TC_Bdot_Gain
                0x00000000400d14e0                TC_wAD_BODYmaxThPitch
                0x00000000400d14e8                LPFK2HighSL
                0x00000000400d14f0                suu
                0x00000000400d14f8                Pos_ECI_GPS
                0x00000000400d1510                Alti_Mod
                0x00000000400d1518                Msun
                0x00000000400d1520                alpha_2RW_tempnorm
                0x00000000400d1528                X_SFAO2ECI
                0x00000000400d1540                Q_REF
                0x00000000400d1560                rp
                0x00000000400d1568                nodeo_tc
                0x00000000400d1570                Y_EPO2ECI
                0x00000000400d1588                radialdistance_ecef
                0x00000000400d1590                CB_QuestDataProcessing
                0x00000000400d1594                year_sel
                0x00000000400d1598                sinio
                0x00000000400d15a0                TC_EarthPointingFrame
                0x00000000400d15a8                Epsilon
                0x00000000400d15b0                j_god
                0x00000000400d15b8                Qk_temp1
                0x00000000400d15c0                TTDB
                0x00000000400d15c8                TC_SpeedAngularMomemtumDumping
                0x00000000400d15d0                pre_temp
                0x00000000400d1618                VelX_ECEF_GPS
                0x00000000400d1620                Z_SFDO2ECI
                0x00000000400d1638                X_SFDO2ECI_mag
                0x00000000400d1640                LPFK1LowSL
                0x00000000400d1648                DFCCountLimSL
                0x00000000400d1658                am_temp
                0x00000000400d1660                k_DAD
                0x00000000400d1668                Qk_temp3
                0x00000000400d1670                sec_TLE_tc
                0x00000000400d1678                SS_M1
                0x00000000400d1680                invangmomentumvecmag
                0x00000000400d1688                rvdotl
                0x00000000400d1690                Pos_ECEFn
                0x00000000400d16a8                X_EPO2ECI_mag
                0x00000000400d16b0                emsq
                0x00000000400d16b8                c_DAD
                0x00000000400d16c0                NEDtoECEF
                0x00000000400d1708                sine2
                0x00000000400d1710                TB_sMD
                0x00000000400d1728                DB_MagLPF
                0x00000000400d1730                GPSDataReady_NA_count
                0x00000000400d1738                ecc
                0x00000000400d1740                ref_cross
                0x00000000400d1788                cosip
                0x00000000400d1790                CB_ErrorComputation
                0x00000000400d1798                ecc_r
                0x00000000400d17a0                TC_long_station
                0x00000000400d17a8                H_wh
                0x00000000400d17c8                wh_sdump_start
                0x00000000400d17d8                temp_prop
                0x00000000400d17e0                Z_SFAO2ECI_mag
                0x00000000400d17e8                Tsince_GPS
                0x00000000400d17f0                pres_exp_whsp_ch
                0x00000000400d1810                m_gh
                0x00000000400d1818                B_ECItesla
                0x00000000400d1830                Result_of_sine_Delta_cube
                0x00000000400d1838                Pse_Inv_Dist_Mat
                0x00000000400d1898                LPFK2LowSL
                0x00000000400d18a0                ux
                0x00000000400d18a8                TC_KP
                0x00000000400d18c0                templ
                0x00000000400d18c8                cos_of_W_norm_and_Delta_by2
                0x00000000400d18d0                Q_StP2ECI
                0x00000000400d18f0                phi_11_temp3
                0x00000000400d1938                phi_11_temp2
                0x00000000400d1980                wo
                0x00000000400d1988                gamma_DAD
                0x00000000400d1990                epochdays_GPS
                0x00000000400d1998                UTC_min_GPS
                0x00000000400d199c                CB_Detumbling_Mode
                0x00000000400d19a0                phi_k_pk_plus_phi_k_T
                0x00000000400d1c28                Qerror
                0x00000000400d1c48                TC_delUT1
                0x00000000400d1c50                OBT_at_TLE_uplink
                0x00000000400d1c54                MP_Polarity
                0x00000000400d1c58                argpo
                0x00000000400d1c60                am_den
                0x00000000400d1c68                mat_mult
                0x00000000400d1cb0                delm
                0x00000000400d1cb8                Tdefnorm
                0x00000000400d1cc0                WhMom0
                0x00000000400d1ce0                Pos_ECIn
                0x00000000400d1cf8                cc1sq
                0x00000000400d1d00                TC_wAD_BODYmaxThRoll
                0x00000000400d1d08                TC_wAD_BODYminThPitch
                0x00000000400d1d10                I_MAGAD
                0x00000000400d1d18                ecc_temp5
                0x00000000400d1d20                jd_time
                0x00000000400d1d28                ecco
                0x00000000400d1d30                vsaty_eci
                0x00000000400d1d38                xlcof
                0x00000000400d1d40                K_temp
                0x00000000400d1d88                h
                0x00000000400d2508                NMS_NRSt
                0x00000000400d2550                latitude
                0x00000000400d2558                TC_Det_Bprev_Count
                0x00000000400d2560                Vel_ECEF_temp
                0x00000000400d2578                count_arc_w2
                0x00000000400d2580                Y_EPO2ECI_mag
                0x00000000400d2588                cd_magad
                0x00000000400d2590                latitude_GPS
                0x00000000400d2598                del_v0
                0x00000000400d25b8                RW_ARC_Count
                0x00000000400d25bc                TC_AutoTransitAnyMode2Det
                0x00000000400d25c0                DFCTorq
                0x00000000400d25e0                sinim
                0x00000000400d25e8                var
                0x00000000400d25f0                qk_minus
                0x00000000400d2610                Q_REF_prev_conj
                0x00000000400d2630                cosu
                0x00000000400d2638                BDOTNormCount
                0x00000000400d263c                BDOT_Norm_Count
                0x00000000400d2640                Susp_cnt
                0x00000000400d2648                ao_sfour
                0x00000000400d2650                precession
                0x00000000400d2698                Z_SFAO2ECI
                0x00000000400d26b0                S_sqr_DAD
                0x00000000400d26f8                nodeo
                0x00000000400d2700                R_StP2ECI
                0x00000000400d2748                theta1
                0x00000000400d2750                sun_noise
                0x00000000400d2758                TC_Hmin
                0x00000000400d2760                TC_magMin_angle
                0x00000000400d2768                ecc_sel
                0x00000000400d2770                n_gh
                0x00000000400d2778                ecc_temp7
                0x00000000400d2780                etempe
                0x00000000400d2788                A1_magad
                0x00000000400d2790                R_SPO2ECI
                0x00000000400d27d8                xsatx_eci
                0x00000000400d27e0                no_GPS
                0x00000000400d27e8                Yk_minus_hk
                0x00000000400d2800                TDT
                0x00000000400d2808                qk_DCM
                0x00000000400d2850                mat_mag_DataCounter
                0x00000000400d2858                argpo_sel
                0x00000000400d2860                psetasq
                0x00000000400d2868                f_battery_safemode
                0x00000000400d2870                Pos_ECI
                0x00000000400d2888                e_vecdtr
                0x00000000400d2890                nodeo_TLE_tc
                0x00000000400d2898                L_Ecliptic
                0x00000000400d28a0                trueanomoly_TLE_tc
                0x00000000400d28a8                w_q_update_satisfy
                0x00000000400d28b0                rteosq
                0x00000000400d28b8                lmonth
                0x00000000400d28f0                R_SFDO2ECI
                0x00000000400d2938                UTC_sec_GPS
                0x00000000400d2940                M_quad
                0x00000000400d2948                speedDFCch
                0x00000000400d2950                dc_qst
                0x00000000400d2958                cc1
                0x00000000400d2960                X_SVO2ECI
                0x00000000400d2978                tut1
                0x00000000400d2980                Tdeficit_temp2
                0x00000000400d2998                Delta_T
                0x00000000400d29a0                Kk_Hk_with_minus_one
                0x00000000400d2c28                BDown
                0x00000000400d2c30                dumping_on
                0x00000000400d2c34                wAD_updatecount
                0x00000000400d2c38                polarmotion
                0x00000000400d2c80                posq
                0x00000000400d2c88                X_SFDO2ECI
                0x00000000400d2ca0                TC_AngMomDump_Thrsld
                0x00000000400d2ca8                t3cof
                0x00000000400d2cb0                ThreeAxis2DetMode_counter
                0x00000000400d2cb8                co_dec
                0x00000000400d2cc0                Roll_MTREnable
                0x00000000400d2cc4                k_comr
                0x00000000400d2cc8                STATION_ECI
                0x00000000400d2ce0                eps
                0x00000000400d2ce8                Y_SPO2ECI_mag
                0x00000000400d2cf0                B_ECIn
                0x00000000400d2d08                vsatz_eci
                0x00000000400d2d10                mod_of_Wk1_cube
                0x00000000400d2d18                sin2u
                0x00000000400d2d20                velmag
                0x00000000400d2d28                A2_magad
                0x00000000400d2d30                sl_magad
                0x00000000400d2da0                Result_of_sine_Delta
                0x00000000400d2da8                Dfunc_DAD
                0x00000000400d2db0                cosio4
                0x00000000400d2db8                temp_om
                0x00000000400d2dc0                Pos_ECEF_GPS
                0x00000000400d2dd8                min_TW
                0x00000000400d2de0                Zt_S_Z_DAD
                0x00000000400d2de8                deps
                0x00000000400d2df0                Ndte_vec
                0x00000000400d2df8                CB_Wheel_OverSpeed_TorqueCutOff
                0x00000000400d2e00                W_norm
                0x00000000400d2e08                TC_KalmanFilter_ENABLE
                0x00000000400d2e10                xmx
                0x00000000400d2e18                Q_quest_DAD
                0x00000000400d2e38                DFCGainHigh
                0x00000000400d2e40                Torquer_Shutdown
                0x00000000400d2e48                nodeo_sel
                0x00000000400d2e50                qk_plus
                0x00000000400d2e70                magRoll_angle
                0x00000000400d2e78                sigma_v
                0x00000000400d2e80                j_comr
                0x00000000400d2e88                SS_M2
                0x00000000400d2e90                sin_of_W_norm_and_Delta_by2
                0x00000000400d2e98                ibexp
                0x00000000400d2ea0                GYRO_Threshold_Count
                0x00000000400d2ea4                MY_Polarity
                0x00000000400d2ea8                inclination_TLE_tc
                0x00000000400d2eb0                PosY_ECEF_GPS
                0x00000000400d2eb8                CB_BDOT_Computation
                0x00000000400d2ec0                Qbody
                0x00000000400d2ee0                eSuspendedMode
                0x00000000400d2ee4                i_lict
                0x00000000400d2ee8                delta_DAD
                0x00000000400d2ef0                temp3
                0x00000000400d2ef8                B_Tef_ANG
                0x00000000400d2f00                X_SPO2ECI
                0x00000000400d2f18                sine_of_Wk1_Delta_by_Wk1
                0x00000000400d2f20                PosX_ECEF_GPS
                0x00000000400d2f28                SS_M7
                0x00000000400d2f30                SS_M6
                0x00000000400d2f38                Q_axis
                0x00000000400d2f50                Wheel_Config
                0x00000000400d2f58                psisq
                0x00000000400d2f60                N_MAGAD
                0x00000000400d2f68                argpm
                0x00000000400d2f70                mp
                0x00000000400d2f78                am
                0x00000000400d2f80                TC_comd_pitch_rate
                0x00000000400d2f88                TorquerDutyCycle
                0x00000000400d2fa0                All_Deployed
                0x00000000400d2fa8                xl
                0x00000000400d2fb0                dayofyr
                0x00000000400d2fb8                eta
                0x00000000400d2fc0                ibexp_tc
                0x00000000400d2fc8                TC_BDOT_Norm_Threshold
                0x00000000400d2fd0                CB_IMUDataProcessing
                0x00000000400d2fd8                nodep
                0x00000000400d2fe0                Vel_ECI_temp
                0x00000000400d2ff8                omeosq
                0x00000000400d3000                Matout431
                0x00000000400d3020                R_EPO2ECI
                0x00000000400d3068                majorcyclecount
                0x00000000400d3070                phi_12
                0x00000000400d30b8                Alti
                0x00000000400d30c0                MR_Polarity
                0x00000000400d30c8                temp_jday
                0x00000000400d30d0                Del_Y_theta
                0x00000000400d30d8                pk
                0x00000000400d3360                longitude_tan_num
                0x00000000400d3368                DFCCount
                0x00000000400d3378                cos_of_Wk1_Delta_by_Wk1_square
                0x00000000400d3380                Julian_day
                0x00000000400d3388                SS_M3
                0x00000000400d3390                GPS_Select
                0x00000000400d3398                Trwa_mt_comp
                0x00000000400d33b0                ak_temp
                0x00000000400d33b8                BDOT_deltaT
                0x00000000400d33c0                sinsu
                0x00000000400d33c8                zeta
                0x00000000400d33d0                velmagsq
                0x00000000400d33d8                CB_Sl_Ecl_OnBrd_detection
                0x00000000400d33e0                nodedot
                0x00000000400d33e8                e_vec
                0x00000000400d3400                wheel_index_ARCsum
                0x00000000400d3408                RWSpeed
                0x00000000400d3428                sin_of_W_norm_Delta_by2_and_W_norm
                0x00000000400d3430                S_REF
                0x00000000400d3448                Xk
                0x00000000400d3490                RAAN
                0x00000000400d3498                NegR_Deployed
                0x00000000400d34a0                Zt_Z_DAD
                0x00000000400d34a8                nm_temp
                0x00000000400d34b0                Vel_ECEF
                0x00000000400d34c8                REF_FRAME_DCM
                0x00000000400d3510                sfour
                0x00000000400d3518                angmomentumvecmag
                0x00000000400d3520                Invmatout33
                0x00000000400d3568                Matout441
                0x00000000400d3588                gmst0
                0x00000000400d3590                argpdot
                0x00000000400d3598                cose
                0x00000000400d35a0                DPM
                0x00000000400d35b8                TC_SpeedDumpLimit
                0x00000000400d35c0                d3
                0x00000000400d35c8                t4cof
                0x00000000400d35d0                rdtv
                0x00000000400d35d8                semimajoraxis_GPS
                0x00000000400d35e0                JDTDB
                0x00000000400d35e8                r1
                0x00000000400d35f0                phi_12_temp2
                0x00000000400d3638                X_SFAO2ECI_mag
                0x00000000400d3640                UTC_day_GPS
                0x00000000400d3644                i_rfc
                0x00000000400d3648                CB_SunSensorDataProcessing
 COMMON         0x00000000400d364c       0x80 c:/opt/bcc-2.0.2-gcc/bin/../sparc-gaisler-elf/bsp/leon2/leon/mfix-at697f\libbcc.a(isr.c.o)
                0x00000000400d364c                __bcc_isr_list
                0x00000000400d36d0                . = ALIGN (0x8)
 *fill*         0x00000000400d36cc        0x4 
                0x00000000400d36d0                __bss_end = .
                0x00000000400d36d0                __heap_min = .
                0x00000000400d36d0                . = ALIGN (0x8)

.jcr
 *(.jcr)

.stab
 *(.stab)

.stabstr
 *(.stabstr)

.debug
 *(.debug)

.line
 *(.line)

.debug_srcinfo
 *(.debug_srcinfo)

.debug_sfnames
 *(.debug_sfnames)

.debug_aranges  0x0000000000000000      0xb00
 *(.debug_aranges)
 .debug_aranges
                0x0000000000000000       0x20 c:/opt/bcc-2.0.2-gcc/bin/../sparc-gaisler-elf/bsp/leon2/leon/mfix-at697f/trap_table_mvt.S.o
 .debug_aranges
                0x0000000000000020       0x20 c:/opt/bcc-2.0.2-gcc/bin/../sparc-gaisler-elf/bsp/leon2/leon/mfix-at697f/crt0.S.o
 .debug_aranges
                0x0000000000000040       0x28 C:\Users\ajarr\AppData\Local\Temp\cc6epILV.o
 .debug_aranges
                0x0000000000000068       0x20 C:\Users\ajarr\AppData\Local\Temp\ccIUYBk4.o
 .debug_aranges
                0x0000000000000088       0x20 C:\Users\ajarr\AppData\Local\Temp\ccvsnmY2.o
 .debug_aranges
                0x00000000000000a8       0x20 C:\Users\ajarr\AppData\Local\Temp\cczww0RR.o
 .debug_aranges
                0x00000000000000c8       0x20 C:\Users\ajarr\AppData\Local\Temp\ccXWfUhL.o
 .debug_aranges
                0x00000000000000e8       0x20 C:\Users\ajarr\AppData\Local\Temp\ccm9LEki.o
 .debug_aranges
                0x0000000000000108       0x20 C:\Users\ajarr\AppData\Local\Temp\cchY9yN1.o
 .debug_aranges
                0x0000000000000128       0x20 C:\Users\ajarr\AppData\Local\Temp\ccsnkR1R.o
 .debug_aranges
                0x0000000000000148       0x20 C:\Users\ajarr\AppData\Local\Temp\ccTwgEYO.o
 .debug_aranges
                0x0000000000000168       0x20 C:\Users\ajarr\AppData\Local\Temp\ccEKVXdT.o
 .debug_aranges
                0x0000000000000188       0x20 C:\Users\ajarr\AppData\Local\Temp\ccecVsE3.o
 .debug_aranges
                0x00000000000001a8       0x20 C:\Users\ajarr\AppData\Local\Temp\ccoo9rYu.o
 .debug_aranges
                0x00000000000001c8       0x20 C:\Users\ajarr\AppData\Local\Temp\cckLW0x4.o
 .debug_aranges
                0x00000000000001e8       0x20 C:\Users\ajarr\AppData\Local\Temp\ccoK9PBU.o
 .debug_aranges
                0x0000000000000208       0x20 C:\Users\ajarr\AppData\Local\Temp\ccc7OliV.o
 .debug_aranges
                0x0000000000000228       0x20 C:\Users\ajarr\AppData\Local\Temp\ccLBYgor.o
 .debug_aranges
                0x0000000000000248       0x20 C:\Users\ajarr\AppData\Local\Temp\cc41N2oq.o
 .debug_aranges
                0x0000000000000268       0x18 C:\Users\ajarr\AppData\Local\Temp\cczww3Ay.o
 .debug_aranges
                0x0000000000000280       0x20 C:\Users\ajarr\AppData\Local\Temp\ccJldDN1.o
 .debug_aranges
                0x00000000000002a0       0x20 C:\Users\ajarr\AppData\Local\Temp\ccnWSFNQ.o
 .debug_aranges
                0x00000000000002c0       0x20 C:\Users\ajarr\AppData\Local\Temp\ccegvyo6.o
 .debug_aranges
                0x00000000000002e0       0x20 C:\Users\ajarr\AppData\Local\Temp\ccyOpeqt.o
 .debug_aranges
                0x0000000000000300       0x18 C:\Users\ajarr\AppData\Local\Temp\cceA7QRW.o
 .debug_aranges
                0x0000000000000318       0x20 C:\Users\ajarr\AppData\Local\Temp\ccExFPZ1.o
 .debug_aranges
                0x0000000000000338       0x20 C:\Users\ajarr\AppData\Local\Temp\ccd1pLAc.o
 .debug_aranges
                0x0000000000000358       0x20 C:\Users\ajarr\AppData\Local\Temp\ccG5Eq4q.o
 .debug_aranges
                0x0000000000000378       0x20 c:/opt/bcc-2.0.2-gcc/bin/../lib/gcc/sparc-gaisler-elf/7.2.0/../../../../sparc-gaisler-elf/lib/leon/mfix-at697f\libm.a(lib_a-s_atan.o)
 .debug_aranges
                0x0000000000000398       0x20 c:/opt/bcc-2.0.2-gcc/bin/../lib/gcc/sparc-gaisler-elf/7.2.0/../../../../sparc-gaisler-elf/lib/leon/mfix-at697f\libm.a(lib_a-s_cos.o)
 .debug_aranges
                0x00000000000003b8       0x20 c:/opt/bcc-2.0.2-gcc/bin/../lib/gcc/sparc-gaisler-elf/7.2.0/../../../../sparc-gaisler-elf/lib/leon/mfix-at697f\libm.a(lib_a-s_fabs.o)
 .debug_aranges
                0x00000000000003d8       0x20 c:/opt/bcc-2.0.2-gcc/bin/../lib/gcc/sparc-gaisler-elf/7.2.0/../../../../sparc-gaisler-elf/lib/leon/mfix-at697f\libm.a(lib_a-s_floor.o)
 .debug_aranges
                0x00000000000003f8       0x20 c:/opt/bcc-2.0.2-gcc/bin/../lib/gcc/sparc-gaisler-elf/7.2.0/../../../../sparc-gaisler-elf/lib/leon/mfix-at697f\libm.a(lib_a-s_round.o)
 .debug_aranges
                0x0000000000000418       0x20 c:/opt/bcc-2.0.2-gcc/bin/../lib/gcc/sparc-gaisler-elf/7.2.0/../../../../sparc-gaisler-elf/lib/leon/mfix-at697f\libm.a(lib_a-s_sin.o)
 .debug_aranges
                0x0000000000000438       0x20 c:/opt/bcc-2.0.2-gcc/bin/../lib/gcc/sparc-gaisler-elf/7.2.0/../../../../sparc-gaisler-elf/lib/leon/mfix-at697f\libm.a(lib_a-s_tan.o)
 .debug_aranges
                0x0000000000000458       0x20 c:/opt/bcc-2.0.2-gcc/bin/../lib/gcc/sparc-gaisler-elf/7.2.0/../../../../sparc-gaisler-elf/lib/leon/mfix-at697f\libm.a(lib_a-w_acos.o)
 .debug_aranges
                0x0000000000000478       0x20 c:/opt/bcc-2.0.2-gcc/bin/../lib/gcc/sparc-gaisler-elf/7.2.0/../../../../sparc-gaisler-elf/lib/leon/mfix-at697f\libm.a(lib_a-w_asin.o)
 .debug_aranges
                0x0000000000000498       0x20 c:/opt/bcc-2.0.2-gcc/bin/../lib/gcc/sparc-gaisler-elf/7.2.0/../../../../sparc-gaisler-elf/lib/leon/mfix-at697f\libm.a(lib_a-w_atan2.o)
 .debug_aranges
                0x00000000000004b8       0x20 c:/opt/bcc-2.0.2-gcc/bin/../lib/gcc/sparc-gaisler-elf/7.2.0/../../../../sparc-gaisler-elf/lib/leon/mfix-at697f\libm.a(lib_a-w_fmod.o)
 .debug_aranges
                0x00000000000004d8       0x20 c:/opt/bcc-2.0.2-gcc/bin/../lib/gcc/sparc-gaisler-elf/7.2.0/../../../../sparc-gaisler-elf/lib/leon/mfix-at697f\libm.a(lib_a-w_pow.o)
 .debug_aranges
                0x00000000000004f8       0x20 c:/opt/bcc-2.0.2-gcc/bin/../lib/gcc/sparc-gaisler-elf/7.2.0/../../../../sparc-gaisler-elf/lib/leon/mfix-at697f\libm.a(lib_a-w_sqrt.o)
 .debug_aranges
                0x0000000000000518       0x20 c:/opt/bcc-2.0.2-gcc/bin/../lib/gcc/sparc-gaisler-elf/7.2.0/../../../../sparc-gaisler-elf/lib/leon/mfix-at697f\libm.a(lib_a-e_acos.o)
 .debug_aranges
                0x0000000000000538       0x20 c:/opt/bcc-2.0.2-gcc/bin/../lib/gcc/sparc-gaisler-elf/7.2.0/../../../../sparc-gaisler-elf/lib/leon/mfix-at697f\libm.a(lib_a-e_asin.o)
 .debug_aranges
                0x0000000000000558       0x20 c:/opt/bcc-2.0.2-gcc/bin/../lib/gcc/sparc-gaisler-elf/7.2.0/../../../../sparc-gaisler-elf/lib/leon/mfix-at697f\libm.a(lib_a-e_atan2.o)
 .debug_aranges
                0x0000000000000578       0x20 c:/opt/bcc-2.0.2-gcc/bin/../lib/gcc/sparc-gaisler-elf/7.2.0/../../../../sparc-gaisler-elf/lib/leon/mfix-at697f\libm.a(lib_a-e_fmod.o)
 .debug_aranges
                0x0000000000000598       0x20 c:/opt/bcc-2.0.2-gcc/bin/../lib/gcc/sparc-gaisler-elf/7.2.0/../../../../sparc-gaisler-elf/lib/leon/mfix-at697f\libm.a(lib_a-e_pow.o)
 .debug_aranges
                0x00000000000005b8       0x20 c:/opt/bcc-2.0.2-gcc/bin/../lib/gcc/sparc-gaisler-elf/7.2.0/../../../../sparc-gaisler-elf/lib/leon/mfix-at697f\libm.a(lib_a-e_rem_pio2.o)
 .debug_aranges
                0x00000000000005d8       0x20 c:/opt/bcc-2.0.2-gcc/bin/../lib/gcc/sparc-gaisler-elf/7.2.0/../../../../sparc-gaisler-elf/lib/leon/mfix-at697f\libm.a(lib_a-e_sqrt.o)
 .debug_aranges
                0x00000000000005f8       0x20 c:/opt/bcc-2.0.2-gcc/bin/../lib/gcc/sparc-gaisler-elf/7.2.0/../../../../sparc-gaisler-elf/lib/leon/mfix-at697f\libm.a(lib_a-k_cos.o)
 .debug_aranges
                0x0000000000000618       0x20 c:/opt/bcc-2.0.2-gcc/bin/../lib/gcc/sparc-gaisler-elf/7.2.0/../../../../sparc-gaisler-elf/lib/leon/mfix-at697f\libm.a(lib_a-k_rem_pio2.o)
 .debug_aranges
                0x0000000000000638       0x20 c:/opt/bcc-2.0.2-gcc/bin/../lib/gcc/sparc-gaisler-elf/7.2.0/../../../../sparc-gaisler-elf/lib/leon/mfix-at697f\libm.a(lib_a-k_sin.o)
 .debug_aranges
                0x0000000000000658       0x20 c:/opt/bcc-2.0.2-gcc/bin/../lib/gcc/sparc-gaisler-elf/7.2.0/../../../../sparc-gaisler-elf/lib/leon/mfix-at697f\libm.a(lib_a-k_tan.o)
 .debug_aranges
                0x0000000000000678       0x20 c:/opt/bcc-2.0.2-gcc/bin/../lib/gcc/sparc-gaisler-elf/7.2.0/../../../../sparc-gaisler-elf/lib/leon/mfix-at697f\libm.a(lib_a-s_finite.o)
 .debug_aranges
                0x0000000000000698       0x18 c:/opt/bcc-2.0.2-gcc/bin/../lib/gcc/sparc-gaisler-elf/7.2.0/../../../../sparc-gaisler-elf/lib/leon/mfix-at697f\libm.a(lib_a-s_lib_ver.o)
 .debug_aranges
                0x00000000000006b0       0x20 c:/opt/bcc-2.0.2-gcc/bin/../lib/gcc/sparc-gaisler-elf/7.2.0/../../../../sparc-gaisler-elf/lib/leon/mfix-at697f\libm.a(lib_a-s_matherr.o)
 .debug_aranges
                0x00000000000006d0       0x20 c:/opt/bcc-2.0.2-gcc/bin/../lib/gcc/sparc-gaisler-elf/7.2.0/../../../../sparc-gaisler-elf/lib/leon/mfix-at697f\libm.a(lib_a-s_nan.o)
 .debug_aranges
                0x00000000000006f0       0x20 c:/opt/bcc-2.0.2-gcc/bin/../lib/gcc/sparc-gaisler-elf/7.2.0/../../../../sparc-gaisler-elf/lib/leon/mfix-at697f\libm.a(lib_a-s_rint.o)
 .debug_aranges
                0x0000000000000710       0x20 c:/opt/bcc-2.0.2-gcc/bin/../lib/gcc/sparc-gaisler-elf/7.2.0/../../../../sparc-gaisler-elf/lib/leon/mfix-at697f\libm.a(lib_a-s_scalbn.o)
 .debug_aranges
                0x0000000000000730       0x20 c:/opt/bcc-2.0.2-gcc/bin/../lib/gcc/sparc-gaisler-elf/7.2.0/../../../../sparc-gaisler-elf/lib/leon/mfix-at697f\libm.a(lib_a-s_copysign.o)
 .debug_aranges
                0x0000000000000750       0x20 c:/opt/bcc-2.0.2-gcc/bin/../sparc-gaisler-elf/bsp/leon2/leon/mfix-at697f\libbcc.a(reset_trap_mvt.S.o)
 .debug_aranges
                0x0000000000000770       0x20 c:/opt/bcc-2.0.2-gcc/bin/../sparc-gaisler-elf/bsp/leon2/leon/mfix-at697f\libbcc.a(window_trap.S.o)
 .debug_aranges
                0x0000000000000790       0x20 c:/opt/bcc-2.0.2-gcc/bin/../sparc-gaisler-elf/bsp/leon2/leon/mfix-at697f\libbcc.a(interrupt_trap.S.o)
 .debug_aranges
                0x00000000000007b0       0x20 c:/opt/bcc-2.0.2-gcc/bin/../sparc-gaisler-elf/bsp/leon2/leon/mfix-at697f\libbcc.a(flush_windows_trap.S.o)
 .debug_aranges
                0x00000000000007d0       0x20 c:/opt/bcc-2.0.2-gcc/bin/../sparc-gaisler-elf/bsp/leon2/leon/mfix-at697f\libbcc.a(sw_trap_set_pil.S.o)
 .debug_aranges
                0x00000000000007f0       0x20 c:/opt/bcc-2.0.2-gcc/bin/../sparc-gaisler-elf/bsp/leon2/leon/mfix-at697f\libbcc.a(trap.c.o)
 .debug_aranges
                0x0000000000000810       0x18 c:/opt/bcc-2.0.2-gcc/bin/../sparc-gaisler-elf/bsp/leon2/leon/mfix-at697f\libbcc.a(isr.c.o)
 .debug_aranges
                0x0000000000000828       0x18 c:/opt/bcc-2.0.2-gcc/bin/../sparc-gaisler-elf/bsp/leon2/leon/mfix-at697f\libbcc.a(int_nest.c.o)
 .debug_aranges
                0x0000000000000840       0x20 c:/opt/bcc-2.0.2-gcc/bin/../sparc-gaisler-elf/bsp/leon2/leon/mfix-at697f\libbcc.a(init.S.o)
 .debug_aranges
                0x0000000000000860       0x20 c:/opt/bcc-2.0.2-gcc/bin/../sparc-gaisler-elf/bsp/leon2/leon/mfix-at697f\libbcc.a(leon_info.S.o)
 .debug_aranges
                0x0000000000000880       0x20 c:/opt/bcc-2.0.2-gcc/bin/../sparc-gaisler-elf/bsp/leon2/leon/mfix-at697f\libbcc.a(dwzero.S.o)
 .debug_aranges
                0x00000000000008a0       0x20 c:/opt/bcc-2.0.2-gcc/bin/../sparc-gaisler-elf/bsp/leon2/leon/mfix-at697f\libbcc.a(copy_data.c.o)
 .debug_aranges
                0x00000000000008c0       0x20 c:/opt/bcc-2.0.2-gcc/bin/../sparc-gaisler-elf/bsp/leon2/leon/mfix-at697f\libbcc.a(lowlevel.S.o)
 .debug_aranges
                0x00000000000008e0       0x20 c:/opt/bcc-2.0.2-gcc/bin/../sparc-gaisler-elf/bsp/leon2/leon/mfix-at697f\libbcc.a(lowlevel_leon2.S.o)
 .debug_aranges
                0x0000000000000900       0x20 c:/opt/bcc-2.0.2-gcc/bin/../sparc-gaisler-elf/bsp/leon2/leon/mfix-at697f\libbcc.a(int_leon2.c.o)
 .debug_aranges
                0x0000000000000920       0x20 c:/opt/bcc-2.0.2-gcc/bin/../sparc-gaisler-elf/bsp/leon2/leon/mfix-at697f\libbcc.a(int_leon2_get_source.c.o)
 .debug_aranges
                0x0000000000000940       0x20 c:/opt/bcc-2.0.2-gcc/bin/../sparc-gaisler-elf/bsp/leon2/leon/mfix-at697f\libbcc.a(int_leon2_init.c.o)
 .debug_aranges
                0x0000000000000960       0x20 c:/opt/bcc-2.0.2-gcc/bin/../sparc-gaisler-elf/bsp/leon2/leon/mfix-at697f\libbcc.a(con_leon2.c.o)
 .debug_aranges
                0x0000000000000980       0x20 c:/opt/bcc-2.0.2-gcc/bin/../sparc-gaisler-elf/bsp/leon2/leon/mfix-at697f\libbcc.a(timer_leon2.c.o)
 .debug_aranges
                0x00000000000009a0       0x20 c:/opt/bcc-2.0.2-gcc/bin/../sparc-gaisler-elf/bsp/leon2/leon/mfix-at697f\libbcc.a(set_pil.S.o)
 .debug_aranges
                0x00000000000009c0       0x18 c:/opt/bcc-2.0.2-gcc/bin/../sparc-gaisler-elf/bsp/leon2/leon/mfix-at697f\libbcc.a(int_leon2_handle.c.o)
 .debug_aranges
                0x00000000000009d8       0x18 c:/opt/bcc-2.0.2-gcc/bin/../sparc-gaisler-elf/bsp/leon2/leon/mfix-at697f\libbcc.a(con_handle.c.o)
 .debug_aranges
                0x00000000000009f0       0x18 c:/opt/bcc-2.0.2-gcc/bin/../sparc-gaisler-elf/bsp/leon2/leon/mfix-at697f\libbcc.a(timer_handle.c.o)
 .debug_aranges
                0x0000000000000a08       0x20 c:/opt/bcc-2.0.2-gcc/bin/../lib/gcc/sparc-gaisler-elf/7.2.0/../../../../sparc-gaisler-elf/lib/leon/mfix-at697f\libc.a(lib_a-atexit.o)
 .debug_aranges
                0x0000000000000a28       0x20 c:/opt/bcc-2.0.2-gcc/bin/../lib/gcc/sparc-gaisler-elf/7.2.0/../../../../sparc-gaisler-elf/lib/leon/mfix-at697f\libc.a(lib_a-errno.o)
 .debug_aranges
                0x0000000000000a48       0x20 c:/opt/bcc-2.0.2-gcc/bin/../lib/gcc/sparc-gaisler-elf/7.2.0/../../../../sparc-gaisler-elf/lib/leon/mfix-at697f\libc.a(lib_a-exit.o)
 .debug_aranges
                0x0000000000000a68       0x18 c:/opt/bcc-2.0.2-gcc/bin/../lib/gcc/sparc-gaisler-elf/7.2.0/../../../../sparc-gaisler-elf/lib/leon/mfix-at697f\libc.a(lib_a-impure.o)
 .debug_aranges
                0x0000000000000a80       0x20 c:/opt/bcc-2.0.2-gcc/bin/../lib/gcc/sparc-gaisler-elf/7.2.0/../../../../sparc-gaisler-elf/lib/leon/mfix-at697f\libc.a(lib_a-memcpy.o)
 .debug_aranges
                0x0000000000000aa0       0x20 c:/opt/bcc-2.0.2-gcc/bin/../lib/gcc/sparc-gaisler-elf/7.2.0/../../../../sparc-gaisler-elf/lib/leon/mfix-at697f\libc.a(lib_a-__atexit.o)
 .debug_aranges
                0x0000000000000ac0       0x20 c:/opt/bcc-2.0.2-gcc/bin/../lib/gcc/sparc-gaisler-elf/7.2.0/../../../../sparc-gaisler-elf/lib/leon/mfix-at697f\libc.a(lib_a-__call_atexit.o)
 .debug_aranges
                0x0000000000000ae0       0x20 c:/opt/bcc-2.0.2-gcc/bin/../sparc-gaisler-elf/bsp/leon2/leon/mfix-at697f\libbcc.a(_exit.S.o)

.debug_pubnames
 *(.debug_pubnames)

.debug_info     0x0000000000000000    0xf140d
 *(.debug_info)
 .debug_info    0x0000000000000000       0xd0 c:/opt/bcc-2.0.2-gcc/bin/../sparc-gaisler-elf/bsp/leon2/leon/mfix-at697f/trap_table_mvt.S.o
 .debug_info    0x00000000000000d0       0xc1 c:/opt/bcc-2.0.2-gcc/bin/../sparc-gaisler-elf/bsp/leon2/leon/mfix-at697f/crt0.S.o
 .debug_info    0x0000000000000191     0x9f55 C:\Users\ajarr\AppData\Local\Temp\cc6epILV.o
 .debug_info    0x000000000000a0e6     0xa41f C:\Users\ajarr\AppData\Local\Temp\ccIUYBk4.o
 .debug_info    0x0000000000014505     0xb2e3 C:\Users\ajarr\AppData\Local\Temp\ccvsnmY2.o
 .debug_info    0x000000000001f7e8     0xcd73 C:\Users\ajarr\AppData\Local\Temp\cczww0RR.o
 .debug_info    0x000000000002c55b       0x63 C:\Users\ajarr\AppData\Local\Temp\ccXWfUhL.o
 .debug_info    0x000000000002c5be     0xad27 C:\Users\ajarr\AppData\Local\Temp\ccm9LEki.o
 .debug_info    0x00000000000372e5     0xa874 C:\Users\ajarr\AppData\Local\Temp\cchY9yN1.o
 .debug_info    0x0000000000041b59     0x5db7 C:\Users\ajarr\AppData\Local\Temp\ccsnkR1R.o
 .debug_info    0x0000000000047910     0x7be5 C:\Users\ajarr\AppData\Local\Temp\ccTwgEYO.o
 .debug_info    0x000000000004f4f5     0x7f6a C:\Users\ajarr\AppData\Local\Temp\ccEKVXdT.o
 .debug_info    0x000000000005745f     0x9a5f C:\Users\ajarr\AppData\Local\Temp\ccecVsE3.o
 .debug_info    0x0000000000060ebe     0x6a61 C:\Users\ajarr\AppData\Local\Temp\ccoo9rYu.o
 .debug_info    0x000000000006791f     0xa31f C:\Users\ajarr\AppData\Local\Temp\cckLW0x4.o
 .debug_info    0x0000000000071c3e     0x67c4 C:\Users\ajarr\AppData\Local\Temp\ccoK9PBU.o
 .debug_info    0x0000000000078402     0x52c1 C:\Users\ajarr\AppData\Local\Temp\ccc7OliV.o
 .debug_info    0x000000000007d6c3     0xab0a C:\Users\ajarr\AppData\Local\Temp\ccLBYgor.o
 .debug_info    0x00000000000881cd     0xa3de C:\Users\ajarr\AppData\Local\Temp\cc41N2oq.o
 .debug_info    0x00000000000925ab     0x4d60 C:\Users\ajarr\AppData\Local\Temp\cczww3Ay.o
 .debug_info    0x000000000009730b     0x9431 C:\Users\ajarr\AppData\Local\Temp\ccJldDN1.o
 .debug_info    0x00000000000a073c     0xabbe C:\Users\ajarr\AppData\Local\Temp\ccnWSFNQ.o
 .debug_info    0x00000000000ab2fa     0x77bb C:\Users\ajarr\AppData\Local\Temp\ccegvyo6.o
 .debug_info    0x00000000000b2ab5     0xafb4 C:\Users\ajarr\AppData\Local\Temp\ccyOpeqt.o
 .debug_info    0x00000000000bda69     0x7ae1 C:\Users\ajarr\AppData\Local\Temp\cceA7QRW.o
 .debug_info    0x00000000000c554a     0xae4f C:\Users\ajarr\AppData\Local\Temp\ccExFPZ1.o
 .debug_info    0x00000000000d0399     0x5230 C:\Users\ajarr\AppData\Local\Temp\ccd1pLAc.o
 .debug_info    0x00000000000d55c9       0xcc C:\Users\ajarr\AppData\Local\Temp\ccG5Eq4q.o
 .debug_info    0x00000000000d5695      0xb79 c:/opt/bcc-2.0.2-gcc/bin/../lib/gcc/sparc-gaisler-elf/7.2.0/../../../../sparc-gaisler-elf/lib/leon/mfix-at697f\libm.a(lib_a-s_atan.o)
 .debug_info    0x00000000000d620e      0xa78 c:/opt/bcc-2.0.2-gcc/bin/../lib/gcc/sparc-gaisler-elf/7.2.0/../../../../sparc-gaisler-elf/lib/leon/mfix-at697f\libm.a(lib_a-s_cos.o)
 .debug_info    0x00000000000d6c86      0xa44 c:/opt/bcc-2.0.2-gcc/bin/../lib/gcc/sparc-gaisler-elf/7.2.0/../../../../sparc-gaisler-elf/lib/leon/mfix-at697f\libm.a(lib_a-s_fabs.o)
 .debug_info    0x00000000000d76ca      0xaa1 c:/opt/bcc-2.0.2-gcc/bin/../lib/gcc/sparc-gaisler-elf/7.2.0/../../../../sparc-gaisler-elf/lib/leon/mfix-at697f\libm.a(lib_a-s_floor.o)
 .debug_info    0x00000000000d816b      0xab7 c:/opt/bcc-2.0.2-gcc/bin/../lib/gcc/sparc-gaisler-elf/7.2.0/../../../../sparc-gaisler-elf/lib/leon/mfix-at697f\libm.a(lib_a-s_round.o)
 .debug_info    0x00000000000d8c22      0xa78 c:/opt/bcc-2.0.2-gcc/bin/../lib/gcc/sparc-gaisler-elf/7.2.0/../../../../sparc-gaisler-elf/lib/leon/mfix-at697f\libm.a(lib_a-s_sin.o)
 .debug_info    0x00000000000d969a      0xa78 c:/opt/bcc-2.0.2-gcc/bin/../lib/gcc/sparc-gaisler-elf/7.2.0/../../../../sparc-gaisler-elf/lib/leon/mfix-at697f\libm.a(lib_a-s_tan.o)
 .debug_info    0x00000000000da112      0xa60 c:/opt/bcc-2.0.2-gcc/bin/../lib/gcc/sparc-gaisler-elf/7.2.0/../../../../sparc-gaisler-elf/lib/leon/mfix-at697f\libm.a(lib_a-w_acos.o)
 .debug_info    0x00000000000dab72      0xa60 c:/opt/bcc-2.0.2-gcc/bin/../lib/gcc/sparc-gaisler-elf/7.2.0/../../../../sparc-gaisler-elf/lib/leon/mfix-at697f\libm.a(lib_a-w_asin.o)
 .debug_info    0x00000000000db5d2      0x9ef c:/opt/bcc-2.0.2-gcc/bin/../lib/gcc/sparc-gaisler-elf/7.2.0/../../../../sparc-gaisler-elf/lib/leon/mfix-at697f\libm.a(lib_a-w_atan2.o)
 .debug_info    0x00000000000dbfc1      0xa6d c:/opt/bcc-2.0.2-gcc/bin/../lib/gcc/sparc-gaisler-elf/7.2.0/../../../../sparc-gaisler-elf/lib/leon/mfix-at697f\libm.a(lib_a-w_fmod.o)
 .debug_info    0x00000000000dca2e      0xa6d c:/opt/bcc-2.0.2-gcc/bin/../lib/gcc/sparc-gaisler-elf/7.2.0/../../../../sparc-gaisler-elf/lib/leon/mfix-at697f\libm.a(lib_a-w_pow.o)
 .debug_info    0x00000000000dd49b      0xa60 c:/opt/bcc-2.0.2-gcc/bin/../lib/gcc/sparc-gaisler-elf/7.2.0/../../../../sparc-gaisler-elf/lib/leon/mfix-at697f\libm.a(lib_a-w_sqrt.o)
 .debug_info    0x00000000000ddefb      0xbfe c:/opt/bcc-2.0.2-gcc/bin/../lib/gcc/sparc-gaisler-elf/7.2.0/../../../../sparc-gaisler-elf/lib/leon/mfix-at697f\libm.a(lib_a-e_acos.o)
 .debug_info    0x00000000000deaf9      0xc09 c:/opt/bcc-2.0.2-gcc/bin/../lib/gcc/sparc-gaisler-elf/7.2.0/../../../../sparc-gaisler-elf/lib/leon/mfix-at697f\libm.a(lib_a-e_asin.o)
 .debug_info    0x00000000000df702      0xb76 c:/opt/bcc-2.0.2-gcc/bin/../lib/gcc/sparc-gaisler-elf/7.2.0/../../../../sparc-gaisler-elf/lib/leon/mfix-at697f\libm.a(lib_a-e_atan2.o)
 .debug_info    0x00000000000e0278      0xb62 c:/opt/bcc-2.0.2-gcc/bin/../lib/gcc/sparc-gaisler-elf/7.2.0/../../../../sparc-gaisler-elf/lib/leon/mfix-at697f\libm.a(lib_a-e_fmod.o)
 .debug_info    0x00000000000e0dda      0xfb9 c:/opt/bcc-2.0.2-gcc/bin/../lib/gcc/sparc-gaisler-elf/7.2.0/../../../../sparc-gaisler-elf/lib/leon/mfix-at697f\libm.a(lib_a-e_pow.o)
 .debug_info    0x00000000000e1d93      0xc9d c:/opt/bcc-2.0.2-gcc/bin/../lib/gcc/sparc-gaisler-elf/7.2.0/../../../../sparc-gaisler-elf/lib/leon/mfix-at697f\libm.a(lib_a-e_rem_pio2.o)
 .debug_info    0x00000000000e2a30      0xb2d c:/opt/bcc-2.0.2-gcc/bin/../lib/gcc/sparc-gaisler-elf/7.2.0/../../../../sparc-gaisler-elf/lib/leon/mfix-at697f\libm.a(lib_a-e_sqrt.o)
 .debug_info    0x00000000000e355d      0xb37 c:/opt/bcc-2.0.2-gcc/bin/../lib/gcc/sparc-gaisler-elf/7.2.0/../../../../sparc-gaisler-elf/lib/leon/mfix-at697f\libm.a(lib_a-k_cos.o)
 .debug_info    0x00000000000e4094      0xbd5 c:/opt/bcc-2.0.2-gcc/bin/../lib/gcc/sparc-gaisler-elf/7.2.0/../../../../sparc-gaisler-elf/lib/leon/mfix-at697f\libm.a(lib_a-k_rem_pio2.o)
 .debug_info    0x00000000000e4c69      0xb0a c:/opt/bcc-2.0.2-gcc/bin/../lib/gcc/sparc-gaisler-elf/7.2.0/../../../../sparc-gaisler-elf/lib/leon/mfix-at697f\libm.a(lib_a-k_sin.o)
 .debug_info    0x00000000000e5773      0xbeb c:/opt/bcc-2.0.2-gcc/bin/../lib/gcc/sparc-gaisler-elf/7.2.0/../../../../sparc-gaisler-elf/lib/leon/mfix-at697f\libm.a(lib_a-k_tan.o)
 .debug_info    0x00000000000e635e      0xa30 c:/opt/bcc-2.0.2-gcc/bin/../lib/gcc/sparc-gaisler-elf/7.2.0/../../../../sparc-gaisler-elf/lib/leon/mfix-at697f\libm.a(lib_a-s_finite.o)
 .debug_info    0x00000000000e6d8e      0x98c c:/opt/bcc-2.0.2-gcc/bin/../lib/gcc/sparc-gaisler-elf/7.2.0/../../../../sparc-gaisler-elf/lib/leon/mfix-at697f\libm.a(lib_a-s_lib_ver.o)
 .debug_info    0x00000000000e771a      0xa2a c:/opt/bcc-2.0.2-gcc/bin/../lib/gcc/sparc-gaisler-elf/7.2.0/../../../../sparc-gaisler-elf/lib/leon/mfix-at697f\libm.a(lib_a-s_matherr.o)
 .debug_info    0x00000000000e8144      0x9c0 c:/opt/bcc-2.0.2-gcc/bin/../lib/gcc/sparc-gaisler-elf/7.2.0/../../../../sparc-gaisler-elf/lib/leon/mfix-at697f\libm.a(lib_a-s_nan.o)
 .debug_info    0x00000000000e8b04      0xb1e c:/opt/bcc-2.0.2-gcc/bin/../lib/gcc/sparc-gaisler-elf/7.2.0/../../../../sparc-gaisler-elf/lib/leon/mfix-at697f\libm.a(lib_a-s_rint.o)
 .debug_info    0x00000000000e9622      0xb0a c:/opt/bcc-2.0.2-gcc/bin/../lib/gcc/sparc-gaisler-elf/7.2.0/../../../../sparc-gaisler-elf/lib/leon/mfix-at697f\libm.a(lib_a-s_scalbn.o)
 .debug_info    0x00000000000ea12c      0xa6c c:/opt/bcc-2.0.2-gcc/bin/../lib/gcc/sparc-gaisler-elf/7.2.0/../../../../sparc-gaisler-elf/lib/leon/mfix-at697f\libm.a(lib_a-s_copysign.o)
 .debug_info    0x00000000000eab98       0xd0 c:/opt/bcc-2.0.2-gcc/bin/../sparc-gaisler-elf/bsp/leon2/leon/mfix-at697f\libbcc.a(reset_trap_mvt.S.o)
 .debug_info    0x00000000000eac68       0xcd c:/opt/bcc-2.0.2-gcc/bin/../sparc-gaisler-elf/bsp/leon2/leon/mfix-at697f\libbcc.a(window_trap.S.o)
 .debug_info    0x00000000000ead35       0xd0 c:/opt/bcc-2.0.2-gcc/bin/../sparc-gaisler-elf/bsp/leon2/leon/mfix-at697f\libbcc.a(interrupt_trap.S.o)
 .debug_info    0x00000000000eae05       0xd4 c:/opt/bcc-2.0.2-gcc/bin/../sparc-gaisler-elf/bsp/leon2/leon/mfix-at697f\libbcc.a(flush_windows_trap.S.o)
 .debug_info    0x00000000000eaed9       0xd1 c:/opt/bcc-2.0.2-gcc/bin/../sparc-gaisler-elf/bsp/leon2/leon/mfix-at697f\libbcc.a(sw_trap_set_pil.S.o)
 .debug_info    0x00000000000eafaa      0x2d1 c:/opt/bcc-2.0.2-gcc/bin/../sparc-gaisler-elf/bsp/leon2/leon/mfix-at697f\libbcc.a(trap.c.o)
 .debug_info    0x00000000000eb27b      0x9e6 c:/opt/bcc-2.0.2-gcc/bin/../sparc-gaisler-elf/bsp/leon2/leon/mfix-at697f\libbcc.a(isr.c.o)
 .debug_info    0x00000000000ebc61       0xc5 c:/opt/bcc-2.0.2-gcc/bin/../sparc-gaisler-elf/bsp/leon2/leon/mfix-at697f\libbcc.a(int_nest.c.o)
 .debug_info    0x00000000000ebd26       0xc1 c:/opt/bcc-2.0.2-gcc/bin/../sparc-gaisler-elf/bsp/leon2/leon/mfix-at697f\libbcc.a(init.S.o)
 .debug_info    0x00000000000ebde7       0xc6 c:/opt/bcc-2.0.2-gcc/bin/../sparc-gaisler-elf/bsp/leon2/leon/mfix-at697f\libbcc.a(leon_info.S.o)
 .debug_info    0x00000000000ebead       0xc3 c:/opt/bcc-2.0.2-gcc/bin/../sparc-gaisler-elf/bsp/leon2/leon/mfix-at697f\libbcc.a(dwzero.S.o)
 .debug_info    0x00000000000ebf70       0xe9 c:/opt/bcc-2.0.2-gcc/bin/../sparc-gaisler-elf/bsp/leon2/leon/mfix-at697f\libbcc.a(copy_data.c.o)
 .debug_info    0x00000000000ec059       0xc5 c:/opt/bcc-2.0.2-gcc/bin/../sparc-gaisler-elf/bsp/leon2/leon/mfix-at697f\libbcc.a(lowlevel.S.o)
 .debug_info    0x00000000000ec11e       0xcb c:/opt/bcc-2.0.2-gcc/bin/../sparc-gaisler-elf/bsp/leon2/leon/mfix-at697f\libbcc.a(lowlevel_leon2.S.o)
 .debug_info    0x00000000000ec1e9      0x366 c:/opt/bcc-2.0.2-gcc/bin/../sparc-gaisler-elf/bsp/leon2/leon/mfix-at697f\libbcc.a(int_leon2.c.o)
 .debug_info    0x00000000000ec54f       0x57 c:/opt/bcc-2.0.2-gcc/bin/../sparc-gaisler-elf/bsp/leon2/leon/mfix-at697f\libbcc.a(int_leon2_get_source.c.o)
 .debug_info    0x00000000000ec5a6      0x139 c:/opt/bcc-2.0.2-gcc/bin/../sparc-gaisler-elf/bsp/leon2/leon/mfix-at697f\libbcc.a(int_leon2_init.c.o)
 .debug_info    0x00000000000ec6df      0x1fb c:/opt/bcc-2.0.2-gcc/bin/../sparc-gaisler-elf/bsp/leon2/leon/mfix-at697f\libbcc.a(con_leon2.c.o)
 .debug_info    0x00000000000ec8da      0x216 c:/opt/bcc-2.0.2-gcc/bin/../sparc-gaisler-elf/bsp/leon2/leon/mfix-at697f\libbcc.a(timer_leon2.c.o)
 .debug_info    0x00000000000ecaf0       0xc4 c:/opt/bcc-2.0.2-gcc/bin/../sparc-gaisler-elf/bsp/leon2/leon/mfix-at697f\libbcc.a(set_pil.S.o)
 .debug_info    0x00000000000ecbb4      0x10b c:/opt/bcc-2.0.2-gcc/bin/../sparc-gaisler-elf/bsp/leon2/leon/mfix-at697f\libbcc.a(int_leon2_handle.c.o)
 .debug_info    0x00000000000eccbf      0x10b c:/opt/bcc-2.0.2-gcc/bin/../sparc-gaisler-elf/bsp/leon2/leon/mfix-at697f\libbcc.a(con_handle.c.o)
 .debug_info    0x00000000000ecdca      0x118 c:/opt/bcc-2.0.2-gcc/bin/../sparc-gaisler-elf/bsp/leon2/leon/mfix-at697f\libbcc.a(timer_handle.c.o)
 .debug_info    0x00000000000ecee2      0x998 c:/opt/bcc-2.0.2-gcc/bin/../lib/gcc/sparc-gaisler-elf/7.2.0/../../../../sparc-gaisler-elf/lib/leon/mfix-at697f\libc.a(lib_a-atexit.o)
 .debug_info    0x00000000000ed87a      0x992 c:/opt/bcc-2.0.2-gcc/bin/../lib/gcc/sparc-gaisler-elf/7.2.0/../../../../sparc-gaisler-elf/lib/leon/mfix-at697f\libc.a(lib_a-errno.o)
 .debug_info    0x00000000000ee20c      0x9cb c:/opt/bcc-2.0.2-gcc/bin/../lib/gcc/sparc-gaisler-elf/7.2.0/../../../../sparc-gaisler-elf/lib/leon/mfix-at697f\libc.a(lib_a-exit.o)
 .debug_info    0x00000000000eebd7      0x964 c:/opt/bcc-2.0.2-gcc/bin/../lib/gcc/sparc-gaisler-elf/7.2.0/../../../../sparc-gaisler-elf/lib/leon/mfix-at697f\libc.a(lib_a-impure.o)
 .debug_info    0x00000000000ef53b      0x9ef c:/opt/bcc-2.0.2-gcc/bin/../lib/gcc/sparc-gaisler-elf/7.2.0/../../../../sparc-gaisler-elf/lib/leon/mfix-at697f\libc.a(lib_a-memcpy.o)
 .debug_info    0x00000000000eff2a      0xa0d c:/opt/bcc-2.0.2-gcc/bin/../lib/gcc/sparc-gaisler-elf/7.2.0/../../../../sparc-gaisler-elf/lib/leon/mfix-at697f\libc.a(lib_a-__atexit.o)
 .debug_info    0x00000000000f0937      0xa14 c:/opt/bcc-2.0.2-gcc/bin/../lib/gcc/sparc-gaisler-elf/7.2.0/../../../../sparc-gaisler-elf/lib/leon/mfix-at697f\libc.a(lib_a-__call_atexit.o)
 .debug_info    0x00000000000f134b       0xc2 c:/opt/bcc-2.0.2-gcc/bin/../sparc-gaisler-elf/bsp/leon2/leon/mfix-at697f\libbcc.a(_exit.S.o)

.debug_abbrev   0x0000000000000000     0x9a12
 *(.debug_abbrev)
 .debug_abbrev  0x0000000000000000       0x14 c:/opt/bcc-2.0.2-gcc/bin/../sparc-gaisler-elf/bsp/leon2/leon/mfix-at697f/trap_table_mvt.S.o
 .debug_abbrev  0x0000000000000014       0x14 c:/opt/bcc-2.0.2-gcc/bin/../sparc-gaisler-elf/bsp/leon2/leon/mfix-at697f/crt0.S.o
 .debug_abbrev  0x0000000000000028      0x352 C:\Users\ajarr\AppData\Local\Temp\cc6epILV.o
 .debug_abbrev  0x000000000000037a      0x34e C:\Users\ajarr\AppData\Local\Temp\ccIUYBk4.o
 .debug_abbrev  0x00000000000006c8      0x468 C:\Users\ajarr\AppData\Local\Temp\ccvsnmY2.o
 .debug_abbrev  0x0000000000000b30      0x4c8 C:\Users\ajarr\AppData\Local\Temp\cczww0RR.o
 .debug_abbrev  0x0000000000000ff8       0x14 C:\Users\ajarr\AppData\Local\Temp\ccXWfUhL.o
 .debug_abbrev  0x000000000000100c      0x2c0 C:\Users\ajarr\AppData\Local\Temp\ccm9LEki.o
 .debug_abbrev  0x00000000000012cc      0x33c C:\Users\ajarr\AppData\Local\Temp\cchY9yN1.o
 .debug_abbrev  0x0000000000001608      0x29a C:\Users\ajarr\AppData\Local\Temp\ccsnkR1R.o
 .debug_abbrev  0x00000000000018a2      0x298 C:\Users\ajarr\AppData\Local\Temp\ccTwgEYO.o
 .debug_abbrev  0x0000000000001b3a      0x2eb C:\Users\ajarr\AppData\Local\Temp\ccEKVXdT.o
 .debug_abbrev  0x0000000000001e25      0x2ed C:\Users\ajarr\AppData\Local\Temp\ccecVsE3.o
 .debug_abbrev  0x0000000000002112      0x31f C:\Users\ajarr\AppData\Local\Temp\ccoo9rYu.o
 .debug_abbrev  0x0000000000002431      0x30c C:\Users\ajarr\AppData\Local\Temp\cckLW0x4.o
 .debug_abbrev  0x000000000000273d      0x416 C:\Users\ajarr\AppData\Local\Temp\ccoK9PBU.o
 .debug_abbrev  0x0000000000002b53      0x2d7 C:\Users\ajarr\AppData\Local\Temp\ccc7OliV.o
 .debug_abbrev  0x0000000000002e2a      0x356 C:\Users\ajarr\AppData\Local\Temp\ccLBYgor.o
 .debug_abbrev  0x0000000000003180      0x2ca C:\Users\ajarr\AppData\Local\Temp\cc41N2oq.o
 .debug_abbrev  0x000000000000344a      0x15b C:\Users\ajarr\AppData\Local\Temp\cczww3Ay.o
 .debug_abbrev  0x00000000000035a5      0x354 C:\Users\ajarr\AppData\Local\Temp\ccJldDN1.o
 .debug_abbrev  0x00000000000038f9      0x2f5 C:\Users\ajarr\AppData\Local\Temp\ccnWSFNQ.o
 .debug_abbrev  0x0000000000003bee      0x27a C:\Users\ajarr\AppData\Local\Temp\ccegvyo6.o
 .debug_abbrev  0x0000000000003e68      0x415 C:\Users\ajarr\AppData\Local\Temp\ccyOpeqt.o
 .debug_abbrev  0x000000000000427d      0x15b C:\Users\ajarr\AppData\Local\Temp\cceA7QRW.o
 .debug_abbrev  0x00000000000043d8      0x400 C:\Users\ajarr\AppData\Local\Temp\ccExFPZ1.o
 .debug_abbrev  0x00000000000047d8      0x2b5 C:\Users\ajarr\AppData\Local\Temp\ccd1pLAc.o
 .debug_abbrev  0x0000000000004a8d       0x34 C:\Users\ajarr\AppData\Local\Temp\ccG5Eq4q.o
 .debug_abbrev  0x0000000000004ac1      0x216 c:/opt/bcc-2.0.2-gcc/bin/../lib/gcc/sparc-gaisler-elf/7.2.0/../../../../sparc-gaisler-elf/lib/leon/mfix-at697f\libm.a(lib_a-s_atan.o)
 .debug_abbrev  0x0000000000004cd7      0x1f3 c:/opt/bcc-2.0.2-gcc/bin/../lib/gcc/sparc-gaisler-elf/7.2.0/../../../../sparc-gaisler-elf/lib/leon/mfix-at697f\libm.a(lib_a-s_cos.o)
 .debug_abbrev  0x0000000000004eca      0x1d3 c:/opt/bcc-2.0.2-gcc/bin/../lib/gcc/sparc-gaisler-elf/7.2.0/../../../../sparc-gaisler-elf/lib/leon/mfix-at697f\libm.a(lib_a-s_fabs.o)
 .debug_abbrev  0x000000000000509d      0x1f1 c:/opt/bcc-2.0.2-gcc/bin/../lib/gcc/sparc-gaisler-elf/7.2.0/../../../../sparc-gaisler-elf/lib/leon/mfix-at697f\libm.a(lib_a-s_floor.o)
 .debug_abbrev  0x000000000000528e      0x1fa c:/opt/bcc-2.0.2-gcc/bin/../lib/gcc/sparc-gaisler-elf/7.2.0/../../../../sparc-gaisler-elf/lib/leon/mfix-at697f\libm.a(lib_a-s_round.o)
 .debug_abbrev  0x0000000000005488      0x1f3 c:/opt/bcc-2.0.2-gcc/bin/../lib/gcc/sparc-gaisler-elf/7.2.0/../../../../sparc-gaisler-elf/lib/leon/mfix-at697f\libm.a(lib_a-s_sin.o)
 .debug_abbrev  0x000000000000567b      0x1f3 c:/opt/bcc-2.0.2-gcc/bin/../lib/gcc/sparc-gaisler-elf/7.2.0/../../../../sparc-gaisler-elf/lib/leon/mfix-at697f\libm.a(lib_a-s_tan.o)
 .debug_abbrev  0x000000000000586e      0x1b4 c:/opt/bcc-2.0.2-gcc/bin/../lib/gcc/sparc-gaisler-elf/7.2.0/../../../../sparc-gaisler-elf/lib/leon/mfix-at697f\libm.a(lib_a-w_acos.o)
 .debug_abbrev  0x0000000000005a22      0x1b4 c:/opt/bcc-2.0.2-gcc/bin/../lib/gcc/sparc-gaisler-elf/7.2.0/../../../../sparc-gaisler-elf/lib/leon/mfix-at697f\libm.a(lib_a-w_asin.o)
 .debug_abbrev  0x0000000000005bd6      0x196 c:/opt/bcc-2.0.2-gcc/bin/../lib/gcc/sparc-gaisler-elf/7.2.0/../../../../sparc-gaisler-elf/lib/leon/mfix-at697f\libm.a(lib_a-w_atan2.o)
 .debug_abbrev  0x0000000000005d6c      0x1b4 c:/opt/bcc-2.0.2-gcc/bin/../lib/gcc/sparc-gaisler-elf/7.2.0/../../../../sparc-gaisler-elf/lib/leon/mfix-at697f\libm.a(lib_a-w_fmod.o)
 .debug_abbrev  0x0000000000005f20      0x1b4 c:/opt/bcc-2.0.2-gcc/bin/../lib/gcc/sparc-gaisler-elf/7.2.0/../../../../sparc-gaisler-elf/lib/leon/mfix-at697f\libm.a(lib_a-w_pow.o)
 .debug_abbrev  0x00000000000060d4      0x1b4 c:/opt/bcc-2.0.2-gcc/bin/../lib/gcc/sparc-gaisler-elf/7.2.0/../../../../sparc-gaisler-elf/lib/leon/mfix-at697f\libm.a(lib_a-w_sqrt.o)
 .debug_abbrev  0x0000000000006288      0x207 c:/opt/bcc-2.0.2-gcc/bin/../lib/gcc/sparc-gaisler-elf/7.2.0/../../../../sparc-gaisler-elf/lib/leon/mfix-at697f\libm.a(lib_a-e_acos.o)
 .debug_abbrev  0x000000000000648f      0x216 c:/opt/bcc-2.0.2-gcc/bin/../lib/gcc/sparc-gaisler-elf/7.2.0/../../../../sparc-gaisler-elf/lib/leon/mfix-at697f\libm.a(lib_a-e_asin.o)
 .debug_abbrev  0x00000000000066a5      0x227 c:/opt/bcc-2.0.2-gcc/bin/../lib/gcc/sparc-gaisler-elf/7.2.0/../../../../sparc-gaisler-elf/lib/leon/mfix-at697f\libm.a(lib_a-e_atan2.o)
 .debug_abbrev  0x00000000000068cc      0x211 c:/opt/bcc-2.0.2-gcc/bin/../lib/gcc/sparc-gaisler-elf/7.2.0/../../../../sparc-gaisler-elf/lib/leon/mfix-at697f\libm.a(lib_a-e_fmod.o)
 .debug_abbrev  0x0000000000006add      0x234 c:/opt/bcc-2.0.2-gcc/bin/../lib/gcc/sparc-gaisler-elf/7.2.0/../../../../sparc-gaisler-elf/lib/leon/mfix-at697f\libm.a(lib_a-e_pow.o)
 .debug_abbrev  0x0000000000006d11      0x235 c:/opt/bcc-2.0.2-gcc/bin/../lib/gcc/sparc-gaisler-elf/7.2.0/../../../../sparc-gaisler-elf/lib/leon/mfix-at697f\libm.a(lib_a-e_rem_pio2.o)
 .debug_abbrev  0x0000000000006f46      0x213 c:/opt/bcc-2.0.2-gcc/bin/../lib/gcc/sparc-gaisler-elf/7.2.0/../../../../sparc-gaisler-elf/lib/leon/mfix-at697f\libm.a(lib_a-e_sqrt.o)
 .debug_abbrev  0x0000000000007159      0x202 c:/opt/bcc-2.0.2-gcc/bin/../lib/gcc/sparc-gaisler-elf/7.2.0/../../../../sparc-gaisler-elf/lib/leon/mfix-at697f\libm.a(lib_a-k_cos.o)
 .debug_abbrev  0x000000000000735b      0x1fd c:/opt/bcc-2.0.2-gcc/bin/../lib/gcc/sparc-gaisler-elf/7.2.0/../../../../sparc-gaisler-elf/lib/leon/mfix-at697f\libm.a(lib_a-k_rem_pio2.o)
 .debug_abbrev  0x0000000000007558      0x1f7 c:/opt/bcc-2.0.2-gcc/bin/../lib/gcc/sparc-gaisler-elf/7.2.0/../../../../sparc-gaisler-elf/lib/leon/mfix-at697f\libm.a(lib_a-k_sin.o)
 .debug_abbrev  0x000000000000774f      0x207 c:/opt/bcc-2.0.2-gcc/bin/../lib/gcc/sparc-gaisler-elf/7.2.0/../../../../sparc-gaisler-elf/lib/leon/mfix-at697f\libm.a(lib_a-k_tan.o)
 .debug_abbrev  0x0000000000007956      0x1c6 c:/opt/bcc-2.0.2-gcc/bin/../lib/gcc/sparc-gaisler-elf/7.2.0/../../../../sparc-gaisler-elf/lib/leon/mfix-at697f\libm.a(lib_a-s_finite.o)
 .debug_abbrev  0x0000000000007b1c      0x163 c:/opt/bcc-2.0.2-gcc/bin/../lib/gcc/sparc-gaisler-elf/7.2.0/../../../../sparc-gaisler-elf/lib/leon/mfix-at697f\libm.a(lib_a-s_lib_ver.o)
 .debug_abbrev  0x0000000000007c7f      0x191 c:/opt/bcc-2.0.2-gcc/bin/../lib/gcc/sparc-gaisler-elf/7.2.0/../../../../sparc-gaisler-elf/lib/leon/mfix-at697f\libm.a(lib_a-s_matherr.o)
 .debug_abbrev  0x0000000000007e10      0x18f c:/opt/bcc-2.0.2-gcc/bin/../lib/gcc/sparc-gaisler-elf/7.2.0/../../../../sparc-gaisler-elf/lib/leon/mfix-at697f\libm.a(lib_a-s_nan.o)
 .debug_abbrev  0x0000000000007f9f      0x212 c:/opt/bcc-2.0.2-gcc/bin/../lib/gcc/sparc-gaisler-elf/7.2.0/../../../../sparc-gaisler-elf/lib/leon/mfix-at697f\libm.a(lib_a-s_rint.o)
 .debug_abbrev  0x00000000000081b1      0x202 c:/opt/bcc-2.0.2-gcc/bin/../lib/gcc/sparc-gaisler-elf/7.2.0/../../../../sparc-gaisler-elf/lib/leon/mfix-at697f\libm.a(lib_a-s_scalbn.o)
 .debug_abbrev  0x00000000000083b3      0x1e0 c:/opt/bcc-2.0.2-gcc/bin/../lib/gcc/sparc-gaisler-elf/7.2.0/../../../../sparc-gaisler-elf/lib/leon/mfix-at697f\libm.a(lib_a-s_copysign.o)
 .debug_abbrev  0x0000000000008593       0x14 c:/opt/bcc-2.0.2-gcc/bin/../sparc-gaisler-elf/bsp/leon2/leon/mfix-at697f\libbcc.a(reset_trap_mvt.S.o)
 .debug_abbrev  0x00000000000085a7       0x14 c:/opt/bcc-2.0.2-gcc/bin/../sparc-gaisler-elf/bsp/leon2/leon/mfix-at697f\libbcc.a(window_trap.S.o)
 .debug_abbrev  0x00000000000085bb       0x14 c:/opt/bcc-2.0.2-gcc/bin/../sparc-gaisler-elf/bsp/leon2/leon/mfix-at697f\libbcc.a(interrupt_trap.S.o)
 .debug_abbrev  0x00000000000085cf       0x14 c:/opt/bcc-2.0.2-gcc/bin/../sparc-gaisler-elf/bsp/leon2/leon/mfix-at697f\libbcc.a(flush_windows_trap.S.o)
 .debug_abbrev  0x00000000000085e3       0x14 c:/opt/bcc-2.0.2-gcc/bin/../sparc-gaisler-elf/bsp/leon2/leon/mfix-at697f\libbcc.a(sw_trap_set_pil.S.o)
 .debug_abbrev  0x00000000000085f7      0x17e c:/opt/bcc-2.0.2-gcc/bin/../sparc-gaisler-elf/bsp/leon2/leon/mfix-at697f\libbcc.a(trap.c.o)
 .debug_abbrev  0x0000000000008775      0x153 c:/opt/bcc-2.0.2-gcc/bin/../sparc-gaisler-elf/bsp/leon2/leon/mfix-at697f\libbcc.a(isr.c.o)
 .debug_abbrev  0x00000000000088c8       0x79 c:/opt/bcc-2.0.2-gcc/bin/../sparc-gaisler-elf/bsp/leon2/leon/mfix-at697f\libbcc.a(int_nest.c.o)
 .debug_abbrev  0x0000000000008941       0x14 c:/opt/bcc-2.0.2-gcc/bin/../sparc-gaisler-elf/bsp/leon2/leon/mfix-at697f\libbcc.a(init.S.o)
 .debug_abbrev  0x0000000000008955       0x14 c:/opt/bcc-2.0.2-gcc/bin/../sparc-gaisler-elf/bsp/leon2/leon/mfix-at697f\libbcc.a(leon_info.S.o)
 .debug_abbrev  0x0000000000008969       0x14 c:/opt/bcc-2.0.2-gcc/bin/../sparc-gaisler-elf/bsp/leon2/leon/mfix-at697f\libbcc.a(dwzero.S.o)
 .debug_abbrev  0x000000000000897d       0x7c c:/opt/bcc-2.0.2-gcc/bin/../sparc-gaisler-elf/bsp/leon2/leon/mfix-at697f\libbcc.a(copy_data.c.o)
 .debug_abbrev  0x00000000000089f9       0x14 c:/opt/bcc-2.0.2-gcc/bin/../sparc-gaisler-elf/bsp/leon2/leon/mfix-at697f\libbcc.a(lowlevel.S.o)
 .debug_abbrev  0x0000000000008a0d       0x14 c:/opt/bcc-2.0.2-gcc/bin/../sparc-gaisler-elf/bsp/leon2/leon/mfix-at697f\libbcc.a(lowlevel_leon2.S.o)
 .debug_abbrev  0x0000000000008a21      0x162 c:/opt/bcc-2.0.2-gcc/bin/../sparc-gaisler-elf/bsp/leon2/leon/mfix-at697f\libbcc.a(int_leon2.c.o)
 .debug_abbrev  0x0000000000008b83       0x47 c:/opt/bcc-2.0.2-gcc/bin/../sparc-gaisler-elf/bsp/leon2/leon/mfix-at697f\libbcc.a(int_leon2_get_source.c.o)
 .debug_abbrev  0x0000000000008bca       0x7e c:/opt/bcc-2.0.2-gcc/bin/../sparc-gaisler-elf/bsp/leon2/leon/mfix-at697f\libbcc.a(int_leon2_init.c.o)
 .debug_abbrev  0x0000000000008c48       0xd8 c:/opt/bcc-2.0.2-gcc/bin/../sparc-gaisler-elf/bsp/leon2/leon/mfix-at697f\libbcc.a(con_leon2.c.o)
 .debug_abbrev  0x0000000000008d20       0xec c:/opt/bcc-2.0.2-gcc/bin/../sparc-gaisler-elf/bsp/leon2/leon/mfix-at697f\libbcc.a(timer_leon2.c.o)
 .debug_abbrev  0x0000000000008e0c       0x14 c:/opt/bcc-2.0.2-gcc/bin/../sparc-gaisler-elf/bsp/leon2/leon/mfix-at697f\libbcc.a(set_pil.S.o)
 .debug_abbrev  0x0000000000008e20       0x5a c:/opt/bcc-2.0.2-gcc/bin/../sparc-gaisler-elf/bsp/leon2/leon/mfix-at697f\libbcc.a(int_leon2_handle.c.o)
 .debug_abbrev  0x0000000000008e7a       0x5a c:/opt/bcc-2.0.2-gcc/bin/../sparc-gaisler-elf/bsp/leon2/leon/mfix-at697f\libbcc.a(con_handle.c.o)
 .debug_abbrev  0x0000000000008ed4       0x5a c:/opt/bcc-2.0.2-gcc/bin/../sparc-gaisler-elf/bsp/leon2/leon/mfix-at697f\libbcc.a(timer_handle.c.o)
 .debug_abbrev  0x0000000000008f2e      0x188 c:/opt/bcc-2.0.2-gcc/bin/../lib/gcc/sparc-gaisler-elf/7.2.0/../../../../sparc-gaisler-elf/lib/leon/mfix-at697f\libc.a(lib_a-atexit.o)
 .debug_abbrev  0x00000000000090b6      0x166 c:/opt/bcc-2.0.2-gcc/bin/../lib/gcc/sparc-gaisler-elf/7.2.0/../../../../sparc-gaisler-elf/lib/leon/mfix-at697f\libc.a(lib_a-errno.o)
 .debug_abbrev  0x000000000000921c      0x16e c:/opt/bcc-2.0.2-gcc/bin/../lib/gcc/sparc-gaisler-elf/7.2.0/../../../../sparc-gaisler-elf/lib/leon/mfix-at697f\libc.a(lib_a-exit.o)
 .debug_abbrev  0x000000000000938a      0x14d c:/opt/bcc-2.0.2-gcc/bin/../lib/gcc/sparc-gaisler-elf/7.2.0/../../../../sparc-gaisler-elf/lib/leon/mfix-at697f\libc.a(lib_a-impure.o)
 .debug_abbrev  0x00000000000094d7      0x184 c:/opt/bcc-2.0.2-gcc/bin/../lib/gcc/sparc-gaisler-elf/7.2.0/../../../../sparc-gaisler-elf/lib/leon/mfix-at697f\libc.a(lib_a-memcpy.o)
 .debug_abbrev  0x000000000000965b      0x1cd c:/opt/bcc-2.0.2-gcc/bin/../lib/gcc/sparc-gaisler-elf/7.2.0/../../../../sparc-gaisler-elf/lib/leon/mfix-at697f\libc.a(lib_a-__atexit.o)
 .debug_abbrev  0x0000000000009828      0x1d6 c:/opt/bcc-2.0.2-gcc/bin/../lib/gcc/sparc-gaisler-elf/7.2.0/../../../../sparc-gaisler-elf/lib/leon/mfix-at697f\libc.a(lib_a-__call_atexit.o)
 .debug_abbrev  0x00000000000099fe       0x14 c:/opt/bcc-2.0.2-gcc/bin/../sparc-gaisler-elf/bsp/leon2/leon/mfix-at697f\libbcc.a(_exit.S.o)

.debug_line     0x0000000000000000    0x12afb
 *(.debug_line)
 .debug_line    0x0000000000000000       0xda c:/opt/bcc-2.0.2-gcc/bin/../sparc-gaisler-elf/bsp/leon2/leon/mfix-at697f/trap_table_mvt.S.o
 .debug_line    0x00000000000000da       0x84 c:/opt/bcc-2.0.2-gcc/bin/../sparc-gaisler-elf/bsp/leon2/leon/mfix-at697f/crt0.S.o
 .debug_line    0x000000000000015e      0x2f6 C:\Users\ajarr\AppData\Local\Temp\cc6epILV.o
 .debug_line    0x0000000000000454      0x2b6 C:\Users\ajarr\AppData\Local\Temp\ccIUYBk4.o
 .debug_line    0x000000000000070a     0x465c C:\Users\ajarr\AppData\Local\Temp\ccvsnmY2.o
 .debug_line    0x0000000000004d66      0xd03 C:\Users\ajarr\AppData\Local\Temp\cczww0RR.o
 .debug_line    0x0000000000005a69       0x47 C:\Users\ajarr\AppData\Local\Temp\ccXWfUhL.o
 .debug_line    0x0000000000005ab0      0x511 C:\Users\ajarr\AppData\Local\Temp\ccm9LEki.o
 .debug_line    0x0000000000005fc1      0x2ae C:\Users\ajarr\AppData\Local\Temp\cchY9yN1.o
 .debug_line    0x000000000000626f       0xfe C:\Users\ajarr\AppData\Local\Temp\ccsnkR1R.o
 .debug_line    0x000000000000636d       0xcf C:\Users\ajarr\AppData\Local\Temp\ccTwgEYO.o
 .debug_line    0x000000000000643c      0x16a C:\Users\ajarr\AppData\Local\Temp\ccEKVXdT.o
 .debug_line    0x00000000000065a6      0x34e C:\Users\ajarr\AppData\Local\Temp\ccecVsE3.o
 .debug_line    0x00000000000068f4      0x3b2 C:\Users\ajarr\AppData\Local\Temp\ccoo9rYu.o
 .debug_line    0x0000000000006ca6      0x24d C:\Users\ajarr\AppData\Local\Temp\cckLW0x4.o
 .debug_line    0x0000000000006ef3      0x33c C:\Users\ajarr\AppData\Local\Temp\ccoK9PBU.o
 .debug_line    0x000000000000722f      0x163 C:\Users\ajarr\AppData\Local\Temp\ccc7OliV.o
 .debug_line    0x0000000000007392      0x86b C:\Users\ajarr\AppData\Local\Temp\ccLBYgor.o
 .debug_line    0x0000000000007bfd      0x825 C:\Users\ajarr\AppData\Local\Temp\cc41N2oq.o
 .debug_line    0x0000000000008422       0x4b C:\Users\ajarr\AppData\Local\Temp\cczww3Ay.o
 .debug_line    0x000000000000846d      0x6b6 C:\Users\ajarr\AppData\Local\Temp\ccJldDN1.o
 .debug_line    0x0000000000008b23      0x3f8 C:\Users\ajarr\AppData\Local\Temp\ccnWSFNQ.o
 .debug_line    0x0000000000008f1b      0xd16 C:\Users\ajarr\AppData\Local\Temp\ccegvyo6.o
 .debug_line    0x0000000000009c31      0xd05 C:\Users\ajarr\AppData\Local\Temp\ccyOpeqt.o
 .debug_line    0x000000000000a936       0x51 C:\Users\ajarr\AppData\Local\Temp\cceA7QRW.o
 .debug_line    0x000000000000a987      0xbb2 C:\Users\ajarr\AppData\Local\Temp\ccExFPZ1.o
 .debug_line    0x000000000000b539      0x29d C:\Users\ajarr\AppData\Local\Temp\ccd1pLAc.o
 .debug_line    0x000000000000b7d6       0x50 C:\Users\ajarr\AppData\Local\Temp\ccG5Eq4q.o
 .debug_line    0x000000000000b826      0x2b6 c:/opt/bcc-2.0.2-gcc/bin/../lib/gcc/sparc-gaisler-elf/7.2.0/../../../../sparc-gaisler-elf/lib/leon/mfix-at697f\libm.a(lib_a-s_atan.o)
 .debug_line    0x000000000000badc      0x273 c:/opt/bcc-2.0.2-gcc/bin/../lib/gcc/sparc-gaisler-elf/7.2.0/../../../../sparc-gaisler-elf/lib/leon/mfix-at697f\libm.a(lib_a-s_cos.o)
 .debug_line    0x000000000000bd4f      0x260 c:/opt/bcc-2.0.2-gcc/bin/../lib/gcc/sparc-gaisler-elf/7.2.0/../../../../sparc-gaisler-elf/lib/leon/mfix-at697f\libm.a(lib_a-s_fabs.o)
 .debug_line    0x000000000000bfaf      0x295 c:/opt/bcc-2.0.2-gcc/bin/../lib/gcc/sparc-gaisler-elf/7.2.0/../../../../sparc-gaisler-elf/lib/leon/mfix-at697f\libm.a(lib_a-s_floor.o)
 .debug_line    0x000000000000c244      0x249 c:/opt/bcc-2.0.2-gcc/bin/../lib/gcc/sparc-gaisler-elf/7.2.0/../../../../sparc-gaisler-elf/lib/leon/mfix-at697f\libm.a(lib_a-s_round.o)
 .debug_line    0x000000000000c48d      0x274 c:/opt/bcc-2.0.2-gcc/bin/../lib/gcc/sparc-gaisler-elf/7.2.0/../../../../sparc-gaisler-elf/lib/leon/mfix-at697f\libm.a(lib_a-s_sin.o)
 .debug_line    0x000000000000c701      0x26e c:/opt/bcc-2.0.2-gcc/bin/../lib/gcc/sparc-gaisler-elf/7.2.0/../../../../sparc-gaisler-elf/lib/leon/mfix-at697f\libm.a(lib_a-s_tan.o)
 .debug_line    0x000000000000c96f      0x1de c:/opt/bcc-2.0.2-gcc/bin/../lib/gcc/sparc-gaisler-elf/7.2.0/../../../../sparc-gaisler-elf/lib/leon/mfix-at697f\libm.a(lib_a-w_acos.o)
 .debug_line    0x000000000000cb4d      0x1de c:/opt/bcc-2.0.2-gcc/bin/../lib/gcc/sparc-gaisler-elf/7.2.0/../../../../sparc-gaisler-elf/lib/leon/mfix-at697f\libm.a(lib_a-w_asin.o)
 .debug_line    0x000000000000cd2b      0x1c3 c:/opt/bcc-2.0.2-gcc/bin/../lib/gcc/sparc-gaisler-elf/7.2.0/../../../../sparc-gaisler-elf/lib/leon/mfix-at697f\libm.a(lib_a-w_atan2.o)
 .debug_line    0x000000000000ceee      0x1df c:/opt/bcc-2.0.2-gcc/bin/../lib/gcc/sparc-gaisler-elf/7.2.0/../../../../sparc-gaisler-elf/lib/leon/mfix-at697f\libm.a(lib_a-w_fmod.o)
 .debug_line    0x000000000000d0cd      0x257 c:/opt/bcc-2.0.2-gcc/bin/../lib/gcc/sparc-gaisler-elf/7.2.0/../../../../sparc-gaisler-elf/lib/leon/mfix-at697f\libm.a(lib_a-w_pow.o)
 .debug_line    0x000000000000d324      0x1d8 c:/opt/bcc-2.0.2-gcc/bin/../lib/gcc/sparc-gaisler-elf/7.2.0/../../../../sparc-gaisler-elf/lib/leon/mfix-at697f\libm.a(lib_a-w_sqrt.o)
 .debug_line    0x000000000000d4fc      0x2c7 c:/opt/bcc-2.0.2-gcc/bin/../lib/gcc/sparc-gaisler-elf/7.2.0/../../../../sparc-gaisler-elf/lib/leon/mfix-at697f\libm.a(lib_a-e_acos.o)
 .debug_line    0x000000000000d7c3      0x2bc c:/opt/bcc-2.0.2-gcc/bin/../lib/gcc/sparc-gaisler-elf/7.2.0/../../../../sparc-gaisler-elf/lib/leon/mfix-at697f\libm.a(lib_a-e_asin.o)
 .debug_line    0x000000000000da7f      0x2b1 c:/opt/bcc-2.0.2-gcc/bin/../lib/gcc/sparc-gaisler-elf/7.2.0/../../../../sparc-gaisler-elf/lib/leon/mfix-at697f\libm.a(lib_a-e_atan2.o)
 .debug_line    0x000000000000dd30      0x2d1 c:/opt/bcc-2.0.2-gcc/bin/../lib/gcc/sparc-gaisler-elf/7.2.0/../../../../sparc-gaisler-elf/lib/leon/mfix-at697f\libm.a(lib_a-e_fmod.o)
 .debug_line    0x000000000000e001      0x3c1 c:/opt/bcc-2.0.2-gcc/bin/../lib/gcc/sparc-gaisler-elf/7.2.0/../../../../sparc-gaisler-elf/lib/leon/mfix-at697f\libm.a(lib_a-e_pow.o)
 .debug_line    0x000000000000e3c2      0x2e1 c:/opt/bcc-2.0.2-gcc/bin/../lib/gcc/sparc-gaisler-elf/7.2.0/../../../../sparc-gaisler-elf/lib/leon/mfix-at697f\libm.a(lib_a-e_rem_pio2.o)
 .debug_line    0x000000000000e6a3      0x2b8 c:/opt/bcc-2.0.2-gcc/bin/../lib/gcc/sparc-gaisler-elf/7.2.0/../../../../sparc-gaisler-elf/lib/leon/mfix-at697f\libm.a(lib_a-e_sqrt.o)
 .debug_line    0x000000000000e95b      0x280 c:/opt/bcc-2.0.2-gcc/bin/../lib/gcc/sparc-gaisler-elf/7.2.0/../../../../sparc-gaisler-elf/lib/leon/mfix-at697f\libm.a(lib_a-k_cos.o)
 .debug_line    0x000000000000ebdb      0x339 c:/opt/bcc-2.0.2-gcc/bin/../lib/gcc/sparc-gaisler-elf/7.2.0/../../../../sparc-gaisler-elf/lib/leon/mfix-at697f\libm.a(lib_a-k_rem_pio2.o)
 .debug_line    0x000000000000ef14      0x270 c:/opt/bcc-2.0.2-gcc/bin/../lib/gcc/sparc-gaisler-elf/7.2.0/../../../../sparc-gaisler-elf/lib/leon/mfix-at697f\libm.a(lib_a-k_sin.o)
 .debug_line    0x000000000000f184      0x2a9 c:/opt/bcc-2.0.2-gcc/bin/../lib/gcc/sparc-gaisler-elf/7.2.0/../../../../sparc-gaisler-elf/lib/leon/mfix-at697f\libm.a(lib_a-k_tan.o)
 .debug_line    0x000000000000f42d      0x21f c:/opt/bcc-2.0.2-gcc/bin/../lib/gcc/sparc-gaisler-elf/7.2.0/../../../../sparc-gaisler-elf/lib/leon/mfix-at697f\libm.a(lib_a-s_finite.o)
 .debug_line    0x000000000000f64c      0x1ab c:/opt/bcc-2.0.2-gcc/bin/../lib/gcc/sparc-gaisler-elf/7.2.0/../../../../sparc-gaisler-elf/lib/leon/mfix-at697f\libm.a(lib_a-s_lib_ver.o)
 .debug_line    0x000000000000f7f7      0x1bc c:/opt/bcc-2.0.2-gcc/bin/../lib/gcc/sparc-gaisler-elf/7.2.0/../../../../sparc-gaisler-elf/lib/leon/mfix-at697f\libm.a(lib_a-s_matherr.o)
 .debug_line    0x000000000000f9b3      0x1b8 c:/opt/bcc-2.0.2-gcc/bin/../lib/gcc/sparc-gaisler-elf/7.2.0/../../../../sparc-gaisler-elf/lib/leon/mfix-at697f\libm.a(lib_a-s_nan.o)
 .debug_line    0x000000000000fb6b      0x253 c:/opt/bcc-2.0.2-gcc/bin/../lib/gcc/sparc-gaisler-elf/7.2.0/../../../../sparc-gaisler-elf/lib/leon/mfix-at697f\libm.a(lib_a-s_rint.o)
 .debug_line    0x000000000000fdbe      0x241 c:/opt/bcc-2.0.2-gcc/bin/../lib/gcc/sparc-gaisler-elf/7.2.0/../../../../sparc-gaisler-elf/lib/leon/mfix-at697f\libm.a(lib_a-s_scalbn.o)
 .debug_line    0x000000000000ffff      0x223 c:/opt/bcc-2.0.2-gcc/bin/../lib/gcc/sparc-gaisler-elf/7.2.0/../../../../sparc-gaisler-elf/lib/leon/mfix-at697f\libm.a(lib_a-s_copysign.o)
 .debug_line    0x0000000000010222       0x87 c:/opt/bcc-2.0.2-gcc/bin/../sparc-gaisler-elf/bsp/leon2/leon/mfix-at697f\libbcc.a(reset_trap_mvt.S.o)
 .debug_line    0x00000000000102a9       0x90 c:/opt/bcc-2.0.2-gcc/bin/../sparc-gaisler-elf/bsp/leon2/leon/mfix-at697f\libbcc.a(window_trap.S.o)
 .debug_line    0x0000000000010339       0xd4 c:/opt/bcc-2.0.2-gcc/bin/../sparc-gaisler-elf/bsp/leon2/leon/mfix-at697f\libbcc.a(interrupt_trap.S.o)
 .debug_line    0x000000000001040d       0x8d c:/opt/bcc-2.0.2-gcc/bin/../sparc-gaisler-elf/bsp/leon2/leon/mfix-at697f\libbcc.a(flush_windows_trap.S.o)
 .debug_line    0x000000000001049a       0x75 c:/opt/bcc-2.0.2-gcc/bin/../sparc-gaisler-elf/bsp/leon2/leon/mfix-at697f\libbcc.a(sw_trap_set_pil.S.o)
 .debug_line    0x000000000001050f      0x202 c:/opt/bcc-2.0.2-gcc/bin/../sparc-gaisler-elf/bsp/leon2/leon/mfix-at697f\libbcc.a(trap.c.o)
 .debug_line    0x0000000000010711      0x1ec c:/opt/bcc-2.0.2-gcc/bin/../sparc-gaisler-elf/bsp/leon2/leon/mfix-at697f\libbcc.a(isr.c.o)
 .debug_line    0x00000000000108fd      0x1aa c:/opt/bcc-2.0.2-gcc/bin/../sparc-gaisler-elf/bsp/leon2/leon/mfix-at697f\libbcc.a(int_nest.c.o)
 .debug_line    0x0000000000010aa7       0x5c c:/opt/bcc-2.0.2-gcc/bin/../sparc-gaisler-elf/bsp/leon2/leon/mfix-at697f\libbcc.a(init.S.o)
 .debug_line    0x0000000000010b03       0x7f c:/opt/bcc-2.0.2-gcc/bin/../sparc-gaisler-elf/bsp/leon2/leon/mfix-at697f\libbcc.a(leon_info.S.o)
 .debug_line    0x0000000000010b82       0x67 c:/opt/bcc-2.0.2-gcc/bin/../sparc-gaisler-elf/bsp/leon2/leon/mfix-at697f\libbcc.a(dwzero.S.o)
 .debug_line    0x0000000000010be9      0x1ac c:/opt/bcc-2.0.2-gcc/bin/../sparc-gaisler-elf/bsp/leon2/leon/mfix-at697f\libbcc.a(copy_data.c.o)
 .debug_line    0x0000000000010d95       0x7e c:/opt/bcc-2.0.2-gcc/bin/../sparc-gaisler-elf/bsp/leon2/leon/mfix-at697f\libbcc.a(lowlevel.S.o)
 .debug_line    0x0000000000010e13       0x78 c:/opt/bcc-2.0.2-gcc/bin/../sparc-gaisler-elf/bsp/leon2/leon/mfix-at697f\libbcc.a(lowlevel_leon2.S.o)
 .debug_line    0x0000000000010e8b      0x27f c:/opt/bcc-2.0.2-gcc/bin/../sparc-gaisler-elf/bsp/leon2/leon/mfix-at697f\libbcc.a(int_leon2.c.o)
 .debug_line    0x000000000001110a       0x76 c:/opt/bcc-2.0.2-gcc/bin/../sparc-gaisler-elf/bsp/leon2/leon/mfix-at697f\libbcc.a(int_leon2_get_source.c.o)
 .debug_line    0x0000000000011180      0x200 c:/opt/bcc-2.0.2-gcc/bin/../sparc-gaisler-elf/bsp/leon2/leon/mfix-at697f\libbcc.a(int_leon2_init.c.o)
 .debug_line    0x0000000000011380      0x246 c:/opt/bcc-2.0.2-gcc/bin/../sparc-gaisler-elf/bsp/leon2/leon/mfix-at697f\libbcc.a(con_leon2.c.o)
 .debug_line    0x00000000000115c6      0x243 c:/opt/bcc-2.0.2-gcc/bin/../sparc-gaisler-elf/bsp/leon2/leon/mfix-at697f\libbcc.a(timer_leon2.c.o)
 .debug_line    0x0000000000011809       0x60 c:/opt/bcc-2.0.2-gcc/bin/../sparc-gaisler-elf/bsp/leon2/leon/mfix-at697f\libbcc.a(set_pil.S.o)
 .debug_line    0x0000000000011869      0x1e9 c:/opt/bcc-2.0.2-gcc/bin/../sparc-gaisler-elf/bsp/leon2/leon/mfix-at697f\libbcc.a(int_leon2_handle.c.o)
 .debug_line    0x0000000000011a52      0x1e1 c:/opt/bcc-2.0.2-gcc/bin/../sparc-gaisler-elf/bsp/leon2/leon/mfix-at697f\libbcc.a(con_handle.c.o)
 .debug_line    0x0000000000011c33      0x1e1 c:/opt/bcc-2.0.2-gcc/bin/../sparc-gaisler-elf/bsp/leon2/leon/mfix-at697f\libbcc.a(timer_handle.c.o)
 .debug_line    0x0000000000011e14      0x1c6 c:/opt/bcc-2.0.2-gcc/bin/../lib/gcc/sparc-gaisler-elf/7.2.0/../../../../sparc-gaisler-elf/lib/leon/mfix-at697f\libc.a(lib_a-atexit.o)
 .debug_line    0x0000000000011fda      0x17c c:/opt/bcc-2.0.2-gcc/bin/../lib/gcc/sparc-gaisler-elf/7.2.0/../../../../sparc-gaisler-elf/lib/leon/mfix-at697f\libc.a(lib_a-errno.o)
 .debug_line    0x0000000000012156      0x1c7 c:/opt/bcc-2.0.2-gcc/bin/../lib/gcc/sparc-gaisler-elf/7.2.0/../../../../sparc-gaisler-elf/lib/leon/mfix-at697f\libc.a(lib_a-exit.o)
 .debug_line    0x000000000001231d      0x161 c:/opt/bcc-2.0.2-gcc/bin/../lib/gcc/sparc-gaisler-elf/7.2.0/../../../../sparc-gaisler-elf/lib/leon/mfix-at697f\libc.a(lib_a-impure.o)
 .debug_line    0x000000000001247e      0x1ed c:/opt/bcc-2.0.2-gcc/bin/../lib/gcc/sparc-gaisler-elf/7.2.0/../../../../sparc-gaisler-elf/lib/leon/mfix-at697f\libc.a(lib_a-memcpy.o)
 .debug_line    0x000000000001266b      0x202 c:/opt/bcc-2.0.2-gcc/bin/../lib/gcc/sparc-gaisler-elf/7.2.0/../../../../sparc-gaisler-elf/lib/leon/mfix-at697f\libc.a(lib_a-__atexit.o)
 .debug_line    0x000000000001286d      0x22d c:/opt/bcc-2.0.2-gcc/bin/../lib/gcc/sparc-gaisler-elf/7.2.0/../../../../sparc-gaisler-elf/lib/leon/mfix-at697f\libc.a(lib_a-__call_atexit.o)
 .debug_line    0x0000000000012a9a       0x61 c:/opt/bcc-2.0.2-gcc/bin/../sparc-gaisler-elf/bsp/leon2/leon/mfix-at697f\libbcc.a(_exit.S.o)

.debug_frame    0x0000000000000000     0x2830
 *(.debug_frame)
 .debug_frame   0x0000000000000000       0x60 C:\Users\ajarr\AppData\Local\Temp\cc6epILV.o
 .debug_frame   0x0000000000000060       0xdc C:\Users\ajarr\AppData\Local\Temp\ccIUYBk4.o
 .debug_frame   0x000000000000013c      0x1e0 C:\Users\ajarr\AppData\Local\Temp\ccvsnmY2.o
 .debug_frame   0x000000000000031c      0xdf0 C:\Users\ajarr\AppData\Local\Temp\cczww0RR.o
 .debug_frame   0x000000000000110c       0x28 C:\Users\ajarr\AppData\Local\Temp\ccm9LEki.o
 .debug_frame   0x0000000000001134      0x140 C:\Users\ajarr\AppData\Local\Temp\cchY9yN1.o
 .debug_frame   0x0000000000001274       0x50 C:\Users\ajarr\AppData\Local\Temp\ccsnkR1R.o
 .debug_frame   0x00000000000012c4       0x38 C:\Users\ajarr\AppData\Local\Temp\ccTwgEYO.o
 .debug_frame   0x00000000000012fc       0x60 C:\Users\ajarr\AppData\Local\Temp\ccEKVXdT.o
 .debug_frame   0x000000000000135c       0xa8 C:\Users\ajarr\AppData\Local\Temp\ccecVsE3.o
 .debug_frame   0x0000000000001404      0x218 C:\Users\ajarr\AppData\Local\Temp\ccoo9rYu.o
 .debug_frame   0x000000000000161c       0x68 C:\Users\ajarr\AppData\Local\Temp\cckLW0x4.o
 .debug_frame   0x0000000000001684      0x108 C:\Users\ajarr\AppData\Local\Temp\ccoK9PBU.o
 .debug_frame   0x000000000000178c      0x108 C:\Users\ajarr\AppData\Local\Temp\ccc7OliV.o
 .debug_frame   0x0000000000001894       0xb0 C:\Users\ajarr\AppData\Local\Temp\ccLBYgor.o
 .debug_frame   0x0000000000001944       0xd0 C:\Users\ajarr\AppData\Local\Temp\cc41N2oq.o
 .debug_frame   0x0000000000001a14       0xb0 C:\Users\ajarr\AppData\Local\Temp\ccJldDN1.o
 .debug_frame   0x0000000000001ac4       0xc4 C:\Users\ajarr\AppData\Local\Temp\ccnWSFNQ.o
 .debug_frame   0x0000000000001b88       0x28 C:\Users\ajarr\AppData\Local\Temp\ccegvyo6.o
 .debug_frame   0x0000000000001bb0      0x1c8 C:\Users\ajarr\AppData\Local\Temp\ccyOpeqt.o
 .debug_frame   0x0000000000001d78      0x170 C:\Users\ajarr\AppData\Local\Temp\ccExFPZ1.o
 .debug_frame   0x0000000000001ee8      0x150 C:\Users\ajarr\AppData\Local\Temp\ccd1pLAc.o
 .debug_frame   0x0000000000002038      0x130 C:\Users\ajarr\AppData\Local\Temp\ccG5Eq4q.o
 .debug_frame   0x0000000000002168       0x28 c:/opt/bcc-2.0.2-gcc/bin/../lib/gcc/sparc-gaisler-elf/7.2.0/../../../../sparc-gaisler-elf/lib/leon/mfix-at697f\libm.a(lib_a-s_atan.o)
 .debug_frame   0x0000000000002190       0x28 c:/opt/bcc-2.0.2-gcc/bin/../lib/gcc/sparc-gaisler-elf/7.2.0/../../../../sparc-gaisler-elf/lib/leon/mfix-at697f\libm.a(lib_a-s_cos.o)
 .debug_frame   0x00000000000021b8       0x24 c:/opt/bcc-2.0.2-gcc/bin/../lib/gcc/sparc-gaisler-elf/7.2.0/../../../../sparc-gaisler-elf/lib/leon/mfix-at697f\libm.a(lib_a-s_fabs.o)
 .debug_frame   0x00000000000021dc       0x24 c:/opt/bcc-2.0.2-gcc/bin/../lib/gcc/sparc-gaisler-elf/7.2.0/../../../../sparc-gaisler-elf/lib/leon/mfix-at697f\libm.a(lib_a-s_floor.o)
 .debug_frame   0x0000000000002200       0x24 c:/opt/bcc-2.0.2-gcc/bin/../lib/gcc/sparc-gaisler-elf/7.2.0/../../../../sparc-gaisler-elf/lib/leon/mfix-at697f\libm.a(lib_a-s_round.o)
 .debug_frame   0x0000000000002224       0x28 c:/opt/bcc-2.0.2-gcc/bin/../lib/gcc/sparc-gaisler-elf/7.2.0/../../../../sparc-gaisler-elf/lib/leon/mfix-at697f\libm.a(lib_a-s_sin.o)
 .debug_frame   0x000000000000224c       0x28 c:/opt/bcc-2.0.2-gcc/bin/../lib/gcc/sparc-gaisler-elf/7.2.0/../../../../sparc-gaisler-elf/lib/leon/mfix-at697f\libm.a(lib_a-s_tan.o)
 .debug_frame   0x0000000000002274       0x28 c:/opt/bcc-2.0.2-gcc/bin/../lib/gcc/sparc-gaisler-elf/7.2.0/../../../../sparc-gaisler-elf/lib/leon/mfix-at697f\libm.a(lib_a-w_acos.o)
 .debug_frame   0x000000000000229c       0x28 c:/opt/bcc-2.0.2-gcc/bin/../lib/gcc/sparc-gaisler-elf/7.2.0/../../../../sparc-gaisler-elf/lib/leon/mfix-at697f\libm.a(lib_a-w_asin.o)
 .debug_frame   0x00000000000022c4       0x20 c:/opt/bcc-2.0.2-gcc/bin/../lib/gcc/sparc-gaisler-elf/7.2.0/../../../../sparc-gaisler-elf/lib/leon/mfix-at697f\libm.a(lib_a-w_atan2.o)
 .debug_frame   0x00000000000022e4       0x28 c:/opt/bcc-2.0.2-gcc/bin/../lib/gcc/sparc-gaisler-elf/7.2.0/../../../../sparc-gaisler-elf/lib/leon/mfix-at697f\libm.a(lib_a-w_fmod.o)
 .debug_frame   0x000000000000230c       0x28 c:/opt/bcc-2.0.2-gcc/bin/../lib/gcc/sparc-gaisler-elf/7.2.0/../../../../sparc-gaisler-elf/lib/leon/mfix-at697f\libm.a(lib_a-w_pow.o)
 .debug_frame   0x0000000000002334       0x28 c:/opt/bcc-2.0.2-gcc/bin/../lib/gcc/sparc-gaisler-elf/7.2.0/../../../../sparc-gaisler-elf/lib/leon/mfix-at697f\libm.a(lib_a-w_sqrt.o)
 .debug_frame   0x000000000000235c       0x28 c:/opt/bcc-2.0.2-gcc/bin/../lib/gcc/sparc-gaisler-elf/7.2.0/../../../../sparc-gaisler-elf/lib/leon/mfix-at697f\libm.a(lib_a-e_acos.o)
 .debug_frame   0x0000000000002384       0x28 c:/opt/bcc-2.0.2-gcc/bin/../lib/gcc/sparc-gaisler-elf/7.2.0/../../../../sparc-gaisler-elf/lib/leon/mfix-at697f\libm.a(lib_a-e_asin.o)
 .debug_frame   0x00000000000023ac       0x28 c:/opt/bcc-2.0.2-gcc/bin/../lib/gcc/sparc-gaisler-elf/7.2.0/../../../../sparc-gaisler-elf/lib/leon/mfix-at697f\libm.a(lib_a-e_atan2.o)
 .debug_frame   0x00000000000023d4       0x24 c:/opt/bcc-2.0.2-gcc/bin/../lib/gcc/sparc-gaisler-elf/7.2.0/../../../../sparc-gaisler-elf/lib/leon/mfix-at697f\libm.a(lib_a-e_fmod.o)
 .debug_frame   0x00000000000023f8       0x28 c:/opt/bcc-2.0.2-gcc/bin/../lib/gcc/sparc-gaisler-elf/7.2.0/../../../../sparc-gaisler-elf/lib/leon/mfix-at697f\libm.a(lib_a-e_pow.o)
 .debug_frame   0x0000000000002420       0x28 c:/opt/bcc-2.0.2-gcc/bin/../lib/gcc/sparc-gaisler-elf/7.2.0/../../../../sparc-gaisler-elf/lib/leon/mfix-at697f\libm.a(lib_a-e_rem_pio2.o)
 .debug_frame   0x0000000000002448       0x28 c:/opt/bcc-2.0.2-gcc/bin/../lib/gcc/sparc-gaisler-elf/7.2.0/../../../../sparc-gaisler-elf/lib/leon/mfix-at697f\libm.a(lib_a-e_sqrt.o)
 .debug_frame   0x0000000000002470       0x24 c:/opt/bcc-2.0.2-gcc/bin/../lib/gcc/sparc-gaisler-elf/7.2.0/../../../../sparc-gaisler-elf/lib/leon/mfix-at697f\libm.a(lib_a-k_cos.o)
 .debug_frame   0x0000000000002494       0x28 c:/opt/bcc-2.0.2-gcc/bin/../lib/gcc/sparc-gaisler-elf/7.2.0/../../../../sparc-gaisler-elf/lib/leon/mfix-at697f\libm.a(lib_a-k_rem_pio2.o)
 .debug_frame   0x00000000000024bc       0x24 c:/opt/bcc-2.0.2-gcc/bin/../lib/gcc/sparc-gaisler-elf/7.2.0/../../../../sparc-gaisler-elf/lib/leon/mfix-at697f\libm.a(lib_a-k_sin.o)
 .debug_frame   0x00000000000024e0       0x28 c:/opt/bcc-2.0.2-gcc/bin/../lib/gcc/sparc-gaisler-elf/7.2.0/../../../../sparc-gaisler-elf/lib/leon/mfix-at697f\libm.a(lib_a-k_tan.o)
 .debug_frame   0x0000000000002508       0x20 c:/opt/bcc-2.0.2-gcc/bin/../lib/gcc/sparc-gaisler-elf/7.2.0/../../../../sparc-gaisler-elf/lib/leon/mfix-at697f\libm.a(lib_a-s_finite.o)
 .debug_frame   0x0000000000002528       0x20 c:/opt/bcc-2.0.2-gcc/bin/../lib/gcc/sparc-gaisler-elf/7.2.0/../../../../sparc-gaisler-elf/lib/leon/mfix-at697f\libm.a(lib_a-s_matherr.o)
 .debug_frame   0x0000000000002548       0x20 c:/opt/bcc-2.0.2-gcc/bin/../lib/gcc/sparc-gaisler-elf/7.2.0/../../../../sparc-gaisler-elf/lib/leon/mfix-at697f\libm.a(lib_a-s_nan.o)
 .debug_frame   0x0000000000002568       0x24 c:/opt/bcc-2.0.2-gcc/bin/../lib/gcc/sparc-gaisler-elf/7.2.0/../../../../sparc-gaisler-elf/lib/leon/mfix-at697f\libm.a(lib_a-s_rint.o)
 .debug_frame   0x000000000000258c       0x28 c:/opt/bcc-2.0.2-gcc/bin/../lib/gcc/sparc-gaisler-elf/7.2.0/../../../../sparc-gaisler-elf/lib/leon/mfix-at697f\libm.a(lib_a-s_scalbn.o)
 .debug_frame   0x00000000000025b4       0x24 c:/opt/bcc-2.0.2-gcc/bin/../lib/gcc/sparc-gaisler-elf/7.2.0/../../../../sparc-gaisler-elf/lib/leon/mfix-at697f\libm.a(lib_a-s_copysign.o)
 .debug_frame   0x00000000000025d8       0x28 c:/opt/bcc-2.0.2-gcc/bin/../sparc-gaisler-elf/bsp/leon2/leon/mfix-at697f\libbcc.a(trap.c.o)
 .debug_frame   0x0000000000002600       0x20 c:/opt/bcc-2.0.2-gcc/bin/../sparc-gaisler-elf/bsp/leon2/leon/mfix-at697f\libbcc.a(copy_data.c.o)
 .debug_frame   0x0000000000002620       0x80 c:/opt/bcc-2.0.2-gcc/bin/../sparc-gaisler-elf/bsp/leon2/leon/mfix-at697f\libbcc.a(int_leon2.c.o)
 .debug_frame   0x00000000000026a0       0x20 c:/opt/bcc-2.0.2-gcc/bin/../sparc-gaisler-elf/bsp/leon2/leon/mfix-at697f\libbcc.a(int_leon2_get_source.c.o)
 .debug_frame   0x00000000000026c0       0x20 c:/opt/bcc-2.0.2-gcc/bin/../sparc-gaisler-elf/bsp/leon2/leon/mfix-at697f\libbcc.a(int_leon2_init.c.o)
 .debug_frame   0x00000000000026e0       0x40 c:/opt/bcc-2.0.2-gcc/bin/../sparc-gaisler-elf/bsp/leon2/leon/mfix-at697f\libbcc.a(con_leon2.c.o)
 .debug_frame   0x0000000000002720       0x30 c:/opt/bcc-2.0.2-gcc/bin/../sparc-gaisler-elf/bsp/leon2/leon/mfix-at697f\libbcc.a(timer_leon2.c.o)
 .debug_frame   0x0000000000002750       0x20 c:/opt/bcc-2.0.2-gcc/bin/../lib/gcc/sparc-gaisler-elf/7.2.0/../../../../sparc-gaisler-elf/lib/leon/mfix-at697f\libc.a(lib_a-atexit.o)
 .debug_frame   0x0000000000002770       0x20 c:/opt/bcc-2.0.2-gcc/bin/../lib/gcc/sparc-gaisler-elf/7.2.0/../../../../sparc-gaisler-elf/lib/leon/mfix-at697f\libc.a(lib_a-errno.o)
 .debug_frame   0x0000000000002790       0x28 c:/opt/bcc-2.0.2-gcc/bin/../lib/gcc/sparc-gaisler-elf/7.2.0/../../../../sparc-gaisler-elf/lib/leon/mfix-at697f\libc.a(lib_a-exit.o)
 .debug_frame   0x00000000000027b8       0x28 c:/opt/bcc-2.0.2-gcc/bin/../lib/gcc/sparc-gaisler-elf/7.2.0/../../../../sparc-gaisler-elf/lib/leon/mfix-at697f\libc.a(lib_a-memcpy.o)
 .debug_frame   0x00000000000027e0       0x28 c:/opt/bcc-2.0.2-gcc/bin/../lib/gcc/sparc-gaisler-elf/7.2.0/../../../../sparc-gaisler-elf/lib/leon/mfix-at697f\libc.a(lib_a-__atexit.o)
 .debug_frame   0x0000000000002808       0x28 c:/opt/bcc-2.0.2-gcc/bin/../lib/gcc/sparc-gaisler-elf/7.2.0/../../../../sparc-gaisler-elf/lib/leon/mfix-at697f\libc.a(lib_a-__call_atexit.o)

.debug_str      0x0000000000000000     0xc462
 *(.debug_str)
 .debug_str     0x0000000000000000     0x70cd C:\Users\ajarr\AppData\Local\Temp\cc6epILV.o
                                       0x7678 (size before relaxing)
 .debug_str     0x00000000000070cd      0x510 C:\Users\ajarr\AppData\Local\Temp\ccIUYBk4.o
                                       0x774e (size before relaxing)
 .debug_str     0x00000000000075dd      0x3f8 C:\Users\ajarr\AppData\Local\Temp\ccvsnmY2.o
                                       0x7e02 (size before relaxing)
 .debug_str     0x00000000000079d5     0x12b5 C:\Users\ajarr\AppData\Local\Temp\cczww0RR.o
                                       0x8d34 (size before relaxing)
 .debug_str     0x0000000000008c8a       0x1c C:\Users\ajarr\AppData\Local\Temp\ccm9LEki.o
                                       0x7a50 (size before relaxing)
 .debug_str     0x0000000000008ca6      0x3cd C:\Users\ajarr\AppData\Local\Temp\cchY9yN1.o
                                       0x7987 (size before relaxing)
 .debug_str     0x0000000000009073       0x9a C:\Users\ajarr\AppData\Local\Temp\ccsnkR1R.o
                                       0x453f (size before relaxing)
 .debug_str     0x000000000000910d       0x67 C:\Users\ajarr\AppData\Local\Temp\ccTwgEYO.o
                                       0x5509 (size before relaxing)
 .debug_str     0x0000000000009174      0x206 C:\Users\ajarr\AppData\Local\Temp\ccEKVXdT.o
                                       0x5628 (size before relaxing)
 .debug_str     0x000000000000937a      0x300 C:\Users\ajarr\AppData\Local\Temp\ccecVsE3.o
                                       0x74d9 (size before relaxing)
 .debug_str     0x000000000000967a      0x3f2 C:\Users\ajarr\AppData\Local\Temp\ccoo9rYu.o
                                       0x48ab (size before relaxing)
 .debug_str     0x0000000000009a6c       0x78 C:\Users\ajarr\AppData\Local\Temp\cckLW0x4.o
                                       0x7611 (size before relaxing)
 .debug_str     0x0000000000009ae4      0x563 C:\Users\ajarr\AppData\Local\Temp\ccoK9PBU.o
                                       0x4d4a (size before relaxing)
 .debug_str     0x000000000000a047      0x1a3 C:\Users\ajarr\AppData\Local\Temp\ccc7OliV.o
                                       0x4261 (size before relaxing)
 .debug_str     0x000000000000a1ea       0x9d C:\Users\ajarr\AppData\Local\Temp\ccLBYgor.o
                                       0x7abc (size before relaxing)
 .debug_str     0x000000000000a287       0xa7 C:\Users\ajarr\AppData\Local\Temp\cc41N2oq.o
                                       0x74d6 (size before relaxing)
 .debug_str     0x000000000000a32e       0x11 C:\Users\ajarr\AppData\Local\Temp\cczww3Ay.o
                                       0x339b (size before relaxing)
 .debug_str     0x000000000000a33f       0xb9 C:\Users\ajarr\AppData\Local\Temp\ccJldDN1.o
                                       0x6ddb (size before relaxing)
 .debug_str     0x000000000000a3f8      0x106 C:\Users\ajarr\AppData\Local\Temp\ccnWSFNQ.o
                                       0x7b25 (size before relaxing)
 .debug_str     0x000000000000a4fe       0x1c C:\Users\ajarr\AppData\Local\Temp\ccegvyo6.o
                                       0x5b5e (size before relaxing)
 .debug_str     0x000000000000a51a      0x1ce C:\Users\ajarr\AppData\Local\Temp\ccyOpeqt.o
                                       0x7ce5 (size before relaxing)
 .debug_str     0x000000000000a6e8       0x7c C:\Users\ajarr\AppData\Local\Temp\cceA7QRW.o
                                       0x3406 (size before relaxing)
 .debug_str     0x000000000000a764       0xff C:\Users\ajarr\AppData\Local\Temp\ccExFPZ1.o
                                       0x7b2f (size before relaxing)
 .debug_str     0x000000000000a863      0x169 C:\Users\ajarr\AppData\Local\Temp\ccd1pLAc.o
                                       0x39bf (size before relaxing)
 .debug_str     0x000000000000a9cc      0x1e7 C:\Users\ajarr\AppData\Local\Temp\ccG5Eq4q.o
                                        0x241 (size before relaxing)
 .debug_str     0x000000000000abb3      0x184 c:/opt/bcc-2.0.2-gcc/bin/../lib/gcc/sparc-gaisler-elf/7.2.0/../../../../sparc-gaisler-elf/lib/leon/mfix-at697f\libm.a(lib_a-s_atan.o)
                                        0x682 (size before relaxing)
 .debug_str     0x000000000000ad37       0x41 c:/opt/bcc-2.0.2-gcc/bin/../lib/gcc/sparc-gaisler-elf/7.2.0/../../../../sparc-gaisler-elf/lib/leon/mfix-at697f\libm.a(lib_a-s_cos.o)
                                        0x664 (size before relaxing)
 .debug_str     0x000000000000ad78       0x51 c:/opt/bcc-2.0.2-gcc/bin/../lib/gcc/sparc-gaisler-elf/7.2.0/../../../../sparc-gaisler-elf/lib/leon/mfix-at697f\libm.a(lib_a-s_fabs.o)
                                        0x66a (size before relaxing)
 .debug_str     0x000000000000adc9       0x53 c:/opt/bcc-2.0.2-gcc/bin/../lib/gcc/sparc-gaisler-elf/7.2.0/../../../../sparc-gaisler-elf/lib/leon/mfix-at697f\libm.a(lib_a-s_floor.o)
                                        0x676 (size before relaxing)
 .debug_str     0x000000000000ae1c      0x10a c:/opt/bcc-2.0.2-gcc/bin/../lib/gcc/sparc-gaisler-elf/7.2.0/../../../../sparc-gaisler-elf/lib/leon/mfix-at697f\libm.a(lib_a-s_round.o)
                                        0x696 (size before relaxing)
 .debug_str     0x000000000000af26       0x41 c:/opt/bcc-2.0.2-gcc/bin/../lib/gcc/sparc-gaisler-elf/7.2.0/../../../../sparc-gaisler-elf/lib/leon/mfix-at697f\libm.a(lib_a-s_sin.o)
                                        0x664 (size before relaxing)
 .debug_str     0x000000000000af67       0x41 c:/opt/bcc-2.0.2-gcc/bin/../lib/gcc/sparc-gaisler-elf/7.2.0/../../../../sparc-gaisler-elf/lib/leon/mfix-at697f\libm.a(lib_a-s_tan.o)
                                        0x664 (size before relaxing)
 .debug_str     0x000000000000afa8       0x79 c:/opt/bcc-2.0.2-gcc/bin/../lib/gcc/sparc-gaisler-elf/7.2.0/../../../../sparc-gaisler-elf/lib/leon/mfix-at697f\libm.a(lib_a-w_acos.o)
                                        0x669 (size before relaxing)
 .debug_str     0x000000000000b021       0x42 c:/opt/bcc-2.0.2-gcc/bin/../lib/gcc/sparc-gaisler-elf/7.2.0/../../../../sparc-gaisler-elf/lib/leon/mfix-at697f\libm.a(lib_a-w_asin.o)
                                        0x669 (size before relaxing)
 .debug_str     0x000000000000b063       0x43 c:/opt/bcc-2.0.2-gcc/bin/../lib/gcc/sparc-gaisler-elf/7.2.0/../../../../sparc-gaisler-elf/lib/leon/mfix-at697f\libm.a(lib_a-w_atan2.o)
                                        0x646 (size before relaxing)
 .debug_str     0x000000000000b0a6       0x42 c:/opt/bcc-2.0.2-gcc/bin/../lib/gcc/sparc-gaisler-elf/7.2.0/../../../../sparc-gaisler-elf/lib/leon/mfix-at697f\libm.a(lib_a-w_fmod.o)
                                        0x669 (size before relaxing)
 .debug_str     0x000000000000b0e8       0x41 c:/opt/bcc-2.0.2-gcc/bin/../lib/gcc/sparc-gaisler-elf/7.2.0/../../../../sparc-gaisler-elf/lib/leon/mfix-at697f\libm.a(lib_a-w_pow.o)
                                        0x663 (size before relaxing)
 .debug_str     0x000000000000b129       0x42 c:/opt/bcc-2.0.2-gcc/bin/../lib/gcc/sparc-gaisler-elf/7.2.0/../../../../sparc-gaisler-elf/lib/leon/mfix-at697f\libm.a(lib_a-w_sqrt.o)
                                        0x669 (size before relaxing)
 .debug_str     0x000000000000b16b       0x66 c:/opt/bcc-2.0.2-gcc/bin/../lib/gcc/sparc-gaisler-elf/7.2.0/../../../../sparc-gaisler-elf/lib/leon/mfix-at697f\libm.a(lib_a-e_acos.o)
                                        0x68e (size before relaxing)
 .debug_str     0x000000000000b1d1       0x59 c:/opt/bcc-2.0.2-gcc/bin/../lib/gcc/sparc-gaisler-elf/7.2.0/../../../../sparc-gaisler-elf/lib/leon/mfix-at697f\libm.a(lib_a-e_asin.o)
                                        0x69b (size before relaxing)
 .debug_str     0x000000000000b22a       0x71 c:/opt/bcc-2.0.2-gcc/bin/../lib/gcc/sparc-gaisler-elf/7.2.0/../../../../sparc-gaisler-elf/lib/leon/mfix-at697f\libm.a(lib_a-e_atan2.o)
                                        0x69e (size before relaxing)
 .debug_str     0x000000000000b29b       0x56 c:/opt/bcc-2.0.2-gcc/bin/../lib/gcc/sparc-gaisler-elf/7.2.0/../../../../sparc-gaisler-elf/lib/leon/mfix-at697f\libm.a(lib_a-e_fmod.o)
                                        0x67e (size before relaxing)
 .debug_str     0x000000000000b2f1       0x92 c:/opt/bcc-2.0.2-gcc/bin/../lib/gcc/sparc-gaisler-elf/7.2.0/../../../../sparc-gaisler-elf/lib/leon/mfix-at697f\libm.a(lib_a-e_pow.o)
                                        0x6d3 (size before relaxing)
 .debug_str     0x000000000000b383       0xae c:/opt/bcc-2.0.2-gcc/bin/../lib/gcc/sparc-gaisler-elf/7.2.0/../../../../sparc-gaisler-elf/lib/leon/mfix-at697f\libm.a(lib_a-e_rem_pio2.o)
                                        0x6ea (size before relaxing)
 .debug_str     0x000000000000b431       0x51 c:/opt/bcc-2.0.2-gcc/bin/../lib/gcc/sparc-gaisler-elf/7.2.0/../../../../sparc-gaisler-elf/lib/leon/mfix-at697f\libm.a(lib_a-e_sqrt.o)
                                        0x683 (size before relaxing)
 .debug_str     0x000000000000b482       0x4e c:/opt/bcc-2.0.2-gcc/bin/../lib/gcc/sparc-gaisler-elf/7.2.0/../../../../sparc-gaisler-elf/lib/leon/mfix-at697f\libm.a(lib_a-k_cos.o)
                                        0x676 (size before relaxing)
 .debug_str     0x000000000000b4d0       0x82 c:/opt/bcc-2.0.2-gcc/bin/../lib/gcc/sparc-gaisler-elf/7.2.0/../../../../sparc-gaisler-elf/lib/leon/mfix-at697f\libm.a(lib_a-k_rem_pio2.o)
                                        0x682 (size before relaxing)
 .debug_str     0x000000000000b552       0x4e c:/opt/bcc-2.0.2-gcc/bin/../lib/gcc/sparc-gaisler-elf/7.2.0/../../../../sparc-gaisler-elf/lib/leon/mfix-at697f\libm.a(lib_a-k_sin.o)
                                        0x676 (size before relaxing)
 .debug_str     0x000000000000b5a0       0x5a c:/opt/bcc-2.0.2-gcc/bin/../lib/gcc/sparc-gaisler-elf/7.2.0/../../../../sparc-gaisler-elf/lib/leon/mfix-at697f\libm.a(lib_a-k_tan.o)
                                        0x687 (size before relaxing)
 .debug_str     0x000000000000b5fa       0x4d c:/opt/bcc-2.0.2-gcc/bin/../lib/gcc/sparc-gaisler-elf/7.2.0/../../../../sparc-gaisler-elf/lib/leon/mfix-at697f\libm.a(lib_a-s_finite.o)
                                        0x672 (size before relaxing)
 .debug_str     0x000000000000b647       0x47 c:/opt/bcc-2.0.2-gcc/bin/../lib/gcc/sparc-gaisler-elf/7.2.0/../../../../sparc-gaisler-elf/lib/leon/mfix-at697f\libm.a(lib_a-s_lib_ver.o)
                                        0x62f (size before relaxing)
 .debug_str     0x000000000000b68e       0x4f c:/opt/bcc-2.0.2-gcc/bin/../lib/gcc/sparc-gaisler-elf/7.2.0/../../../../sparc-gaisler-elf/lib/leon/mfix-at697f\libm.a(lib_a-s_matherr.o)
                                        0x65c (size before relaxing)
 .debug_str     0x000000000000b6dd       0x4a c:/opt/bcc-2.0.2-gcc/bin/../lib/gcc/sparc-gaisler-elf/7.2.0/../../../../sparc-gaisler-elf/lib/leon/mfix-at697f\libm.a(lib_a-s_nan.o)
                                        0x632 (size before relaxing)
 .debug_str     0x000000000000b727       0x4f c:/opt/bcc-2.0.2-gcc/bin/../lib/gcc/sparc-gaisler-elf/7.2.0/../../../../sparc-gaisler-elf/lib/leon/mfix-at697f\libm.a(lib_a-s_rint.o)
                                        0x683 (size before relaxing)
 .debug_str     0x000000000000b776       0x5a c:/opt/bcc-2.0.2-gcc/bin/../lib/gcc/sparc-gaisler-elf/7.2.0/../../../../sparc-gaisler-elf/lib/leon/mfix-at697f\libm.a(lib_a-s_scalbn.o)
                                        0x693 (size before relaxing)
 .debug_str     0x000000000000b7d0       0x51 c:/opt/bcc-2.0.2-gcc/bin/../lib/gcc/sparc-gaisler-elf/7.2.0/../../../../sparc-gaisler-elf/lib/leon/mfix-at697f\libm.a(lib_a-s_copysign.o)
                                        0x671 (size before relaxing)
 .debug_str     0x000000000000b821      0x1e4 c:/opt/bcc-2.0.2-gcc/bin/../sparc-gaisler-elf/bsp/leon2/leon/mfix-at697f\libbcc.a(trap.c.o)
                                        0x293 (size before relaxing)
 .debug_str     0x000000000000ba05       0x51 c:/opt/bcc-2.0.2-gcc/bin/../sparc-gaisler-elf/bsp/leon2/leon/mfix-at697f\libbcc.a(isr.c.o)
                                        0x5b4 (size before relaxing)
 .debug_str     0x000000000000ba56       0x6d c:/opt/bcc-2.0.2-gcc/bin/../sparc-gaisler-elf/bsp/leon2/leon/mfix-at697f\libbcc.a(int_nest.c.o)
                                        0x1b2 (size before relaxing)
 .debug_str     0x000000000000bac3       0x6a c:/opt/bcc-2.0.2-gcc/bin/../sparc-gaisler-elf/bsp/leon2/leon/mfix-at697f\libbcc.a(copy_data.c.o)
                                        0x1b1 (size before relaxing)
 .debug_str     0x000000000000bb2d      0x151 c:/opt/bcc-2.0.2-gcc/bin/../sparc-gaisler-elf/bsp/leon2/leon/mfix-at697f\libbcc.a(int_leon2.c.o)
                                        0x2d8 (size before relaxing)
 .debug_str     0x000000000000bc7e       0x5b c:/opt/bcc-2.0.2-gcc/bin/../sparc-gaisler-elf/bsp/leon2/leon/mfix-at697f\libbcc.a(int_leon2_get_source.c.o)
                                        0x10a (size before relaxing)
 .debug_str     0x000000000000bcd9       0x4f c:/opt/bcc-2.0.2-gcc/bin/../sparc-gaisler-elf/bsp/leon2/leon/mfix-at697f\libbcc.a(int_leon2_init.c.o)
                                        0x261 (size before relaxing)
 .debug_str     0x000000000000bd28       0x84 c:/opt/bcc-2.0.2-gcc/bin/../sparc-gaisler-elf/bsp/leon2/leon/mfix-at697f\libbcc.a(con_leon2.c.o)
                                        0x2b2 (size before relaxing)
 .debug_str     0x000000000000bdac       0xa6 c:/opt/bcc-2.0.2-gcc/bin/../sparc-gaisler-elf/bsp/leon2/leon/mfix-at697f\libbcc.a(timer_leon2.c.o)
                                        0x2d7 (size before relaxing)
 .debug_str     0x000000000000be52       0x42 c:/opt/bcc-2.0.2-gcc/bin/../sparc-gaisler-elf/bsp/leon2/leon/mfix-at697f\libbcc.a(int_leon2_handle.c.o)
                                        0x232 (size before relaxing)
 .debug_str     0x000000000000be94       0x3a c:/opt/bcc-2.0.2-gcc/bin/../sparc-gaisler-elf/bsp/leon2/leon/mfix-at697f\libbcc.a(con_handle.c.o)
                                        0x22a (size before relaxing)
 .debug_str     0x000000000000bece       0x3a c:/opt/bcc-2.0.2-gcc/bin/../sparc-gaisler-elf/bsp/leon2/leon/mfix-at697f\libbcc.a(timer_handle.c.o)
                                        0x22a (size before relaxing)
 .debug_str     0x000000000000bf08      0x112 c:/opt/bcc-2.0.2-gcc/bin/../lib/gcc/sparc-gaisler-elf/7.2.0/../../../../sparc-gaisler-elf/lib/leon/mfix-at697f\libc.a(lib_a-atexit.o)
                                        0x605 (size before relaxing)
 .debug_str     0x000000000000c01a       0xe7 c:/opt/bcc-2.0.2-gcc/bin/../lib/gcc/sparc-gaisler-elf/7.2.0/../../../../sparc-gaisler-elf/lib/leon/mfix-at697f\libc.a(lib_a-errno.o)
                                        0x5e0 (size before relaxing)
 .debug_str     0x000000000000c101       0x6d c:/opt/bcc-2.0.2-gcc/bin/../lib/gcc/sparc-gaisler-elf/7.2.0/../../../../sparc-gaisler-elf/lib/leon/mfix-at697f\libc.a(lib_a-exit.o)
                                        0x603 (size before relaxing)
 .debug_str     0x000000000000c16e       0xec c:/opt/bcc-2.0.2-gcc/bin/../lib/gcc/sparc-gaisler-elf/7.2.0/../../../../sparc-gaisler-elf/lib/leon/mfix-at697f\libc.a(lib_a-impure.o)
                                        0x5ce (size before relaxing)
 .debug_str     0x000000000000c25a      0x117 c:/opt/bcc-2.0.2-gcc/bin/../lib/gcc/sparc-gaisler-elf/7.2.0/../../../../sparc-gaisler-elf/lib/leon/mfix-at697f\libc.a(lib_a-memcpy.o)
                                        0x5f9 (size before relaxing)
 .debug_str     0x000000000000c371       0x79 c:/opt/bcc-2.0.2-gcc/bin/../lib/gcc/sparc-gaisler-elf/7.2.0/../../../../sparc-gaisler-elf/lib/leon/mfix-at697f\libc.a(lib_a-__atexit.o)
                                        0x63d (size before relaxing)
 .debug_str     0x000000000000c3ea       0x78 c:/opt/bcc-2.0.2-gcc/bin/../lib/gcc/sparc-gaisler-elf/7.2.0/../../../../sparc-gaisler-elf/lib/leon/mfix-at697f\libc.a(lib_a-__call_atexit.o)
                                        0x60c (size before relaxing)

.debug_loc      0x0000000000000000     0x6c9c
 *(.debug_loc)
 .debug_loc     0x0000000000000000       0xc7 C:\Users\ajarr\AppData\Local\Temp\cc6epILV.o
 .debug_loc     0x00000000000000c7      0x232 C:\Users\ajarr\AppData\Local\Temp\ccIUYBk4.o
 .debug_loc     0x00000000000002f9      0x57f C:\Users\ajarr\AppData\Local\Temp\ccvsnmY2.o
 .debug_loc     0x0000000000000878      0x846 C:\Users\ajarr\AppData\Local\Temp\cczww0RR.o
 .debug_loc     0x00000000000010be       0x20 C:\Users\ajarr\AppData\Local\Temp\ccm9LEki.o
 .debug_loc     0x00000000000010de      0x27f C:\Users\ajarr\AppData\Local\Temp\cchY9yN1.o
 .debug_loc     0x000000000000135d       0xc4 C:\Users\ajarr\AppData\Local\Temp\ccsnkR1R.o
 .debug_loc     0x0000000000001421       0x49 C:\Users\ajarr\AppData\Local\Temp\ccTwgEYO.o
 .debug_loc     0x000000000000146a      0x107 C:\Users\ajarr\AppData\Local\Temp\ccEKVXdT.o
 .debug_loc     0x0000000000001571      0x1af C:\Users\ajarr\AppData\Local\Temp\ccecVsE3.o
 .debug_loc     0x0000000000001720      0x211 C:\Users\ajarr\AppData\Local\Temp\ccoo9rYu.o
 .debug_loc     0x0000000000001931       0x92 C:\Users\ajarr\AppData\Local\Temp\cckLW0x4.o
 .debug_loc     0x00000000000019c3      0x42a C:\Users\ajarr\AppData\Local\Temp\ccoK9PBU.o
 .debug_loc     0x0000000000001ded       0xe8 C:\Users\ajarr\AppData\Local\Temp\ccc7OliV.o
 .debug_loc     0x0000000000001ed5       0xfc C:\Users\ajarr\AppData\Local\Temp\ccLBYgor.o
 .debug_loc     0x0000000000001fd1      0x100 C:\Users\ajarr\AppData\Local\Temp\cc41N2oq.o
 .debug_loc     0x00000000000020d1      0x191 C:\Users\ajarr\AppData\Local\Temp\ccJldDN1.o
 .debug_loc     0x0000000000002262       0xe1 C:\Users\ajarr\AppData\Local\Temp\ccnWSFNQ.o
 .debug_loc     0x0000000000002343       0x20 C:\Users\ajarr\AppData\Local\Temp\ccegvyo6.o
 .debug_loc     0x0000000000002363      0x486 C:\Users\ajarr\AppData\Local\Temp\ccyOpeqt.o
 .debug_loc     0x00000000000027e9      0x409 C:\Users\ajarr\AppData\Local\Temp\ccExFPZ1.o
 .debug_loc     0x0000000000002bf2      0x566 C:\Users\ajarr\AppData\Local\Temp\ccd1pLAc.o
 .debug_loc     0x0000000000003158      0x1a4 c:/opt/bcc-2.0.2-gcc/bin/../lib/gcc/sparc-gaisler-elf/7.2.0/../../../../sparc-gaisler-elf/lib/leon/mfix-at697f\libm.a(lib_a-s_atan.o)
 .debug_loc     0x00000000000032fc       0x84 c:/opt/bcc-2.0.2-gcc/bin/../lib/gcc/sparc-gaisler-elf/7.2.0/../../../../sparc-gaisler-elf/lib/leon/mfix-at697f\libm.a(lib_a-s_cos.o)
 .debug_loc     0x0000000000003380       0x61 c:/opt/bcc-2.0.2-gcc/bin/../lib/gcc/sparc-gaisler-elf/7.2.0/../../../../sparc-gaisler-elf/lib/leon/mfix-at697f\libm.a(lib_a-s_fabs.o)
 .debug_loc     0x00000000000033e1      0x1f0 c:/opt/bcc-2.0.2-gcc/bin/../lib/gcc/sparc-gaisler-elf/7.2.0/../../../../sparc-gaisler-elf/lib/leon/mfix-at697f\libm.a(lib_a-s_floor.o)
 .debug_loc     0x00000000000035d1      0x139 c:/opt/bcc-2.0.2-gcc/bin/../lib/gcc/sparc-gaisler-elf/7.2.0/../../../../sparc-gaisler-elf/lib/leon/mfix-at697f\libm.a(lib_a-s_round.o)
 .debug_loc     0x000000000000370a       0x84 c:/opt/bcc-2.0.2-gcc/bin/../lib/gcc/sparc-gaisler-elf/7.2.0/../../../../sparc-gaisler-elf/lib/leon/mfix-at697f\libm.a(lib_a-s_sin.o)
 .debug_loc     0x000000000000378e       0x84 c:/opt/bcc-2.0.2-gcc/bin/../lib/gcc/sparc-gaisler-elf/7.2.0/../../../../sparc-gaisler-elf/lib/leon/mfix-at697f\libm.a(lib_a-s_tan.o)
 .debug_loc     0x0000000000003812       0x62 c:/opt/bcc-2.0.2-gcc/bin/../lib/gcc/sparc-gaisler-elf/7.2.0/../../../../sparc-gaisler-elf/lib/leon/mfix-at697f\libm.a(lib_a-w_acos.o)
 .debug_loc     0x0000000000003874       0x62 c:/opt/bcc-2.0.2-gcc/bin/../lib/gcc/sparc-gaisler-elf/7.2.0/../../../../sparc-gaisler-elf/lib/leon/mfix-at697f\libm.a(lib_a-w_asin.o)
 .debug_loc     0x00000000000038d6       0x9c c:/opt/bcc-2.0.2-gcc/bin/../lib/gcc/sparc-gaisler-elf/7.2.0/../../../../sparc-gaisler-elf/lib/leon/mfix-at697f\libm.a(lib_a-w_fmod.o)
 .debug_loc     0x0000000000003972      0x128 c:/opt/bcc-2.0.2-gcc/bin/../lib/gcc/sparc-gaisler-elf/7.2.0/../../../../sparc-gaisler-elf/lib/leon/mfix-at697f\libm.a(lib_a-w_pow.o)
 .debug_loc     0x0000000000003a9a       0x74 c:/opt/bcc-2.0.2-gcc/bin/../lib/gcc/sparc-gaisler-elf/7.2.0/../../../../sparc-gaisler-elf/lib/leon/mfix-at697f\libm.a(lib_a-w_sqrt.o)
 .debug_loc     0x0000000000003b0e      0x134 c:/opt/bcc-2.0.2-gcc/bin/../lib/gcc/sparc-gaisler-elf/7.2.0/../../../../sparc-gaisler-elf/lib/leon/mfix-at697f\libm.a(lib_a-e_acos.o)
 .debug_loc     0x0000000000003c42      0x14e c:/opt/bcc-2.0.2-gcc/bin/../lib/gcc/sparc-gaisler-elf/7.2.0/../../../../sparc-gaisler-elf/lib/leon/mfix-at697f\libm.a(lib_a-e_asin.o)
 .debug_loc     0x0000000000003d90      0x1aa c:/opt/bcc-2.0.2-gcc/bin/../lib/gcc/sparc-gaisler-elf/7.2.0/../../../../sparc-gaisler-elf/lib/leon/mfix-at697f\libm.a(lib_a-e_atan2.o)
 .debug_loc     0x0000000000003f3a      0x499 c:/opt/bcc-2.0.2-gcc/bin/../lib/gcc/sparc-gaisler-elf/7.2.0/../../../../sparc-gaisler-elf/lib/leon/mfix-at697f\libm.a(lib_a-e_fmod.o)
 .debug_loc     0x00000000000043d3      0xb51 c:/opt/bcc-2.0.2-gcc/bin/../lib/gcc/sparc-gaisler-elf/7.2.0/../../../../sparc-gaisler-elf/lib/leon/mfix-at697f\libm.a(lib_a-e_pow.o)
 .debug_loc     0x0000000000004f24      0x3b9 c:/opt/bcc-2.0.2-gcc/bin/../lib/gcc/sparc-gaisler-elf/7.2.0/../../../../sparc-gaisler-elf/lib/leon/mfix-at697f\libm.a(lib_a-e_rem_pio2.o)
 .debug_loc     0x00000000000052dd      0x2ed c:/opt/bcc-2.0.2-gcc/bin/../lib/gcc/sparc-gaisler-elf/7.2.0/../../../../sparc-gaisler-elf/lib/leon/mfix-at697f\libm.a(lib_a-e_sqrt.o)
 .debug_loc     0x00000000000055ca      0x122 c:/opt/bcc-2.0.2-gcc/bin/../lib/gcc/sparc-gaisler-elf/7.2.0/../../../../sparc-gaisler-elf/lib/leon/mfix-at697f\libm.a(lib_a-k_cos.o)
 .debug_loc     0x00000000000056ec      0x694 c:/opt/bcc-2.0.2-gcc/bin/../lib/gcc/sparc-gaisler-elf/7.2.0/../../../../sparc-gaisler-elf/lib/leon/mfix-at697f\libm.a(lib_a-k_rem_pio2.o)
 .debug_loc     0x0000000000005d80       0xa5 c:/opt/bcc-2.0.2-gcc/bin/../lib/gcc/sparc-gaisler-elf/7.2.0/../../../../sparc-gaisler-elf/lib/leon/mfix-at697f\libm.a(lib_a-k_sin.o)
 .debug_loc     0x0000000000005e25      0x2ed c:/opt/bcc-2.0.2-gcc/bin/../lib/gcc/sparc-gaisler-elf/7.2.0/../../../../sparc-gaisler-elf/lib/leon/mfix-at697f\libm.a(lib_a-k_tan.o)
 .debug_loc     0x0000000000006112       0x18 c:/opt/bcc-2.0.2-gcc/bin/../lib/gcc/sparc-gaisler-elf/7.2.0/../../../../sparc-gaisler-elf/lib/leon/mfix-at697f\libm.a(lib_a-s_finite.o)
 .debug_loc     0x000000000000612a       0x13 c:/opt/bcc-2.0.2-gcc/bin/../lib/gcc/sparc-gaisler-elf/7.2.0/../../../../sparc-gaisler-elf/lib/leon/mfix-at697f\libm.a(lib_a-s_matherr.o)
 .debug_loc     0x000000000000613d      0x1e1 c:/opt/bcc-2.0.2-gcc/bin/../lib/gcc/sparc-gaisler-elf/7.2.0/../../../../sparc-gaisler-elf/lib/leon/mfix-at697f\libm.a(lib_a-s_rint.o)
 .debug_loc     0x000000000000631e      0x1b9 c:/opt/bcc-2.0.2-gcc/bin/../lib/gcc/sparc-gaisler-elf/7.2.0/../../../../sparc-gaisler-elf/lib/leon/mfix-at697f\libm.a(lib_a-s_scalbn.o)
 .debug_loc     0x00000000000064d7       0x79 c:/opt/bcc-2.0.2-gcc/bin/../lib/gcc/sparc-gaisler-elf/7.2.0/../../../../sparc-gaisler-elf/lib/leon/mfix-at697f\libm.a(lib_a-s_copysign.o)
 .debug_loc     0x0000000000006550      0x10a c:/opt/bcc-2.0.2-gcc/bin/../sparc-gaisler-elf/bsp/leon2/leon/mfix-at697f\libbcc.a(trap.c.o)
 .debug_loc     0x000000000000665a      0x155 c:/opt/bcc-2.0.2-gcc/bin/../sparc-gaisler-elf/bsp/leon2/leon/mfix-at697f\libbcc.a(int_leon2.c.o)
 .debug_loc     0x00000000000067af       0x13 c:/opt/bcc-2.0.2-gcc/bin/../sparc-gaisler-elf/bsp/leon2/leon/mfix-at697f\libbcc.a(con_leon2.c.o)
 .debug_loc     0x00000000000067c2       0x13 c:/opt/bcc-2.0.2-gcc/bin/../sparc-gaisler-elf/bsp/leon2/leon/mfix-at697f\libbcc.a(timer_leon2.c.o)
 .debug_loc     0x00000000000067d5       0x1e c:/opt/bcc-2.0.2-gcc/bin/../lib/gcc/sparc-gaisler-elf/7.2.0/../../../../sparc-gaisler-elf/lib/leon/mfix-at697f\libc.a(lib_a-atexit.o)
 .debug_loc     0x00000000000067f3       0x3e c:/opt/bcc-2.0.2-gcc/bin/../lib/gcc/sparc-gaisler-elf/7.2.0/../../../../sparc-gaisler-elf/lib/leon/mfix-at697f\libc.a(lib_a-exit.o)
 .debug_loc     0x0000000000006831      0x197 c:/opt/bcc-2.0.2-gcc/bin/../lib/gcc/sparc-gaisler-elf/7.2.0/../../../../sparc-gaisler-elf/lib/leon/mfix-at697f\libc.a(lib_a-memcpy.o)
 .debug_loc     0x00000000000069c8      0x121 c:/opt/bcc-2.0.2-gcc/bin/../lib/gcc/sparc-gaisler-elf/7.2.0/../../../../sparc-gaisler-elf/lib/leon/mfix-at697f\libc.a(lib_a-__atexit.o)
 .debug_loc     0x0000000000006ae9      0x1b3 c:/opt/bcc-2.0.2-gcc/bin/../lib/gcc/sparc-gaisler-elf/7.2.0/../../../../sparc-gaisler-elf/lib/leon/mfix-at697f\libc.a(lib_a-__call_atexit.o)

.comment        0x0000000000000000       0x18
 .comment       0x0000000000000000       0x18 c:/opt/bcc-2.0.2-gcc/bin/../lib/gcc/sparc-gaisler-elf/7.2.0/leon/mfix-at697f/crtbegin.o
                                         0x19 (size before relaxing)
 .comment       0x0000000000000018       0x19 C:\Users\ajarr\AppData\Local\Temp\cc6epILV.o
 .comment       0x0000000000000018       0x19 C:\Users\ajarr\AppData\Local\Temp\ccIUYBk4.o
 .comment       0x0000000000000018       0x19 C:\Users\ajarr\AppData\Local\Temp\ccvsnmY2.o
 .comment       0x0000000000000018       0x19 C:\Users\ajarr\AppData\Local\Temp\cczww0RR.o
 .comment       0x0000000000000018       0x19 C:\Users\ajarr\AppData\Local\Temp\ccm9LEki.o
 .comment       0x0000000000000018       0x19 C:\Users\ajarr\AppData\Local\Temp\cchY9yN1.o
 .comment       0x0000000000000018       0x19 C:\Users\ajarr\AppData\Local\Temp\ccsnkR1R.o
 .comment       0x0000000000000018       0x19 C:\Users\ajarr\AppData\Local\Temp\ccTwgEYO.o
 .comment       0x0000000000000018       0x19 C:\Users\ajarr\AppData\Local\Temp\ccEKVXdT.o
 .comment       0x0000000000000018       0x19 C:\Users\ajarr\AppData\Local\Temp\ccecVsE3.o
 .comment       0x0000000000000018       0x19 C:\Users\ajarr\AppData\Local\Temp\ccoo9rYu.o
 .comment       0x0000000000000018       0x19 C:\Users\ajarr\AppData\Local\Temp\cckLW0x4.o
 .comment       0x0000000000000018       0x19 C:\Users\ajarr\AppData\Local\Temp\ccoK9PBU.o
 .comment       0x0000000000000018       0x19 C:\Users\ajarr\AppData\Local\Temp\ccc7OliV.o
 .comment       0x0000000000000018       0x19 C:\Users\ajarr\AppData\Local\Temp\ccLBYgor.o
 .comment       0x0000000000000018       0x19 C:\Users\ajarr\AppData\Local\Temp\cc41N2oq.o
 .comment       0x0000000000000018       0x19 C:\Users\ajarr\AppData\Local\Temp\cczww3Ay.o
 .comment       0x0000000000000018       0x19 C:\Users\ajarr\AppData\Local\Temp\ccJldDN1.o
 .comment       0x0000000000000018       0x19 C:\Users\ajarr\AppData\Local\Temp\ccnWSFNQ.o
 .comment       0x0000000000000018       0x19 C:\Users\ajarr\AppData\Local\Temp\ccegvyo6.o
 .comment       0x0000000000000018       0x19 C:\Users\ajarr\AppData\Local\Temp\ccyOpeqt.o
 .comment       0x0000000000000018       0x19 C:\Users\ajarr\AppData\Local\Temp\cceA7QRW.o
 .comment       0x0000000000000018       0x19 C:\Users\ajarr\AppData\Local\Temp\ccExFPZ1.o
 .comment       0x0000000000000018       0x19 C:\Users\ajarr\AppData\Local\Temp\ccd1pLAc.o
 .comment       0x0000000000000018       0x19 C:\Users\ajarr\AppData\Local\Temp\ccG5Eq4q.o
 .comment       0x0000000000000018       0x19 c:/opt/bcc-2.0.2-gcc/bin/../lib/gcc/sparc-gaisler-elf/7.2.0/../../../../sparc-gaisler-elf/lib/leon/mfix-at697f\libm.a(lib_a-s_atan.o)
 .comment       0x0000000000000018       0x19 c:/opt/bcc-2.0.2-gcc/bin/../lib/gcc/sparc-gaisler-elf/7.2.0/../../../../sparc-gaisler-elf/lib/leon/mfix-at697f\libm.a(lib_a-s_cos.o)
 .comment       0x0000000000000018       0x19 c:/opt/bcc-2.0.2-gcc/bin/../lib/gcc/sparc-gaisler-elf/7.2.0/../../../../sparc-gaisler-elf/lib/leon/mfix-at697f\libm.a(lib_a-s_fabs.o)
 .comment       0x0000000000000018       0x19 c:/opt/bcc-2.0.2-gcc/bin/../lib/gcc/sparc-gaisler-elf/7.2.0/../../../../sparc-gaisler-elf/lib/leon/mfix-at697f\libm.a(lib_a-s_floor.o)
 .comment       0x0000000000000018       0x19 c:/opt/bcc-2.0.2-gcc/bin/../lib/gcc/sparc-gaisler-elf/7.2.0/../../../../sparc-gaisler-elf/lib/leon/mfix-at697f\libm.a(lib_a-s_round.o)
 .comment       0x0000000000000018       0x19 c:/opt/bcc-2.0.2-gcc/bin/../lib/gcc/sparc-gaisler-elf/7.2.0/../../../../sparc-gaisler-elf/lib/leon/mfix-at697f\libm.a(lib_a-s_sin.o)
 .comment       0x0000000000000018       0x19 c:/opt/bcc-2.0.2-gcc/bin/../lib/gcc/sparc-gaisler-elf/7.2.0/../../../../sparc-gaisler-elf/lib/leon/mfix-at697f\libm.a(lib_a-s_tan.o)
 .comment       0x0000000000000018       0x19 c:/opt/bcc-2.0.2-gcc/bin/../lib/gcc/sparc-gaisler-elf/7.2.0/../../../../sparc-gaisler-elf/lib/leon/mfix-at697f\libm.a(lib_a-w_acos.o)
 .comment       0x0000000000000018       0x19 c:/opt/bcc-2.0.2-gcc/bin/../lib/gcc/sparc-gaisler-elf/7.2.0/../../../../sparc-gaisler-elf/lib/leon/mfix-at697f\libm.a(lib_a-w_asin.o)
 .comment       0x0000000000000018       0x19 c:/opt/bcc-2.0.2-gcc/bin/../lib/gcc/sparc-gaisler-elf/7.2.0/../../../../sparc-gaisler-elf/lib/leon/mfix-at697f\libm.a(lib_a-w_atan2.o)
 .comment       0x0000000000000018       0x19 c:/opt/bcc-2.0.2-gcc/bin/../lib/gcc/sparc-gaisler-elf/7.2.0/../../../../sparc-gaisler-elf/lib/leon/mfix-at697f\libm.a(lib_a-w_fmod.o)
 .comment       0x0000000000000018       0x19 c:/opt/bcc-2.0.2-gcc/bin/../lib/gcc/sparc-gaisler-elf/7.2.0/../../../../sparc-gaisler-elf/lib/leon/mfix-at697f\libm.a(lib_a-w_pow.o)
 .comment       0x0000000000000018       0x19 c:/opt/bcc-2.0.2-gcc/bin/../lib/gcc/sparc-gaisler-elf/7.2.0/../../../../sparc-gaisler-elf/lib/leon/mfix-at697f\libm.a(lib_a-w_sqrt.o)
 .comment       0x0000000000000018       0x19 c:/opt/bcc-2.0.2-gcc/bin/../lib/gcc/sparc-gaisler-elf/7.2.0/../../../../sparc-gaisler-elf/lib/leon/mfix-at697f\libm.a(lib_a-e_acos.o)
 .comment       0x0000000000000018       0x19 c:/opt/bcc-2.0.2-gcc/bin/../lib/gcc/sparc-gaisler-elf/7.2.0/../../../../sparc-gaisler-elf/lib/leon/mfix-at697f\libm.a(lib_a-e_asin.o)
 .comment       0x0000000000000018       0x19 c:/opt/bcc-2.0.2-gcc/bin/../lib/gcc/sparc-gaisler-elf/7.2.0/../../../../sparc-gaisler-elf/lib/leon/mfix-at697f\libm.a(lib_a-e_atan2.o)
 .comment       0x0000000000000018       0x19 c:/opt/bcc-2.0.2-gcc/bin/../lib/gcc/sparc-gaisler-elf/7.2.0/../../../../sparc-gaisler-elf/lib/leon/mfix-at697f\libm.a(lib_a-e_fmod.o)
 .comment       0x0000000000000018       0x19 c:/opt/bcc-2.0.2-gcc/bin/../lib/gcc/sparc-gaisler-elf/7.2.0/../../../../sparc-gaisler-elf/lib/leon/mfix-at697f\libm.a(lib_a-e_pow.o)
 .comment       0x0000000000000018       0x19 c:/opt/bcc-2.0.2-gcc/bin/../lib/gcc/sparc-gaisler-elf/7.2.0/../../../../sparc-gaisler-elf/lib/leon/mfix-at697f\libm.a(lib_a-e_rem_pio2.o)
 .comment       0x0000000000000018       0x19 c:/opt/bcc-2.0.2-gcc/bin/../lib/gcc/sparc-gaisler-elf/7.2.0/../../../../sparc-gaisler-elf/lib/leon/mfix-at697f\libm.a(lib_a-e_sqrt.o)
 .comment       0x0000000000000018       0x19 c:/opt/bcc-2.0.2-gcc/bin/../lib/gcc/sparc-gaisler-elf/7.2.0/../../../../sparc-gaisler-elf/lib/leon/mfix-at697f\libm.a(lib_a-k_cos.o)
 .comment       0x0000000000000018       0x19 c:/opt/bcc-2.0.2-gcc/bin/../lib/gcc/sparc-gaisler-elf/7.2.0/../../../../sparc-gaisler-elf/lib/leon/mfix-at697f\libm.a(lib_a-k_rem_pio2.o)
 .comment       0x0000000000000018       0x19 c:/opt/bcc-2.0.2-gcc/bin/../lib/gcc/sparc-gaisler-elf/7.2.0/../../../../sparc-gaisler-elf/lib/leon/mfix-at697f\libm.a(lib_a-k_sin.o)
 .comment       0x0000000000000018       0x19 c:/opt/bcc-2.0.2-gcc/bin/../lib/gcc/sparc-gaisler-elf/7.2.0/../../../../sparc-gaisler-elf/lib/leon/mfix-at697f\libm.a(lib_a-k_tan.o)
 .comment       0x0000000000000018       0x19 c:/opt/bcc-2.0.2-gcc/bin/../lib/gcc/sparc-gaisler-elf/7.2.0/../../../../sparc-gaisler-elf/lib/leon/mfix-at697f\libm.a(lib_a-s_finite.o)
 .comment       0x0000000000000018       0x19 c:/opt/bcc-2.0.2-gcc/bin/../lib/gcc/sparc-gaisler-elf/7.2.0/../../../../sparc-gaisler-elf/lib/leon/mfix-at697f\libm.a(lib_a-s_lib_ver.o)
 .comment       0x0000000000000018       0x19 c:/opt/bcc-2.0.2-gcc/bin/../lib/gcc/sparc-gaisler-elf/7.2.0/../../../../sparc-gaisler-elf/lib/leon/mfix-at697f\libm.a(lib_a-s_matherr.o)
 .comment       0x0000000000000018       0x19 c:/opt/bcc-2.0.2-gcc/bin/../lib/gcc/sparc-gaisler-elf/7.2.0/../../../../sparc-gaisler-elf/lib/leon/mfix-at697f\libm.a(lib_a-s_nan.o)
 .comment       0x0000000000000018       0x19 c:/opt/bcc-2.0.2-gcc/bin/../lib/gcc/sparc-gaisler-elf/7.2.0/../../../../sparc-gaisler-elf/lib/leon/mfix-at697f\libm.a(lib_a-s_rint.o)
 .comment       0x0000000000000018       0x19 c:/opt/bcc-2.0.2-gcc/bin/../lib/gcc/sparc-gaisler-elf/7.2.0/../../../../sparc-gaisler-elf/lib/leon/mfix-at697f\libm.a(lib_a-s_scalbn.o)
 .comment       0x0000000000000018       0x19 c:/opt/bcc-2.0.2-gcc/bin/../lib/gcc/sparc-gaisler-elf/7.2.0/../../../../sparc-gaisler-elf/lib/leon/mfix-at697f\libm.a(lib_a-s_copysign.o)
 .comment       0x0000000000000018       0x19 c:/opt/bcc-2.0.2-gcc/bin/../sparc-gaisler-elf/bsp/leon2/leon/mfix-at697f\libbcc.a(trap.c.o)
 .comment       0x0000000000000018       0x19 c:/opt/bcc-2.0.2-gcc/bin/../sparc-gaisler-elf/bsp/leon2/leon/mfix-at697f\libbcc.a(isr.c.o)
 .comment       0x0000000000000018       0x19 c:/opt/bcc-2.0.2-gcc/bin/../sparc-gaisler-elf/bsp/leon2/leon/mfix-at697f\libbcc.a(int_nest.c.o)
 .comment       0x0000000000000018       0x19 c:/opt/bcc-2.0.2-gcc/bin/../sparc-gaisler-elf/bsp/leon2/leon/mfix-at697f\libbcc.a(copy_data.c.o)
 .comment       0x0000000000000018       0x19 c:/opt/bcc-2.0.2-gcc/bin/../sparc-gaisler-elf/bsp/leon2/leon/mfix-at697f\libbcc.a(int_leon2.c.o)
 .comment       0x0000000000000018       0x19 c:/opt/bcc-2.0.2-gcc/bin/../sparc-gaisler-elf/bsp/leon2/leon/mfix-at697f\libbcc.a(int_leon2_get_source.c.o)
 .comment       0x0000000000000018       0x19 c:/opt/bcc-2.0.2-gcc/bin/../sparc-gaisler-elf/bsp/leon2/leon/mfix-at697f\libbcc.a(int_leon2_init.c.o)
 .comment       0x0000000000000018       0x19 c:/opt/bcc-2.0.2-gcc/bin/../sparc-gaisler-elf/bsp/leon2/leon/mfix-at697f\libbcc.a(con_leon2.c.o)
 .comment       0x0000000000000018       0x19 c:/opt/bcc-2.0.2-gcc/bin/../sparc-gaisler-elf/bsp/leon2/leon/mfix-at697f\libbcc.a(timer_leon2.c.o)
 .comment       0x0000000000000018       0x19 c:/opt/bcc-2.0.2-gcc/bin/../sparc-gaisler-elf/bsp/leon2/leon/mfix-at697f\libbcc.a(int_leon2_handle.c.o)
 .comment       0x0000000000000018       0x19 c:/opt/bcc-2.0.2-gcc/bin/../sparc-gaisler-elf/bsp/leon2/leon/mfix-at697f\libbcc.a(con_handle.c.o)
 .comment       0x0000000000000018       0x19 c:/opt/bcc-2.0.2-gcc/bin/../sparc-gaisler-elf/bsp/leon2/leon/mfix-at697f\libbcc.a(timer_handle.c.o)
 .comment       0x0000000000000018       0x19 c:/opt/bcc-2.0.2-gcc/bin/../lib/gcc/sparc-gaisler-elf/7.2.0/../../../../sparc-gaisler-elf/lib/leon/mfix-at697f\libc.a(lib_a-atexit.o)
 .comment       0x0000000000000018       0x19 c:/opt/bcc-2.0.2-gcc/bin/../lib/gcc/sparc-gaisler-elf/7.2.0/../../../../sparc-gaisler-elf/lib/leon/mfix-at697f\libc.a(lib_a-errno.o)
 .comment       0x0000000000000018       0x19 c:/opt/bcc-2.0.2-gcc/bin/../lib/gcc/sparc-gaisler-elf/7.2.0/../../../../sparc-gaisler-elf/lib/leon/mfix-at697f\libc.a(lib_a-exit.o)
 .comment       0x0000000000000018       0x19 c:/opt/bcc-2.0.2-gcc/bin/../lib/gcc/sparc-gaisler-elf/7.2.0/../../../../sparc-gaisler-elf/lib/leon/mfix-at697f\libc.a(lib_a-impure.o)
 .comment       0x0000000000000018       0x19 c:/opt/bcc-2.0.2-gcc/bin/../lib/gcc/sparc-gaisler-elf/7.2.0/../../../../sparc-gaisler-elf/lib/leon/mfix-at697f\libc.a(lib_a-memcpy.o)
 .comment       0x0000000000000018       0x19 c:/opt/bcc-2.0.2-gcc/bin/../lib/gcc/sparc-gaisler-elf/7.2.0/../../../../sparc-gaisler-elf/lib/leon/mfix-at697f\libc.a(lib_a-__atexit.o)
 .comment       0x0000000000000018       0x19 c:/opt/bcc-2.0.2-gcc/bin/../lib/gcc/sparc-gaisler-elf/7.2.0/../../../../sparc-gaisler-elf/lib/leon/mfix-at697f\libc.a(lib_a-__call_atexit.o)
 .comment       0x0000000000000018       0x19 c:/opt/bcc-2.0.2-gcc/bin/../lib/gcc/sparc-gaisler-elf/7.2.0/leon/mfix-at697f/crtend.o

.gnu.attributes
                0x0000000000000000       0x10
 .gnu.attributes
                0x0000000000000000       0x10 C:\Users\ajarr\AppData\Local\Temp\cc41N2oq.o
 .gnu.attributes
                0x0000000000000010       0x10 C:\Users\ajarr\AppData\Local\Temp\ccJldDN1.o
 .gnu.attributes
                0x0000000000000020       0x10 C:\Users\ajarr\AppData\Local\Temp\ccegvyo6.o
 .gnu.attributes
                0x0000000000000030       0x10 C:\Users\ajarr\AppData\Local\Temp\ccyOpeqt.o
 .gnu.attributes
                0x0000000000000040       0x10 C:\Users\ajarr\AppData\Local\Temp\ccd1pLAc.o
 .gnu.attributes
                0x0000000000000050       0x10 c:/opt/bcc-2.0.2-gcc/bin/../lib/gcc/sparc-gaisler-elf/7.2.0/../../../../sparc-gaisler-elf/lib/leon/mfix-at697f\libm.a(lib_a-k_rem_pio2.o)

.debug_macinfo
 *(.debug_macinfo)

.debug_weaknames
 *(.debug_weaknames)

.debug_funcnames
 *(.debug_funcnames)

.debug_typenames
 *(.debug_typenames)

.debug_varnames
 *(.debug_varnames)
LOAD c:/opt/bcc-2.0.2-gcc/bin/../lib/gcc/sparc-gaisler-elf/7.2.0/leon/mfix-at697f\libgcc.a
START GROUP
LOAD c:/opt/bcc-2.0.2-gcc/bin/../sparc-gaisler-elf/bsp/leon2/leon/mfix-at697f\libbcc.a
LOAD c:/opt/bcc-2.0.2-gcc/bin/../lib/gcc/sparc-gaisler-elf/7.2.0/../../../../sparc-gaisler-elf/lib/leon/mfix-at697f\libc.a
END GROUP
LOAD c:/opt/bcc-2.0.2-gcc/bin/../lib/gcc/sparc-gaisler-elf/7.2.0/leon/mfix-at697f\libgcc.a
LOAD c:/opt/bcc-2.0.2-gcc/bin/../lib/gcc/sparc-gaisler-elf/7.2.0/leon/mfix-at697f/crtend.o
LOAD c:/opt/bcc-2.0.2-gcc/bin/../lib/gcc/sparc-gaisler-elf/7.2.0/leon/mfix-at697f/crtn.o
OUTPUT(rsat-obc.elf elf32-sparc)
