Archive member included to satisfy reference by file (symbol)

c:/opt/bcc-2.0.2-gcc/bin/../lib/gcc/sparc-gaisler-elf/7.2.0/../../../../sparc-gaisler-elf/lib/leon/mfix-at697f\libm.a(lib_a-s_atan.o)
                              C:\Users\ajarr\AppData\Local\Temp\cce8IkUa.o (atan)
c:/opt/bcc-2.0.2-gcc/bin/../lib/gcc/sparc-gaisler-elf/7.2.0/../../../../sparc-gaisler-elf/lib/leon/mfix-at697f\libm.a(lib_a-s_cos.o)
                              C:\Users\ajarr\AppData\Local\Temp\ccH43JHx.o (cos)
c:/opt/bcc-2.0.2-gcc/bin/../lib/gcc/sparc-gaisler-elf/7.2.0/../../../../sparc-gaisler-elf/lib/leon/mfix-at697f\libm.a(lib_a-s_fabs.o)
                              c:/opt/bcc-2.0.2-gcc/bin/../lib/gcc/sparc-gaisler-elf/7.2.0/../../../../sparc-gaisler-elf/lib/leon/mfix-at697f\libm.a(lib_a-s_atan.o) (fabs)
c:/opt/bcc-2.0.2-gcc/bin/../lib/gcc/sparc-gaisler-elf/7.2.0/../../../../sparc-gaisler-elf/lib/leon/mfix-at697f\libm.a(lib_a-s_floor.o)
                              C:\Users\ajarr\AppData\Local\Temp\ccwpWlcN.o (floor)
c:/opt/bcc-2.0.2-gcc/bin/../lib/gcc/sparc-gaisler-elf/7.2.0/../../../../sparc-gaisler-elf/lib/leon/mfix-at697f\libm.a(lib_a-s_round.o)
                              C:\Users\ajarr\AppData\Local\Temp\cchzLcEP.o (round)
c:/opt/bcc-2.0.2-gcc/bin/../lib/gcc/sparc-gaisler-elf/7.2.0/../../../../sparc-gaisler-elf/lib/leon/mfix-at697f\libm.a(lib_a-s_sin.o)
                              C:\Users\ajarr\AppData\Local\Temp\ccH43JHx.o (sin)
c:/opt/bcc-2.0.2-gcc/bin/../lib/gcc/sparc-gaisler-elf/7.2.0/../../../../sparc-gaisler-elf/lib/leon/mfix-at697f\libm.a(lib_a-s_tan.o)
                              C:\Users\ajarr\AppData\Local\Temp\cce8IkUa.o (tan)
c:/opt/bcc-2.0.2-gcc/bin/../lib/gcc/sparc-gaisler-elf/7.2.0/../../../../sparc-gaisler-elf/lib/leon/mfix-at697f\libm.a(lib_a-w_acos.o)
                              C:\Users\ajarr\AppData\Local\Temp\cco0QbZ8.o (acos)
c:/opt/bcc-2.0.2-gcc/bin/../lib/gcc/sparc-gaisler-elf/7.2.0/../../../../sparc-gaisler-elf/lib/leon/mfix-at697f\libm.a(lib_a-w_asin.o)
                              C:\Users\ajarr\AppData\Local\Temp\ccwpWlcN.o (asin)
c:/opt/bcc-2.0.2-gcc/bin/../lib/gcc/sparc-gaisler-elf/7.2.0/../../../../sparc-gaisler-elf/lib/leon/mfix-at697f\libm.a(lib_a-w_atan2.o)
                              C:\Users\ajarr\AppData\Local\Temp\cco0QbZ8.o (atan2)
c:/opt/bcc-2.0.2-gcc/bin/../lib/gcc/sparc-gaisler-elf/7.2.0/../../../../sparc-gaisler-elf/lib/leon/mfix-at697f\libm.a(lib_a-w_fmod.o)
                              C:\Users\ajarr\AppData\Local\Temp\ccwpWlcN.o (fmod)
c:/opt/bcc-2.0.2-gcc/bin/../lib/gcc/sparc-gaisler-elf/7.2.0/../../../../sparc-gaisler-elf/lib/leon/mfix-at697f\libm.a(lib_a-w_pow.o)
                              C:\Users\ajarr\AppData\Local\Temp\cco0QbZ8.o (pow)
c:/opt/bcc-2.0.2-gcc/bin/../lib/gcc/sparc-gaisler-elf/7.2.0/../../../../sparc-gaisler-elf/lib/leon/mfix-at697f\libm.a(lib_a-w_sqrt.o)
                              C:\Users\ajarr\AppData\Local\Temp\ccH43JHx.o (sqrt)
c:/opt/bcc-2.0.2-gcc/bin/../lib/gcc/sparc-gaisler-elf/7.2.0/../../../../sparc-gaisler-elf/lib/leon/mfix-at697f\libm.a(lib_a-e_acos.o)
                              c:/opt/bcc-2.0.2-gcc/bin/../lib/gcc/sparc-gaisler-elf/7.2.0/../../../../sparc-gaisler-elf/lib/leon/mfix-at697f\libm.a(lib_a-w_acos.o) (__ieee754_acos)
c:/opt/bcc-2.0.2-gcc/bin/../lib/gcc/sparc-gaisler-elf/7.2.0/../../../../sparc-gaisler-elf/lib/leon/mfix-at697f\libm.a(lib_a-e_asin.o)
                              c:/opt/bcc-2.0.2-gcc/bin/../lib/gcc/sparc-gaisler-elf/7.2.0/../../../../sparc-gaisler-elf/lib/leon/mfix-at697f\libm.a(lib_a-w_asin.o) (__ieee754_asin)
c:/opt/bcc-2.0.2-gcc/bin/../lib/gcc/sparc-gaisler-elf/7.2.0/../../../../sparc-gaisler-elf/lib/leon/mfix-at697f\libm.a(lib_a-e_atan2.o)
                              c:/opt/bcc-2.0.2-gcc/bin/../lib/gcc/sparc-gaisler-elf/7.2.0/../../../../sparc-gaisler-elf/lib/leon/mfix-at697f\libm.a(lib_a-w_atan2.o) (__ieee754_atan2)
c:/opt/bcc-2.0.2-gcc/bin/../lib/gcc/sparc-gaisler-elf/7.2.0/../../../../sparc-gaisler-elf/lib/leon/mfix-at697f\libm.a(lib_a-e_fmod.o)
                              c:/opt/bcc-2.0.2-gcc/bin/../lib/gcc/sparc-gaisler-elf/7.2.0/../../../../sparc-gaisler-elf/lib/leon/mfix-at697f\libm.a(lib_a-w_fmod.o) (__ieee754_fmod)
c:/opt/bcc-2.0.2-gcc/bin/../lib/gcc/sparc-gaisler-elf/7.2.0/../../../../sparc-gaisler-elf/lib/leon/mfix-at697f\libm.a(lib_a-e_pow.o)
                              c:/opt/bcc-2.0.2-gcc/bin/../lib/gcc/sparc-gaisler-elf/7.2.0/../../../../sparc-gaisler-elf/lib/leon/mfix-at697f\libm.a(lib_a-w_pow.o) (__ieee754_pow)
c:/opt/bcc-2.0.2-gcc/bin/../lib/gcc/sparc-gaisler-elf/7.2.0/../../../../sparc-gaisler-elf/lib/leon/mfix-at697f\libm.a(lib_a-e_rem_pio2.o)
                              c:/opt/bcc-2.0.2-gcc/bin/../lib/gcc/sparc-gaisler-elf/7.2.0/../../../../sparc-gaisler-elf/lib/leon/mfix-at697f\libm.a(lib_a-s_cos.o) (__ieee754_rem_pio2)
c:/opt/bcc-2.0.2-gcc/bin/../lib/gcc/sparc-gaisler-elf/7.2.0/../../../../sparc-gaisler-elf/lib/leon/mfix-at697f\libm.a(lib_a-e_sqrt.o)
                              c:/opt/bcc-2.0.2-gcc/bin/../lib/gcc/sparc-gaisler-elf/7.2.0/../../../../sparc-gaisler-elf/lib/leon/mfix-at697f\libm.a(lib_a-w_sqrt.o) (__ieee754_sqrt)
c:/opt/bcc-2.0.2-gcc/bin/../lib/gcc/sparc-gaisler-elf/7.2.0/../../../../sparc-gaisler-elf/lib/leon/mfix-at697f\libm.a(lib_a-k_cos.o)
                              c:/opt/bcc-2.0.2-gcc/bin/../lib/gcc/sparc-gaisler-elf/7.2.0/../../../../sparc-gaisler-elf/lib/leon/mfix-at697f\libm.a(lib_a-s_cos.o) (__kernel_cos)
c:/opt/bcc-2.0.2-gcc/bin/../lib/gcc/sparc-gaisler-elf/7.2.0/../../../../sparc-gaisler-elf/lib/leon/mfix-at697f\libm.a(lib_a-k_rem_pio2.o)
                              c:/opt/bcc-2.0.2-gcc/bin/../lib/gcc/sparc-gaisler-elf/7.2.0/../../../../sparc-gaisler-elf/lib/leon/mfix-at697f\libm.a(lib_a-e_rem_pio2.o) (__kernel_rem_pio2)
c:/opt/bcc-2.0.2-gcc/bin/../lib/gcc/sparc-gaisler-elf/7.2.0/../../../../sparc-gaisler-elf/lib/leon/mfix-at697f\libm.a(lib_a-k_sin.o)
                              c:/opt/bcc-2.0.2-gcc/bin/../lib/gcc/sparc-gaisler-elf/7.2.0/../../../../sparc-gaisler-elf/lib/leon/mfix-at697f\libm.a(lib_a-s_cos.o) (__kernel_sin)
c:/opt/bcc-2.0.2-gcc/bin/../lib/gcc/sparc-gaisler-elf/7.2.0/../../../../sparc-gaisler-elf/lib/leon/mfix-at697f\libm.a(lib_a-k_tan.o)
                              c:/opt/bcc-2.0.2-gcc/bin/../lib/gcc/sparc-gaisler-elf/7.2.0/../../../../sparc-gaisler-elf/lib/leon/mfix-at697f\libm.a(lib_a-s_tan.o) (__kernel_tan)
c:/opt/bcc-2.0.2-gcc/bin/../lib/gcc/sparc-gaisler-elf/7.2.0/../../../../sparc-gaisler-elf/lib/leon/mfix-at697f\libm.a(lib_a-s_finite.o)
                              c:/opt/bcc-2.0.2-gcc/bin/../lib/gcc/sparc-gaisler-elf/7.2.0/../../../../sparc-gaisler-elf/lib/leon/mfix-at697f\libm.a(lib_a-w_pow.o) (finite)
c:/opt/bcc-2.0.2-gcc/bin/../lib/gcc/sparc-gaisler-elf/7.2.0/../../../../sparc-gaisler-elf/lib/leon/mfix-at697f\libm.a(lib_a-s_lib_ver.o)
                              c:/opt/bcc-2.0.2-gcc/bin/../lib/gcc/sparc-gaisler-elf/7.2.0/../../../../sparc-gaisler-elf/lib/leon/mfix-at697f\libm.a(lib_a-w_acos.o) (__fdlib_version)
c:/opt/bcc-2.0.2-gcc/bin/../lib/gcc/sparc-gaisler-elf/7.2.0/../../../../sparc-gaisler-elf/lib/leon/mfix-at697f\libm.a(lib_a-s_matherr.o)
                              c:/opt/bcc-2.0.2-gcc/bin/../lib/gcc/sparc-gaisler-elf/7.2.0/../../../../sparc-gaisler-elf/lib/leon/mfix-at697f\libm.a(lib_a-w_acos.o) (matherr)
c:/opt/bcc-2.0.2-gcc/bin/../lib/gcc/sparc-gaisler-elf/7.2.0/../../../../sparc-gaisler-elf/lib/leon/mfix-at697f\libm.a(lib_a-s_nan.o)
                              c:/opt/bcc-2.0.2-gcc/bin/../lib/gcc/sparc-gaisler-elf/7.2.0/../../../../sparc-gaisler-elf/lib/leon/mfix-at697f\libm.a(lib_a-w_acos.o) (nan)
c:/opt/bcc-2.0.2-gcc/bin/../lib/gcc/sparc-gaisler-elf/7.2.0/../../../../sparc-gaisler-elf/lib/leon/mfix-at697f\libm.a(lib_a-s_rint.o)
                              c:/opt/bcc-2.0.2-gcc/bin/../lib/gcc/sparc-gaisler-elf/7.2.0/../../../../sparc-gaisler-elf/lib/leon/mfix-at697f\libm.a(lib_a-w_pow.o) (rint)
c:/opt/bcc-2.0.2-gcc/bin/../lib/gcc/sparc-gaisler-elf/7.2.0/../../../../sparc-gaisler-elf/lib/leon/mfix-at697f\libm.a(lib_a-s_scalbn.o)
                              c:/opt/bcc-2.0.2-gcc/bin/../lib/gcc/sparc-gaisler-elf/7.2.0/../../../../sparc-gaisler-elf/lib/leon/mfix-at697f\libm.a(lib_a-e_pow.o) (scalbn)
c:/opt/bcc-2.0.2-gcc/bin/../lib/gcc/sparc-gaisler-elf/7.2.0/../../../../sparc-gaisler-elf/lib/leon/mfix-at697f\libm.a(lib_a-s_copysign.o)
                              c:/opt/bcc-2.0.2-gcc/bin/../lib/gcc/sparc-gaisler-elf/7.2.0/../../../../sparc-gaisler-elf/lib/leon/mfix-at697f\libm.a(lib_a-s_scalbn.o) (copysign)
c:/opt/bcc-2.0.2-gcc/bin/../sparc-gaisler-elf/bsp/leon2/leon/mfix-at697f\libbcc.a(reset_trap_mvt.S.o)
                              c:/opt/bcc-2.0.2-gcc/bin/../sparc-gaisler-elf/bsp/leon2/leon/mfix-at697f/trap_table_mvt.S.o (__bcc_trap_reset_mvt)
c:/opt/bcc-2.0.2-gcc/bin/../sparc-gaisler-elf/bsp/leon2/leon/mfix-at697f\libbcc.a(window_trap.S.o)
                              c:/opt/bcc-2.0.2-gcc/bin/../sparc-gaisler-elf/bsp/leon2/leon/mfix-at697f/trap_table_mvt.S.o (__bcc_trap_window_overflow)
c:/opt/bcc-2.0.2-gcc/bin/../sparc-gaisler-elf/bsp/leon2/leon/mfix-at697f\libbcc.a(interrupt_trap.S.o)
                              c:/opt/bcc-2.0.2-gcc/bin/../sparc-gaisler-elf/bsp/leon2/leon/mfix-at697f/trap_table_mvt.S.o (__bcc_trap_interrupt)
c:/opt/bcc-2.0.2-gcc/bin/../sparc-gaisler-elf/bsp/leon2/leon/mfix-at697f\libbcc.a(flush_windows_trap.S.o)
                              c:/opt/bcc-2.0.2-gcc/bin/../sparc-gaisler-elf/bsp/leon2/leon/mfix-at697f/trap_table_mvt.S.o (__bcc_trap_flush_windows)
c:/opt/bcc-2.0.2-gcc/bin/../sparc-gaisler-elf/bsp/leon2/leon/mfix-at697f\libbcc.a(sw_trap_set_pil.S.o)
                              c:/opt/bcc-2.0.2-gcc/bin/../sparc-gaisler-elf/bsp/leon2/leon/mfix-at697f/trap_table_mvt.S.o (__bcc_trap_sw_set_pil)
c:/opt/bcc-2.0.2-gcc/bin/../sparc-gaisler-elf/bsp/leon2/leon/mfix-at697f\libbcc.a(trap.c.o)
                              C:\Users\ajarr\AppData\Local\Temp\cclcRNkm.o (bcc_set_trap)
c:/opt/bcc-2.0.2-gcc/bin/../sparc-gaisler-elf/bsp/leon2/leon/mfix-at697f\libbcc.a(isr.c.o)
                              c:/opt/bcc-2.0.2-gcc/bin/../sparc-gaisler-elf/bsp/leon2/leon/mfix-at697f\libbcc.a(interrupt_trap.S.o) (__bcc_isr_list)
c:/opt/bcc-2.0.2-gcc/bin/../sparc-gaisler-elf/bsp/leon2/leon/mfix-at697f\libbcc.a(int_nest.c.o)
                              c:/opt/bcc-2.0.2-gcc/bin/../sparc-gaisler-elf/bsp/leon2/leon/mfix-at697f\libbcc.a(interrupt_trap.S.o) (__bcc_int_nest)
c:/opt/bcc-2.0.2-gcc/bin/../sparc-gaisler-elf/bsp/leon2/leon/mfix-at697f\libbcc.a(init.S.o)
                              c:/opt/bcc-2.0.2-gcc/bin/../sparc-gaisler-elf/bsp/leon2/leon/mfix-at697f\libbcc.a(reset_trap_mvt.S.o) (__bcc_init40)
c:/opt/bcc-2.0.2-gcc/bin/../sparc-gaisler-elf/bsp/leon2/leon/mfix-at697f\libbcc.a(leon_info.S.o)
                              c:/opt/bcc-2.0.2-gcc/bin/../sparc-gaisler-elf/bsp/leon2/leon/mfix-at697f/crt0.S.o (__bcc_get_leon_info)
c:/opt/bcc-2.0.2-gcc/bin/../sparc-gaisler-elf/bsp/leon2/leon/mfix-at697f\libbcc.a(dwzero.S.o)
                              c:/opt/bcc-2.0.2-gcc/bin/../sparc-gaisler-elf/bsp/leon2/leon/mfix-at697f/crt0.S.o (bcc_dwzero)
c:/opt/bcc-2.0.2-gcc/bin/../sparc-gaisler-elf/bsp/leon2/leon/mfix-at697f\libbcc.a(copy_data.c.o)
                              c:/opt/bcc-2.0.2-gcc/bin/../sparc-gaisler-elf/bsp/leon2/leon/mfix-at697f/crt0.S.o (__bcc_copy_data)
c:/opt/bcc-2.0.2-gcc/bin/../sparc-gaisler-elf/bsp/leon2/leon/mfix-at697f\libbcc.a(lowlevel.S.o)
                              c:/opt/bcc-2.0.2-gcc/bin/../sparc-gaisler-elf/bsp/leon2/leon/mfix-at697f\libbcc.a(trap.c.o) (bcc_get_tbr)
c:/opt/bcc-2.0.2-gcc/bin/../sparc-gaisler-elf/bsp/leon2/leon/mfix-at697f\libbcc.a(lowlevel_leon2.S.o)
                              C:\Users\ajarr\AppData\Local\Temp\cclcRNkm.o (bcc_flush_cache)
c:/opt/bcc-2.0.2-gcc/bin/../sparc-gaisler-elf/bsp/leon2/leon/mfix-at697f\libbcc.a(int_leon2.c.o)
                              C:\Users\ajarr\AppData\Local\Temp\cclcRNkm.o (bcc_int_unmask)
c:/opt/bcc-2.0.2-gcc/bin/../sparc-gaisler-elf/bsp/leon2/leon/mfix-at697f\libbcc.a(int_leon2_get_source.c.o)
                              c:/opt/bcc-2.0.2-gcc/bin/../sparc-gaisler-elf/bsp/leon2/leon/mfix-at697f\libbcc.a(interrupt_trap.S.o) (__bcc_int_get_source)
c:/opt/bcc-2.0.2-gcc/bin/../sparc-gaisler-elf/bsp/leon2/leon/mfix-at697f\libbcc.a(int_leon2_init.c.o)
                              c:/opt/bcc-2.0.2-gcc/bin/../sparc-gaisler-elf/bsp/leon2/leon/mfix-at697f/crt0.S.o (__bcc_int_init)
c:/opt/bcc-2.0.2-gcc/bin/../sparc-gaisler-elf/bsp/leon2/leon/mfix-at697f\libbcc.a(con_leon2.c.o)
                              c:/opt/bcc-2.0.2-gcc/bin/../sparc-gaisler-elf/bsp/leon2/leon/mfix-at697f/crt0.S.o (__bcc_con_init)
c:/opt/bcc-2.0.2-gcc/bin/../sparc-gaisler-elf/bsp/leon2/leon/mfix-at697f\libbcc.a(timer_leon2.c.o)
                              c:/opt/bcc-2.0.2-gcc/bin/../sparc-gaisler-elf/bsp/leon2/leon/mfix-at697f/crt0.S.o (__bcc_timer_init)
c:/opt/bcc-2.0.2-gcc/bin/../sparc-gaisler-elf/bsp/leon2/leon/mfix-at697f\libbcc.a(set_pil.S.o)
                              c:/opt/bcc-2.0.2-gcc/bin/../sparc-gaisler-elf/bsp/leon2/leon/mfix-at697f\libbcc.a(int_leon2.c.o) (bcc_set_pil)
c:/opt/bcc-2.0.2-gcc/bin/../sparc-gaisler-elf/bsp/leon2/leon/mfix-at697f\libbcc.a(int_leon2_handle.c.o)
                              c:/opt/bcc-2.0.2-gcc/bin/../sparc-gaisler-elf/bsp/leon2/leon/mfix-at697f\libbcc.a(int_leon2.c.o) (__bcc_int_handle)
c:/opt/bcc-2.0.2-gcc/bin/../sparc-gaisler-elf/bsp/leon2/leon/mfix-at697f\libbcc.a(con_handle.c.o)
                              c:/opt/bcc-2.0.2-gcc/bin/../sparc-gaisler-elf/bsp/leon2/leon/mfix-at697f\libbcc.a(con_leon2.c.o) (__bcc_con_handle)
c:/opt/bcc-2.0.2-gcc/bin/../sparc-gaisler-elf/bsp/leon2/leon/mfix-at697f\libbcc.a(timer_handle.c.o)
                              c:/opt/bcc-2.0.2-gcc/bin/../sparc-gaisler-elf/bsp/leon2/leon/mfix-at697f\libbcc.a(timer_leon2.c.o) (__bcc_timer_handle)
c:/opt/bcc-2.0.2-gcc/bin/../lib/gcc/sparc-gaisler-elf/7.2.0/../../../../sparc-gaisler-elf/lib/leon/mfix-at697f\libc.a(lib_a-atexit.o)
                              c:/opt/bcc-2.0.2-gcc/bin/../sparc-gaisler-elf/bsp/leon2/leon/mfix-at697f/crt0.S.o (atexit)
c:/opt/bcc-2.0.2-gcc/bin/../lib/gcc/sparc-gaisler-elf/7.2.0/../../../../sparc-gaisler-elf/lib/leon/mfix-at697f\libc.a(lib_a-errno.o)
                              c:/opt/bcc-2.0.2-gcc/bin/../lib/gcc/sparc-gaisler-elf/7.2.0/../../../../sparc-gaisler-elf/lib/leon/mfix-at697f\libm.a(lib_a-w_acos.o) (__errno)
c:/opt/bcc-2.0.2-gcc/bin/../lib/gcc/sparc-gaisler-elf/7.2.0/../../../../sparc-gaisler-elf/lib/leon/mfix-at697f\libc.a(lib_a-exit.o)
                              c:/opt/bcc-2.0.2-gcc/bin/../sparc-gaisler-elf/bsp/leon2/leon/mfix-at697f/crt0.S.o (exit)
c:/opt/bcc-2.0.2-gcc/bin/../lib/gcc/sparc-gaisler-elf/7.2.0/../../../../sparc-gaisler-elf/lib/leon/mfix-at697f\libc.a(lib_a-impure.o)
                              c:/opt/bcc-2.0.2-gcc/bin/../lib/gcc/sparc-gaisler-elf/7.2.0/../../../../sparc-gaisler-elf/lib/leon/mfix-at697f\libc.a(lib_a-exit.o) (_global_impure_ptr)
c:/opt/bcc-2.0.2-gcc/bin/../lib/gcc/sparc-gaisler-elf/7.2.0/../../../../sparc-gaisler-elf/lib/leon/mfix-at697f\libc.a(lib_a-memcpy.o)
                              C:\Users\ajarr\AppData\Local\Temp\ccgZ79fC.o (memcpy)
c:/opt/bcc-2.0.2-gcc/bin/../lib/gcc/sparc-gaisler-elf/7.2.0/../../../../sparc-gaisler-elf/lib/leon/mfix-at697f\libc.a(lib_a-__atexit.o)
                              c:/opt/bcc-2.0.2-gcc/bin/../lib/gcc/sparc-gaisler-elf/7.2.0/../../../../sparc-gaisler-elf/lib/leon/mfix-at697f\libc.a(lib_a-atexit.o) (__register_exitproc)
c:/opt/bcc-2.0.2-gcc/bin/../lib/gcc/sparc-gaisler-elf/7.2.0/../../../../sparc-gaisler-elf/lib/leon/mfix-at697f\libc.a(lib_a-__call_atexit.o)
                              c:/opt/bcc-2.0.2-gcc/bin/../lib/gcc/sparc-gaisler-elf/7.2.0/../../../../sparc-gaisler-elf/lib/leon/mfix-at697f\libc.a(lib_a-exit.o) (__call_exitprocs)
c:/opt/bcc-2.0.2-gcc/bin/../sparc-gaisler-elf/bsp/leon2/leon/mfix-at697f\libbcc.a(_exit.S.o)
                              c:/opt/bcc-2.0.2-gcc/bin/../lib/gcc/sparc-gaisler-elf/7.2.0/../../../../sparc-gaisler-elf/lib/leon/mfix-at697f\libc.a(lib_a-exit.o) (_exit)

Allocating common symbols
Common symbol       size              file

inclo               0x8               C:\Users\ajarr\AppData\Local\Temp\ccmHMWab.o
rk_Qk               0x288             C:\Users\ajarr\AppData\Local\Temp\ccmHMWab.o
DPM_Polarity        0xc               C:\Users\ajarr\AppData\Local\Temp\ccmHMWab.o
rl                  0x8               C:\Users\ajarr\AppData\Local\Temp\ccmHMWab.o
CB_Q_propagation    0x4               C:\Users\ajarr\AppData\Local\Temp\ccmHMWab.o
TC_lat_station      0x8               C:\Users\ajarr\AppData\Local\Temp\ccmHMWab.o
BDOT_Reduction_Count
                    0x4               C:\Users\ajarr\AppData\Local\Temp\ccmHMWab.o
vz                  0x8               C:\Users\ajarr\AppData\Local\Temp\ccmHMWab.o
i_jday              0x4               C:\Users\ajarr\AppData\Local\Temp\ccmHMWab.o
Rho                 0x8               C:\Users\ajarr\AppData\Local\Temp\ccmHMWab.o
OrbitModel_Start    0x4               C:\Users\ajarr\AppData\Local\Temp\ccmHMWab.o
delmo               0x8               C:\Users\ajarr\AppData\Local\Temp\ccmHMWab.o
d_DAD               0x8               C:\Users\ajarr\AppData\Local\Temp\ccmHMWab.o
q_prop_out          0x20              C:\Users\ajarr\AppData\Local\Temp\ccmHMWab.o
ActWhMom            0x20              C:\Users\ajarr\AppData\Local\Temp\ccmHMWab.o
JDTDT               0x8               C:\Users\ajarr\AppData\Local\Temp\ccmHMWab.o
Z_EPO2ECI           0x18              C:\Users\ajarr\AppData\Local\Temp\ccmHMWab.o
sampling_rate_count
                    0x4               C:\Users\ajarr\AppData\Local\Temp\cck0ztpe.o
DeltaT_Updated      0x4               C:\Users\ajarr\AppData\Local\Temp\ccmHMWab.o
J_MAGAD             0x4               C:\Users\ajarr\AppData\Local\Temp\ccmHMWab.o
TC_wh_speed_thres   0x8               C:\Users\ajarr\AppData\Local\Temp\ccmHMWab.o
rw_count_test       0x1               C:\Users\ajarr\AppData\Local\Temp\ccW8vVNE.o
trueanomoly_GPS     0x8               C:\Users\ajarr\AppData\Local\Temp\ccmHMWab.o
latitude_temp       0x8               C:\Users\ajarr\AppData\Local\Temp\ccmHMWab.o
wcreci              0x18              C:\Users\ajarr\AppData\Local\Temp\ccmHMWab.o
xlm                 0x8               C:\Users\ajarr\AppData\Local\Temp\ccmHMWab.o
Qk_temp4            0x8               C:\Users\ajarr\AppData\Local\Temp\ccmHMWab.o
inter_HAL_IMU_Data  0x4               C:\Users\ajarr\AppData\Local\Temp\ccgZ79fC.o
tut                 0x8               C:\Users\ajarr\AppData\Local\Temp\ccmHMWab.o
TC_HAL_SA_Heater_Timer
                    0x4               C:\Users\ajarr\AppData\Local\Temp\ccmmE1Hm.o
del                 0x8               C:\Users\ajarr\AppData\Local\Temp\ccmHMWab.o
epochdays_sel       0x8               C:\Users\ajarr\AppData\Local\Temp\ccmHMWab.o
Orbit_Period_Comp   0x8               C:\Users\ajarr\AppData\Local\Temp\ccmHMWab.o
RW_Data_SlipFrame_TC
                    0x14              C:\Users\ajarr\AppData\Local\Temp\ccW8vVNE.o
agc_test            0x2               C:\Users\ajarr\AppData\Local\Temp\ccTGUrKF.o
t3                  0x8               C:\Users\ajarr\AppData\Local\Temp\ccmHMWab.o
HB                  0x18              C:\Users\ajarr\AppData\Local\Temp\ccmHMWab.o
Out_Latch_1         0x2               C:\Users\ajarr\AppData\Local\Temp\cclcRNkm.o
Tdes                0x18              C:\Users\ajarr\AppData\Local\Temp\ccmHMWab.o
wkm                 0x8               C:\Users\ajarr\AppData\Local\Temp\ccmHMWab.o
IO_Latch_Register_5_Data
                    0x4               C:\Users\ajarr\AppData\Local\Temp\cclcRNkm.o
func_prev_DAD       0x8               C:\Users\ajarr\AppData\Local\Temp\ccmHMWab.o
sun_quadrant        0x4               C:\Users\ajarr\AppData\Local\Temp\ccgZ79fC.o
pk_plus             0x288             C:\Users\ajarr\AppData\Local\Temp\ccmHMWab.o
PosR_Deployed       0x4               C:\Users\ajarr\AppData\Local\Temp\ccmHMWab.o
one_by_2            0x8               C:\Users\ajarr\AppData\Local\Temp\ccmHMWab.o
nodedf              0x8               C:\Users\ajarr\AppData\Local\Temp\ccmHMWab.o
PL_Exe_Flag         0x4               C:\Users\ajarr\AppData\Local\Temp\ccySgCMJ.o
BNorth              0x8               C:\Users\ajarr\AppData\Local\Temp\ccmHMWab.o
NRB_sunmag          0xc0              C:\Users\ajarr\AppData\Local\Temp\ccmHMWab.o
GPS_Status_Data     0x4               C:\Users\ajarr\AppData\Local\Temp\ccW8NopI.o
B_rawdata           0xc               C:\Users\ajarr\AppData\Local\Temp\ccgZ79fC.o
Del_Q               0x20              C:\Users\ajarr\AppData\Local\Temp\ccmHMWab.o
longitude_tan_den   0x8               C:\Users\ajarr\AppData\Local\Temp\ccmHMWab.o
pow_psisq           0x8               C:\Users\ajarr\AppData\Local\Temp\ccmHMWab.o
wcrecef             0x18              C:\Users\ajarr\AppData\Local\Temp\ccmHMWab.o
argpdf              0x8               C:\Users\ajarr\AppData\Local\Temp\ccmHMWab.o
GPS_OBT_Read_2      0x2               C:\Users\ajarr\AppData\Local\Temp\ccW8NopI.o
inter_HAL_TM_Write_Word_Count
                    0x4               C:\Users\ajarr\AppData\Local\Temp\cclcRNkm.o
rvdot               0x8               C:\Users\ajarr\AppData\Local\Temp\ccmHMWab.o
RW_Data_SlipFrame_Init
                    0x14              C:\Users\ajarr\AppData\Local\Temp\ccW8vVNE.o
q_by_two            0x60              C:\Users\ajarr\AppData\Local\Temp\ccmHMWab.o
RW_TM_ptr           0x4               C:\Users\ajarr\AppData\Local\Temp\ccW8vVNE.o
SS_M8               0x8               C:\Users\ajarr\AppData\Local\Temp\ccmHMWab.o
TC_StationTracking  0x4               C:\Users\ajarr\AppData\Local\Temp\ccmHMWab.o
mag_noise           0x8               C:\Users\ajarr\AppData\Local\Temp\ccmHMWab.o
IMU_On              0x4               C:\Users\ajarr\AppData\Local\Temp\ccgZ79fC.o
Y_SVO2ECI           0x18              C:\Users\ajarr\AppData\Local\Temp\ccmHMWab.o
cc2                 0x8               C:\Users\ajarr\AppData\Local\Temp\ccmHMWab.o
TC_gain_select_u    0x1c              C:\Users\ajarr\AppData\Local\Temp\cclcRNkm.o
TC_delAT            0x8               C:\Users\ajarr\AppData\Local\Temp\ccmHMWab.o
mat_sm_DataCounter  0x4               C:\Users\ajarr\AppData\Local\Temp\ccmHMWab.o
delomg              0x8               C:\Users\ajarr\AppData\Local\Temp\ccmHMWab.o
root_DAD            0x8               C:\Users\ajarr\AppData\Local\Temp\ccmHMWab.o
ST_TC_history_Buffer
                    0x100             C:\Users\ajarr\AppData\Local\Temp\cclcRNkm.o
rt_tm_frame_finish  0x1               C:\Users\ajarr\AppData\Local\Temp\cclcRNkm.o
func_DAD            0x8               C:\Users\ajarr\AppData\Local\Temp\ccmHMWab.o
TC_ptr_count        0x4               C:\Users\ajarr\AppData\Local\Temp\ccgZ79fC.o
minor_cycle_counter_test
                    0x4               C:\Users\ajarr\AppData\Local\Temp\cclcRNkm.o
cosi                0x8               C:\Users\ajarr\AppData\Local\Temp\ccmHMWab.o
xhdot1              0x8               C:\Users\ajarr\AppData\Local\Temp\ccmHMWab.o
ibexp_TLE_tc        0x8               C:\Users\ajarr\AppData\Local\Temp\ccmHMWab.o
omgcof              0x8               C:\Users\ajarr\AppData\Local\Temp\ccmHMWab.o
phi_11_temp4        0x48              C:\Users\ajarr\AppData\Local\Temp\ccmHMWab.o
eeprom_cur_addr     0x4               C:\Users\ajarr\AppData\Local\Temp\cclcRNkm.o
w_REF               0x18              C:\Users\ajarr\AppData\Local\Temp\ccmHMWab.o
tempe               0x8               C:\Users\ajarr\AppData\Local\Temp\ccmHMWab.o
mu_m                0x18              C:\Users\ajarr\AppData\Local\Temp\ccmHMWab.o
el2                 0x8               C:\Users\ajarr\AppData\Local\Temp\ccmHMWab.o
MUX_data2           0x2               C:\Users\ajarr\AppData\Local\Temp\ccXi6CuD.o
Q_angle             0x8               C:\Users\ajarr\AppData\Local\Temp\ccmHMWab.o
BDOT_Counter        0x4               C:\Users\ajarr\AppData\Local\Temp\ccgZ79fC.o
a_DAD               0x8               C:\Users\ajarr\AppData\Local\Temp\ccmHMWab.o
gpstestbuff         0x44              C:\Users\ajarr\AppData\Local\Temp\ccW8NopI.o
Orbit_Period        0x8               C:\Users\ajarr\AppData\Local\Temp\ccmHMWab.o
ADC_Buffer_Addr     0x4               C:\Users\ajarr\AppData\Local\Temp\ccTGUrKF.o
Normal_st_table_page1
                    0x4               C:\Users\ajarr\AppData\Local\Temp\cclcRNkm.o
hk_xk_minus         0x18              C:\Users\ajarr\AppData\Local\Temp\ccmHMWab.o
Roll_pos_D          0x8               C:\Users\ajarr\AppData\Local\Temp\ccgZ79fC.o
BlkCurrent_Cmd      0x4               C:\Users\ajarr\AppData\Local\Temp\ccXi6CuD.o
ADC_Status_Data     0x4               C:\Users\ajarr\AppData\Local\Temp\ccTGUrKF.o
count_tc_hist       0x4               C:\Users\ajarr\AppData\Local\Temp\cclcRNkm.o
MUX_1               0x2               C:\Users\ajarr\AppData\Local\Temp\cclcRNkm.o
GPS_Config_ptr      0x4               C:\Users\ajarr\AppData\Local\Temp\ccW8NopI.o
nutation            0x48              C:\Users\ajarr\AppData\Local\Temp\ccmHMWab.o
GPS1                0x40              C:\Users\ajarr\AppData\Local\Temp\cclcRNkm.o
bstar_sel           0x8               C:\Users\ajarr\AppData\Local\Temp\ccmHMWab.o
Y_SFDO2ECI          0x18              C:\Users\ajarr\AppData\Local\Temp\ccmHMWab.o
ss_data_2           0x10              C:\Users\ajarr\AppData\Local\Temp\ccTGUrKF.o
az1                 0x8               C:\Users\ajarr\AppData\Local\Temp\ccgZ79fC.o
TC_max_whspeed      0x8               C:\Users\ajarr\AppData\Local\Temp\ccmHMWab.o
inter_HAL_IMU_Configure_Address
                    0x4               C:\Users\ajarr\AppData\Local\Temp\ccgZ79fC.o
Zt_DAD              0x18              C:\Users\ajarr\AppData\Local\Temp\ccmHMWab.o
sine_of_Wk1_Delta   0x8               C:\Users\ajarr\AppData\Local\Temp\ccmHMWab.o
Special_st_table_page3
                    0x4               C:\Users\ajarr\AppData\Local\Temp\cclcRNkm.o
delmo_temp          0x8               C:\Users\ajarr\AppData\Local\Temp\ccmHMWab.o
temp_or_init        0x8               C:\Users\ajarr\AppData\Local\Temp\ccmHMWab.o
vsatx_eci           0x8               C:\Users\ajarr\AppData\Local\Temp\ccmHMWab.o
TTDT                0x8               C:\Users\ajarr\AppData\Local\Temp\ccmHMWab.o
block_test          0x1               C:\Users\ajarr\AppData\Local\Temp\ccgZ79fC.o
mm                  0x8               C:\Users\ajarr\AppData\Local\Temp\ccmHMWab.o
Norm_ST_Table       0x2028            C:\Users\ajarr\AppData\Local\Temp\cclcRNkm.o
ecc_temp1           0x8               C:\Users\ajarr\AppData\Local\Temp\ccmHMWab.o
bstar_tc            0x8               C:\Users\ajarr\AppData\Local\Temp\ccmHMWab.o
intermediate        0x8               C:\Users\ajarr\AppData\Local\Temp\ccmHMWab.o
gN_MAGAD            0x4               C:\Users\ajarr\AppData\Local\Temp\ccmHMWab.o
Delta_TLE           0x4               C:\Users\ajarr\AppData\Local\Temp\ccmHMWab.o
tos                 0x4               C:\Users\ajarr\AppData\Local\Temp\ccgZ79fC.o
eeprom_chksum       0x4               C:\Users\ajarr\AppData\Local\Temp\cclcRNkm.o
rtom                0x8               C:\Users\ajarr\AppData\Local\Temp\ccmHMWab.o
sinu                0x8               C:\Users\ajarr\AppData\Local\Temp\ccmHMWab.o
CB_OrbitModel       0x4               C:\Users\ajarr\AppData\Local\Temp\ccmHMWab.o
j                   0x4               C:\Users\ajarr\AppData\Local\Temp\ccmHMWab.o
Ry                  0x48              C:\Users\ajarr\AppData\Local\Temp\ccmHMWab.o
ch_obs_whsp         0x20              C:\Users\ajarr\AppData\Local\Temp\ccmHMWab.o
Pl_tm_data          0x100             C:\Users\ajarr\AppData\Local\Temp\cclcRNkm.o
TM                  0x8b9             C:\Users\ajarr\AppData\Local\Temp\cclcRNkm.o
k_kf                0x4               C:\Users\ajarr\AppData\Local\Temp\ccmHMWab.o
u_perp              0x18              C:\Users\ajarr\AppData\Local\Temp\ccmHMWab.o
SWHW_STATUS         0x4               C:\Users\ajarr\AppData\Local\Temp\cclcRNkm.o
cp_cnt1             0x4               C:\Users\ajarr\AppData\Local\Temp\cck0ztpe.o
Ton                 0xc               C:\Users\ajarr\AppData\Local\Temp\ccmHMWab.o
determinant         0x8               C:\Users\ajarr\AppData\Local\Temp\ccmHMWab.o
Pitch_MTREnable     0x4               C:\Users\ajarr\AppData\Local\Temp\ccmHMWab.o
hils_ptr_sh         0x4               C:\Users\ajarr\AppData\Local\Temp\ccySgCMJ.o
TC_OBT_Start        0x4               C:\Users\ajarr\AppData\Local\Temp\cck0ztpe.o
gyrodet_B           0x18              C:\Users\ajarr\AppData\Local\Temp\ccgZ79fC.o
SunAcq3ThreeAx_trsit_cnt
                    0x4               C:\Users\ajarr\AppData\Local\Temp\ccmHMWab.o
TTDB2               0x8               C:\Users\ajarr\AppData\Local\Temp\ccmHMWab.o
eccsq               0x8               C:\Users\ajarr\AppData\Local\Temp\ccmHMWab.o
eccanomaly          0x8               C:\Users\ajarr\AppData\Local\Temp\ccmHMWab.o
TC_count            0x2               C:\Users\ajarr\AppData\Local\Temp\ccXi6CuD.o
spin_up_avg_count   0x4               C:\Users\ajarr\AppData\Local\Temp\ccmHMWab.o
TC_GPS2TLE_Switch   0x4               C:\Users\ajarr\AppData\Local\Temp\ccmHMWab.o
ecc_GPS             0x8               C:\Users\ajarr\AppData\Local\Temp\ccmHMWab.o
NOB_SFC_Init        0x4               C:\Users\ajarr\AppData\Local\Temp\ccW8vVNE.o
radialdistance      0x8               C:\Users\ajarr\AppData\Local\Temp\ccmHMWab.o
BNorth_old          0x8               C:\Users\ajarr\AppData\Local\Temp\ccmHMWab.o
uy                  0x8               C:\Users\ajarr\AppData\Local\Temp\ccmHMWab.o
pl_configure_data   0x4               C:\Users\ajarr\AppData\Local\Temp\ccySgCMJ.o
DFCcountHigh        0x4               C:\Users\ajarr\AppData\Local\Temp\ccmHMWab.o
hr_TLE_tc           0x4               C:\Users\ajarr\AppData\Local\Temp\ccmHMWab.o
Nodearray           0x2ee0            C:\Users\ajarr\AppData\Local\Temp\ccXi6CuD.o
eSpaceCraftMode     0x4               C:\Users\ajarr\AppData\Local\Temp\ccmHMWab.o
q_magad             0x350             C:\Users\ajarr\AppData\Local\Temp\ccmHMWab.o
aynl                0x8               C:\Users\ajarr\AppData\Local\Temp\ccmHMWab.o
perigee             0x8               C:\Users\ajarr\AppData\Local\Temp\ccmHMWab.o
K_DAD               0x4               C:\Users\ajarr\AppData\Local\Temp\ccmHMWab.o
gps_test_counter    0x4               C:\Users\ajarr\AppData\Local\Temp\ccW8NopI.o
SS_prcd_data_ptr    0x4               C:\Users\ajarr\AppData\Local\Temp\ccgZ79fC.o
Day_Of_Year_DeltaT  0x8               C:\Users\ajarr\AppData\Local\Temp\ccmHMWab.o
Del_R_theta         0x8               C:\Users\ajarr\AppData\Local\Temp\ccmHMWab.o
Z_SVO2ECI           0x18              C:\Users\ajarr\AppData\Local\Temp\ccmHMWab.o
heater_update_buffer
                    0x40              C:\Users\ajarr\AppData\Local\Temp\ccQfD6IQ.o
ST_TCH_frame_count  0x2               C:\Users\ajarr\AppData\Local\Temp\cclcRNkm.o
TCH_dump_finish     0x4               C:\Users\ajarr\AppData\Local\Temp\cclcRNkm.o
UT1                 0x8               C:\Users\ajarr\AppData\Local\Temp\ccmHMWab.o
nut_temp            0x48              C:\Users\ajarr\AppData\Local\Temp\ccmHMWab.o
SB_RED              0x18              C:\Users\ajarr\AppData\Local\Temp\ccgZ79fC.o
Major_Cycle_Count   0x4               C:\Users\ajarr\AppData\Local\Temp\cclcRNkm.o
GPS_msg_header_MSB  0x4               C:\Users\ajarr\AppData\Local\Temp\ccW8NopI.o
inter_TM_Pl_Buffer  0x4               C:\Users\ajarr\AppData\Local\Temp\cclcRNkm.o
ActuationCycle      0x4               C:\Users\ajarr\AppData\Local\Temp\ccmHMWab.o
inter_sunsensor_i   0x4               C:\Users\ajarr\AppData\Local\Temp\ccgZ79fC.o
T_RWBn              0x18              C:\Users\ajarr\AppData\Local\Temp\ccmHMWab.o
SC6ImaxF            0x8               C:\Users\ajarr\AppData\Local\Temp\ccgZ79fC.o
Roll_MTR_Pol_Reversal
                    0x4               C:\Users\ajarr\AppData\Local\Temp\ccmHMWab.o
GYRO_Counter        0x4               C:\Users\ajarr\AppData\Local\Temp\ccgZ79fC.o
trueanomoly         0x8               C:\Users\ajarr\AppData\Local\Temp\ccmHMWab.o
inter_ST_TC_TM_Minor_Cycle_Count
                    0x4               C:\Users\ajarr\AppData\Local\Temp\cclcRNkm.o
ST_normal           0x148             C:\Users\ajarr\AppData\Local\Temp\cclcRNkm.o
temp2               0x8               C:\Users\ajarr\AppData\Local\Temp\ccmHMWab.o
B_LPF               0x18              C:\Users\ajarr\AppData\Local\Temp\ccgZ79fC.o
TC_input_cmd        0x8               C:\Users\ajarr\AppData\Local\Temp\cclcRNkm.o
TC_TLE_Elements_select
                    0x4               C:\Users\ajarr\AppData\Local\Temp\ccmHMWab.o
TLE_Select          0x4               C:\Users\ajarr\AppData\Local\Temp\ccmHMWab.o
PL_TM_write_Flag    0x4               C:\Users\ajarr\AppData\Local\Temp\ccySgCMJ.o
cos_and_sin         0x80              C:\Users\ajarr\AppData\Local\Temp\ccmHMWab.o
TC_TLE_data         0x44              C:\Users\ajarr\AppData\Local\Temp\ccXi6CuD.o
SunAcq2DetMode_counter
                    0x4               C:\Users\ajarr\AppData\Local\Temp\ccmHMWab.o
ST_end_read         0x4               C:\Users\ajarr\AppData\Local\Temp\cclcRNkm.o
thermistor_15       0x4               C:\Users\ajarr\AppData\Local\Temp\ccTGUrKF.o
TC_min_whspeed      0x8               C:\Users\ajarr\AppData\Local\Temp\ccmHMWab.o
rw_init             0xb               C:\Users\ajarr\AppData\Local\Temp\ccW8vVNE.o
Hils_ptr            0x4               C:\Users\ajarr\AppData\Local\Temp\ccySgCMJ.o
f                   0x28              C:\Users\ajarr\AppData\Local\Temp\ccmHMWab.o
ST_start_read       0x4               C:\Users\ajarr\AppData\Local\Temp\cclcRNkm.o
TC_MDk              0x8               C:\Users\ajarr\AppData\Local\Temp\ccmHMWab.o
Vel_ECIn            0x18              C:\Users\ajarr\AppData\Local\Temp\ccmHMWab.o
UTC_mon_GPS         0x4               C:\Users\ajarr\AppData\Local\Temp\ccmHMWab.o
Antenna_ACK         0x2               C:\Users\ajarr\AppData\Local\Temp\ccmmE1Hm.o
B2wh_mat            0x60              C:\Users\ajarr\AppData\Local\Temp\ccmHMWab.o
SC5                 0x8               C:\Users\ajarr\AppData\Local\Temp\ccgZ79fC.o
Delta_by2           0x8               C:\Users\ajarr\AppData\Local\Temp\ccmHMWab.o
Q_EPO2ECI           0x20              C:\Users\ajarr\AppData\Local\Temp\ccmHMWab.o
inter_imu_i         0x4               C:\Users\ajarr\AppData\Local\Temp\ccgZ79fC.o
old_cos             0x8               C:\Users\ajarr\AppData\Local\Temp\ccmHMWab.o
flag_for_test       0x4               C:\Users\ajarr\AppData\Local\Temp\cck0ztpe.o
Not_Deployed        0x4               C:\Users\ajarr\AppData\Local\Temp\ccmHMWab.o
ADC_Buffer          0xbc              C:\Users\ajarr\AppData\Local\Temp\cclcRNkm.o
eccanomaly_GPS      0x8               C:\Users\ajarr\AppData\Local\Temp\ccmHMWab.o
sa_data             0x2               C:\Users\ajarr\AppData\Local\Temp\ccmmE1Hm.o
angmomentumvec      0x18              C:\Users\ajarr\AppData\Local\Temp\ccmHMWab.o
B_RPY               0x18              C:\Users\ajarr\AppData\Local\Temp\ccgZ79fC.o
out_Quat_norm       0x20              C:\Users\ajarr\AppData\Local\Temp\ccmHMWab.o
cc5                 0x8               C:\Users\ajarr\AppData\Local\Temp\ccmHMWab.o
gast                0x8               C:\Users\ajarr\AppData\Local\Temp\ccmHMWab.o
TC_ST_Table_Row_No  0x4               C:\Users\ajarr\AppData\Local\Temp\cclcRNkm.o
IMU1_DATA           0x30              C:\Users\ajarr\AppData\Local\Temp\cclcRNkm.o
temp_magad          0x8               C:\Users\ajarr\AppData\Local\Temp\ccmHMWab.o
nut_sid_temp        0x48              C:\Users\ajarr\AppData\Local\Temp\ccmHMWab.o
sec_sel             0x8               C:\Users\ajarr\AppData\Local\Temp\ccmHMWab.o
K_MAGAD             0x4               C:\Users\ajarr\AppData\Local\Temp\ccmHMWab.o
B_REF               0x18              C:\Users\ajarr\AppData\Local\Temp\ccmHMWab.o
ST_Out_Latch_3      0x2               C:\Users\ajarr\AppData\Local\Temp\cclcRNkm.o
omecc               0x8               C:\Users\ajarr\AppData\Local\Temp\ccmHMWab.o
del_v0a             0x8               C:\Users\ajarr\AppData\Local\Temp\ccmHMWab.o
argofperigee        0x8               C:\Users\ajarr\AppData\Local\Temp\ccmHMWab.o
phi_k_T             0x288             C:\Users\ajarr\AppData\Local\Temp\ccmHMWab.o
argpo_tc            0x8               C:\Users\ajarr\AppData\Local\Temp\ccmHMWab.o
eSafeMode           0x4               C:\Users\ajarr\AppData\Local\Temp\ccmHMWab.o
Special_source      0x100             C:\Users\ajarr\AppData\Local\Temp\cclcRNkm.o
Alti_GPS            0x8               C:\Users\ajarr\AppData\Local\Temp\ccmHMWab.o
PL_2_on_off_flag    0x4               C:\Users\ajarr\AppData\Local\Temp\ccySgCMJ.o
SC5ImaxF            0x8               C:\Users\ajarr\AppData\Local\Temp\ccgZ79fC.o
TC_wAD_BODYmaxThYaw
                    0x8               C:\Users\ajarr\AppData\Local\Temp\ccmHMWab.o
IMU2_DATA           0x30              C:\Users\ajarr\AppData\Local\Temp\cclcRNkm.o
T_RWB               0x18              C:\Users\ajarr\AppData\Local\Temp\ccmHMWab.o
count_plus          0x4               C:\Users\ajarr\AppData\Local\Temp\cck0ztpe.o
test_3              0x8               C:\Users\ajarr\AppData\Local\Temp\ccgZ79fC.o
GPS_Config_Status   0x4               C:\Users\ajarr\AppData\Local\Temp\ccW8NopI.o
GPS_Config_Msg      0xc               C:\Users\ajarr\AppData\Local\Temp\ccW8NopI.o
s_magad             0x8               C:\Users\ajarr\AppData\Local\Temp\ccmHMWab.o
TC_SS_Main_Cells_Sel
                    0x4               C:\Users\ajarr\AppData\Local\Temp\ccgZ79fC.o
Sunlit_presence_timer
                    0x4               C:\Users\ajarr\AppData\Local\Temp\ccgZ79fC.o
Toff                0xc               C:\Users\ajarr\AppData\Local\Temp\ccmHMWab.o
rdotrst             0x8               C:\Users\ajarr\AppData\Local\Temp\ccmHMWab.o
pl_cmd_id           0x4               C:\Users\ajarr\AppData\Local\Temp\ccySgCMJ.o
Spacecraft_Mode     0x4               C:\Users\ajarr\AppData\Local\Temp\cclcRNkm.o
qerror              0x4               C:\Users\ajarr\AppData\Local\Temp\ccDrgrG5.o
B_NED               0x18              C:\Users\ajarr\AppData\Local\Temp\ccmHMWab.o
alpha_2RW           0x8               C:\Users\ajarr\AppData\Local\Temp\ccmHMWab.o
temp1_or_init       0x8               C:\Users\ajarr\AppData\Local\Temp\ccmHMWab.o
prev_obs_whsp_ch    0x20              C:\Users\ajarr\AppData\Local\Temp\ccmHMWab.o
Wk1_one             0x48              C:\Users\ajarr\AppData\Local\Temp\ccmHMWab.o
d1                  0x8               C:\Users\ajarr\AppData\Local\Temp\ccmHMWab.o
coskp               0x8               C:\Users\ajarr\AppData\Local\Temp\ccmHMWab.o
new_data            0x8               C:\Users\ajarr\AppData\Local\Temp\ccXi6CuD.o
TDB                 0x8               C:\Users\ajarr\AppData\Local\Temp\ccmHMWab.o
TC_ptr              0x4               C:\Users\ajarr\AppData\Local\Temp\ccW8vVNE.o
SunAcquisition2ThreeAxis_autotransit
                    0x4               C:\Users\ajarr\AppData\Local\Temp\ccmHMWab.o
rw_tc_count         0x4               C:\Users\ajarr\AppData\Local\Temp\ccW8vVNE.o
S_BODY              0x18              C:\Users\ajarr\AppData\Local\Temp\ccgZ79fC.o
AngDev_SAMtransit_thrsld
                    0x8               C:\Users\ajarr\AppData\Local\Temp\ccgZ79fC.o
Zt_Ssqr_Z_DAD       0x8               C:\Users\ajarr\AppData\Local\Temp\ccmHMWab.o
f_DataSort_SUNMAG   0x4               C:\Users\ajarr\AppData\Local\Temp\ccmHMWab.o
sine1               0x8               C:\Users\ajarr\AppData\Local\Temp\ccmHMWab.o
wheel_spin_logic    0x4               C:\Users\ajarr\AppData\Local\Temp\ccmHMWab.o
con42               0x8               C:\Users\ajarr\AppData\Local\Temp\ccmHMWab.o
inter_HAL_IMU_Control_Data
                    0x4               C:\Users\ajarr\AppData\Local\Temp\ccgZ79fC.o
normal_count1       0x4               C:\Users\ajarr\AppData\Local\Temp\cck0ztpe.o
Epochyear_GPS       0x4               C:\Users\ajarr\AppData\Local\Temp\ccmHMWab.o
CB_DutyCycleGeneration
                    0x4               C:\Users\ajarr\AppData\Local\Temp\ccmHMWab.o
eeprom_blk_end_addr
                    0x4               C:\Users\ajarr\AppData\Local\Temp\cclcRNkm.o
inclination_GPS     0x8               C:\Users\ajarr\AppData\Local\Temp\ccmHMWab.o
Roll_neg_D          0x8               C:\Users\ajarr\AppData\Local\Temp\ccgZ79fC.o
pl_data_rcvd        0x4               C:\Users\ajarr\AppData\Local\Temp\ccySgCMJ.o
Matout341           0x18              C:\Users\ajarr\AppData\Local\Temp\ccmHMWab.o
wh2B_mat            0x60              C:\Users\ajarr\AppData\Local\Temp\ccmHMWab.o
ADCS_TC_data_command_Table
                    0xe8              C:\Users\ajarr\AppData\Local\Temp\cclcRNkm.o
xmy                 0x8               C:\Users\ajarr\AppData\Local\Temp\ccmHMWab.o
gps_pulse_mic_cnt   0x2               C:\Users\ajarr\AppData\Local\Temp\ccW8NopI.o
gps_data_length     0x4               C:\Users\ajarr\AppData\Local\Temp\ccW8NopI.o
uuu                 0x8               C:\Users\ajarr\AppData\Local\Temp\ccmHMWab.o
TAI                 0x8               C:\Users\ajarr\AppData\Local\Temp\ccmHMWab.o
NMB_sunmag          0xc0              C:\Users\ajarr\AppData\Local\Temp\ccmHMWab.o
nodeo_GPS           0x8               C:\Users\ajarr\AppData\Local\Temp\ccmHMWab.o
TC_GPSvalidity_Threshold
                    0x4               C:\Users\ajarr\AppData\Local\Temp\ccmHMWab.o
CB_Torquer_Polarity_Check
                    0x4               C:\Users\ajarr\AppData\Local\Temp\ccmHMWab.o
x7thm1              0x8               C:\Users\ajarr\AppData\Local\Temp\ccmHMWab.o
GPIO_pins           0x2               C:\Users\ajarr\AppData\Local\Temp\cclcRNkm.o
ak                  0x8               C:\Users\ajarr\AppData\Local\Temp\ccmHMWab.o
ecc_TLE_tc          0x8               C:\Users\ajarr\AppData\Local\Temp\ccmHMWab.o
Tv_wof              0x48              C:\Users\ajarr\AppData\Local\Temp\ccmHMWab.o
CB_AngularMomentumDumping
                    0x4               C:\Users\ajarr\AppData\Local\Temp\ccmHMWab.o
LossWhMomFilt       0x20              C:\Users\ajarr\AppData\Local\Temp\ccmHMWab.o
v0_rad_sec          0x20              C:\Users\ajarr\AppData\Local\Temp\ccmHMWab.o
TC_RW_ARC_Count_thres
                    0x4               C:\Users\ajarr\AppData\Local\Temp\ccmHMWab.o
temp12              0x8               C:\Users\ajarr\AppData\Local\Temp\ccgZ79fC.o
abc                 0x4               C:\Users\ajarr\AppData\Local\Temp\ccXi6CuD.o
Panel_Deployment    0x4               C:\Users\ajarr\AppData\Local\Temp\ccgZ79fC.o
pl_command_data     0x4               C:\Users\ajarr\AppData\Local\Temp\ccySgCMJ.o
del_temp            0x8               C:\Users\ajarr\AppData\Local\Temp\ccmHMWab.o
inter_Update_TM_With_ADC_byte_offset
                    0x4               C:\Users\ajarr\AppData\Local\Temp\ccTGUrKF.o
f_Sunlit_Presence_OBC
                    0x4               C:\Users\ajarr\AppData\Local\Temp\ccmHMWab.o
g                   0x780             C:\Users\ajarr\AppData\Local\Temp\ccmHMWab.o
rw_test_array       0x200             C:\Users\ajarr\AppData\Local\Temp\ccW8vVNE.o
TC_eesqrd           0x8               C:\Users\ajarr\AppData\Local\Temp\ccmHMWab.o
eeta                0x8               C:\Users\ajarr\AppData\Local\Temp\ccmHMWab.o
w_ABC               0x18              C:\Users\ajarr\AppData\Local\Temp\ccgZ79fC.o
test_attc           0x4               C:\Users\ajarr\AppData\Local\Temp\ccgZ79fC.o
xnode               0x8               C:\Users\ajarr\AppData\Local\Temp\ccmHMWab.o
tor_counter         0x4               C:\Users\ajarr\AppData\Local\Temp\cclcRNkm.o
B_Rho               0x8               C:\Users\ajarr\AppData\Local\Temp\ccmHMWab.o
rdotl               0x8               C:\Users\ajarr\AppData\Local\Temp\ccmHMWab.o
QRD_vect_norm       0x8               C:\Users\ajarr\AppData\Local\Temp\ccmHMWab.o
Z_DAD               0x18              C:\Users\ajarr\AppData\Local\Temp\ccmHMWab.o
PL_TM_Status_flag   0x2               C:\Users\ajarr\AppData\Local\Temp\ccySgCMJ.o
semimajoraxis       0x8               C:\Users\ajarr\AppData\Local\Temp\ccmHMWab.o
gmm                 0x4               C:\Users\ajarr\AppData\Local\Temp\ccmHMWab.o
S_REFn              0x18              C:\Users\ajarr\AppData\Local\Temp\ccmHMWab.o
mat_adj             0x48              C:\Users\ajarr\AppData\Local\Temp\ccmHMWab.o
TorquerPolaritySetFlag
                    0x4               C:\Users\ajarr\AppData\Local\Temp\ccmHMWab.o
temp_short          0x2               C:\Users\ajarr\AppData\Local\Temp\ccW8vVNE.o
CB_RefRate_Computation
                    0x4               C:\Users\ajarr\AppData\Local\Temp\ccmHMWab.o
B_IMU               0x18              C:\Users\ajarr\AppData\Local\Temp\ccgZ79fC.o
GPS_Elements_Available
                    0x4               C:\Users\ajarr\AppData\Local\Temp\ccmHMWab.o
NRBt_mag            0x240             C:\Users\ajarr\AppData\Local\Temp\ccmHMWab.o
Kk_Hk               0x288             C:\Users\ajarr\AppData\Local\Temp\ccmHMWab.o
Normal_source       0x100             C:\Users\ajarr\AppData\Local\Temp\cclcRNkm.o
X_EPO2ECI           0x18              C:\Users\ajarr\AppData\Local\Temp\ccmHMWab.o
GPS_OBT_Read_1      0x2               C:\Users\ajarr\AppData\Local\Temp\ccW8NopI.o
cosim               0x8               C:\Users\ajarr\AppData\Local\Temp\ccmHMWab.o
CB_SpeedBasedMomentumDumping
                    0x4               C:\Users\ajarr\AppData\Local\Temp\ccmHMWab.o
mo_tc               0x8               C:\Users\ajarr\AppData\Local\Temp\ccmHMWab.o
i_comr              0x4               C:\Users\ajarr\AppData\Local\Temp\ccmHMWab.o
Dest_TC_final_end_addr
                    0x4               C:\Users\ajarr\AppData\Local\Temp\cclcRNkm.o
MUX_3               0x2               C:\Users\ajarr\AppData\Local\Temp\cclcRNkm.o
hr_sel              0x4               C:\Users\ajarr\AppData\Local\Temp\ccmHMWab.o
ab_test1            0x4               C:\Users\ajarr\AppData\Local\Temp\ccgZ79fC.o
ST_NM_Buffer        0x148             C:\Users\ajarr\AppData\Local\Temp\cclcRNkm.o
inclm               0x8               C:\Users\ajarr\AppData\Local\Temp\ccmHMWab.o
TC_BDOT_Compute_Count
                    0x4               C:\Users\ajarr\AppData\Local\Temp\ccmHMWab.o
copy_frame_count    0x4               C:\Users\ajarr\AppData\Local\Temp\cck0ztpe.o
mod_of_Wk1          0x8               C:\Users\ajarr\AppData\Local\Temp\ccmHMWab.o
qzms24_temp         0x8               C:\Users\ajarr\AppData\Local\Temp\ccmHMWab.o
DFriction_Compensation
                    0x4               C:\Users\ajarr\AppData\Local\Temp\ccmHMWab.o
S_DAD               0x48              C:\Users\ajarr\AppData\Local\Temp\ccmHMWab.o
input_latch_2       0x2               C:\Users\ajarr\AppData\Local\Temp\cclcRNkm.o
TCH_full_dump_finish
                    0x4               C:\Users\ajarr\AppData\Local\Temp\cclcRNkm.o
mm_temp             0x8               C:\Users\ajarr\AppData\Local\Temp\ccmHMWab.o
temp_temp           0x8               C:\Users\ajarr\AppData\Local\Temp\ccmHMWab.o
pk_HkT_Hk_Rk        0x48              C:\Users\ajarr\AppData\Local\Temp\ccmHMWab.o
TC_hist_data        0xfa00            C:\Users\ajarr\AppData\Local\Temp\cclcRNkm.o
u_temp              0x8               C:\Users\ajarr\AppData\Local\Temp\ccmHMWab.o
TC_BDOT_Det_Thresh  0x8               C:\Users\ajarr\AppData\Local\Temp\ccmHMWab.o
NMB_NRBt            0x48              C:\Users\ajarr\AppData\Local\Temp\ccmHMWab.o
A3_magad            0x8               C:\Users\ajarr\AppData\Local\Temp\ccmHMWab.o
ecc_temp2           0x8               C:\Users\ajarr\AppData\Local\Temp\ccmHMWab.o
GPS_Buffer_Data     0x1a8             C:\Users\ajarr\AppData\Local\Temp\ccW8NopI.o
NOB_CRC_Init        0x4               C:\Users\ajarr\AppData\Local\Temp\ccW8vVNE.o
sun_sf              0x18              C:\Users\ajarr\AppData\Local\Temp\ccgZ79fC.o
year_GPS            0x4               C:\Users\ajarr\AppData\Local\Temp\ccmHMWab.o
AngDev_SMtransit_thrsld
                    0x8               C:\Users\ajarr\AppData\Local\Temp\ccgZ79fC.o
TC_exe              0x8               C:\Users\ajarr\AppData\Local\Temp\ccXi6CuD.o
Y_SPO2ECI           0x18              C:\Users\ajarr\AppData\Local\Temp\ccmHMWab.o
length              0x4               C:\Users\ajarr\AppData\Local\Temp\ccySgCMJ.o
SA_thermistor1      0x4               C:\Users\ajarr\AppData\Local\Temp\ccTGUrKF.o
sigma_m             0x8               C:\Users\ajarr\AppData\Local\Temp\ccmHMWab.o
CB_ReferenceQuatComputation
                    0x4               C:\Users\ajarr\AppData\Local\Temp\ccmHMWab.o
sinkp               0x8               C:\Users\ajarr\AppData\Local\Temp\ccmHMWab.o
adj_S_DAD           0x48              C:\Users\ajarr\AppData\Local\Temp\ccmHMWab.o
p_magad             0x350             C:\Users\ajarr\AppData\Local\Temp\ccmHMWab.o
Roll_Pol            0x4               C:\Users\ajarr\AppData\Local\Temp\ccegzvw7.o
GYRO_max_threshold_count
                    0x4               C:\Users\ajarr\AppData\Local\Temp\ccmHMWab.o
block_test_array    0x190             C:\Users\ajarr\AppData\Local\Temp\ccXi6CuD.o
day_TLE_tc          0x4               C:\Users\ajarr\AppData\Local\Temp\ccmHMWab.o
Out_latch_4         0x2               C:\Users\ajarr\AppData\Local\Temp\cclcRNkm.o
TC_SpeedDumpTime    0x4               C:\Users\ajarr\AppData\Local\Temp\ccmHMWab.o
H_retn              0x8               C:\Users\ajarr\AppData\Local\Temp\ccmHMWab.o
w_RPY               0x18              C:\Users\ajarr\AppData\Local\Temp\ccgZ79fC.o
Epochyear_TLE_tc    0x4               C:\Users\ajarr\AppData\Local\Temp\ccmHMWab.o
MY                  0x8               C:\Users\ajarr\AppData\Local\Temp\ccmHMWab.o
bstar               0x8               C:\Users\ajarr\AppData\Local\Temp\ccmHMWab.o
argpo_GPS           0x8               C:\Users\ajarr\AppData\Local\Temp\ccmHMWab.o
Q_SFDO2ECI          0x20              C:\Users\ajarr\AppData\Local\Temp\ccmHMWab.o
Ang_Deviation       0x8               C:\Users\ajarr\AppData\Local\Temp\ccgZ79fC.o
inter_HAL_IMU_Status_Data_2
                    0x2               C:\Users\ajarr\AppData\Local\Temp\ccgZ79fC.o
inter_at697f_checksum
                    0x4               C:\Users\ajarr\AppData\Local\Temp\cclcRNkm.o
B_BODY_IMU2         0x18              C:\Users\ajarr\AppData\Local\Temp\ccgZ79fC.o
X_DAD               0x18              C:\Users\ajarr\AppData\Local\Temp\ccmHMWab.o
TC_wAD_updateTimeThresh
                    0x4               C:\Users\ajarr\AppData\Local\Temp\ccmHMWab.o
tempat              0x4               C:\Users\ajarr\AppData\Local\Temp\ccgZ79fC.o
Roll_neg_ND         0x8               C:\Users\ajarr\AppData\Local\Temp\ccgZ79fC.o
SunNPP_SAMtransit   0x4               C:\Users\ajarr\AppData\Local\Temp\ccgZ79fC.o
BLK_opn             0x1               C:\Users\ajarr\AppData\Local\Temp\ccgZ79fC.o
ecc_temp4           0x8               C:\Users\ajarr\AppData\Local\Temp\ccmHMWab.o
inter_TM_Byte_Count
                    0x4               C:\Users\ajarr\AppData\Local\Temp\cclcRNkm.o
Vel_ECEF_GPS        0x18              C:\Users\ajarr\AppData\Local\Temp\ccmHMWab.o
nodecf              0x8               C:\Users\ajarr\AppData\Local\Temp\ccmHMWab.o
Tdeficit            0x18              C:\Users\ajarr\AppData\Local\Temp\ccmHMWab.o
MUX_data3           0x2               C:\Users\ajarr\AppData\Local\Temp\ccXi6CuD.o
vecnorm_mag         0x8               C:\Users\ajarr\AppData\Local\Temp\ccmHMWab.o
Vel_ECI_GPS         0x18              C:\Users\ajarr\AppData\Local\Temp\ccmHMWab.o
Q_REF_pres          0x20              C:\Users\ajarr\AppData\Local\Temp\ccmHMWab.o
phi_12_temp3        0x48              C:\Users\ajarr\AppData\Local\Temp\ccmHMWab.o
epochdays           0x8               C:\Users\ajarr\AppData\Local\Temp\ccmHMWab.o
adel                0x8               C:\Users\ajarr\AppData\Local\Temp\ccmHMWab.o
TM_Buffer           0x100             C:\Users\ajarr\AppData\Local\Temp\cclcRNkm.o
xmcof               0x8               C:\Users\ajarr\AppData\Local\Temp\ccmHMWab.o
ST_SP_Buffer        0x2a1             C:\Users\ajarr\AppData\Local\Temp\cclcRNkm.o
k                   0x4               C:\Users\ajarr\AppData\Local\Temp\ccmHMWab.o
TCH_read_ptr        0x4               C:\Users\ajarr\AppData\Local\Temp\cclcRNkm.o
TC_momentum_dumping_gain
                    0x8               C:\Users\ajarr\AppData\Local\Temp\ccmHMWab.o
RW_TMC              0x8               C:\Users\ajarr\AppData\Local\Temp\ccW8vVNE.o
cosio2              0x8               C:\Users\ajarr\AppData\Local\Temp\ccmHMWab.o
Yk_minus_hk_Kk      0x48              C:\Users\ajarr\AppData\Local\Temp\ccmHMWab.o
inter_TM_Source_Addr
                    0x4               C:\Users\ajarr\AppData\Local\Temp\cclcRNkm.o
mvt                 0x8               C:\Users\ajarr\AppData\Local\Temp\ccmHMWab.o
Rz                  0x48              C:\Users\ajarr\AppData\Local\Temp\ccmHMWab.o
St_DAD              0x48              C:\Users\ajarr\AppData\Local\Temp\ccmHMWab.o
x1mth2              0x8               C:\Users\ajarr\AppData\Local\Temp\ccmHMWab.o
t2                  0x8               C:\Users\ajarr\AppData\Local\Temp\ccmHMWab.o
speed_based_torquer_control
                    0x4               C:\Users\ajarr\AppData\Local\Temp\ccmHMWab.o
B_REFn              0x18              C:\Users\ajarr\AppData\Local\Temp\ccmHMWab.o
Tsince              0x8               C:\Users\ajarr\AppData\Local\Temp\ccmHMWab.o
B_BODYn             0x18              C:\Users\ajarr\AppData\Local\Temp\ccgZ79fC.o
nml_output_latch_data
                    0x3               C:\Users\ajarr\AppData\Local\Temp\cclcRNkm.o
r_delta             0x8               C:\Users\ajarr\AppData\Local\Temp\ccmHMWab.o
var1                0x8               C:\Users\ajarr\AppData\Local\Temp\ccmHMWab.o
epochyr_sel         0x4               C:\Users\ajarr\AppData\Local\Temp\ccmHMWab.o
IMU_temperature     0x4               C:\Users\ajarr\AppData\Local\Temp\ccQfD6IQ.o
entrytime2eclipse   0x4               C:\Users\ajarr\AppData\Local\Temp\ccmHMWab.o
em                  0x8               C:\Users\ajarr\AppData\Local\Temp\ccmHMWab.o
rHAL_pl_sts_check_mj_flag
                    0x4               C:\Users\ajarr\AppData\Local\Temp\ccySgCMJ.o
TM_Table            0x8088            C:\Users\ajarr\AppData\Local\Temp\cclcRNkm.o
Qk_temp2            0x8               C:\Users\ajarr\AppData\Local\Temp\ccmHMWab.o
test_gps_conf4      0x4               C:\Users\ajarr\AppData\Local\Temp\ccW8NopI.o
Xk_plus_temp        0x18              C:\Users\ajarr\AppData\Local\Temp\ccmHMWab.o
temp                0x4               C:\Users\ajarr\AppData\Local\Temp\ccXi6CuD.o
Q_SPO2ECI           0x20              C:\Users\ajarr\AppData\Local\Temp\ccmHMWab.o
W_cross             0x48              C:\Users\ajarr\AppData\Local\Temp\ccmHMWab.o
Vel_ECI             0x18              C:\Users\ajarr\AppData\Local\Temp\ccmHMWab.o
pk_HkT_Hk           0x48              C:\Users\ajarr\AppData\Local\Temp\ccmHMWab.o
battery_temp_2      0x4               C:\Users\ajarr\AppData\Local\Temp\ccTGUrKF.o
Tcv_temp            0x18              C:\Users\ajarr\AppData\Local\Temp\ccmHMWab.o
NRS                 0xc0              C:\Users\ajarr\AppData\Local\Temp\ccmHMWab.o
Tdeficit_temp1      0x18              C:\Users\ajarr\AppData\Local\Temp\ccmHMWab.o
theta2              0x8               C:\Users\ajarr\AppData\Local\Temp\ccmHMWab.o
gmst_               0x8               C:\Users\ajarr\AppData\Local\Temp\ccmHMWab.o
TC_storing_buffer   0x400             C:\Users\ajarr\AppData\Local\Temp\ccXi6CuD.o
psi_sl_ecl          0x8               C:\Users\ajarr\AppData\Local\Temp\ccmHMWab.o
Pitch_MTR_Pol_Reversal
                    0x4               C:\Users\ajarr\AppData\Local\Temp\ccmHMWab.o
rsun                0x18              C:\Users\ajarr\AppData\Local\Temp\ccmHMWab.o
NOB_SFC_TC          0x4               C:\Users\ajarr\AppData\Local\Temp\ccW8vVNE.o
Yk                  0x18              C:\Users\ajarr\AppData\Local\Temp\ccmHMWab.o
CB_Wheel_Spin_updown
                    0x4               C:\Users\ajarr\AppData\Local\Temp\ccmHMWab.o
SB_MAIN             0x18              C:\Users\ajarr\AppData\Local\Temp\ccgZ79fC.o
vx                  0x8               C:\Users\ajarr\AppData\Local\Temp\ccmHMWab.o
inttemp             0x4               C:\Users\ajarr\AppData\Local\Temp\ccmHMWab.o
TLE_Data_Available  0x4               C:\Users\ajarr\AppData\Local\Temp\ccmHMWab.o
Q_REF_prev          0x20              C:\Users\ajarr\AppData\Local\Temp\ccmHMWab.o
BEast               0x8               C:\Users\ajarr\AppData\Local\Temp\ccmHMWab.o
SunAcq_Ang_Thres    0x8               C:\Users\ajarr\AppData\Local\Temp\ccmHMWab.o
DutyCycleGenEnable  0x4               C:\Users\ajarr\AppData\Local\Temp\ccmHMWab.o
SC7                 0x8               C:\Users\ajarr\AppData\Local\Temp\ccgZ79fC.o
Tmm_actual          0x18              C:\Users\ajarr\AppData\Local\Temp\ccmHMWab.o
SC2                 0x8               C:\Users\ajarr\AppData\Local\Temp\ccgZ79fC.o
CB_MagFieldComp     0x4               C:\Users\ajarr\AppData\Local\Temp\ccmHMWab.o
SS_Redundant_DB     0x284             C:\Users\ajarr\AppData\Local\Temp\cclcRNkm.o
eDetumblingMode     0x4               C:\Users\ajarr\AppData\Local\Temp\ccmHMWab.o
tempa               0x8               C:\Users\ajarr\AppData\Local\Temp\ccmHMWab.o
IMU1_Corr           0x144             C:\Users\ajarr\AppData\Local\Temp\cclcRNkm.o
xsaty_eci           0x8               C:\Users\ajarr\AppData\Local\Temp\ccmHMWab.o
gain_set            0x960             C:\Users\ajarr\AppData\Local\Temp\cclcRNkm.o
pinvsq              0x8               C:\Users\ajarr\AppData\Local\Temp\ccmHMWab.o
mod_of_Wk1_square   0x8               C:\Users\ajarr\AppData\Local\Temp\ccmHMWab.o
ecc_temp3           0x8               C:\Users\ajarr\AppData\Local\Temp\ccmHMWab.o
count_arc_w3        0x4               C:\Users\ajarr\AppData\Local\Temp\ccmHMWab.o
TC_cmd_executed     0x2               C:\Users\ajarr\AppData\Local\Temp\ccXi6CuD.o
DFCcountLow         0x4               C:\Users\ajarr\AppData\Local\Temp\ccmHMWab.o
CB_ExtendedKalmanFilter
                    0x4               C:\Users\ajarr\AppData\Local\Temp\ccmHMWab.o
B_BODY              0x18              C:\Users\ajarr\AppData\Local\Temp\ccgZ79fC.o
RW_3                0x10              C:\Users\ajarr\AppData\Local\Temp\ccW8vVNE.o
RW_2                0x10              C:\Users\ajarr\AppData\Local\Temp\ccW8vVNE.o
no_TLE_tc           0x8               C:\Users\ajarr\AppData\Local\Temp\ccmHMWab.o
TC_elapsed_orbitTimer
                    0x8               C:\Users\ajarr\AppData\Local\Temp\ccmHMWab.o
semi_den            0x8               C:\Users\ajarr\AppData\Local\Temp\ccmHMWab.o
test_data_3         0x2               C:\Users\ajarr\AppData\Local\Temp\ccXi6CuD.o
STATION_vector      0x18              C:\Users\ajarr\AppData\Local\Temp\ccmHMWab.o
wks                 0x8               C:\Users\ajarr\AppData\Local\Temp\ccmHMWab.o
Thta_BODY_IMU2      0x18              C:\Users\ajarr\AppData\Local\Temp\ccgZ79fC.o
GPS_Buffer_Addr     0x4               C:\Users\ajarr\AppData\Local\Temp\ccW8NopI.o
TC_enQuest_update   0x4               C:\Users\ajarr\AppData\Local\Temp\ccmHMWab.o
pl_x_tx_data_on_flag
                    0x4               C:\Users\ajarr\AppData\Local\Temp\ccySgCMJ.o
days_sel            0x4               C:\Users\ajarr\AppData\Local\Temp\ccmHMWab.o
TC_SunEarthVaryingFrame
                    0x4               C:\Users\ajarr\AppData\Local\Temp\ccmHMWab.o
big_omega           0x80              C:\Users\ajarr\AppData\Local\Temp\ccmHMWab.o
tempdays            0x4               C:\Users\ajarr\AppData\Local\Temp\ccmHMWab.o
Present_OBT         0x4               C:\Users\ajarr\AppData\Local\Temp\ccmHMWab.o
Tsince_TLE_tc       0x8               C:\Users\ajarr\AppData\Local\Temp\ccmHMWab.o
pl_buffer_len       0x4               C:\Users\ajarr\AppData\Local\Temp\ccySgCMJ.o
X_SPO2ECI_mag       0x8               C:\Users\ajarr\AppData\Local\Temp\ccmHMWab.o
temparg             0x8               C:\Users\ajarr\AppData\Local\Temp\ccmHMWab.o
ibexp_sel           0x8               C:\Users\ajarr\AppData\Local\Temp\ccmHMWab.o
MUX_data1           0x2               C:\Users\ajarr\AppData\Local\Temp\ccXi6CuD.o
VelZ_ECEF_GPS       0x8               C:\Users\ajarr\AppData\Local\Temp\ccmHMWab.o
gps_data_test       0x1a8             C:\Users\ajarr\AppData\Local\Temp\ccW8NopI.o
TC_detumbling_bdot_gain
                    0x18              C:\Users\ajarr\AppData\Local\Temp\ccmHMWab.o
LPFK1HighSL         0x8               C:\Users\ajarr\AppData\Local\Temp\ccmHMWab.o
PL_TX_TM_2_EN       0x2               C:\Users\ajarr\AppData\Local\Temp\ccySgCMJ.o
xinc                0x8               C:\Users\ajarr\AppData\Local\Temp\ccmHMWab.o
Twof_veh            0x48              C:\Users\ajarr\AppData\Local\Temp\ccmHMWab.o
mdot                0x8               C:\Users\ajarr\AppData\Local\Temp\ccmHMWab.o
w_AMSC              0x18              C:\Users\ajarr\AppData\Local\Temp\ccgZ79fC.o
DB_GyroLPF          0x8               C:\Users\ajarr\AppData\Local\Temp\ccmHMWab.o
LossWhMom           0x20              C:\Users\ajarr\AppData\Local\Temp\ccmHMWab.o
pl_data_command     0xc               C:\Users\ajarr\AppData\Local\Temp\cclcRNkm.o
b_DAD               0x8               C:\Users\ajarr\AppData\Local\Temp\ccmHMWab.o
NMS                 0xc0              C:\Users\ajarr\AppData\Local\Temp\ccmHMWab.o
TC_GPS_pulse_duration
                    0x4               C:\Users\ajarr\AppData\Local\Temp\ccmHMWab.o
phi_k               0x288             C:\Users\ajarr\AppData\Local\Temp\ccmHMWab.o
xin_temp            0x8               C:\Users\ajarr\AppData\Local\Temp\ccmHMWab.o
UTC_hr_GPS          0x4               C:\Users\ajarr\AppData\Local\Temp\ccmHMWab.o
Yaw_ang_err         0x8               C:\Users\ajarr\AppData\Local\Temp\ccgZ79fC.o
TC_hist_read_ptr    0x4               C:\Users\ajarr\AppData\Local\Temp\ccXi6CuD.o
one_by_3            0x8               C:\Users\ajarr\AppData\Local\Temp\ccmHMWab.o
TC_command          0x4               C:\Users\ajarr\AppData\Local\Temp\ccySgCMJ.o
B_BODY_IMU1         0x18              C:\Users\ajarr\AppData\Local\Temp\ccgZ79fC.o
axnl                0x8               C:\Users\ajarr\AppData\Local\Temp\ccmHMWab.o
Yaw_neg             0x8               C:\Users\ajarr\AppData\Local\Temp\ccgZ79fC.o
X_SVO2ECI_mag       0x8               C:\Users\ajarr\AppData\Local\Temp\ccmHMWab.o
LPFK1SL             0x20              C:\Users\ajarr\AppData\Local\Temp\ccmHMWab.o
bstar_TLE_tc        0x8               C:\Users\ajarr\AppData\Local\Temp\ccmHMWab.o
coef1               0x8               C:\Users\ajarr\AppData\Local\Temp\ccmHMWab.o
B_DAD               0x48              C:\Users\ajarr\AppData\Local\Temp\ccmHMWab.o
ang                 0x8               C:\Users\ajarr\AppData\Local\Temp\ccmHMWab.o
inter_TM_ST_TC_NS_Write_Source_Addr
                    0x4               C:\Users\ajarr\AppData\Local\Temp\cclcRNkm.o
rsat                0x18              C:\Users\ajarr\AppData\Local\Temp\ccmHMWab.o
SA_thermistor2      0x4               C:\Users\ajarr\AppData\Local\Temp\ccTGUrKF.o
R_SFAO2ECI          0x48              C:\Users\ajarr\AppData\Local\Temp\ccmHMWab.o
magPitch_angle      0x8               C:\Users\ajarr\AppData\Local\Temp\ccmHMWab.o
beta_S_DAD          0x48              C:\Users\ajarr\AppData\Local\Temp\ccmHMWab.o
inclination_sel     0x8               C:\Users\ajarr\AppData\Local\Temp\ccmHMWab.o
SS_M4               0x8               C:\Users\ajarr\AppData\Local\Temp\ccmHMWab.o
exp_whsp_ch         0x20              C:\Users\ajarr\AppData\Local\Temp\ccmHMWab.o
Q_SVO2ECI           0x20              C:\Users\ajarr\AppData\Local\Temp\ccmHMWab.o
ST_Out_Latch_2      0x2               C:\Users\ajarr\AppData\Local\Temp\cclcRNkm.o
DelThta_cat_z       0x4               C:\Users\ajarr\AppData\Local\Temp\ccmHMWab.o
Y_SFAO2ECI          0x18              C:\Users\ajarr\AppData\Local\Temp\ccmHMWab.o
thermistor_lsb      0x17              C:\Users\ajarr\AppData\Local\Temp\ccTGUrKF.o
mo_TLE_tc           0x8               C:\Users\ajarr\AppData\Local\Temp\ccmHMWab.o
TC_SunFixedAscendingFrame
                    0x4               C:\Users\ajarr\AppData\Local\Temp\ccmHMWab.o
delta_HB            0x18              C:\Users\ajarr\AppData\Local\Temp\ccmHMWab.o
inter_TM_Dest_Addr  0x4               C:\Users\ajarr\AppData\Local\Temp\cclcRNkm.o
cos_of_Wk1_Delta    0x8               C:\Users\ajarr\AppData\Local\Temp\ccmHMWab.o
PosZ_ECEF_GPS       0x8               C:\Users\ajarr\AppData\Local\Temp\ccmHMWab.o
SC1                 0x8               C:\Users\ajarr\AppData\Local\Temp\ccgZ79fC.o
cp_cnt              0x4               C:\Users\ajarr\AppData\Local\Temp\cck0ztpe.o
u_DTTC              0x8               C:\Users\ajarr\AppData\Local\Temp\ccXi6CuD.o
test_agc            0x4               C:\Users\ajarr\AppData\Local\Temp\ccTGUrKF.o
Tsince_TLE          0x8               C:\Users\ajarr\AppData\Local\Temp\ccmHMWab.o
pk_HkT              0xd8              C:\Users\ajarr\AppData\Local\Temp\ccmHMWab.o
sumX_DAD            0x48              C:\Users\ajarr\AppData\Local\Temp\ccmHMWab.o
phi_11_temp1        0x48              C:\Users\ajarr\AppData\Local\Temp\ccmHMWab.o
u_TC                0x8               C:\Users\ajarr\AppData\Local\Temp\ccXi6CuD.o
TC_wAD_BODYminThYaw
                    0x8               C:\Users\ajarr\AppData\Local\Temp\ccmHMWab.o
j_lict              0x4               C:\Users\ajarr\AppData\Local\Temp\ccmHMWab.o
pps_deltaT          0x8               C:\Users\ajarr\AppData\Local\Temp\ccmHMWab.o
Kk_matrix           0x288             C:\Users\ajarr\AppData\Local\Temp\ccmHMWab.o
TC_wAD_BODYminThRoll
                    0x8               C:\Users\ajarr\AppData\Local\Temp\ccmHMWab.o
theta               0x8               C:\Users\ajarr\AppData\Local\Temp\ccmHMWab.o
comb1               0x8               C:\Users\ajarr\AppData\Local\Temp\ccgZ79fC.o
inter_PL_TM_Source_Addr
                    0x4               C:\Users\ajarr\AppData\Local\Temp\ccySgCMJ.o
f_Momentum_Dumping  0x4               C:\Users\ajarr\AppData\Local\Temp\ccmHMWab.o
SUN_ECI_mag         0x8               C:\Users\ajarr\AppData\Local\Temp\ccmHMWab.o
Tcv                 0x18              C:\Users\ajarr\AppData\Local\Temp\ccmHMWab.o
t4                  0x8               C:\Users\ajarr\AppData\Local\Temp\ccmHMWab.o
cnod                0x8               C:\Users\ajarr\AppData\Local\Temp\ccmHMWab.o
mon_sel             0x4               C:\Users\ajarr\AppData\Local\Temp\ccmHMWab.o
pl_buffer_addr      0x4               C:\Users\ajarr\AppData\Local\Temp\ccySgCMJ.o
sidereal            0x48              C:\Users\ajarr\AppData\Local\Temp\ccmHMWab.o
tau_ms              0x8               C:\Users\ajarr\AppData\Local\Temp\ccmHMWab.o
j_kf                0x4               C:\Users\ajarr\AppData\Local\Temp\ccmHMWab.o
ADC_Locations       0x4               C:\Users\ajarr\AppData\Local\Temp\ccTGUrKF.o
aa                  0x2               C:\Users\ajarr\AppData\Local\Temp\ccW8vVNE.o
sine                0x8               C:\Users\ajarr\AppData\Local\Temp\ccmHMWab.o
Remote_Addr         0x4               C:\Users\ajarr\AppData\Local\Temp\ccXi6CuD.o
Z_SVO2ECI_mag       0x8               C:\Users\ajarr\AppData\Local\Temp\ccmHMWab.o
Qprop_prev          0x20              C:\Users\ajarr\AppData\Local\Temp\ccmHMWab.o
pl_test10           0x4               C:\Users\ajarr\AppData\Local\Temp\ccySgCMJ.o
Out_latch_6         0x2               C:\Users\ajarr\AppData\Local\Temp\cclcRNkm.o
uz                  0x8               C:\Users\ajarr\AppData\Local\Temp\ccmHMWab.o
TC_KR               0x18              C:\Users\ajarr\AppData\Local\Temp\ccmHMWab.o
ExWhMom             0x20              C:\Users\ajarr\AppData\Local\Temp\ccmHMWab.o
B_BODYtesla         0x18              C:\Users\ajarr\AppData\Local\Temp\ccgZ79fC.o
T_MT_2RW            0x18              C:\Users\ajarr\AppData\Local\Temp\ccmHMWab.o
agc_test1           0x1               C:\Users\ajarr\AppData\Local\Temp\ccTGUrKF.o
one_magad           0x8               C:\Users\ajarr\AppData\Local\Temp\ccmHMWab.o
S_ECI               0x18              C:\Users\ajarr\AppData\Local\Temp\ccmHMWab.o
minorcyclecount     0x4               C:\Users\ajarr\AppData\Local\Temp\ccmHMWab.o
RW_Data_SlipFrame_TMC
                    0x14              C:\Users\ajarr\AppData\Local\Temp\ccW8vVNE.o
Q_quest_DAD_den     0x8               C:\Users\ajarr\AppData\Local\Temp\ccmHMWab.o
gyrodet_w           0x18              C:\Users\ajarr\AppData\Local\Temp\ccgZ79fC.o
two_magad           0x8               C:\Users\ajarr\AppData\Local\Temp\ccmHMWab.o
Hk_temp             0xd8              C:\Users\ajarr\AppData\Local\Temp\ccmHMWab.o
SunNPP_SMtransit    0x4               C:\Users\ajarr\AppData\Local\Temp\ccgZ79fC.o
heaters             0x2               C:\Users\ajarr\AppData\Local\Temp\cclcRNkm.o
new_node            0x4               C:\Users\ajarr\AppData\Local\Temp\ccXi6CuD.o
MTR_Polarity        0x4               C:\Users\ajarr\AppData\Local\Temp\ccegzvw7.o
xincp               0x8               C:\Users\ajarr\AppData\Local\Temp\ccmHMWab.o
Rx                  0x48              C:\Users\ajarr\AppData\Local\Temp\ccmHMWab.o
z                   0x8               C:\Users\ajarr\AppData\Local\Temp\ccmHMWab.o
chksum_arr          0x20              C:\Users\ajarr\AppData\Local\Temp\cclcRNkm.o
MTR_ActuationCycle  0x4               C:\Users\ajarr\AppData\Local\Temp\ccmHMWab.o
BDOTnorm            0x8               C:\Users\ajarr\AppData\Local\Temp\ccmHMWab.o
pl_tx_tm_flag       0x4               C:\Users\ajarr\AppData\Local\Temp\ccySgCMJ.o
B_ECI               0x18              C:\Users\ajarr\AppData\Local\Temp\ccmHMWab.o
IO_Latch_Register_4_Data
                    0x4               C:\Users\ajarr\AppData\Local\Temp\cclcRNkm.o
SAT_ANGLE_STAT      0x8               C:\Users\ajarr\AppData\Local\Temp\ccmHMWab.o
sigma_DAD           0x8               C:\Users\ajarr\AppData\Local\Temp\ccmHMWab.o
f_DataSort_MAG      0x4               C:\Users\ajarr\AppData\Local\Temp\ccmHMWab.o
Thta_rawdata        0x18              C:\Users\ajarr\AppData\Local\Temp\ccgZ79fC.o
aycof               0x8               C:\Users\ajarr\AppData\Local\Temp\ccmHMWab.o
argpo_TLE_tc        0x8               C:\Users\ajarr\AppData\Local\Temp\ccmHMWab.o
test_thermistor_1   0x2               C:\Users\ajarr\AppData\Local\Temp\ccTGUrKF.o
count_arc_w1        0x4               C:\Users\ajarr\AppData\Local\Temp\ccmHMWab.o
PL_1_on_off_flag    0x4               C:\Users\ajarr\AppData\Local\Temp\ccySgCMJ.o
j_gh                0x1               C:\Users\ajarr\AppData\Local\Temp\ccmHMWab.o
SC8                 0x8               C:\Users\ajarr\AppData\Local\Temp\ccgZ79fC.o
orbit_time          0x4               C:\Users\ajarr\AppData\Local\Temp\ccmHMWab.o
temp1               0x8               C:\Users\ajarr\AppData\Local\Temp\ccmHMWab.o
coef                0x8               C:\Users\ajarr\AppData\Local\Temp\ccmHMWab.o
eSunAcquisitionMode
                    0x4               C:\Users\ajarr\AppData\Local\Temp\ccmHMWab.o
w_BODYdeg           0x18              C:\Users\ajarr\AppData\Local\Temp\ccgZ79fC.o
storage_page_count  0x4               C:\Users\ajarr\AppData\Local\Temp\cclcRNkm.o
sigma_u             0x8               C:\Users\ajarr\AppData\Local\Temp\ccmHMWab.o
etasq               0x8               C:\Users\ajarr\AppData\Local\Temp\ccmHMWab.o
T_SD_RW             0x20              C:\Users\ajarr\AppData\Local\Temp\ccmHMWab.o
ele2                0x8               C:\Users\ajarr\AppData\Local\Temp\ccgZ79fC.o
cos2u               0x8               C:\Users\ajarr\AppData\Local\Temp\ccmHMWab.o
st_magad            0x8               C:\Users\ajarr\AppData\Local\Temp\ccmHMWab.o
Tc                  0x18              C:\Users\ajarr\AppData\Local\Temp\ccmHMWab.o
UTC                 0x8               C:\Users\ajarr\AppData\Local\Temp\ccmHMWab.o
GPS_msg_header      0x4               C:\Users\ajarr\AppData\Local\Temp\ccW8NopI.o
B_BiasCor           0x18              C:\Users\ajarr\AppData\Local\Temp\ccgZ79fC.o
out_Quat_mult       0x20              C:\Users\ajarr\AppData\Local\Temp\ccmHMWab.o
Block_array         0x10000           C:\Users\ajarr\AppData\Local\Temp\ccXi6CuD.o
CB_Wheel_Auto_Reconfiguration
                    0x4               C:\Users\ajarr\AppData\Local\Temp\ccmHMWab.o
Del_P_theta         0x8               C:\Users\ajarr\AppData\Local\Temp\ccmHMWab.o
diff_obs_exp_ch     0x20              C:\Users\ajarr\AppData\Local\Temp\ccmHMWab.o
DTTCarray           0x1f40            C:\Users\ajarr\AppData\Local\Temp\ccXi6CuD.o
ST_output_latch     0x4               C:\Users\ajarr\AppData\Local\Temp\cclcRNkm.o
test_gps_conf6      0x4               C:\Users\ajarr\AppData\Local\Temp\ccW8NopI.o
GPSDataReady        0x4               C:\Users\ajarr\AppData\Local\Temp\ccmHMWab.o
mo_sel              0x8               C:\Users\ajarr\AppData\Local\Temp\ccmHMWab.o
NRBt_sunmag         0xc0              C:\Users\ajarr\AppData\Local\Temp\ccmHMWab.o
trace_S_DAD         0x8               C:\Users\ajarr\AppData\Local\Temp\ccmHMWab.o
SS_Redundant_2Exe_DB
                    0x284             C:\Users\ajarr\AppData\Local\Temp\cclcRNkm.o
ct_magad            0x8               C:\Users\ajarr\AppData\Local\Temp\ccmHMWab.o
BDOT_Threshold_Count
                    0x4               C:\Users\ajarr\AppData\Local\Temp\ccmHMWab.o
i                   0x4               C:\Users\ajarr\AppData\Local\Temp\ccmHMWab.o
mu_m_temp           0x18              C:\Users\ajarr\AppData\Local\Temp\ccmHMWab.o
SC1ImaxF            0x8               C:\Users\ajarr\AppData\Local\Temp\ccgZ79fC.o
TC_yp               0x8               C:\Users\ajarr\AppData\Local\Temp\ccmHMWab.o
CB_Two_RW_control   0x4               C:\Users\ajarr\AppData\Local\Temp\ccmHMWab.o
Out_latch_5         0x2               C:\Users\ajarr\AppData\Local\Temp\cclcRNkm.o
j_rfc               0x4               C:\Users\ajarr\AppData\Local\Temp\ccmHMWab.o
real_storage        0x4               C:\Users\ajarr\AppData\Local\Temp\cck0ztpe.o
rw_tmtc_count       0x4               C:\Users\ajarr\AppData\Local\Temp\ccW8vVNE.o
IMU_Sen2Bdy         0x48              C:\Users\ajarr\AppData\Local\Temp\ccgZ79fC.o
LPFK2SL             0x20              C:\Users\ajarr\AppData\Local\Temp\ccmHMWab.o
ktr                 0x4               C:\Users\ajarr\AppData\Local\Temp\ccmHMWab.o
I_MFC               0x4               C:\Users\ajarr\AppData\Local\Temp\ccmHMWab.o
DelThta_cat_y       0x4               C:\Users\ajarr\AppData\Local\Temp\ccmHMWab.o
magYaw_angle        0x8               C:\Users\ajarr\AppData\Local\Temp\ccmHMWab.o
Init_data_ptr       0x4               C:\Users\ajarr\AppData\Local\Temp\ccW8vVNE.o
epochdays_TLE_tc    0x8               C:\Users\ajarr\AppData\Local\Temp\ccmHMWab.o
v0c                 0x20              C:\Users\ajarr\AppData\Local\Temp\ccmHMWab.o
CB_DAD_quest        0x4               C:\Users\ajarr\AppData\Local\Temp\ccmHMWab.o
RW_TM_ptr_init      0x4               C:\Users\ajarr\AppData\Local\Temp\ccW8vVNE.o
T_RW_sdump          0x20              C:\Users\ajarr\AppData\Local\Temp\ccmHMWab.o
TMC_data_ptr        0x4               C:\Users\ajarr\AppData\Local\Temp\ccW8vVNE.o
no_sel              0x8               C:\Users\ajarr\AppData\Local\Temp\ccmHMWab.o
po                  0x8               C:\Users\ajarr\AppData\Local\Temp\ccmHMWab.o
NMB_mag             0x240             C:\Users\ajarr\AppData\Local\Temp\ccmHMWab.o
Vel_ECEFn           0x18              C:\Users\ajarr\AppData\Local\Temp\ccmHMWab.o
j_MatEq             0x4               C:\Users\ajarr\AppData\Local\Temp\ccgZ79fC.o
TC_Status_Data      0x4               C:\Users\ajarr\AppData\Local\Temp\ccXi6CuD.o
Storage             0x3e800           C:\Users\ajarr\AppData\Local\Temp\cclcRNkm.o
ST_special          0x2a1             C:\Users\ajarr\AppData\Local\Temp\cclcRNkm.o
xmdf                0x8               C:\Users\ajarr\AppData\Local\Temp\ccmHMWab.o
Enable_PL_TM_flag   0x4               C:\Users\ajarr\AppData\Local\Temp\ccySgCMJ.o
cc3                 0x8               C:\Users\ajarr\AppData\Local\Temp\ccmHMWab.o
Rk                  0x48              C:\Users\ajarr\AppData\Local\Temp\ccmHMWab.o
TC_Hmax             0x8               C:\Users\ajarr\AppData\Local\Temp\ccmHMWab.o
Trwa                0x20              C:\Users\ajarr\AppData\Local\Temp\ccmHMWab.o
qzms24              0x8               C:\Users\ajarr\AppData\Local\Temp\ccmHMWab.o
TC_SunFixedDescendingFrame
                    0x4               C:\Users\ajarr\AppData\Local\Temp\ccmHMWab.o
T_RW                0x20              C:\Users\ajarr\AppData\Local\Temp\ccmHMWab.o
w_LPF               0x18              C:\Users\ajarr\AppData\Local\Temp\ccgZ79fC.o
GAIN_DATA_SET       0x4e0             C:\Users\ajarr\AppData\Local\Temp\cclcRNkm.o
longitude_GPS       0x8               C:\Users\ajarr\AppData\Local\Temp\ccmHMWab.o
sini                0x8               C:\Users\ajarr\AppData\Local\Temp\ccmHMWab.o
Out_Latch_2         0x2               C:\Users\ajarr\AppData\Local\Temp\cclcRNkm.o
xsatz_eci           0x8               C:\Users\ajarr\AppData\Local\Temp\ccmHMWab.o
inter_HAL_ADC_Data_Ready
                    0x4               C:\Users\ajarr\AppData\Local\Temp\ccTGUrKF.o
DFCGainLow          0x8               C:\Users\ajarr\AppData\Local\Temp\ccmHMWab.o
inter_TM_Status_Data
                    0x2               C:\Users\ajarr\AppData\Local\Temp\cclcRNkm.o
i_pini              0x4               C:\Users\ajarr\AppData\Local\Temp\ccmHMWab.o
SC3ImaxF            0x8               C:\Users\ajarr\AppData\Local\Temp\ccgZ79fC.o
DTTCtime_reference  0x4               C:\Users\ajarr\AppData\Local\Temp\ccgZ79fC.o
Hk                  0xd8              C:\Users\ajarr\AppData\Local\Temp\ccmHMWab.o
MUX_data4           0x2               C:\Users\ajarr\AppData\Local\Temp\ccXi6CuD.o
test_gps_conf1      0x4               C:\Users\ajarr\AppData\Local\Temp\ccW8NopI.o
Delta               0x8               C:\Users\ajarr\AppData\Local\Temp\ccmHMWab.o
imu_data_ready_count_1
                    0x4               C:\Users\ajarr\AppData\Local\Temp\ccwUhEmU.o
Z_SFDO2ECI_mag      0x8               C:\Users\ajarr\AppData\Local\Temp\ccmHMWab.o
u_parl              0x18              C:\Users\ajarr\AppData\Local\Temp\ccmHMWab.o
B_AMSC              0x18              C:\Users\ajarr\AppData\Local\Temp\ccgZ79fC.o
I_DAD               0x4               C:\Users\ajarr\AppData\Local\Temp\ccmHMWab.o
IMU_Diag_Done       0x4               C:\Users\ajarr\AppData\Local\Temp\ccgZ79fC.o
i_MatEq             0x4               C:\Users\ajarr\AppData\Local\Temp\ccgZ79fC.o
year_TLE_tc         0x4               C:\Users\ajarr\AppData\Local\Temp\ccmHMWab.o
TC_data_ptr         0x4               C:\Users\ajarr\AppData\Local\Temp\ccW8vVNE.o
MUX_4               0x2               C:\Users\ajarr\AppData\Local\Temp\cclcRNkm.o
ecose               0x8               C:\Users\ajarr\AppData\Local\Temp\ccmHMWab.o
TC_authentic_pulse_rcvd
                    0x4               C:\Users\ajarr\AppData\Local\Temp\ccXi6CuD.o
Pos_ECEF            0x18              C:\Users\ajarr\AppData\Local\Temp\ccmHMWab.o
NRB_mag             0x240             C:\Users\ajarr\AppData\Local\Temp\ccmHMWab.o
w_BiasCor           0x18              C:\Users\ajarr\AppData\Local\Temp\ccgZ79fC.o
inter_TM_Main_Buffer_Empty
                    0x4               C:\Users\ajarr\AppData\Local\Temp\cclcRNkm.o
SunNPP_SAMtransit_counter
                    0x4               C:\Users\ajarr\AppData\Local\Temp\ccgZ79fC.o
ecc_temp6           0x8               C:\Users\ajarr\AppData\Local\Temp\ccmHMWab.o
j_pini              0x4               C:\Users\ajarr\AppData\Local\Temp\ccmHMWab.o
GPS_Data_Read_Status
                    0x4               C:\Users\ajarr\AppData\Local\Temp\ccW8NopI.o
Q_REF_diff          0x20              C:\Users\ajarr\AppData\Local\Temp\ccmHMWab.o
ECEFtoECI           0x48              C:\Users\ajarr\AppData\Local\Temp\ccmHMWab.o
t5cof               0x8               C:\Users\ajarr\AppData\Local\Temp\ccmHMWab.o
ep                  0x8               C:\Users\ajarr\AppData\Local\Temp\ccmHMWab.o
NOB_CRC_TC          0x4               C:\Users\ajarr\AppData\Local\Temp\ccW8vVNE.o
check_dump_wh       0x10              C:\Users\ajarr\AppData\Local\Temp\ccmHMWab.o
TC_DATA             0x8               C:\Users\ajarr\AppData\Local\Temp\ccXi6CuD.o
read_str_ptr        0x4               C:\Users\ajarr\AppData\Local\Temp\cclcRNkm.o
pl_mode             0x2               C:\Users\ajarr\AppData\Local\Temp\ccySgCMJ.o
epochyr             0x4               C:\Users\ajarr\AppData\Local\Temp\ccmHMWab.o
Bpresent            0x18              C:\Users\ajarr\AppData\Local\Temp\ccgZ79fC.o
tc_ecv_test         0x190             C:\Users\ajarr\AppData\Local\Temp\ccgZ79fC.o
Yaw_MTR_Pol_Reversal
                    0x4               C:\Users\ajarr\AppData\Local\Temp\ccmHMWab.o
RW_number           0x2               C:\Users\ajarr\AppData\Local\Temp\ccXi6CuD.o
nodem               0x8               C:\Users\ajarr\AppData\Local\Temp\ccmHMWab.o
STATION_ECIn        0x18              C:\Users\ajarr\AppData\Local\Temp\ccmHMWab.o
TC_xp               0x8               C:\Users\ajarr\AppData\Local\Temp\ccmHMWab.o
argpp               0x8               C:\Users\ajarr\AppData\Local\Temp\ccmHMWab.o
pl_data_rx          0x12              C:\Users\ajarr\AppData\Local\Temp\ccySgCMJ.o
TC_ARC_Time_Cycle   0x4               C:\Users\ajarr\AppData\Local\Temp\ccmHMWab.o
count_arc_w0        0x4               C:\Users\ajarr\AppData\Local\Temp\ccmHMWab.o
TC_ARC_RPM_Thres    0x8               C:\Users\ajarr\AppData\Local\Temp\ccmHMWab.o
ECItoECEF           0x48              C:\Users\ajarr\AppData\Local\Temp\ccmHMWab.o
rw_tc_count_test    0x4               C:\Users\ajarr\AppData\Local\Temp\ccW8vVNE.o
Init_ptr            0x4               C:\Users\ajarr\AppData\Local\Temp\ccW8vVNE.o
sinip               0x8               C:\Users\ajarr\AppData\Local\Temp\ccmHMWab.o
pl_config_addr_ptr  0x4               C:\Users\ajarr\AppData\Local\Temp\ccySgCMJ.o
Bt_DAD              0x48              C:\Users\ajarr\AppData\Local\Temp\ccmHMWab.o
inclo_tc            0x8               C:\Users\ajarr\AppData\Local\Temp\ccmHMWab.o
RW_Wheel_Speed      0x10              C:\Users\ajarr\AppData\Local\Temp\ccW8vVNE.o
rot_ang             0x8               C:\Users\ajarr\AppData\Local\Temp\ccmHMWab.o
alpha_2RW_temp      0x18              C:\Users\ajarr\AppData\Local\Temp\ccmHMWab.o
coslongacnode       0x8               C:\Users\ajarr\AppData\Local\Temp\ccmHMWab.o
temp11              0x8               C:\Users\ajarr\AppData\Local\Temp\ccgZ79fC.o
ram_scrub_addr      0x4               C:\Users\ajarr\AppData\Local\Temp\cclcRNkm.o
TC_str_ptr          0x4               C:\Users\ajarr\AppData\Local\Temp\cclcRNkm.o
eThreeAxisControlMode
                    0x4               C:\Users\ajarr\AppData\Local\Temp\ccmHMWab.o
f_threeaxis2safe    0x4               C:\Users\ajarr\AppData\Local\Temp\ccmHMWab.o
DeltaT_MFC          0x4               C:\Users\ajarr\AppData\Local\Temp\ccmHMWab.o
TC_detumbling_rate_gain
                    0x18              C:\Users\ajarr\AppData\Local\Temp\ccmHMWab.o
esine               0x8               C:\Users\ajarr\AppData\Local\Temp\ccmHMWab.o
gps_obt_count_prev  0x4               C:\Users\ajarr\AppData\Local\Temp\ccW8NopI.o
block_test2         0x1               C:\Users\ajarr\AppData\Local\Temp\ccgZ79fC.o
T_RW_spin           0x20              C:\Users\ajarr\AppData\Local\Temp\ccmHMWab.o
pl_ack_count        0x2               C:\Users\ajarr\AppData\Local\Temp\ccySgCMJ.o
Wk1                 0x48              C:\Users\ajarr\AppData\Local\Temp\ccmHMWab.o
wc_qst              0x4               C:\Users\ajarr\AppData\Local\Temp\ccmHMWab.o
Cross_Product       0x18              C:\Users\ajarr\AppData\Local\Temp\ccmHMWab.o
sd_magad            0x8               C:\Users\ajarr\AppData\Local\Temp\ccmHMWab.o
i_QDP               0x4               C:\Users\ajarr\AppData\Local\Temp\ccmHMWab.o
Z_SPO2ECI           0x18              C:\Users\ajarr\AppData\Local\Temp\ccmHMWab.o
d2                  0x8               C:\Users\ajarr\AppData\Local\Temp\ccmHMWab.o
inter_TM_DP_Addr    0x4               C:\Users\ajarr\AppData\Local\Temp\cclcRNkm.o
f_Sunlit_Presence   0x4               C:\Users\ajarr\AppData\Local\Temp\ccgZ79fC.o
TC_Det_GYRO_Compute_Count
                    0x4               C:\Users\ajarr\AppData\Local\Temp\ccmHMWab.o
pl                  0x8               C:\Users\ajarr\AppData\Local\Temp\ccmHMWab.o
Norm_out            0x18              C:\Users\ajarr\AppData\Local\Temp\ccmHMWab.o
RW_TC               0x10              C:\Users\ajarr\AppData\Local\Temp\ccW8vVNE.o
NRSt                0xc0              C:\Users\ajarr\AppData\Local\Temp\ccmHMWab.o
wheel_index         0x10              C:\Users\ajarr\AppData\Local\Temp\ccmHMWab.o
L_Msun              0x8               C:\Users\ajarr\AppData\Local\Temp\ccmHMWab.o
inter_HAL_IMU_Locations
                    0x4               C:\Users\ajarr\AppData\Local\Temp\ccgZ79fC.o
vpef                0x18              C:\Users\ajarr\AppData\Local\Temp\ccmHMWab.o
inclination         0x8               C:\Users\ajarr\AppData\Local\Temp\ccmHMWab.o
temp_data_1         0x2               C:\Users\ajarr\AppData\Local\Temp\ccySgCMJ.o
TMTC_gain_select_u  0x8               C:\Users\ajarr\AppData\Local\Temp\cclcRNkm.o
FirstSpeed          0x10              C:\Users\ajarr\AppData\Local\Temp\ccmHMWab.o
cosio               0x8               C:\Users\ajarr\AppData\Local\Temp\ccmHMWab.o
i_kf                0x4               C:\Users\ajarr\AppData\Local\Temp\ccmHMWab.o
MTR_Axis            0x4               C:\Users\ajarr\AppData\Local\Temp\ccegzvw7.o
sinlongacnode       0x8               C:\Users\ajarr\AppData\Local\Temp\ccmHMWab.o
ram_scrub_cnt       0x4               C:\Users\ajarr\AppData\Local\Temp\ccXi6CuD.o
minute_sel          0x4               C:\Users\ajarr\AppData\Local\Temp\ccmHMWab.o
SS_M5               0x8               C:\Users\ajarr\AppData\Local\Temp\ccmHMWab.o
inter_at697_var     0x4               C:\Users\ajarr\AppData\Local\Temp\cclcRNkm.o
mrt                 0x8               C:\Users\ajarr\AppData\Local\Temp\ccmHMWab.o
PL_on_off_sts_flag  0x2               C:\Users\ajarr\AppData\Local\Temp\ccySgCMJ.o
SunAcq2ThreeAx_trsit_cnt_thres
                    0x4               C:\Users\ajarr\AppData\Local\Temp\ccmHMWab.o
block_test1         0x1               C:\Users\ajarr\AppData\Local\Temp\ccgZ79fC.o
MR                  0x8               C:\Users\ajarr\AppData\Local\Temp\ccmHMWab.o
Qk                  0x288             C:\Users\ajarr\AppData\Local\Temp\ccmHMWab.o
TC_history_table    0x810             C:\Users\ajarr\AppData\Local\Temp\cclcRNkm.o
VelY_ECEF_GPS       0x8               C:\Users\ajarr\AppData\Local\Temp\ccmHMWab.o
Bprev               0x18              C:\Users\ajarr\AppData\Local\Temp\ccgZ79fC.o
inter_sunsensor_j   0x4               C:\Users\ajarr\AppData\Local\Temp\ccgZ79fC.o
SC4ImaxF            0x8               C:\Users\ajarr\AppData\Local\Temp\ccgZ79fC.o
Matout33            0x48              C:\Users\ajarr\AppData\Local\Temp\ccmHMWab.o
mon_TLE_tc          0x4               C:\Users\ajarr\AppData\Local\Temp\ccmHMWab.o
TC_GYRO_Det_Min_Thresh
                    0x8               C:\Users\ajarr\AppData\Local\Temp\ccmHMWab.o
betal               0x8               C:\Users\ajarr\AppData\Local\Temp\ccmHMWab.o
Qquest_update       0x20              C:\Users\ajarr\AppData\Local\Temp\ccmHMWab.o
ST_TC_header_Buffer
                    0xc               C:\Users\ajarr\AppData\Local\Temp\cclcRNkm.o
i_god               0x4               C:\Users\ajarr\AppData\Local\Temp\ccmHMWab.o
mo                  0x8               C:\Users\ajarr\AppData\Local\Temp\ccmHMWab.o
TC_magMax_angle     0x8               C:\Users\ajarr\AppData\Local\Temp\ccmHMWab.o
heater_manual_tc    0x2               C:\Users\ajarr\AppData\Local\Temp\ccQfD6IQ.o
tt                  0x20              C:\Users\ajarr\AppData\Local\Temp\ccmHMWab.o
hk                  0x18              C:\Users\ajarr\AppData\Local\Temp\ccmHMWab.o
dpsi                0x8               C:\Users\ajarr\AppData\Local\Temp\ccmHMWab.o
Spec_ST_Table_Row_No
                    0x4               C:\Users\ajarr\AppData\Local\Temp\cclcRNkm.o
RW_Buffer_u_rx      0x200             C:\Users\ajarr\AppData\Local\Temp\ccW8vVNE.o
con41               0x8               C:\Users\ajarr\AppData\Local\Temp\ccmHMWab.o
CB_Sun_model        0x4               C:\Users\ajarr\AppData\Local\Temp\ccmHMWab.o
SunNPP_SAMtransit_count_limit
                    0x4               C:\Users\ajarr\AppData\Local\Temp\ccgZ79fC.o
R_SVO2ECI           0x48              C:\Users\ajarr\AppData\Local\Temp\ccmHMWab.o
qk_plus_temp        0x20              C:\Users\ajarr\AppData\Local\Temp\ccmHMWab.o
delta_hmag          0x8               C:\Users\ajarr\AppData\Local\Temp\ccmHMWab.o
Roll_pos_ND         0x8               C:\Users\ajarr\AppData\Local\Temp\ccgZ79fC.o
Q_REF_conj          0x20              C:\Users\ajarr\AppData\Local\Temp\ccmHMWab.o
RW_ARC_Logic        0x4               C:\Users\ajarr\AppData\Local\Temp\ccmHMWab.o
MP                  0x8               C:\Users\ajarr\AppData\Local\Temp\ccmHMWab.o
ltp12               0x4               C:\Users\ajarr\AppData\Local\Temp\ccQfD6IQ.o
GPS_obc_checkum     0x1               C:\Users\ajarr\AppData\Local\Temp\ccW8NopI.o
Remote_minotoring_addr
                    0x4               C:\Users\ajarr\AppData\Local\Temp\ccXi6CuD.o
Matout31            0x18              C:\Users\ajarr\AppData\Local\Temp\ccmHMWab.o
DelThta_cat_x       0x4               C:\Users\ajarr\AppData\Local\Temp\ccmHMWab.o
inclination_temp    0x8               C:\Users\ajarr\AppData\Local\Temp\ccmHMWab.o
Xk_plus             0x48              C:\Users\ajarr\AppData\Local\Temp\ccmHMWab.o
tempdata2           0x1               C:\Users\ajarr\AppData\Local\Temp\ccgZ79fC.o
IMU2_Corr           0x144             C:\Users\ajarr\AppData\Local\Temp\cclcRNkm.o
eol                 0x8               C:\Users\ajarr\AppData\Local\Temp\ccmHMWab.o
spin_up_avg_count_2
                    0x4               C:\Users\ajarr\AppData\Local\Temp\ccmHMWab.o
tc_cnt_test         0x4               C:\Users\ajarr\AppData\Local\Temp\ccgZ79fC.o
tsi                 0x8               C:\Users\ajarr\AppData\Local\Temp\ccmHMWab.o
phi_11              0x48              C:\Users\ajarr\AppData\Local\Temp\ccmHMWab.o
BDOT                0x18              C:\Users\ajarr\AppData\Local\Temp\ccgZ79fC.o
TC_data_command_Table
                    0x6c              C:\Users\ajarr\AppData\Local\Temp\cclcRNkm.o
pl_test12           0x4               C:\Users\ajarr\AppData\Local\Temp\ccySgCMJ.o
GPS_pulse_rcvd      0x4               C:\Users\ajarr\AppData\Local\Temp\ccW8NopI.o
tempta              0x8               C:\Users\ajarr\AppData\Local\Temp\ccmHMWab.o
Cond1               0x8               C:\Users\ajarr\AppData\Local\Temp\ccmHMWab.o
RW_Write_ptr        0x4               C:\Users\ajarr\AppData\Local\Temp\ccW8vVNE.o
phi_12_temp1        0x48              C:\Users\ajarr\AppData\Local\Temp\ccmHMWab.o
GPS2_ptr            0x4               C:\Users\ajarr\AppData\Local\Temp\ccW8NopI.o
Yaw_MTREnable       0x4               C:\Users\ajarr\AppData\Local\Temp\ccmHMWab.o
J_DAD               0x4               C:\Users\ajarr\AppData\Local\Temp\ccmHMWab.o
CB_RefVectorGeneration
                    0x4               C:\Users\ajarr\AppData\Local\Temp\ccmHMWab.o
magrsun             0x8               C:\Users\ajarr\AppData\Local\Temp\ccmHMWab.o
inter_HAL_IMU_Buffer_Addr
                    0x4               C:\Users\ajarr\AppData\Local\Temp\ccgZ79fC.o
ao_temp             0x8               C:\Users\ajarr\AppData\Local\Temp\ccmHMWab.o
bbbb                0x4               C:\Users\ajarr\AppData\Local\Temp\cclcRNkm.o
TachoHyst           0x10              C:\Users\ajarr\AppData\Local\Temp\ccmHMWab.o
TC_wp_QDP           0x4               C:\Users\ajarr\AppData\Local\Temp\ccmHMWab.o
pl_HLT_en           0x1               C:\Users\ajarr\AppData\Local\Temp\ccySgCMJ.o
pk_plus_one         0x288             C:\Users\ajarr\AppData\Local\Temp\ccmHMWab.o
CB_Wheel_Dynamic_Friction
                    0x4               C:\Users\ajarr\AppData\Local\Temp\ccmHMWab.o
B_ECEF              0x18              C:\Users\ajarr\AppData\Local\Temp\ccmHMWab.o
Sun_Dis             0x8               C:\Users\ajarr\AppData\Local\Temp\ccmHMWab.o
A_R                 0x8               C:\Users\ajarr\AppData\Local\Temp\ccmHMWab.o
RW_TM_Raw_Data_ptr  0x4               C:\Users\ajarr\AppData\Local\Temp\ccW8vVNE.o
vy                  0x8               C:\Users\ajarr\AppData\Local\Temp\ccmHMWab.o
no                  0x8               C:\Users\ajarr\AppData\Local\Temp\ccmHMWab.o
beta_DAD            0x8               C:\Users\ajarr\AppData\Local\Temp\ccmHMWab.o
mo_GPS              0x8               C:\Users\ajarr\AppData\Local\Temp\ccmHMWab.o
alpha_DAD           0x8               C:\Users\ajarr\AppData\Local\Temp\ccmHMWab.o
B_ASC               0x18              C:\Users\ajarr\AppData\Local\Temp\ccgZ79fC.o
Top_index           0x4               C:\Users\ajarr\AppData\Local\Temp\ccXi6CuD.o
SC3                 0x8               C:\Users\ajarr\AppData\Local\Temp\ccgZ79fC.o
DCM2Q_out           0x20              C:\Users\ajarr\AppData\Local\Temp\ccmHMWab.o
data                0x4               C:\Users\ajarr\AppData\Local\Temp\ccySgCMJ.o
Q_SFAO2ECI          0x20              C:\Users\ajarr\AppData\Local\Temp\ccmHMWab.o
SS_prcd_data        0x18              C:\Users\ajarr\AppData\Local\Temp\ccgZ79fC.o
Minor_Cycle_Count   0x4               C:\Users\ajarr\AppData\Local\Temp\cclcRNkm.o
rk_Qk_rk_T          0x288             C:\Users\ajarr\AppData\Local\Temp\ccmHMWab.o
ee_blk_no           0x1               C:\Users\ajarr\AppData\Local\Temp\cclcRNkm.o
ao                  0x8               C:\Users\ajarr\AppData\Local\Temp\ccmHMWab.o
Numofdays           0x4               C:\Users\ajarr\AppData\Local\Temp\ccmHMWab.o
TC_SunMagAD         0x4               C:\Users\ajarr\AppData\Local\Temp\ccmHMWab.o
S_ECIn              0x18              C:\Users\ajarr\AppData\Local\Temp\ccmHMWab.o
longitude           0x8               C:\Users\ajarr\AppData\Local\Temp\ccmHMWab.o
Quest_update_available
                    0x4               C:\Users\ajarr\AppData\Local\Temp\ccmHMWab.o
N_ecc               0x8               C:\Users\ajarr\AppData\Local\Temp\ccmHMWab.o
ab_test             0x4               C:\Users\ajarr\AppData\Local\Temp\ccgZ79fC.o
M_MAGAD             0x4               C:\Users\ajarr\AppData\Local\Temp\ccmHMWab.o
minute_TLE_tc       0x4               C:\Users\ajarr\AppData\Local\Temp\ccmHMWab.o
cossu               0x8               C:\Users\ajarr\AppData\Local\Temp\ccmHMWab.o
sin_of_W_norm_Delta_by2_W_norm_and_big_omega
                    0x80              C:\Users\ajarr\AppData\Local\Temp\ccmHMWab.o
cc4                 0x8               C:\Users\ajarr\AppData\Local\Temp\ccmHMWab.o
phi_k_pk_plus       0x288             C:\Users\ajarr\AppData\Local\Temp\ccmHMWab.o
Manual_flag         0x4               C:\Users\ajarr\AppData\Local\Temp\ccQfD6IQ.o
trueanomoly_sel     0x8               C:\Users\ajarr\AppData\Local\Temp\ccmHMWab.o
MOI_wh              0x8               C:\Users\ajarr\AppData\Local\Temp\ccmHMWab.o
STATION_ECEF        0x18              C:\Users\ajarr\AppData\Local\Temp\ccmHMWab.o
ele1                0x8               C:\Users\ajarr\AppData\Local\Temp\ccgZ79fC.o
fN_MAGAD            0x4               C:\Users\ajarr\AppData\Local\Temp\ccmHMWab.o
DFCGainSL           0x20              C:\Users\ajarr\AppData\Local\Temp\ccmHMWab.o
sinmao              0x8               C:\Users\ajarr\AppData\Local\Temp\ccmHMWab.o
snod                0x8               C:\Users\ajarr\AppData\Local\Temp\ccmHMWab.o
cos_of_W_norm_Delta_by2_with_I
                    0x80              C:\Users\ajarr\AppData\Local\Temp\ccmHMWab.o
cl_magad            0x70              C:\Users\ajarr\AppData\Local\Temp\ccmHMWab.o
i_gh                0x1               C:\Users\ajarr\AppData\Local\Temp\ccmHMWab.o
Tdet                0x18              C:\Users\ajarr\AppData\Local\Temp\ccmHMWab.o
prev                0x4               C:\Users\ajarr\AppData\Local\Temp\ccXi6CuD.o
ST_frame_count      0x2               C:\Users\ajarr\AppData\Local\Temp\cclcRNkm.o
nm                  0x8               C:\Users\ajarr\AppData\Local\Temp\ccmHMWab.o
TTDB3               0x8               C:\Users\ajarr\AppData\Local\Temp\ccmHMWab.o
ST_Dest_Addr        0x4               C:\Users\ajarr\AppData\Local\Temp\cclcRNkm.o
del_Vw              0x20              C:\Users\ajarr\AppData\Local\Temp\ccmHMWab.o
d4                  0x8               C:\Users\ajarr\AppData\Local\Temp\ccmHMWab.o
SC6                 0x8               C:\Users\ajarr\AppData\Local\Temp\ccgZ79fC.o
alpha_I_DAD         0x48              C:\Users\ajarr\AppData\Local\Temp\ccmHMWab.o
sc_qst              0x4               C:\Users\ajarr\AppData\Local\Temp\ccmHMWab.o
t2cof               0x8               C:\Users\ajarr\AppData\Local\Temp\ccmHMWab.o
rpef                0x18              C:\Users\ajarr\AppData\Local\Temp\ccmHMWab.o
CB_LinearController
                    0x4               C:\Users\ajarr\AppData\Local\Temp\ccmHMWab.o
RW_4                0x10              C:\Users\ajarr\AppData\Local\Temp\ccW8vVNE.o
Thermistor_Selection
                    0x38              C:\Users\ajarr\AppData\Local\Temp\ccQfD6IQ.o
TC_Bdot_Gain        0x18              C:\Users\ajarr\AppData\Local\Temp\ccmHMWab.o
block_test3         0x1               C:\Users\ajarr\AppData\Local\Temp\ccgZ79fC.o
TC_wAD_BODYmaxThPitch
                    0x8               C:\Users\ajarr\AppData\Local\Temp\ccmHMWab.o
LPFK2HighSL         0x8               C:\Users\ajarr\AppData\Local\Temp\ccmHMWab.o
suu                 0x8               C:\Users\ajarr\AppData\Local\Temp\ccmHMWab.o
Pos_ECI_GPS         0x18              C:\Users\ajarr\AppData\Local\Temp\ccmHMWab.o
Alti_Mod            0x8               C:\Users\ajarr\AppData\Local\Temp\ccmHMWab.o
pl_x_tx_data_off_flag
                    0x4               C:\Users\ajarr\AppData\Local\Temp\ccySgCMJ.o
Msun                0x8               C:\Users\ajarr\AppData\Local\Temp\ccmHMWab.o
alpha_2RW_tempnorm  0x8               C:\Users\ajarr\AppData\Local\Temp\ccmHMWab.o
X_SFAO2ECI          0x18              C:\Users\ajarr\AppData\Local\Temp\ccmHMWab.o
ss_main_db_checksum_obc
                    0x4               C:\Users\ajarr\AppData\Local\Temp\cclcRNkm.o
Q_REF               0x20              C:\Users\ajarr\AppData\Local\Temp\ccmHMWab.o
rp                  0x8               C:\Users\ajarr\AppData\Local\Temp\ccmHMWab.o
nodeo_tc            0x8               C:\Users\ajarr\AppData\Local\Temp\ccmHMWab.o
DelThta_rawdata     0x18              C:\Users\ajarr\AppData\Local\Temp\ccgZ79fC.o
Y_EPO2ECI           0x18              C:\Users\ajarr\AppData\Local\Temp\ccmHMWab.o
GPS1_ptr            0x4               C:\Users\ajarr\AppData\Local\Temp\ccW8NopI.o
temp_data_rw        0x2               C:\Users\ajarr\AppData\Local\Temp\ccgZ79fC.o
w_BODYnorm          0x8               C:\Users\ajarr\AppData\Local\Temp\ccgZ79fC.o
radialdistance_ecef
                    0x8               C:\Users\ajarr\AppData\Local\Temp\ccmHMWab.o
CB_QuestDataProcessing
                    0x4               C:\Users\ajarr\AppData\Local\Temp\ccmHMWab.o
ST_Out_latch_5      0x2               C:\Users\ajarr\AppData\Local\Temp\cclcRNkm.o
year_sel            0x4               C:\Users\ajarr\AppData\Local\Temp\ccmHMWab.o
sinio               0x8               C:\Users\ajarr\AppData\Local\Temp\ccmHMWab.o
TC_EarthPointingFrame
                    0x4               C:\Users\ajarr\AppData\Local\Temp\ccmHMWab.o
Epsilon             0x8               C:\Users\ajarr\AppData\Local\Temp\ccmHMWab.o
j_god               0x4               C:\Users\ajarr\AppData\Local\Temp\ccmHMWab.o
Qk_temp1            0x8               C:\Users\ajarr\AppData\Local\Temp\ccmHMWab.o
TTDB                0x8               C:\Users\ajarr\AppData\Local\Temp\ccmHMWab.o
TC_SpeedAngularMomemtumDumping
                    0x4               C:\Users\ajarr\AppData\Local\Temp\ccmHMWab.o
pre_temp            0x48              C:\Users\ajarr\AppData\Local\Temp\ccmHMWab.o
VelX_ECEF_GPS       0x8               C:\Users\ajarr\AppData\Local\Temp\ccmHMWab.o
Z_SFDO2ECI          0x18              C:\Users\ajarr\AppData\Local\Temp\ccmHMWab.o
X_SFDO2ECI_mag      0x8               C:\Users\ajarr\AppData\Local\Temp\ccmHMWab.o
imu_data_ready_count
                    0x4               C:\Users\ajarr\AppData\Local\Temp\ccwUhEmU.o
battery_temp_1      0x4               C:\Users\ajarr\AppData\Local\Temp\ccTGUrKF.o
LPFK1LowSL          0x8               C:\Users\ajarr\AppData\Local\Temp\ccmHMWab.o
BLK_number          0x1               C:\Users\ajarr\AppData\Local\Temp\ccgZ79fC.o
DFCCountLimSL       0x10              C:\Users\ajarr\AppData\Local\Temp\ccmHMWab.o
am_temp             0x8               C:\Users\ajarr\AppData\Local\Temp\ccmHMWab.o
k_DAD               0x8               C:\Users\ajarr\AppData\Local\Temp\ccmHMWab.o
Qk_temp3            0x8               C:\Users\ajarr\AppData\Local\Temp\ccmHMWab.o
TCH_read_full_ptr   0x4               C:\Users\ajarr\AppData\Local\Temp\cclcRNkm.o
sec_TLE_tc          0x8               C:\Users\ajarr\AppData\Local\Temp\ccmHMWab.o
ss_data             0x1e              C:\Users\ajarr\AppData\Local\Temp\ccTGUrKF.o
SS_M1               0x8               C:\Users\ajarr\AppData\Local\Temp\ccmHMWab.o
GPS_Status2_Msg     0x2               C:\Users\ajarr\AppData\Local\Temp\ccW8NopI.o
HILS_packet         0x40              C:\Users\ajarr\AppData\Local\Temp\cclcRNkm.o
inter_at697f_count  0x4               C:\Users\ajarr\AppData\Local\Temp\cclcRNkm.o
invangmomentumvecmag
                    0x8               C:\Users\ajarr\AppData\Local\Temp\ccmHMWab.o
TMTC_boolean_u      0x8               C:\Users\ajarr\AppData\Local\Temp\cclcRNkm.o
rvdotl              0x8               C:\Users\ajarr\AppData\Local\Temp\ccmHMWab.o
sa_test             0x4               C:\Users\ajarr\AppData\Local\Temp\ccmmE1Hm.o
Pos_ECEFn           0x18              C:\Users\ajarr\AppData\Local\Temp\ccmHMWab.o
inter_HAL_RW_Status_Register
                    0x4               C:\Users\ajarr\AppData\Local\Temp\ccW8vVNE.o
Block_Index         0x100             C:\Users\ajarr\AppData\Local\Temp\ccXi6CuD.o
X_EPO2ECI_mag       0x8               C:\Users\ajarr\AppData\Local\Temp\ccmHMWab.o
emsq                0x8               C:\Users\ajarr\AppData\Local\Temp\ccmHMWab.o
c_DAD               0x8               C:\Users\ajarr\AppData\Local\Temp\ccmHMWab.o
Pitch_pos           0x8               C:\Users\ajarr\AppData\Local\Temp\ccgZ79fC.o
ST_TC_history_final_Buffer
                    0xfa00            C:\Users\ajarr\AppData\Local\Temp\cclcRNkm.o
NEDtoECEF           0x48              C:\Users\ajarr\AppData\Local\Temp\ccmHMWab.o
TM_IMU2             0x18              C:\Users\ajarr\AppData\Local\Temp\cclcRNkm.o
sine2               0x8               C:\Users\ajarr\AppData\Local\Temp\ccmHMWab.o
TB_sMD              0x18              C:\Users\ajarr\AppData\Local\Temp\ccmHMWab.o
DB_MagLPF           0x8               C:\Users\ajarr\AppData\Local\Temp\ccmHMWab.o
ss_redundant_db_checksum_obc
                    0x4               C:\Users\ajarr\AppData\Local\Temp\cclcRNkm.o
GPSDataReady_NA_count
                    0x4               C:\Users\ajarr\AppData\Local\Temp\ccmHMWab.o
ecc                 0x8               C:\Users\ajarr\AppData\Local\Temp\ccmHMWab.o
ref_cross           0x48              C:\Users\ajarr\AppData\Local\Temp\ccmHMWab.o
cosip               0x8               C:\Users\ajarr\AppData\Local\Temp\ccmHMWab.o
CB_ErrorComputation
                    0x4               C:\Users\ajarr\AppData\Local\Temp\ccmHMWab.o
rw_tm_count         0x4               C:\Users\ajarr\AppData\Local\Temp\ccW8vVNE.o
ecc_r               0x8               C:\Users\ajarr\AppData\Local\Temp\ccmHMWab.o
Thta_BODY_IMU1      0x18              C:\Users\ajarr\AppData\Local\Temp\ccgZ79fC.o
Norm_ST_Table_Row_No
                    0x4               C:\Users\ajarr\AppData\Local\Temp\cclcRNkm.o
TC_long_station     0x8               C:\Users\ajarr\AppData\Local\Temp\ccmHMWab.o
manual_on_off       0x4               C:\Users\ajarr\AppData\Local\Temp\ccQfD6IQ.o
H_wh                0x20              C:\Users\ajarr\AppData\Local\Temp\ccmHMWab.o
SS_Data             0x80              C:\Users\ajarr\AppData\Local\Temp\ccgZ79fC.o
wh_sdump_start      0x10              C:\Users\ajarr\AppData\Local\Temp\ccmHMWab.o
temp_prop           0x8               C:\Users\ajarr\AppData\Local\Temp\ccmHMWab.o
Z_SFAO2ECI_mag      0x8               C:\Users\ajarr\AppData\Local\Temp\ccmHMWab.o
Tsince_GPS          0x8               C:\Users\ajarr\AppData\Local\Temp\ccmHMWab.o
Pitch_Pol           0x4               C:\Users\ajarr\AppData\Local\Temp\ccegzvw7.o
SC2ImaxF            0x8               C:\Users\ajarr\AppData\Local\Temp\ccgZ79fC.o
pres_exp_whsp_ch    0x20              C:\Users\ajarr\AppData\Local\Temp\ccmHMWab.o
m_gh                0x1               C:\Users\ajarr\AppData\Local\Temp\ccmHMWab.o
B_ECItesla          0x18              C:\Users\ajarr\AppData\Local\Temp\ccmHMWab.o
Result_of_sine_Delta_cube
                    0x8               C:\Users\ajarr\AppData\Local\Temp\ccmHMWab.o
Pse_Inv_Dist_Mat    0x60              C:\Users\ajarr\AppData\Local\Temp\ccmHMWab.o
LPFK2LowSL          0x8               C:\Users\ajarr\AppData\Local\Temp\ccmHMWab.o
pl_hlt_flag         0x2               C:\Users\ajarr\AppData\Local\Temp\ccySgCMJ.o
ux                  0x8               C:\Users\ajarr\AppData\Local\Temp\ccmHMWab.o
TC_KP               0x18              C:\Users\ajarr\AppData\Local\Temp\ccmHMWab.o
templ               0x8               C:\Users\ajarr\AppData\Local\Temp\ccmHMWab.o
GPS_Data            0x4               C:\Users\ajarr\AppData\Local\Temp\ccW8NopI.o
cos_of_W_norm_and_Delta_by2
                    0x8               C:\Users\ajarr\AppData\Local\Temp\ccmHMWab.o
Q_StP2ECI           0x20              C:\Users\ajarr\AppData\Local\Temp\ccmHMWab.o
phi_11_temp3        0x48              C:\Users\ajarr\AppData\Local\Temp\ccmHMWab.o
phi_11_temp2        0x48              C:\Users\ajarr\AppData\Local\Temp\ccmHMWab.o
Normal_st_table_page3
                    0x4               C:\Users\ajarr\AppData\Local\Temp\cclcRNkm.o
wo                  0x8               C:\Users\ajarr\AppData\Local\Temp\ccmHMWab.o
gamma_DAD           0x8               C:\Users\ajarr\AppData\Local\Temp\ccmHMWab.o
epochdays_GPS       0x8               C:\Users\ajarr\AppData\Local\Temp\ccmHMWab.o
UTC_min_GPS         0x4               C:\Users\ajarr\AppData\Local\Temp\ccmHMWab.o
CB_Detumbling_Mode  0x4               C:\Users\ajarr\AppData\Local\Temp\ccmHMWab.o
phi_k_pk_plus_phi_k_T
                    0x288             C:\Users\ajarr\AppData\Local\Temp\ccmHMWab.o
comb2               0x8               C:\Users\ajarr\AppData\Local\Temp\ccgZ79fC.o
imu2_db_checksum_obc
                    0x4               C:\Users\ajarr\AppData\Local\Temp\ccgZ79fC.o
Qerror              0x20              C:\Users\ajarr\AppData\Local\Temp\ccmHMWab.o
TC_delUT1           0x8               C:\Users\ajarr\AppData\Local\Temp\ccmHMWab.o
OBT_at_TLE_uplink   0x4               C:\Users\ajarr\AppData\Local\Temp\ccmHMWab.o
MP_Polarity         0x4               C:\Users\ajarr\AppData\Local\Temp\ccmHMWab.o
argpo               0x8               C:\Users\ajarr\AppData\Local\Temp\ccmHMWab.o
am_den              0x8               C:\Users\ajarr\AppData\Local\Temp\ccmHMWab.o
Nodeptr             0xfa0             C:\Users\ajarr\AppData\Local\Temp\ccXi6CuD.o
mat_mult            0x48              C:\Users\ajarr\AppData\Local\Temp\ccmHMWab.o
delm                0x8               C:\Users\ajarr\AppData\Local\Temp\ccmHMWab.o
RW_Write_Data       0x14              C:\Users\ajarr\AppData\Local\Temp\ccW8vVNE.o
Tdefnorm            0x8               C:\Users\ajarr\AppData\Local\Temp\ccmHMWab.o
GPS_RCVD_DATA       0x1a8             C:\Users\ajarr\AppData\Local\Temp\ccW8NopI.o
WhMom0              0x20              C:\Users\ajarr\AppData\Local\Temp\ccmHMWab.o
Pos_ECIn            0x18              C:\Users\ajarr\AppData\Local\Temp\ccmHMWab.o
cc1sq               0x8               C:\Users\ajarr\AppData\Local\Temp\ccmHMWab.o
TC_wAD_BODYmaxThRoll
                    0x8               C:\Users\ajarr\AppData\Local\Temp\ccmHMWab.o
TC_wAD_BODYminThPitch
                    0x8               C:\Users\ajarr\AppData\Local\Temp\ccmHMWab.o
I_MAGAD             0x4               C:\Users\ajarr\AppData\Local\Temp\ccmHMWab.o
ecc_temp5           0x8               C:\Users\ajarr\AppData\Local\Temp\ccmHMWab.o
Special_st_table_page2
                    0x4               C:\Users\ajarr\AppData\Local\Temp\cclcRNkm.o
jd_time             0x8               C:\Users\ajarr\AppData\Local\Temp\ccmHMWab.o
ecco                0x8               C:\Users\ajarr\AppData\Local\Temp\ccmHMWab.o
vsaty_eci           0x8               C:\Users\ajarr\AppData\Local\Temp\ccmHMWab.o
aaaa                0x4               C:\Users\ajarr\AppData\Local\Temp\cclcRNkm.o
eeprom_flag         0x1               C:\Users\ajarr\AppData\Local\Temp\cclcRNkm.o
xlcof               0x8               C:\Users\ajarr\AppData\Local\Temp\ccmHMWab.o
K_temp              0x48              C:\Users\ajarr\AppData\Local\Temp\ccmHMWab.o
inter_Update_TM_With_ADC_offset
                    0x4               C:\Users\ajarr\AppData\Local\Temp\ccTGUrKF.o
h                   0x780             C:\Users\ajarr\AppData\Local\Temp\ccmHMWab.o
gps_obt_counter     0x4               C:\Users\ajarr\AppData\Local\Temp\ccW8NopI.o
NMS_NRSt            0x48              C:\Users\ajarr\AppData\Local\Temp\ccmHMWab.o
IMU_Config_Done     0x4               C:\Users\ajarr\AppData\Local\Temp\ccgZ79fC.o
latitude            0x8               C:\Users\ajarr\AppData\Local\Temp\ccmHMWab.o
TC_buffer_count     0x4b0             C:\Users\ajarr\AppData\Local\Temp\ccXi6CuD.o
Absolutetime        0x4               C:\Users\ajarr\AppData\Local\Temp\ccXi6CuD.o
addr_pointer_TM     0x4               C:\Users\ajarr\AppData\Local\Temp\cclcRNkm.o
TC_Det_Bprev_Count  0x4               C:\Users\ajarr\AppData\Local\Temp\ccmHMWab.o
pl_acq_flag         0x4               C:\Users\ajarr\AppData\Local\Temp\ccySgCMJ.o
GPS_TM_Buffer_Addr_USC
                    0x4               C:\Users\ajarr\AppData\Local\Temp\ccW8NopI.o
Vel_ECEF_temp       0x18              C:\Users\ajarr\AppData\Local\Temp\ccmHMWab.o
count_arc_w2        0x4               C:\Users\ajarr\AppData\Local\Temp\ccmHMWab.o
Y_EPO2ECI_mag       0x8               C:\Users\ajarr\AppData\Local\Temp\ccmHMWab.o
cd_magad            0x8               C:\Users\ajarr\AppData\Local\Temp\ccmHMWab.o
imu1_db_checksum_obc
                    0x4               C:\Users\ajarr\AppData\Local\Temp\ccgZ79fC.o
latitude_GPS        0x8               C:\Users\ajarr\AppData\Local\Temp\ccmHMWab.o
del_v0              0x20              C:\Users\ajarr\AppData\Local\Temp\ccmHMWab.o
RW_ARC_Count        0x4               C:\Users\ajarr\AppData\Local\Temp\ccmHMWab.o
RW_TM               0x200             C:\Users\ajarr\AppData\Local\Temp\ccW8vVNE.o
TC_AutoTransitAnyMode2Det
                    0x4               C:\Users\ajarr\AppData\Local\Temp\ccmHMWab.o
DFCTorq             0x20              C:\Users\ajarr\AppData\Local\Temp\ccmHMWab.o
Spec_ST_Table       0x2028            C:\Users\ajarr\AppData\Local\Temp\cclcRNkm.o
sinim               0x8               C:\Users\ajarr\AppData\Local\Temp\ccmHMWab.o
var                 0x8               C:\Users\ajarr\AppData\Local\Temp\ccmHMWab.o
qk_minus            0x20              C:\Users\ajarr\AppData\Local\Temp\ccmHMWab.o
Q_REF_prev_conj     0x20              C:\Users\ajarr\AppData\Local\Temp\ccmHMWab.o
cosu                0x8               C:\Users\ajarr\AppData\Local\Temp\ccmHMWab.o
BDOTNormCount       0x4               C:\Users\ajarr\AppData\Local\Temp\ccmHMWab.o
BDOT_Norm_Count     0x4               C:\Users\ajarr\AppData\Local\Temp\ccmHMWab.o
Susp_cnt            0x4               C:\Users\ajarr\AppData\Local\Temp\ccmHMWab.o
Buffer              0x8b9             C:\Users\ajarr\AppData\Local\Temp\cclcRNkm.o
Out_Latch_3         0x2               C:\Users\ajarr\AppData\Local\Temp\cclcRNkm.o
SS_Main_DB          0x284             C:\Users\ajarr\AppData\Local\Temp\cclcRNkm.o
ao_sfour            0x8               C:\Users\ajarr\AppData\Local\Temp\ccmHMWab.o
precession          0x48              C:\Users\ajarr\AppData\Local\Temp\ccmHMWab.o
Z_SFAO2ECI          0x18              C:\Users\ajarr\AppData\Local\Temp\ccmHMWab.o
S_sqr_DAD           0x48              C:\Users\ajarr\AppData\Local\Temp\ccmHMWab.o
nodeo               0x8               C:\Users\ajarr\AppData\Local\Temp\ccmHMWab.o
R_StP2ECI           0x48              C:\Users\ajarr\AppData\Local\Temp\ccmHMWab.o
inter_HAL_RW_Read_Addr
                    0x4               C:\Users\ajarr\AppData\Local\Temp\ccW8vVNE.o
theta1              0x8               C:\Users\ajarr\AppData\Local\Temp\ccmHMWab.o
sun_noise           0x8               C:\Users\ajarr\AppData\Local\Temp\ccmHMWab.o
TC_Hmin             0x8               C:\Users\ajarr\AppData\Local\Temp\ccmHMWab.o
TC_magMin_angle     0x8               C:\Users\ajarr\AppData\Local\Temp\ccmHMWab.o
IMU_Data_Available  0x4               C:\Users\ajarr\AppData\Local\Temp\ccgZ79fC.o
ecc_sel             0x8               C:\Users\ajarr\AppData\Local\Temp\ccmHMWab.o
n_gh                0x1               C:\Users\ajarr\AppData\Local\Temp\ccmHMWab.o
ecc_temp7           0x8               C:\Users\ajarr\AppData\Local\Temp\ccmHMWab.o
etempe              0x8               C:\Users\ajarr\AppData\Local\Temp\ccmHMWab.o
Dest_end_addr       0x4               C:\Users\ajarr\AppData\Local\Temp\cclcRNkm.o
A1_magad            0x8               C:\Users\ajarr\AppData\Local\Temp\ccmHMWab.o
R_SPO2ECI           0x48              C:\Users\ajarr\AppData\Local\Temp\ccmHMWab.o
xsatx_eci           0x8               C:\Users\ajarr\AppData\Local\Temp\ccmHMWab.o
no_GPS              0x8               C:\Users\ajarr\AppData\Local\Temp\ccmHMWab.o
Yk_minus_hk         0x18              C:\Users\ajarr\AppData\Local\Temp\ccmHMWab.o
__bcc_isr_list      0x80              c:/opt/bcc-2.0.2-gcc/bin/../sparc-gaisler-elf/bsp/leon2/leon/mfix-at697f\libbcc.a(isr.c.o)
TDT                 0x8               C:\Users\ajarr\AppData\Local\Temp\ccmHMWab.o
test_gps_conf5      0x4               C:\Users\ajarr\AppData\Local\Temp\ccW8NopI.o
w_BODY_IMU1         0x18              C:\Users\ajarr\AppData\Local\Temp\ccgZ79fC.o
B_ABC               0x18              C:\Users\ajarr\AppData\Local\Temp\ccgZ79fC.o
qk_DCM              0x48              C:\Users\ajarr\AppData\Local\Temp\ccmHMWab.o
TMC_ptr             0x4               C:\Users\ajarr\AppData\Local\Temp\ccW8vVNE.o
mat_mag_DataCounter
                    0x4               C:\Users\ajarr\AppData\Local\Temp\ccmHMWab.o
argpo_sel           0x8               C:\Users\ajarr\AppData\Local\Temp\ccmHMWab.o
dak                 0x4               C:\Users\ajarr\AppData\Local\Temp\ccW8vVNE.o
SunNPP_SMtransit_counter
                    0x4               C:\Users\ajarr\AppData\Local\Temp\ccgZ79fC.o
psetasq             0x8               C:\Users\ajarr\AppData\Local\Temp\ccmHMWab.o
f_battery_safemode  0x4               C:\Users\ajarr\AppData\Local\Temp\ccmHMWab.o
Pos_ECI             0x18              C:\Users\ajarr\AppData\Local\Temp\ccmHMWab.o
e_vecdtr            0x8               C:\Users\ajarr\AppData\Local\Temp\ccmHMWab.o
nodeo_TLE_tc        0x8               C:\Users\ajarr\AppData\Local\Temp\ccmHMWab.o
inter_HAL_IMU_Status_Data
                    0x4               C:\Users\ajarr\AppData\Local\Temp\ccgZ79fC.o
pl_diag_flag        0x4               C:\Users\ajarr\AppData\Local\Temp\ccySgCMJ.o
L_Ecliptic          0x8               C:\Users\ajarr\AppData\Local\Temp\ccmHMWab.o
trueanomoly_TLE_tc  0x8               C:\Users\ajarr\AppData\Local\Temp\ccmHMWab.o
w_q_update_satisfy  0x4               C:\Users\ajarr\AppData\Local\Temp\ccmHMWab.o
rteosq              0x8               C:\Users\ajarr\AppData\Local\Temp\ccmHMWab.o
lmonth              0x34              C:\Users\ajarr\AppData\Local\Temp\ccmHMWab.o
R_SFDO2ECI          0x48              C:\Users\ajarr\AppData\Local\Temp\ccmHMWab.o
UTC_sec_GPS         0x8               C:\Users\ajarr\AppData\Local\Temp\ccmHMWab.o
M_quad              0x8               C:\Users\ajarr\AppData\Local\Temp\ccmHMWab.o
ss2b                0x48              C:\Users\ajarr\AppData\Local\Temp\ccgZ79fC.o
GPS_msg_header_LSB  0x4               C:\Users\ajarr\AppData\Local\Temp\ccW8NopI.o
speedDFCch          0x8               C:\Users\ajarr\AppData\Local\Temp\ccmHMWab.o
dc_qst              0x4               C:\Users\ajarr\AppData\Local\Temp\ccmHMWab.o
IMU_1_DB            0x144             C:\Users\ajarr\AppData\Local\Temp\cclcRNkm.o
inter_HAL_RW_Read_Limit
                    0x4               C:\Users\ajarr\AppData\Local\Temp\ccW8vVNE.o
cc1                 0x8               C:\Users\ajarr\AppData\Local\Temp\ccmHMWab.o
X_SVO2ECI           0x18              C:\Users\ajarr\AppData\Local\Temp\ccmHMWab.o
tut1                0x8               C:\Users\ajarr\AppData\Local\Temp\ccmHMWab.o
Tdeficit_temp2      0x18              C:\Users\ajarr\AppData\Local\Temp\ccmHMWab.o
GPS2                0x40              C:\Users\ajarr\AppData\Local\Temp\cclcRNkm.o
Delta_T             0x8               C:\Users\ajarr\AppData\Local\Temp\ccmHMWab.o
PL_ACK              0x2               C:\Users\ajarr\AppData\Local\Temp\ccySgCMJ.o
GPS_Addr_Count      0x4               C:\Users\ajarr\AppData\Local\Temp\ccW8NopI.o
Kk_Hk_with_minus_one
                    0x288             C:\Users\ajarr\AppData\Local\Temp\ccmHMWab.o
commandptr          0x4               C:\Users\ajarr\AppData\Local\Temp\ccXi6CuD.o
Bsq                 0x8               C:\Users\ajarr\AppData\Local\Temp\ccgZ79fC.o
BDown               0x8               C:\Users\ajarr\AppData\Local\Temp\ccmHMWab.o
dumping_on          0x4               C:\Users\ajarr\AppData\Local\Temp\ccmHMWab.o
wAD_updatecount     0x4               C:\Users\ajarr\AppData\Local\Temp\ccmHMWab.o
IO_In_Latch_Register_4_Data
                    0x4               C:\Users\ajarr\AppData\Local\Temp\cclcRNkm.o
polarmotion         0x48              C:\Users\ajarr\AppData\Local\Temp\ccmHMWab.o
IO_Latch_Register_3_Data
                    0x4               C:\Users\ajarr\AppData\Local\Temp\cclcRNkm.o
inter_HAL_Antenna_Addr
                    0x4               C:\Users\ajarr\AppData\Local\Temp\ccmmE1Hm.o
posq                0x8               C:\Users\ajarr\AppData\Local\Temp\ccmHMWab.o
X_SFDO2ECI          0x18              C:\Users\ajarr\AppData\Local\Temp\ccmHMWab.o
IMU_prcd_data_ptr   0x4               C:\Users\ajarr\AppData\Local\Temp\ccgZ79fC.o
TC_AngMomDump_Thrsld
                    0x8               C:\Users\ajarr\AppData\Local\Temp\ccmHMWab.o
TM_IMU1             0x18              C:\Users\ajarr\AppData\Local\Temp\cclcRNkm.o
t3cof               0x8               C:\Users\ajarr\AppData\Local\Temp\ccmHMWab.o
FDI_NMI_Count       0x1               C:\Users\ajarr\AppData\Local\Temp\cclcRNkm.o
real_tm_finish      0x4               C:\Users\ajarr\AppData\Local\Temp\cck0ztpe.o
ThreeAxis2DetMode_counter
                    0x4               C:\Users\ajarr\AppData\Local\Temp\ccmHMWab.o
co_dec              0x8               C:\Users\ajarr\AppData\Local\Temp\ccmHMWab.o
RW_Buffer_u         0x200             C:\Users\ajarr\AppData\Local\Temp\ccW8vVNE.o
IMU_1               0x10              C:\Users\ajarr\AppData\Local\Temp\ccgZ79fC.o
Roll_MTREnable      0x4               C:\Users\ajarr\AppData\Local\Temp\ccmHMWab.o
k_comr              0x4               C:\Users\ajarr\AppData\Local\Temp\ccmHMWab.o
STATION_ECI         0x18              C:\Users\ajarr\AppData\Local\Temp\ccmHMWab.o
Normal_st_table_page2
                    0x4               C:\Users\ajarr\AppData\Local\Temp\cclcRNkm.o
GPS_OBT_Latch_enable
                    0x2               C:\Users\ajarr\AppData\Local\Temp\ccW8NopI.o
MUX_2               0x2               C:\Users\ajarr\AppData\Local\Temp\cclcRNkm.o
eps                 0x8               C:\Users\ajarr\AppData\Local\Temp\ccmHMWab.o
Y_SPO2ECI_mag       0x8               C:\Users\ajarr\AppData\Local\Temp\ccmHMWab.o
write_str_ptr       0x4               C:\Users\ajarr\AppData\Local\Temp\cclcRNkm.o
B_ECIn              0x18              C:\Users\ajarr\AppData\Local\Temp\ccmHMWab.o
vsatz_eci           0x8               C:\Users\ajarr\AppData\Local\Temp\ccmHMWab.o
mod_of_Wk1_cube     0x8               C:\Users\ajarr\AppData\Local\Temp\ccmHMWab.o
Yaw_pos             0x8               C:\Users\ajarr\AppData\Local\Temp\ccgZ79fC.o
sin2u               0x8               C:\Users\ajarr\AppData\Local\Temp\ccmHMWab.o
RW_Measured         0x10              C:\Users\ajarr\AppData\Local\Temp\ccW8vVNE.o
inter_imu_j         0x4               C:\Users\ajarr\AppData\Local\Temp\ccgZ79fC.o
data_nc             0x4               C:\Users\ajarr\AppData\Local\Temp\ccySgCMJ.o
TC_flag             0x4               C:\Users\ajarr\AppData\Local\Temp\ccXi6CuD.o
pl_sts_chk_flag     0x4               C:\Users\ajarr\AppData\Local\Temp\ccySgCMJ.o
TC_boolean_u        0x3f              C:\Users\ajarr\AppData\Local\Temp\cclcRNkm.o
velmag              0x8               C:\Users\ajarr\AppData\Local\Temp\ccmHMWab.o
A2_magad            0x8               C:\Users\ajarr\AppData\Local\Temp\ccmHMWab.o
pl_i                0x4               C:\Users\ajarr\AppData\Local\Temp\ccySgCMJ.o
TC_Buffer_Addr      0x4               C:\Users\ajarr\AppData\Local\Temp\ccXi6CuD.o
sl_magad            0x70              C:\Users\ajarr\AppData\Local\Temp\ccmHMWab.o
Result_of_sine_Delta
                    0x8               C:\Users\ajarr\AppData\Local\Temp\ccmHMWab.o
Dfunc_DAD           0x8               C:\Users\ajarr\AppData\Local\Temp\ccmHMWab.o
cosio4              0x8               C:\Users\ajarr\AppData\Local\Temp\ccmHMWab.o
flag_mni            0x4               C:\Users\ajarr\AppData\Local\Temp\ccXi6CuD.o
ST_source_Buffer    0x100             C:\Users\ajarr\AppData\Local\Temp\cclcRNkm.o
TM_page_count       0x4               C:\Users\ajarr\AppData\Local\Temp\cclcRNkm.o
temp_om             0x8               C:\Users\ajarr\AppData\Local\Temp\ccmHMWab.o
data_x_tx           0x4               C:\Users\ajarr\AppData\Local\Temp\ccySgCMJ.o
Pos_ECEF_GPS        0x18              C:\Users\ajarr\AppData\Local\Temp\ccmHMWab.o
min_TW              0x8               C:\Users\ajarr\AppData\Local\Temp\ccmHMWab.o
w_ASC               0x18              C:\Users\ajarr\AppData\Local\Temp\ccgZ79fC.o
LTP_data            0x2               C:\Users\ajarr\AppData\Local\Temp\ccQfD6IQ.o
Zt_S_Z_DAD          0x8               C:\Users\ajarr\AppData\Local\Temp\ccmHMWab.o
deps                0x8               C:\Users\ajarr\AppData\Local\Temp\ccmHMWab.o
Ndte_vec            0x8               C:\Users\ajarr\AppData\Local\Temp\ccmHMWab.o
TC_command_pending  0x2               C:\Users\ajarr\AppData\Local\Temp\ccXi6CuD.o
CB_Wheel_OverSpeed_TorqueCutOff
                    0x4               C:\Users\ajarr\AppData\Local\Temp\ccmHMWab.o
test_gps_conf2      0x4               C:\Users\ajarr\AppData\Local\Temp\ccW8NopI.o
W_norm              0x8               C:\Users\ajarr\AppData\Local\Temp\ccmHMWab.o
Det_BDOT_MC_Count   0x4               C:\Users\ajarr\AppData\Local\Temp\ccgZ79fC.o
TC_KalmanFilter_ENABLE
                    0x4               C:\Users\ajarr\AppData\Local\Temp\ccmHMWab.o
xmx                 0x8               C:\Users\ajarr\AppData\Local\Temp\ccmHMWab.o
Q_quest_DAD         0x20              C:\Users\ajarr\AppData\Local\Temp\ccmHMWab.o
DFCGainHigh         0x8               C:\Users\ajarr\AppData\Local\Temp\ccmHMWab.o
Torquer_Shutdown    0x4               C:\Users\ajarr\AppData\Local\Temp\ccmHMWab.o
nodeo_sel           0x8               C:\Users\ajarr\AppData\Local\Temp\ccmHMWab.o
qk_plus             0x20              C:\Users\ajarr\AppData\Local\Temp\ccmHMWab.o
magRoll_angle       0x8               C:\Users\ajarr\AppData\Local\Temp\ccmHMWab.o
sigma_v             0x8               C:\Users\ajarr\AppData\Local\Temp\ccmHMWab.o
inter_HAL_IMU_Addr_Count
                    0x4               C:\Users\ajarr\AppData\Local\Temp\ccgZ79fC.o
f_GPS_Valid_Data    0x4               C:\Users\ajarr\AppData\Local\Temp\ccW8NopI.o
j_comr              0x4               C:\Users\ajarr\AppData\Local\Temp\ccmHMWab.o
SS_M2               0x8               C:\Users\ajarr\AppData\Local\Temp\ccmHMWab.o
sin_of_W_norm_and_Delta_by2
                    0x8               C:\Users\ajarr\AppData\Local\Temp\ccmHMWab.o
ibexp               0x8               C:\Users\ajarr\AppData\Local\Temp\ccmHMWab.o
GYRO_Threshold_Count
                    0x4               C:\Users\ajarr\AppData\Local\Temp\ccmHMWab.o
inter_PL_TM_Dest_Addr
                    0x4               C:\Users\ajarr\AppData\Local\Temp\ccySgCMJ.o
MY_Polarity         0x4               C:\Users\ajarr\AppData\Local\Temp\ccmHMWab.o
inclination_TLE_tc  0x8               C:\Users\ajarr\AppData\Local\Temp\ccmHMWab.o
PosY_ECEF_GPS       0x8               C:\Users\ajarr\AppData\Local\Temp\ccmHMWab.o
heaters_auto        0x4               C:\Users\ajarr\AppData\Local\Temp\ccQfD6IQ.o
Roll_ang_err        0x8               C:\Users\ajarr\AppData\Local\Temp\ccgZ79fC.o
heaters_manual      0x4               C:\Users\ajarr\AppData\Local\Temp\cclcRNkm.o
Yaw_Pol             0x4               C:\Users\ajarr\AppData\Local\Temp\ccegzvw7.o
CB_BDOT_Computation
                    0x4               C:\Users\ajarr\AppData\Local\Temp\ccmHMWab.o
Qbody               0x20              C:\Users\ajarr\AppData\Local\Temp\ccmHMWab.o
S_BODYn             0x18              C:\Users\ajarr\AppData\Local\Temp\ccgZ79fC.o
eSuspendedMode      0x4               C:\Users\ajarr\AppData\Local\Temp\ccmHMWab.o
i_lict              0x4               C:\Users\ajarr\AppData\Local\Temp\ccmHMWab.o
IMU_prcd_data       0x30              C:\Users\ajarr\AppData\Local\Temp\ccgZ79fC.o
delta_DAD           0x8               C:\Users\ajarr\AppData\Local\Temp\ccmHMWab.o
temp3               0x8               C:\Users\ajarr\AppData\Local\Temp\ccmHMWab.o
B_Tef_ANG           0x8               C:\Users\ajarr\AppData\Local\Temp\ccmHMWab.o
X_SPO2ECI           0x18              C:\Users\ajarr\AppData\Local\Temp\ccmHMWab.o
sine_of_Wk1_Delta_by_Wk1
                    0x8               C:\Users\ajarr\AppData\Local\Temp\ccmHMWab.o
ADC_Addr_Count      0x4               C:\Users\ajarr\AppData\Local\Temp\ccTGUrKF.o
PosX_ECEF_GPS       0x8               C:\Users\ajarr\AppData\Local\Temp\ccmHMWab.o
TC_hist_write_ptr   0x4               C:\Users\ajarr\AppData\Local\Temp\ccXi6CuD.o
SS_M7               0x8               C:\Users\ajarr\AppData\Local\Temp\ccmHMWab.o
i_tc_test           0x4               C:\Users\ajarr\AppData\Local\Temp\ccgZ79fC.o
SS_M6               0x8               C:\Users\ajarr\AppData\Local\Temp\ccmHMWab.o
temp_data_2         0x2               C:\Users\ajarr\AppData\Local\Temp\ccySgCMJ.o
Q_axis              0x18              C:\Users\ajarr\AppData\Local\Temp\ccmHMWab.o
Wheel_Config        0x4               C:\Users\ajarr\AppData\Local\Temp\ccmHMWab.o
psisq               0x8               C:\Users\ajarr\AppData\Local\Temp\ccmHMWab.o
N_MAGAD             0x4               C:\Users\ajarr\AppData\Local\Temp\ccmHMWab.o
argpm               0x8               C:\Users\ajarr\AppData\Local\Temp\ccmHMWab.o
tm_ds_en_flag       0x4               C:\Users\ajarr\AppData\Local\Temp\ccySgCMJ.o
Remote_data_addr    0x4               C:\Users\ajarr\AppData\Local\Temp\cclcRNkm.o
mp                  0x8               C:\Users\ajarr\AppData\Local\Temp\ccmHMWab.o
am                  0x8               C:\Users\ajarr\AppData\Local\Temp\ccmHMWab.o
Remote_data         0x4               C:\Users\ajarr\AppData\Local\Temp\ccXi6CuD.o
UTP_data            0x2               C:\Users\ajarr\AppData\Local\Temp\ccQfD6IQ.o
TC_comd_pitch_rate  0x8               C:\Users\ajarr\AppData\Local\Temp\ccmHMWab.o
TorquerDutyCycle    0x18              C:\Users\ajarr\AppData\Local\Temp\ccmHMWab.o
test_gps_conf3      0x4               C:\Users\ajarr\AppData\Local\Temp\ccW8NopI.o
bbb                 0x2               C:\Users\ajarr\AppData\Local\Temp\cclcRNkm.o
All_Deployed        0x4               C:\Users\ajarr\AppData\Local\Temp\ccmHMWab.o
Special_st_table_page1
                    0x4               C:\Users\ajarr\AppData\Local\Temp\cclcRNkm.o
xl                  0x8               C:\Users\ajarr\AppData\Local\Temp\ccmHMWab.o
dayofyr             0x4               C:\Users\ajarr\AppData\Local\Temp\ccmHMWab.o
pl_tm_ptr           0x4               C:\Users\ajarr\AppData\Local\Temp\ccySgCMJ.o
rw_data             0x2               C:\Users\ajarr\AppData\Local\Temp\ccgZ79fC.o
eta                 0x8               C:\Users\ajarr\AppData\Local\Temp\ccmHMWab.o
w_BODY              0x18              C:\Users\ajarr\AppData\Local\Temp\ccgZ79fC.o
NOB_CRC_TMC         0x4               C:\Users\ajarr\AppData\Local\Temp\ccW8vVNE.o
ibexp_tc            0x8               C:\Users\ajarr\AppData\Local\Temp\ccmHMWab.o
SunNPP_SMtransit_count_limit
                    0x4               C:\Users\ajarr\AppData\Local\Temp\ccgZ79fC.o
tempdata1           0x1               C:\Users\ajarr\AppData\Local\Temp\ccgZ79fC.o
TC_BDOT_Norm_Threshold
                    0x8               C:\Users\ajarr\AppData\Local\Temp\ccmHMWab.o
CB_IMUDataProcessing
                    0x4               C:\Users\ajarr\AppData\Local\Temp\ccmHMWab.o
nodep               0x8               C:\Users\ajarr\AppData\Local\Temp\ccmHMWab.o
NMI_fail_count      0x1               C:\Users\ajarr\AppData\Local\Temp\cclcRNkm.o
inter_TM_real_Minor_Cycle_Count
                    0x4               C:\Users\ajarr\AppData\Local\Temp\cclcRNkm.o
Vel_ECI_temp        0x18              C:\Users\ajarr\AppData\Local\Temp\ccmHMWab.o
inter_ST_TM_Minor_Cycle_Count
                    0x4               C:\Users\ajarr\AppData\Local\Temp\cclcRNkm.o
GPS_Locations       0x4               C:\Users\ajarr\AppData\Local\Temp\ccW8NopI.o
omeosq              0x8               C:\Users\ajarr\AppData\Local\Temp\ccmHMWab.o
Matout431           0x20              C:\Users\ajarr\AppData\Local\Temp\ccmHMWab.o
R_EPO2ECI           0x48              C:\Users\ajarr\AppData\Local\Temp\ccmHMWab.o
majorcyclecount     0x4               C:\Users\ajarr\AppData\Local\Temp\ccmHMWab.o
i_GPS_B_Count       0x4               C:\Users\ajarr\AppData\Local\Temp\ccW8NopI.o
inter_TM_Minor_Cycle_Count
                    0x4               C:\Users\ajarr\AppData\Local\Temp\cclcRNkm.o
phi_12              0x48              C:\Users\ajarr\AppData\Local\Temp\ccmHMWab.o
Alti                0x8               C:\Users\ajarr\AppData\Local\Temp\ccmHMWab.o
MR_Polarity         0x4               C:\Users\ajarr\AppData\Local\Temp\ccmHMWab.o
temp_jday           0x8               C:\Users\ajarr\AppData\Local\Temp\ccmHMWab.o
NOB_SFC_TMC         0x4               C:\Users\ajarr\AppData\Local\Temp\ccW8vVNE.o
Del_Y_theta         0x8               C:\Users\ajarr\AppData\Local\Temp\ccmHMWab.o
RWS                 0x10              C:\Users\ajarr\AppData\Local\Temp\ccW8vVNE.o
pk                  0x288             C:\Users\ajarr\AppData\Local\Temp\ccmHMWab.o
USIF_u              0x4               C:\Users\ajarr\AppData\Local\Temp\ccW8vVNE.o
Pitch_neg           0x8               C:\Users\ajarr\AppData\Local\Temp\ccgZ79fC.o
longitude_tan_num   0x8               C:\Users\ajarr\AppData\Local\Temp\ccmHMWab.o
input_latch_1       0x2               C:\Users\ajarr\AppData\Local\Temp\cclcRNkm.o
DFCCount            0x10              C:\Users\ajarr\AppData\Local\Temp\ccmHMWab.o
cos_of_Wk1_Delta_by_Wk1_square
                    0x8               C:\Users\ajarr\AppData\Local\Temp\ccmHMWab.o
ADC_Data            0x4               C:\Users\ajarr\AppData\Local\Temp\ccTGUrKF.o
IMU_2               0x10              C:\Users\ajarr\AppData\Local\Temp\ccgZ79fC.o
Julian_day          0x8               C:\Users\ajarr\AppData\Local\Temp\ccmHMWab.o
SS_M3               0x8               C:\Users\ajarr\AppData\Local\Temp\ccmHMWab.o
GPS_Select          0x4               C:\Users\ajarr\AppData\Local\Temp\ccmHMWab.o
Trwa_mt_comp        0x18              C:\Users\ajarr\AppData\Local\Temp\ccmHMWab.o
ak_temp             0x8               C:\Users\ajarr\AppData\Local\Temp\ccmHMWab.o
BDOT_deltaT         0x8               C:\Users\ajarr\AppData\Local\Temp\ccmHMWab.o
sinsu               0x8               C:\Users\ajarr\AppData\Local\Temp\ccmHMWab.o
zeta                0x8               C:\Users\ajarr\AppData\Local\Temp\ccmHMWab.o
IMU_2_DB            0x144             C:\Users\ajarr\AppData\Local\Temp\cclcRNkm.o
velmagsq            0x8               C:\Users\ajarr\AppData\Local\Temp\ccmHMWab.o
CB_Sl_Ecl_OnBrd_detection
                    0x4               C:\Users\ajarr\AppData\Local\Temp\ccmHMWab.o
nodedot             0x8               C:\Users\ajarr\AppData\Local\Temp\ccmHMWab.o
e_vec               0x18              C:\Users\ajarr\AppData\Local\Temp\ccmHMWab.o
TM_Table_Row_No     0x4               C:\Users\ajarr\AppData\Local\Temp\cclcRNkm.o
wheel_index_ARCsum  0x4               C:\Users\ajarr\AppData\Local\Temp\ccmHMWab.o
RWSpeed             0x20              C:\Users\ajarr\AppData\Local\Temp\ccmHMWab.o
TCH_cpy_ptr         0x4               C:\Users\ajarr\AppData\Local\Temp\cclcRNkm.o
sin_of_W_norm_Delta_by2_and_W_norm
                    0x8               C:\Users\ajarr\AppData\Local\Temp\ccmHMWab.o
S_REF               0x18              C:\Users\ajarr\AppData\Local\Temp\ccmHMWab.o
Xk                  0x48              C:\Users\ajarr\AppData\Local\Temp\ccmHMWab.o
RAAN                0x8               C:\Users\ajarr\AppData\Local\Temp\ccmHMWab.o
NegR_Deployed       0x4               C:\Users\ajarr\AppData\Local\Temp\ccmHMWab.o
Zt_Z_DAD            0x8               C:\Users\ajarr\AppData\Local\Temp\ccmHMWab.o
w_BODY_IMU2         0x18              C:\Users\ajarr\AppData\Local\Temp\ccgZ79fC.o
nm_temp             0x8               C:\Users\ajarr\AppData\Local\Temp\ccmHMWab.o
Vel_ECEF            0x18              C:\Users\ajarr\AppData\Local\Temp\ccmHMWab.o
REF_FRAME_DCM       0x48              C:\Users\ajarr\AppData\Local\Temp\ccmHMWab.o
sfour               0x8               C:\Users\ajarr\AppData\Local\Temp\ccmHMWab.o
angmomentumvecmag   0x8               C:\Users\ajarr\AppData\Local\Temp\ccmHMWab.o
Invmatout33         0x48              C:\Users\ajarr\AppData\Local\Temp\ccmHMWab.o
Telecommand_ptr     0x4               C:\Users\ajarr\AppData\Local\Temp\ccXi6CuD.o
Matout441           0x20              C:\Users\ajarr\AppData\Local\Temp\ccmHMWab.o
gmst0               0x8               C:\Users\ajarr\AppData\Local\Temp\ccmHMWab.o
IO_Latch_Register_2_Data
                    0x4               C:\Users\ajarr\AppData\Local\Temp\cclcRNkm.o
atp                 0x4               C:\Users\ajarr\AppData\Local\Temp\ccgZ79fC.o
argpdot             0x8               C:\Users\ajarr\AppData\Local\Temp\ccmHMWab.o
cose                0x8               C:\Users\ajarr\AppData\Local\Temp\ccmHMWab.o
DPM                 0x18              C:\Users\ajarr\AppData\Local\Temp\ccmHMWab.o
TC_SpeedDumpLimit   0x8               C:\Users\ajarr\AppData\Local\Temp\ccmHMWab.o
d3                  0x8               C:\Users\ajarr\AppData\Local\Temp\ccmHMWab.o
SC4                 0x8               C:\Users\ajarr\AppData\Local\Temp\ccgZ79fC.o
ccc                 0x2               C:\Users\ajarr\AppData\Local\Temp\cclcRNkm.o
t4cof               0x8               C:\Users\ajarr\AppData\Local\Temp\ccmHMWab.o
TCH_start_buffer_ready
                    0x1               C:\Users\ajarr\AppData\Local\Temp\cclcRNkm.o
rdtv                0x8               C:\Users\ajarr\AppData\Local\Temp\ccmHMWab.o
semimajoraxis_GPS   0x8               C:\Users\ajarr\AppData\Local\Temp\ccmHMWab.o
JDTDB               0x8               C:\Users\ajarr\AppData\Local\Temp\ccmHMWab.o
r1                  0x8               C:\Users\ajarr\AppData\Local\Temp\ccmHMWab.o
phi_12_temp2        0x48              C:\Users\ajarr\AppData\Local\Temp\ccmHMWab.o
RW_1                0x10              C:\Users\ajarr\AppData\Local\Temp\ccW8vVNE.o
SS_Main_2Exe_DB     0x284             C:\Users\ajarr\AppData\Local\Temp\cclcRNkm.o
X_SFAO2ECI_mag      0x8               C:\Users\ajarr\AppData\Local\Temp\ccmHMWab.o
TC_Rcvd             0x1               C:\Users\ajarr\AppData\Local\Temp\ccXi6CuD.o
UTC_day_GPS         0x4               C:\Users\ajarr\AppData\Local\Temp\ccmHMWab.o
i_rfc               0x4               C:\Users\ajarr\AppData\Local\Temp\ccmHMWab.o
CB_SunSensorDataProcessing
                    0x4               C:\Users\ajarr\AppData\Local\Temp\ccmHMWab.o
TC_cmd_executed_count
                    0x4               C:\Users\ajarr\AppData\Local\Temp\ccXi6CuD.o

Memory Configuration

Name             Origin             Length             Attributes
rom              0x0000000000000000 0x0000000020000000
ram              0x0000000040000000 0x0000000040000000
*default*        0x0000000000000000 0xffffffffffffffff

Linker script and memory map

LOAD c:/opt/bcc-2.0.2-gcc/bin/../sparc-gaisler-elf/bsp/leon2/leon/mfix-at697f/trap_table_mvt.S.o
LOAD c:/opt/bcc-2.0.2-gcc/bin/../sparc-gaisler-elf/bsp/leon2/leon/mfix-at697f/crt0.S.o
LOAD c:/opt/bcc-2.0.2-gcc/bin/../lib/gcc/sparc-gaisler-elf/7.2.0/leon/mfix-at697f/crti.o
LOAD c:/opt/bcc-2.0.2-gcc/bin/../lib/gcc/sparc-gaisler-elf/7.2.0/leon/mfix-at697f/crtbegin.o
LOAD C:\Users\ajarr\AppData\Local\Temp\cclcRNkm.o
LOAD C:\Users\ajarr\AppData\Local\Temp\ccXi6CuD.o
LOAD C:\Users\ajarr\AppData\Local\Temp\cck0ztpe.o
LOAD C:\Users\ajarr\AppData\Local\Temp\ccgZ79fC.o
LOAD C:\Users\ajarr\AppData\Local\Temp\cccsHxM4.o
LOAD C:\Users\ajarr\AppData\Local\Temp\cczKCchi.o
LOAD C:\Users\ajarr\AppData\Local\Temp\ccySgCMJ.o
LOAD C:\Users\ajarr\AppData\Local\Temp\ccJGVwWh.o
LOAD C:\Users\ajarr\AppData\Local\Temp\ccwUhEmU.o
LOAD C:\Users\ajarr\AppData\Local\Temp\ccTGUrKF.o
LOAD C:\Users\ajarr\AppData\Local\Temp\ccW8NopI.o
LOAD C:\Users\ajarr\AppData\Local\Temp\ccQfD6IQ.o
LOAD C:\Users\ajarr\AppData\Local\Temp\ccegzvw7.o
LOAD C:\Users\ajarr\AppData\Local\Temp\ccW8vVNE.o
LOAD C:\Users\ajarr\AppData\Local\Temp\ccmmE1Hm.o
LOAD C:\Users\ajarr\AppData\Local\Temp\ccH43JHx.o
LOAD C:\Users\ajarr\AppData\Local\Temp\cco0QbZ8.o
LOAD C:\Users\ajarr\AppData\Local\Temp\cc5Z9OQN.o
LOAD C:\Users\ajarr\AppData\Local\Temp\cchzLcEP.o
LOAD C:\Users\ajarr\AppData\Local\Temp\ccDrgrG5.o
LOAD C:\Users\ajarr\AppData\Local\Temp\ccpYH1o5.o
LOAD C:\Users\ajarr\AppData\Local\Temp\cce8IkUa.o
LOAD C:\Users\ajarr\AppData\Local\Temp\ccmHMWab.o
LOAD C:\Users\ajarr\AppData\Local\Temp\ccwpWlcN.o
LOAD C:\Users\ajarr\AppData\Local\Temp\ccIOj7WD.o
LOAD C:\Users\ajarr\AppData\Local\Temp\ccaOdSgz.o
LOAD c:/opt/bcc-2.0.2-gcc/bin/../lib/gcc/sparc-gaisler-elf/7.2.0/../../../../sparc-gaisler-elf/lib/leon/mfix-at697f\libm.a
                0x0000000000000000                PROVIDE (__bcc_cfg_skip_clear_bss, 0x0)

.text           0x0000000040000000    0x3f350
 CREATE_OBJECT_SYMBOLS
                0x0000000040000000                __text_start = .
                0x0000000040000000                . = ALIGN (0x1000)
 *(.text.traptable)
 .text.traptable
                0x0000000040000000     0x1000 c:/opt/bcc-2.0.2-gcc/bin/../sparc-gaisler-elf/bsp/leon2/leon/mfix-at697f/trap_table_mvt.S.o
                0x0000000040000000                __bcc_entry_point
                0x0000000040000000                __bcc_trap_table
 *(.text .text.*)
 .text          0x0000000040001000        0x0 c:/opt/bcc-2.0.2-gcc/bin/../sparc-gaisler-elf/bsp/leon2/leon/mfix-at697f/trap_table_mvt.S.o
 .text          0x0000000040001000       0xb8 c:/opt/bcc-2.0.2-gcc/bin/../sparc-gaisler-elf/bsp/leon2/leon/mfix-at697f/crt0.S.o
                0x0000000040001000                __bcc_crt0
 .text          0x00000000400010b8        0x0 c:/opt/bcc-2.0.2-gcc/bin/../lib/gcc/sparc-gaisler-elf/7.2.0/leon/mfix-at697f/crti.o
 .text          0x00000000400010b8      0x180 c:/opt/bcc-2.0.2-gcc/bin/../lib/gcc/sparc-gaisler-elf/7.2.0/leon/mfix-at697f/crtbegin.o
 .text          0x0000000040001238      0x974 C:\Users\ajarr\AppData\Local\Temp\cclcRNkm.o
                0x0000000040001238                rMinCycle_Wait
                0x00000000400012d4                OBC_Process
                0x0000000040001b5c                rMinCycle_Flag_Reset
 .text.startup  0x0000000040001bac       0xa0 C:\Users\ajarr\AppData\Local\Temp\cclcRNkm.o
                0x0000000040001bac                main
 .text          0x0000000040001c4c      0xa94 C:\Users\ajarr\AppData\Local\Temp\ccXi6CuD.o
                0x0000000040001c6c                Init_Memory
                0x0000000040001ca0                checksum_u32
                0x0000000040001d0c                checksum_u8
                0x0000000040001d5c                rOutput_Latch_Update
                0x0000000040001f38                ST_output_update
                0x0000000040002150                NMI_interrupt_test
                0x000000004000220c                MUX_Output
                0x0000000040002534                EEPROM_RST
                0x0000000040002568                EEPROM_RES
                0x0000000040002598                s_ram_scrub
                0x0000000040002614                prom_chksum
 .text          0x00000000400026e0     0xd88c C:\Users\ajarr\AppData\Local\Temp\cck0ztpe.o
                0x00000000400028cc                rHAL_TM_Write
                0x0000000040002b30                rHAL_TM_HW_Status_Update
                0x0000000040002c54                Update_TM_With_TMTC
                0x0000000040002c5c                rTM_Address_Table_Init
                0x000000004000c8dc                rTM_Copy_Subframe
                0x000000004000c94c                Sampling_Rate_Select
                0x000000004000c9a8                Frame_Address_Select
                0x000000004000cb14                rTCH_full_dump_cpy_buf
                0x000000004000cc90                rTCH_dump_cpy_buf
                0x000000004000d038                TC_Hist_dumping
                0x000000004000d084                copy_frame
                0x000000004000d13c                ST_Copy_Subframe
                0x000000004000d5d4                StorageTelemetry
                0x000000004000d66c                Storage_Telemetry_Write
                0x000000004000d694                Norm_ST_1_Table_Init
                0x000000004000efe0                TC_ST_Table_init
                0x000000004000efe8                Spec_ST_Table_Init
                0x000000004000fc84                ST_DUMPING
                0x000000004000fde8                rTM_Real_st_write
                0x000000004000ff28                ST_full_dump
 .text          0x000000004000ff6c     0x6224 C:\Users\ajarr\AppData\Local\Temp\ccgZ79fC.o
                0x0000000040010128                TC_IMU1_On
                0x0000000040010168                TC_IMU2_On
                0x00000000400101a8                TC_IMU1_Off
                0x00000000400101e8                TC_IMU2_Off
                0x0000000040010228                TC_NMI_count_reset
                0x000000004001023c                TC_GPS1_ON
                0x000000004001026c                TC_GPS1_OFF
                0x00000000400102a0                TC_GPS2_on
                0x00000000400102d4                TC_GPS2_off
                0x000000004001030c                TC_W1_ON
                0x000000004001033c                TC_W2_ON
                0x0000000040010370                TC_W3_ON
                0x00000000400103a0                TC_W4_ON
                0x00000000400103d0                TC_W1_OFF
                0x0000000040010400                TC_W2_OFF
                0x0000000040010430                TC_W3_OFF
                0x0000000040010460                TC_W4_OFF
                0x0000000040010490                rTC_Detumbling_ModePreprocessing_BDOT
                0x00000000400104a0                rTC_Detumbling_ModePreprocessing_GYRO
                0x00000000400104b0                rTC_SunAcquisition_ModePreprocessing
                0x00000000400104c0                rTC_ThreeAxis_ModePreprocessing
                0x00000000400104d0                rTC_Suspended_ModePreprocessing
                0x00000000400104dc                PL_K_CMD_HLT
                0x000000004001050c                Antenna_mechanism_ON
                0x000000004001053c                Antenna_mechanism_OFF
                0x000000004001056c                EEPROM_CHECK_COMMAND
                0x000000004001059c                S_band_tx_off
                0x00000000400105cc                SA_DEPLOYMENT_MECHANISM_MAIN_OFF
                0x0000000040010600                SA_DEPLOYMENT_MECHANISM_RED_OFF
                0x0000000040010634                sunlit
                0x0000000040010644                eclipse
                0x0000000040010650                Sunlit_eclipse_both
                0x0000000040010660                rSafe_mode_PreProcessing
                0x0000000040010670                eeprom_en
                0x0000000040010680                eeprom_dis
                0x000000004001068c                TC_ATTC_CMD_clear
                0x000000004001074c                imu1_db_execute
                0x0000000040010758                imu2_db_execute
                0x0000000040010764                TC_ACC_Ang_RESET
                0x0000000040010770                TC_GPS1_NMEA_ZDA_enable
                0x000000004001079c                TC_GPS1_NMEA_ZDA_disable
                0x00000000400107c8                TC_GPS1_NMEA_GGA_enable
                0x00000000400107f4                TC_GPS1_NMEA_GGA_disable
                0x0000000040010820                TC_GPS1_NMEA_RMC_enable
                0x000000004001084c                TC_GPS1_NMEA_RMC_disable
                0x0000000040010878                TC_GPS1_cold_start
                0x00000000400108a4                TC_GPS1_factory_reset
                0x00000000400108d0                TC_GPS2_NMEA_ZDA_enable
                0x00000000400108fc                TC_GPS2_NMEA_ZDA_disable
                0x0000000040010928                TC_GPS2_NMEA_GGA_enable
                0x0000000040010954                TC_GPS2_NMEA_GGA_disable
                0x0000000040010980                TC_GPS2_NMEA_RMC_enable
                0x00000000400109ac                TC_GPS2_NMEA_RMC_disable
                0x00000000400109d8                TC_GPS2_cold_start
                0x0000000040010a04                TC_GPS2_factory_reset
                0x0000000040010a30                TC_GPS1_NMEA_NMEA_GSV_Enable
                0x0000000040010a5c                TC_GPS1_NMEA_NMEA_GSV_disable
                0x0000000040010a88                TC_GPS2_NMEA_NMEA_GSV_Enable
                0x0000000040010ab4                TC_GPS2_NMEA_NMEA_GSV_disable
                0x0000000040010ae0                Roll_Torquer_ON
                0x0000000040010aec                Roll_Torquer_OFF
                0x0000000040010af8                payload_1_on
                0x0000000040010b20                payload_1_off
                0x0000000040010b2c                PL_K_CMD_STS
                0x0000000040010b38                PL_K_CMD_ACQ
                0x0000000040010b44                PL_K_DIAG
                0x0000000040010b50                PL_K_CMD_OFF
                0x0000000040010b5c                PL_K_CMD_ON
                0x0000000040010b68                ss_main_db_execute
                0x0000000040010b74                ss_redundant_db_execute
                0x0000000040010b80                TC_Ping_RW1
                0x0000000040010b94                TC_Ping_RW2
                0x0000000040010ba8                TC_Ping_RW3
                0x0000000040010bbc                TC_Ping_RW4
                0x0000000040010bd0                TC_MTR_Yaw_Positive
                0x0000000040010be4                TC_MTR_Yaw_Negative
                0x0000000040010bf8                TC_MTR_Pitch_Positive
                0x0000000040010c0c                TC_MTR_Pitch_Negative
                0x0000000040010c20                TC_MTR_Roll_Positive
                0x0000000040010c34                TC_MTR_Roll_Negative
                0x0000000040010c48                TC_MTR_Roll_No_cuurent
                0x0000000040010c5c                TC_MTR_Pitch_No_cuurent
                0x0000000040010c70                TC_MTR_Yaw_No_cuurent
                0x0000000040010c84                payload_2_on
                0x0000000040010cac                payload_2_off
                0x0000000040010cb8                X_band_tx_on
                0x0000000040010ce0                X_band_tx_off
                0x0000000040010cec                SA_DEPLOYMENT_MECHANISM_MAIN_ON
                0x0000000040010cf8                SA_DEPLOYMENT_MECHANISM_RED_ON
                0x0000000040010d04                Antenna_mechanism_arm
                0x0000000040010d10                Antenna_deploy
                0x0000000040010d1c                Antenna_mechanism_disarm
                0x0000000040010d28                TC_pl_debug
                0x0000000040010d34                TC_TM_DS_EN
                0x0000000040010d40                Antenna_RESET_command
                0x0000000040010d4c                Antenna_deploy_with_override
                0x0000000040010d58                Antenna_system_temp
                0x0000000040010d64                Antenna_deploy_status_report
                0x0000000040010d70                Antenna_deploy_activation_count
                0x0000000040010d7c                Antenna_deploy_activation_time
                0x0000000040010e8c                TC_pl_tm
                0x0000000040010e94                imu1_db_checksum
                0x0000000040010e9c                imu2_db_checksum
                0x0000000040010ea4                imu_test_sys_sel
                0x0000000040010eac                TC_Drift_Uplink_Compenstation_Update_IMU1
                0x0000000040010eb4                TC_Drift_Uplink_Compenstation_Update_IMU2
                0x0000000040010ebc                TC_Gyro_Misalignment_Update_IMU1
                0x0000000040010ec4                TC_Gyro_Misalignment_Update_IMU2
                0x0000000040010ecc                TC_Gyro_Scale_Factor_Update_IMU1
                0x0000000040010ed4                TC_Gyro_Scale_Factor_Update_IMU2
                0x0000000040010edc                TC_MagBias_Uplink_Compenstation_Update_IMU1
                0x0000000040010ee4                TC_MagBias_Uplink_Compenstation_Update_IMU2
                0x0000000040010eec                TC_Mag_Misalignment_Update_IMU1
                0x0000000040010ef4                TC_Mag_Misalignment_Update_IMU2
                0x0000000040010efc                TC_Mag_Scale_Factor_Update_IMU1
                0x0000000040010f04                TC_Mag_Scale_Factor_Update_IMU2
                0x0000000040010f0c                TC_Mag_LPF_Gain_Update_IMU1
                0x0000000040010f14                TC_Mag_LPF_Gain_Update_IMU2
                0x0000000040010f1c                TC_Gyro_LPF_Gain_Update_IMU1
                0x0000000040010f24                TC_Gyro_LPF_Gain_Update_IMU2
                0x0000000040010f2c                TC_Panel2_Deploy
                0x0000000040010f34                TC_Nominal_wheel_speed_execute
                0x0000000040010f3c                Pitch_Torquer_ON
                0x0000000040010f44                Yaw_Torquer_ON
                0x0000000040010f4c                Pitch_Torquer_OFF
                0x0000000040010f54                Yaw_Torquer_OFF
                0x0000000040010f5c                rHeater1_on
                0x0000000040010f64                rHeater1_off
                0x0000000040010f6c                rHeater2_on
                0x0000000040010f74                rHeater2_off
                0x0000000040010f7c                rHeater3_on
                0x0000000040010f84                rHeater3_off
                0x0000000040010f8c                rHeater4_on
                0x0000000040010f94                rHeater4_off
                0x0000000040010f9c                rHeater5_on
                0x0000000040010fa4                rHeater5_off
                0x0000000040010fac                rHeater6_on
                0x0000000040010fb4                rHeater6_off
                0x0000000040010fbc                RX_TX_deployed
                0x0000000040010fc4                ss_main_db_checksum
                0x0000000040010fcc                ss_redundant_db_checksum
                0x0000000040010fd4                TC_Qinit
                0x0000000040010fdc                OBC_ON
                0x0000000040010fe4                OBC_OFF
                0x0000000040010fec                SA1_DEPLOYMENT_AND_SA2_DEPLOYMENT_REDUNDANT_SPARE_BUS_ON
                0x0000000040010ff4                SA1_DEPLOYMENT_AND_SA2_DEPLOYMENT_REDUNDANT_SPARE_BUS_OFF
                0x0000000040010ffc                Test_ON
                0x0000000040011004                Test_OFF
                0x000000004001100c                rTC_write_tC_history
                0x0000000040011034                TC_status_reset
                0x0000000040011048                rContingency_TC
                0x0000000040011050                rData_TC
                0x000000004001165c                rADCS_Data_TC
                0x0000000040012780                rRemote_base_addr_TC
                0x0000000040012830                rRemote_data_view
                0x0000000040012838                rBoolean_TC
                0x0000000040012888                rFuncExecute_TC
                0x00000000400128ec                rRemoteProgram_Addr_TC
                0x0000000040012940                rRemoteProgram_Data_TC
                0x000000004001296c                rDifferential_TimeTag_TC
                0x00000000400129c8                initNodetable
                0x0000000040012a04                getNode
                0x0000000040012a40                freeNode
                0x0000000040012a78                rAbsoluteTTC_Update
                0x0000000040012c30                rAbsolute_TimeTag_TC
                0x0000000040012c3c                rDifferential_TimeTag_Update
                0x0000000040012c98                rDifferential_TimeTag_Execute
                0x0000000040012df0                rDifferentialTTC_Execute
                0x0000000040012dfc                rAbsoluteTTC_Delete
                0x0000000040012f80                rAbsoluteTTC_Clear
                0x0000000040013040                rInit_Block
                0x0000000040013088                Block_update
                0x0000000040013260                rBlock_TC
                0x000000004001326c                TMTC_Assignment
                0x00000000400139bc                invertReverse
                0x00000000400139e4                BCHEncoder
                0x0000000040013b84                rHAL_TC_Read
                0x0000000040013e50                TC_detumbling_rate_gain_1
                0x0000000040014294                TC_detumbling_bdot_gain_1
                0x00000000400146d8                TC_BDOT_Det_Thresh_1
                0x000000004001486c                TC_GYRO_Det_Min_Thres_1
                0x0000000040014a00                TC_AngMomDump_Thrsld_1
                0x0000000040014b94                TC_SpeedDump_Thrsld_1
                0x0000000040014cc0                TC_SpeedDump_TimeSelect_1
                0x0000000040014e54                TC_comd_pitch_rate_1
                0x0000000040014fe8                TC_Gyro_LPF_Gain_IMU1_1
                0x0000000040015220                TC_Gyro_LPF_Gain_IMU2_1
                0x0000000040015458                TC_Mag_LPF_Gain_IMU1_1
                0x0000000040015690                TC_Mag_LPF_Gain_IMU2_1
                0x00000000400158c8                TC_Wheel_Cutoff_Threshold_1
                0x0000000040015a5c                adcsgains
                0x0000000040015b40                rGainSelect_TC
                0x0000000040015b94                rReal_Time_TC
                0x0000000040015e18                rTelecommand
                0x0000000040015f90                rAbsoluteTTC_Execute
                0x00000000400160b0                rBlockTC_Execute
 .text          0x0000000040016190       0x38 C:\Users\ajarr\AppData\Local\Temp\cccsHxM4.o
                0x0000000040016190                fdi_nmi_int_handler
 .text          0x00000000400161c8     0x1660 C:\Users\ajarr\AppData\Local\Temp\cczKCchi.o
                0x00000000400161c8                rPOR_Init
 .text          0x0000000040017828      0xd78 C:\Users\ajarr\AppData\Local\Temp\ccySgCMJ.o
                0x0000000040017850                rHAL_pl1_ON
                0x00000000400178d0                rHAL_pl1_OFF
                0x0000000040017920                rHAL_pl2_ON
                0x00000000400179a0                rHAL_pl2_OFF
                0x00000000400179f0                rHAL_tm_ds_en
                0x0000000040017a2c                rHAL_X_Tx_ON
                0x0000000040017a60                rHAL_X_Tx_OFF
                0x0000000040017a94                rpl_init
                0x0000000040017b04                rHAL_pl_sts_check
                0x0000000040017b34                rHAL_pl_cmd_hlt
                0x0000000040017bb4                rHAL_pl_debug
                0x0000000040017c74                rHAL_pl_x_tx_data_on
                0x0000000040017d64                rHAL_pl_cmd_acq
                0x0000000040017e44                rHAL_pl_x_tx_data_off
                0x0000000040017e84                rHAL_pl_diag
                0x0000000040017efc                pl_tx_tm
                0x0000000040018024                pl_tx_tm_2
                0x00000000400180fc                rpl_read
                0x00000000400181e8                rpl_tm_write
 .text          0x00000000400185a0      0x4a8 C:\Users\ajarr\AppData\Local\Temp\ccJGVwWh.o
                0x00000000400185a0                rHAL_EPS_Hardware_Status
                0x0000000040018608                rHAL_Battery_load_shedding
                0x0000000040018664                rHAL_EPS_shunt_switch
 .text          0x0000000040018a48      0x1b4 C:\Users\ajarr\AppData\Local\Temp\ccwUhEmU.o
                0x0000000040018a48                rIMU_Init
                0x0000000040018ab4                HAL_IMU_Read
 .text          0x0000000040018bfc      0x3b4 C:\Users\ajarr\AppData\Local\Temp\ccTGUrKF.o
                0x0000000040018bfc                rHAL_ADC_Read
                0x0000000040018c58                rHAL_ADC_TM_Copy
                0x0000000040018e84                sun_Sensor_data
                0x0000000040018f98                rHAL_ADC_StatusREG_Enable
 .text          0x0000000040018fb0     0x1010 C:\Users\ajarr\AppData\Local\Temp\ccW8NopI.o
                0x0000000040018fb0                rGPS_Buffer_Init
                0x0000000040019218                rGPS_pulsecheck
                0x00000000400192b4                rHAL_GPS_Read
                0x0000000040019524                GPS_1_DATA
                0x0000000040019588                rHAL_GPS_Config
                0x0000000040019c88                rGPS_TM_Extract
                0x0000000040019f5c                ST_TM_gps_data
 .text          0x0000000040019fc0     0x1114 C:\Users\ajarr\AppData\Local\Temp\ccQfD6IQ.o
                0x0000000040019fc0                Thermister_select
                0x000000004001a004                UTP_selection
                0x000000004001a058                LTP_selection
                0x000000004001a0b8                Heater_1_auto_control
                0x000000004001a128                Heater_2_auto_control
                0x000000004001a198                Heater_3_auto_control
                0x000000004001a208                Heater_4_auto_control
                0x000000004001a278                Heater_5_auto_control
                0x000000004001a2e8                Heater_6_auto_control
                0x000000004001a358                Heater_7_auto_control
                0x000000004001a3ac                Heater_8_auto_control
                0x000000004001a400                Heater_9_auto_control
                0x000000004001a454                Heater_10_auto_control
                0x000000004001a4a8                Heater_11_auto_control
                0x000000004001a4fc                Heater_12_auto_control
                0x000000004001a550                Heater_13_auto_control
                0x000000004001a5ac                Heater_14_auto_control
                0x000000004001a608                Heater_1_manual_control
                0x000000004001a674                Heater_2_manual_control
                0x000000004001a6e0                Heater_3_manual_control
                0x000000004001a74c                Heater_4_manual_control
                0x000000004001a7b8                Heater_5_manual_control
                0x000000004001a824                Heater_6_manual_control
                0x000000004001a890                Heater_control_auto_manual
                0x000000004001af34                Heater_7_manual_control
                0x000000004001af64                Heater_8_manual_control
                0x000000004001af94                Heater_9_manual_control
                0x000000004001afc4                Heater_10_manual_control
                0x000000004001aff4                Heater_11_manual_control
                0x000000004001b024                Heater_12_manual_control
                0x000000004001b054                Heater_13_manual_control
                0x000000004001b094                Heater_14_manual_control
 .text          0x000000004001b0d4      0x8dc C:\Users\ajarr\AppData\Local\Temp\ccegzvw7.o
                0x000000004001b0d4                rHAL_MTR_ON
                0x000000004001b108                rHAL_MTR_OFF
                0x000000004001b13c                rHAL_MTR
                0x000000004001b774                MTR_Monitoring
                0x000000004001b7a0                rHAL_MTR_TC
 .text          0x000000004001b9b0     0x1398 C:\Users\ajarr\AppData\Local\Temp\ccW8vVNE.o
                0x000000004001b9b0                RW_Init
                0x000000004001ba74                HAL_RW_CRC_Check
                0x000000004001bae0                rHAL_RW_TM_Read
                0x000000004001be20                rRW_SlipFrame_Check
                0x000000004001c01c                rHAL_RW_TC_Write
                0x000000004001c1d0                rHAL_RW_TM_Write
                0x000000004001c30c                rHAL_RW_ConfigBuffer_Write
                0x000000004001c368                rRW_Data_Write
                0x000000004001c5c4                rRW_Data_Request
                0x000000004001c750                rRW_Data_Read
                0x000000004001cafc                rRW_init_cmd
                0x000000004001cc48                rRW_Ping_TC1
                0x000000004001cc88                rRW_Ping_TC2
                0x000000004001ccc8                rRW_Ping_TC3
                0x000000004001cd08                rRW_Ping_TC4
 .text          0x000000004001cd48      0x6dc C:\Users\ajarr\AppData\Local\Temp\ccmmE1Hm.o
                0x000000004001cd48                antennaCommand1
                0x000000004001cd94                antennaCommand2
                0x000000004001cde0                antennaCommand3
                0x000000004001ce2c                antennaCommand4
                0x000000004001ce78                antennaCommand5
                0x000000004001cec4                antennaCommand6
                0x000000004001cf10                antennaCommand7
                0x000000004001cf58                antennaCommand8
                0x000000004001cfa4                antennaCommand9
                0x000000004001cff0                rHAL_Antenna_Read
                0x000000004001d038                rHAL_SA_MAIN_Deploy_on
                0x000000004001d0b0                rHAL_SA_RED_Deploy_on
                0x000000004001d118                rHAL_SA1_Deploy_status_check
                0x000000004001d200                rHAL_SA2_Deploy_status_check
                0x000000004001d2e8                rHAL_SA_Deploy_Status_new
 .text          0x000000004001d424     0x32f0 C:\Users\ajarr\AppData\Local\Temp\ccH43JHx.o
                0x000000004001d554                rQ_Propagation
                0x000000004001d584                rQuestDataProcessing
                0x000000004001dad0                rDAD_quest
                0x000000004001ea60                rErrorComputation
                0x000000004001f03c                rExtendedKalmanFilter1_p1
                0x000000004001fd78                rExtendedKalmanFilter1_p2
 .text          0x0000000040020714     0x2bec C:\Users\ajarr\AppData\Local\Temp\cco0QbZ8.o
                0x0000000040020714                rGH_generation
                0x00000000400208d8                rMagFieldComp1
                0x0000000040021328                rMagFieldComp2
                0x0000000040021a40                rSun_Ephemeris
                0x0000000040021c80                rReferenceQuatComputation
                0x0000000040022754                rRefVectorGeneration
                0x0000000040022e50                rRefRate_Computation
                0x0000000040023134                rSl_Ecl_OnBrd_detection
 .text          0x0000000040023300        0x0 C:\Users\ajarr\AppData\Local\Temp\cc5Z9OQN.o
 .text          0x0000000040023300     0x2868 C:\Users\ajarr\AppData\Local\Temp\cchzLcEP.o
                0x000000004002343c                rLinearController
                0x0000000040023e28                rDutyCycleGeneration
                0x0000000040023fac                rAngularMomentumDumping
                0x0000000040024448                rTorquer_Polarity_Check
                0x000000004002447c                rSpeedBasedMomentumDumping
                0x0000000040024bd4                rWheel_Spin_updown
                0x0000000040024f64                rWheel_Auto_Reconfiguration
 .text          0x0000000040025b68     0x10f8 C:\Users\ajarr\AppData\Local\Temp\ccDrgrG5.o
                0x0000000040025b80                rSuspended_ModePreprocessing
                0x0000000040025bf4                rDetumbling_ModePreprocessing_BDOT_Logic
                0x0000000040026064                rDetumbling_ModePreprocessing_GYRO_Logic
                0x00000000400264ac                rSunAcquisition_ModePreprocessing
                0x0000000040026864                rThreeAxis_ModePreprocessing
                0x0000000040026ab0                rRateReductionCheck
                0x0000000040026bac                rSafeMode_Preprocessing
                0x0000000040026be8                rScModeSelection
 .text          0x0000000040026c60     0x4a04 C:\Users\ajarr\AppData\Local\Temp\ccpYH1o5.o
                0x0000000040026c60                rADCS_Pon_vars
 .text          0x000000004002b664     0x9494 C:\Users\ajarr\AppData\Local\Temp\cce8IkUa.o
                0x000000004002b664                rIMUDataCorrection
                0x000000004002ca00                rIMU_1_DB_Copy
                0x000000004002d2a0                rIMU_2_DB_Copy
                0x000000004002db40                rIMU_1_DB_Init
                0x000000004002e3e0                rIMU_2_DB_Init
                0x000000004002ec80                rIMU_Angle_Reset
                0x000000004002ecc8                rIMUDataProcessing
                0x000000004002ff5c                rTheta_Limit
                0x000000004002ffbc                rIMU1_DB_Execute
                0x000000004002ffe0                rIMU2_DB_Execute
                0x0000000040030004                rBDOT_Computation
                0x0000000040030230                rSunSensorVectorComp
                0x0000000040033320                rSunSensorDataProcessing
                0x00000000400336fc                rSS_Read_Data
                0x000000004003375c                rSS_Main_DB_Init
                0x0000000040033774                rSS_Redundant_DB_Init
                0x0000000040033780                rSS_Main_DB_Copy
                0x00000000400340d8                rSS_Redundant_DB_Copy
                0x0000000040034a30                rSS_Main_DB_Execute
                0x0000000040034a94                rSS_Redundant_DB_Execute
 .text          0x0000000040034af8        0x0 C:\Users\ajarr\AppData\Local\Temp\ccmHMWab.o
 .text          0x0000000040034af8     0x4768 C:\Users\ajarr\AppData\Local\Temp\ccwpWlcN.o
                0x00000000400361d8                rOrbit_Initialization
                0x00000000400375a8                rOrbit_Propagation
                0x000000004003892c                rOrbitalElements_computation
                0x0000000040038954                rOrbitalElements_TLE
                0x000000004003898c                rGPS_data_validity
                0x0000000040038994                rJulian_Day
                0x00000000400389d0                rNEDtoECEF
                0x0000000040038ac4                rECEFtoECItoECEF
                0x0000000040038aec                rast_args
                0x0000000040038bf8                rnut_iau1980
                0x0000000040038d54                rGPS2OE
                0x00000000400391d8                rGPSDataProcessing
 .text          0x0000000040039260      0xd4c C:\Users\ajarr\AppData\Local\Temp\ccIOj7WD.o
                0x0000000040039260                rxRot
                0x00000000400392f0                ryRot
                0x0000000040039380                rzRot
                0x0000000040039408                rMatInv
                0x00000000400395c0                rCross_Product
                0x0000000040039628                rMatMul3x1
                0x00000000400396a0                rMatMul3x3
                0x0000000040039758                rRM_to_Quat
                0x0000000040039a8c                rQs_Normalization
                0x0000000040039b94                rQs_Multiplication
                0x0000000040039c70                rVectorNorm
                0x0000000040039d40                rMat_adjoint3
                0x0000000040039e3c                rMatMul34x1
                0x0000000040039eb8                rMatMul43x1
                0x0000000040039f34                rMatMul44x1
 .text          0x0000000040039fac      0x284 C:\Users\ajarr\AppData\Local\Temp\ccaOdSgz.o
                0x0000000040039fac                rSus_mode_remote_entry_hook
                0x0000000040039fd8                rSus_mode_remote_exit_hook
                0x0000000040039fe4                rDBDOT_mode_remote_entry_hook
                0x0000000040039ff0                rDBDOT_mode_remote_exit_hook
                0x0000000040039ffc                rDGYRO_mode_remote_entry_hook
                0x000000004003a008                rDGYRO_mode_remote_exit_hook
                0x000000004003a014                rSACQ_mode_remote_entry_hook
                0x000000004003a020                rSACQ_mode_remote_exit_hook
                0x000000004003a02c                r3AXIS_mode_remote_entry_hook
                0x000000004003a038                r3AXIS_mode_remote_exit_hook
                0x000000004003a044                rSAFE_mode_remote_entry_hook
                0x000000004003a050                rSAFE_mode_remote_exit_hook
                0x000000004003a05c                rRemote_patch_area_1
                0x000000004003a1f4                rRemote_patch_area_2
                0x000000004003a200                rRemote_patch_area_3
                0x000000004003a20c                rRemote_patch_area_4
                0x000000004003a218                rRemote_patch_area_5
                0x000000004003a224                rRemote_patch_area_6
 .text          0x000000004003a230      0x2d0 c:/opt/bcc-2.0.2-gcc/bin/../lib/gcc/sparc-gaisler-elf/7.2.0/../../../../sparc-gaisler-elf/lib/leon/mfix-at697f\libm.a(lib_a-s_atan.o)
                0x000000004003a230                atan
 .text          0x000000004003a500       0xe4 c:/opt/bcc-2.0.2-gcc/bin/../lib/gcc/sparc-gaisler-elf/7.2.0/../../../../sparc-gaisler-elf/lib/leon/mfix-at697f\libm.a(lib_a-s_cos.o)
                0x000000004003a500                cos
 .text          0x000000004003a5e4       0x28 c:/opt/bcc-2.0.2-gcc/bin/../lib/gcc/sparc-gaisler-elf/7.2.0/../../../../sparc-gaisler-elf/lib/leon/mfix-at697f\libm.a(lib_a-s_fabs.o)
                0x000000004003a5e4                fabs
 .text          0x000000004003a60c      0x1f0 c:/opt/bcc-2.0.2-gcc/bin/../lib/gcc/sparc-gaisler-elf/7.2.0/../../../../sparc-gaisler-elf/lib/leon/mfix-at697f\libm.a(lib_a-s_floor.o)
                0x000000004003a60c                floor
 .text          0x000000004003a7fc       0xf4 c:/opt/bcc-2.0.2-gcc/bin/../lib/gcc/sparc-gaisler-elf/7.2.0/../../../../sparc-gaisler-elf/lib/leon/mfix-at697f\libm.a(lib_a-s_round.o)
                0x000000004003a7fc                round
 .text          0x000000004003a8f0       0xe8 c:/opt/bcc-2.0.2-gcc/bin/../lib/gcc/sparc-gaisler-elf/7.2.0/../../../../sparc-gaisler-elf/lib/leon/mfix-at697f\libm.a(lib_a-s_sin.o)
                0x000000004003a8f0                sin
 .text          0x000000004003a9d8       0x9c c:/opt/bcc-2.0.2-gcc/bin/../lib/gcc/sparc-gaisler-elf/7.2.0/../../../../sparc-gaisler-elf/lib/leon/mfix-at697f\libm.a(lib_a-s_tan.o)
                0x000000004003a9d8                tan
 .text          0x000000004003aa74      0x128 c:/opt/bcc-2.0.2-gcc/bin/../lib/gcc/sparc-gaisler-elf/7.2.0/../../../../sparc-gaisler-elf/lib/leon/mfix-at697f\libm.a(lib_a-w_acos.o)
                0x000000004003aa74                acos
 .text          0x000000004003ab9c      0x128 c:/opt/bcc-2.0.2-gcc/bin/../lib/gcc/sparc-gaisler-elf/7.2.0/../../../../sparc-gaisler-elf/lib/leon/mfix-at697f\libm.a(lib_a-w_asin.o)
                0x000000004003ab9c                asin
 .text          0x000000004003acc4        0xc c:/opt/bcc-2.0.2-gcc/bin/../lib/gcc/sparc-gaisler-elf/7.2.0/../../../../sparc-gaisler-elf/lib/leon/mfix-at697f\libm.a(lib_a-w_atan2.o)
                0x000000004003acc4                atan2
 .text          0x000000004003acd0      0x148 c:/opt/bcc-2.0.2-gcc/bin/../lib/gcc/sparc-gaisler-elf/7.2.0/../../../../sparc-gaisler-elf/lib/leon/mfix-at697f\libm.a(lib_a-w_fmod.o)
                0x000000004003acd0                fmod
 .text          0x000000004003ae18      0x4a8 c:/opt/bcc-2.0.2-gcc/bin/../lib/gcc/sparc-gaisler-elf/7.2.0/../../../../sparc-gaisler-elf/lib/leon/mfix-at697f\libm.a(lib_a-w_pow.o)
                0x000000004003ae18                pow
 .text          0x000000004003b2c0       0xfc c:/opt/bcc-2.0.2-gcc/bin/../lib/gcc/sparc-gaisler-elf/7.2.0/../../../../sparc-gaisler-elf/lib/leon/mfix-at697f\libm.a(lib_a-w_sqrt.o)
                0x000000004003b2c0                sqrt
 .text          0x000000004003b3bc      0x37c c:/opt/bcc-2.0.2-gcc/bin/../lib/gcc/sparc-gaisler-elf/7.2.0/../../../../sparc-gaisler-elf/lib/leon/mfix-at697f\libm.a(lib_a-e_acos.o)
                0x000000004003b3bc                __ieee754_acos
 .text          0x000000004003b738      0x310 c:/opt/bcc-2.0.2-gcc/bin/../lib/gcc/sparc-gaisler-elf/7.2.0/../../../../sparc-gaisler-elf/lib/leon/mfix-at697f\libm.a(lib_a-e_asin.o)
                0x000000004003b738                __ieee754_asin
 .text          0x000000004003ba48      0x2b4 c:/opt/bcc-2.0.2-gcc/bin/../lib/gcc/sparc-gaisler-elf/7.2.0/../../../../sparc-gaisler-elf/lib/leon/mfix-at697f\libm.a(lib_a-e_atan2.o)
                0x000000004003ba48                __ieee754_atan2
 .text          0x000000004003bcfc      0x3ac c:/opt/bcc-2.0.2-gcc/bin/../lib/gcc/sparc-gaisler-elf/7.2.0/../../../../sparc-gaisler-elf/lib/leon/mfix-at697f\libm.a(lib_a-e_fmod.o)
                0x000000004003bcfc                __ieee754_fmod
 .text          0x000000004003c0a8      0x8dc c:/opt/bcc-2.0.2-gcc/bin/../lib/gcc/sparc-gaisler-elf/7.2.0/../../../../sparc-gaisler-elf/lib/leon/mfix-at697f\libm.a(lib_a-e_pow.o)
                0x000000004003c0a8                __ieee754_pow
 .text          0x000000004003c984      0x39c c:/opt/bcc-2.0.2-gcc/bin/../lib/gcc/sparc-gaisler-elf/7.2.0/../../../../sparc-gaisler-elf/lib/leon/mfix-at697f\libm.a(lib_a-e_rem_pio2.o)
                0x000000004003c984                __ieee754_rem_pio2
 .text          0x000000004003cd20      0x270 c:/opt/bcc-2.0.2-gcc/bin/../lib/gcc/sparc-gaisler-elf/7.2.0/../../../../sparc-gaisler-elf/lib/leon/mfix-at697f\libm.a(lib_a-e_sqrt.o)
                0x000000004003cd20                __ieee754_sqrt
 .text          0x000000004003cf90      0x1bc c:/opt/bcc-2.0.2-gcc/bin/../lib/gcc/sparc-gaisler-elf/7.2.0/../../../../sparc-gaisler-elf/lib/leon/mfix-at697f\libm.a(lib_a-k_cos.o)
                0x000000004003cf90                __kernel_cos
 .text          0x000000004003d14c      0xbdc c:/opt/bcc-2.0.2-gcc/bin/../lib/gcc/sparc-gaisler-elf/7.2.0/../../../../sparc-gaisler-elf/lib/leon/mfix-at697f\libm.a(lib_a-k_rem_pio2.o)
                0x000000004003d14c                __kernel_rem_pio2
 .text          0x000000004003dd28      0x100 c:/opt/bcc-2.0.2-gcc/bin/../lib/gcc/sparc-gaisler-elf/7.2.0/../../../../sparc-gaisler-elf/lib/leon/mfix-at697f\libm.a(lib_a-k_sin.o)
                0x000000004003dd28                __kernel_sin
 .text          0x000000004003de28      0x290 c:/opt/bcc-2.0.2-gcc/bin/../lib/gcc/sparc-gaisler-elf/7.2.0/../../../../sparc-gaisler-elf/lib/leon/mfix-at697f\libm.a(lib_a-k_tan.o)
                0x000000004003de28                __kernel_tan
 .text          0x000000004003e0b8       0x18 c:/opt/bcc-2.0.2-gcc/bin/../lib/gcc/sparc-gaisler-elf/7.2.0/../../../../sparc-gaisler-elf/lib/leon/mfix-at697f\libm.a(lib_a-s_finite.o)
                0x000000004003e0b8                finite
 .text          0x000000004003e0d0        0x0 c:/opt/bcc-2.0.2-gcc/bin/../lib/gcc/sparc-gaisler-elf/7.2.0/../../../../sparc-gaisler-elf/lib/leon/mfix-at697f\libm.a(lib_a-s_lib_ver.o)
 .text          0x000000004003e0d0        0x8 c:/opt/bcc-2.0.2-gcc/bin/../lib/gcc/sparc-gaisler-elf/7.2.0/../../../../sparc-gaisler-elf/lib/leon/mfix-at697f\libm.a(lib_a-s_matherr.o)
                0x000000004003e0d0                matherr
 .text          0x000000004003e0d8        0xc c:/opt/bcc-2.0.2-gcc/bin/../lib/gcc/sparc-gaisler-elf/7.2.0/../../../../sparc-gaisler-elf/lib/leon/mfix-at697f\libm.a(lib_a-s_nan.o)
                0x000000004003e0d8                nan
 .text          0x000000004003e0e4      0x1ac c:/opt/bcc-2.0.2-gcc/bin/../lib/gcc/sparc-gaisler-elf/7.2.0/../../../../sparc-gaisler-elf/lib/leon/mfix-at697f\libm.a(lib_a-s_rint.o)
                0x000000004003e0e4                rint
 .text          0x000000004003e290      0x14c c:/opt/bcc-2.0.2-gcc/bin/../lib/gcc/sparc-gaisler-elf/7.2.0/../../../../sparc-gaisler-elf/lib/leon/mfix-at697f\libm.a(lib_a-s_scalbn.o)
                0x000000004003e290                scalbn
 .text          0x000000004003e3dc       0x30 c:/opt/bcc-2.0.2-gcc/bin/../lib/gcc/sparc-gaisler-elf/7.2.0/../../../../sparc-gaisler-elf/lib/leon/mfix-at697f\libm.a(lib_a-s_copysign.o)
                0x000000004003e3dc                copysign
 .text          0x000000004003e40c       0x7c c:/opt/bcc-2.0.2-gcc/bin/../sparc-gaisler-elf/bsp/leon2/leon/mfix-at697f\libbcc.a(reset_trap_mvt.S.o)
                0x000000004003e40c                __bcc_trap_reset_mvt
 .text          0x000000004003e488       0xb0 c:/opt/bcc-2.0.2-gcc/bin/../sparc-gaisler-elf/bsp/leon2/leon/mfix-at697f\libbcc.a(window_trap.S.o)
                0x000000004003e488                __bcc_trap_window_overflow
                0x000000004003e4d8                __bcc_trap_window_underflow
 .text          0x000000004003e538      0x1b4 c:/opt/bcc-2.0.2-gcc/bin/../sparc-gaisler-elf/bsp/leon2/leon/mfix-at697f\libbcc.a(interrupt_trap.S.o)
                0x000000004003e538                __bcc_trap_interrupt_svt
                0x000000004003e53c                __bcc_trap_interrupt
 .text          0x000000004003e6ec       0x88 c:/opt/bcc-2.0.2-gcc/bin/../sparc-gaisler-elf/bsp/leon2/leon/mfix-at697f\libbcc.a(flush_windows_trap.S.o)
                0x000000004003e6ec                __bcc_trap_flush_windows
 .text          0x000000004003e774       0x2c c:/opt/bcc-2.0.2-gcc/bin/../sparc-gaisler-elf/bsp/leon2/leon/mfix-at697f\libbcc.a(sw_trap_set_pil.S.o)
                0x000000004003e774                __bcc_trap_sw_set_pil
 .text          0x000000004003e7a0       0xb0 c:/opt/bcc-2.0.2-gcc/bin/../sparc-gaisler-elf/bsp/leon2/leon/mfix-at697f\libbcc.a(trap.c.o)
                0x000000004003e7a0                bcc_set_trap
 .text          0x000000004003e850        0x0 c:/opt/bcc-2.0.2-gcc/bin/../sparc-gaisler-elf/bsp/leon2/leon/mfix-at697f\libbcc.a(isr.c.o)
 .text          0x000000004003e850        0x0 c:/opt/bcc-2.0.2-gcc/bin/../sparc-gaisler-elf/bsp/leon2/leon/mfix-at697f\libbcc.a(int_nest.c.o)
 .text          0x000000004003e850        0x8 c:/opt/bcc-2.0.2-gcc/bin/../sparc-gaisler-elf/bsp/leon2/leon/mfix-at697f\libbcc.a(init.S.o)
                0x000000004003e850                __bcc_init40
                0x000000004003e850                __bcc_init70
                0x000000004003e850                __bcc_init60
                0x000000004003e850                __bcc_init50
 .text          0x000000004003e858       0x84 c:/opt/bcc-2.0.2-gcc/bin/../sparc-gaisler-elf/bsp/leon2/leon/mfix-at697f\libbcc.a(leon_info.S.o)
                0x000000004003e858                __bcc_get_leon_info
                0x000000004003e8cc                bcc_get_cpuid
 .text          0x000000004003e8dc       0x2c c:/opt/bcc-2.0.2-gcc/bin/../sparc-gaisler-elf/bsp/leon2/leon/mfix-at697f\libbcc.a(dwzero.S.o)
                0x000000004003e8dc                bcc_dwzero
 .text          0x000000004003e908       0x5c c:/opt/bcc-2.0.2-gcc/bin/../sparc-gaisler-elf/bsp/leon2/leon/mfix-at697f\libbcc.a(copy_data.c.o)
                0x000000004003e908                __bcc_copy_data
 *fill*         0x000000004003e964        0xc 
 .text          0x000000004003e970       0x90 c:/opt/bcc-2.0.2-gcc/bin/../sparc-gaisler-elf/bsp/leon2/leon/mfix-at697f\libbcc.a(lowlevel.S.o)
                0x000000004003e970                bcc_loadnocache
                0x000000004003e97c                bcc_loadnocache16
                0x000000004003e988                bcc_loadnocache8
                0x000000004003e9a0                bcc_ldstub
                0x000000004003e9ac                bcc_set_psr
                0x000000004003e9c4                bcc_get_psr
                0x000000004003e9cc                bcc_get_pil
                0x000000004003e9dc                bcc_set_tbr
                0x000000004003e9f4                bcc_get_tbr
 .text          0x000000004003ea00       0x50 c:/opt/bcc-2.0.2-gcc/bin/../sparc-gaisler-elf/bsp/leon2/leon/mfix-at697f\libbcc.a(lowlevel_leon2.S.o)
                0x000000004003ea00                bcc_set_ccr
                0x000000004003ea10                bcc_get_ccr
                0x000000004003ea20                bcc_flush_cache
                0x000000004003ea2c                bcc_flush_icache
                0x000000004003ea34                bcc_flush_dcache
                0x000000004003ea3c                bcc_power_down
 .text          0x000000004003ea50      0x160 c:/opt/bcc-2.0.2-gcc/bin/../sparc-gaisler-elf/bsp/leon2/leon/mfix-at697f\libbcc.a(int_leon2.c.o)
                0x000000004003ea50                bcc_int_mask
                0x000000004003eaa0                bcc_int_unmask
                0x000000004003eaf0                bcc_int_clear
                0x000000004003eb28                bcc_int_force
                0x000000004003eb6c                bcc_int_pend
 .text          0x000000004003ebb0        0x8 c:/opt/bcc-2.0.2-gcc/bin/../sparc-gaisler-elf/bsp/leon2/leon/mfix-at697f\libbcc.a(int_leon2_get_source.c.o)
                0x000000004003ebb0                __bcc_int_get_source
 .text          0x000000004003ebb8        0x8 c:/opt/bcc-2.0.2-gcc/bin/../sparc-gaisler-elf/bsp/leon2/leon/mfix-at697f\libbcc.a(int_leon2_init.c.o)
                0x000000004003ebb8                __bcc_int_init
 .text          0x000000004003ebc0       0x70 c:/opt/bcc-2.0.2-gcc/bin/../sparc-gaisler-elf/bsp/leon2/leon/mfix-at697f\libbcc.a(con_leon2.c.o)
                0x000000004003ebc0                __bcc_con_init
                0x000000004003ebc8                __bcc_con_outbyte
                0x000000004003ebfc                __bcc_con_inbyte
 .text          0x000000004003ec30       0x30 c:/opt/bcc-2.0.2-gcc/bin/../sparc-gaisler-elf/bsp/leon2/leon/mfix-at697f\libbcc.a(timer_leon2.c.o)
                0x000000004003ec30                __bcc_timer_init
                0x000000004003ec38                bcc_timer_get_us
 .text          0x000000004003ec60        0xc c:/opt/bcc-2.0.2-gcc/bin/../sparc-gaisler-elf/bsp/leon2/leon/mfix-at697f\libbcc.a(set_pil.S.o)
                0x000000004003ec60                bcc_set_pil
 .text          0x000000004003ec6c        0x0 c:/opt/bcc-2.0.2-gcc/bin/../sparc-gaisler-elf/bsp/leon2/leon/mfix-at697f\libbcc.a(int_leon2_handle.c.o)
 .text          0x000000004003ec6c        0x0 c:/opt/bcc-2.0.2-gcc/bin/../sparc-gaisler-elf/bsp/leon2/leon/mfix-at697f\libbcc.a(con_handle.c.o)
 .text          0x000000004003ec6c        0x0 c:/opt/bcc-2.0.2-gcc/bin/../sparc-gaisler-elf/bsp/leon2/leon/mfix-at697f\libbcc.a(timer_handle.c.o)
 .text          0x000000004003ec6c       0x1c c:/opt/bcc-2.0.2-gcc/bin/../lib/gcc/sparc-gaisler-elf/7.2.0/../../../../sparc-gaisler-elf/lib/leon/mfix-at697f\libc.a(lib_a-atexit.o)
                0x000000004003ec6c                atexit
 .text          0x000000004003ec88        0xc c:/opt/bcc-2.0.2-gcc/bin/../lib/gcc/sparc-gaisler-elf/7.2.0/../../../../sparc-gaisler-elf/lib/leon/mfix-at697f\libc.a(lib_a-errno.o)
                0x000000004003ec88                __errno
 .text          0x000000004003ec94       0x3c c:/opt/bcc-2.0.2-gcc/bin/../lib/gcc/sparc-gaisler-elf/7.2.0/../../../../sparc-gaisler-elf/lib/leon/mfix-at697f\libc.a(lib_a-exit.o)
                0x000000004003ec94                exit
 .text          0x000000004003ecd0        0x0 c:/opt/bcc-2.0.2-gcc/bin/../lib/gcc/sparc-gaisler-elf/7.2.0/../../../../sparc-gaisler-elf/lib/leon/mfix-at697f\libc.a(lib_a-impure.o)
 .text          0x000000004003ecd0      0x19c c:/opt/bcc-2.0.2-gcc/bin/../lib/gcc/sparc-gaisler-elf/7.2.0/../../../../sparc-gaisler-elf/lib/leon/mfix-at697f\libc.a(lib_a-memcpy.o)
                0x000000004003ecd0                memcpy
 .text          0x000000004003ee6c      0x158 c:/opt/bcc-2.0.2-gcc/bin/../lib/gcc/sparc-gaisler-elf/7.2.0/../../../../sparc-gaisler-elf/lib/leon/mfix-at697f\libc.a(lib_a-__atexit.o)
                0x000000004003ee6c                __register_exitproc
 .text          0x000000004003efc4      0x2b4 c:/opt/bcc-2.0.2-gcc/bin/../lib/gcc/sparc-gaisler-elf/7.2.0/../../../../sparc-gaisler-elf/lib/leon/mfix-at697f\libc.a(lib_a-__call_atexit.o)
                0x000000004003efc4                __call_exitprocs
 .text          0x000000004003f278       0x18 c:/opt/bcc-2.0.2-gcc/bin/../sparc-gaisler-elf/bsp/leon2/leon/mfix-at697f\libbcc.a(_exit.S.o)
                0x000000004003f278                _exit
 .text          0x000000004003f290       0x48 c:/opt/bcc-2.0.2-gcc/bin/../lib/gcc/sparc-gaisler-elf/7.2.0/leon/mfix-at697f/crtend.o
 .text          0x000000004003f2d8        0x0 c:/opt/bcc-2.0.2-gcc/bin/../lib/gcc/sparc-gaisler-elf/7.2.0/leon/mfix-at697f/crtn.o
                0x000000004003f2e0                . = ALIGN (0x10)
 *fill*         0x000000004003f2d8        0x8 
 *(.eh_frame)
 .eh_frame      0x000000004003f2e0        0x0 c:/opt/bcc-2.0.2-gcc/bin/../lib/gcc/sparc-gaisler-elf/7.2.0/leon/mfix-at697f/crtbegin.o
 .eh_frame      0x000000004003f2e0        0x4 c:/opt/bcc-2.0.2-gcc/bin/../lib/gcc/sparc-gaisler-elf/7.2.0/leon/mfix-at697f/crtend.o
                0x000000004003f2f0                . = ALIGN (0x10)
 *fill*         0x000000004003f2e4        0xc 
 *(.gnu.linkonce.t*)
                0x000000004003f2f0                ___CTOR_LIST__ = .
                0x000000004003f2f0        0x4 LONG 0x2 (((___CTOR_END__ - ___CTOR_LIST__) / 0x4) - 0x2)
 *(SORT(.ctors.*))
 *(.ctors)
 .ctors         0x000000004003f2f4        0x4 c:/opt/bcc-2.0.2-gcc/bin/../lib/gcc/sparc-gaisler-elf/7.2.0/leon/mfix-at697f/crtbegin.o
 .ctors         0x000000004003f2f8        0x4 c:/opt/bcc-2.0.2-gcc/bin/../lib/gcc/sparc-gaisler-elf/7.2.0/leon/mfix-at697f/crtend.o
                0x000000004003f2fc        0x4 LONG 0x0
                0x000000004003f300                ___CTOR_END__ = .
                0x000000004003f300                ___DTOR_LIST__ = .
                0x000000004003f300        0x4 LONG 0x2 (((___DTOR_END__ - ___DTOR_LIST__) / 0x4) - 0x2)
 *(SORT(.dtors.*))
 *(.dtors)
 .dtors         0x000000004003f304        0x4 c:/opt/bcc-2.0.2-gcc/bin/../lib/gcc/sparc-gaisler-elf/7.2.0/leon/mfix-at697f/crtbegin.o
 .dtors         0x000000004003f308        0x4 c:/opt/bcc-2.0.2-gcc/bin/../lib/gcc/sparc-gaisler-elf/7.2.0/leon/mfix-at697f/crtend.o
                0x000000004003f308                __DTOR_END__
                0x000000004003f30c        0x4 LONG 0x0
                0x000000004003f310                ___DTOR_END__ = .
 *(.gnu.linkonce*)
 *(.init)
 .init          0x000000004003f310        0x4 c:/opt/bcc-2.0.2-gcc/bin/../lib/gcc/sparc-gaisler-elf/7.2.0/leon/mfix-at697f/crti.o
                0x000000004003f310                _init
 .init          0x000000004003f314        0x8 c:/opt/bcc-2.0.2-gcc/bin/../lib/gcc/sparc-gaisler-elf/7.2.0/leon/mfix-at697f/crtbegin.o
 .init          0x000000004003f31c        0x8 c:/opt/bcc-2.0.2-gcc/bin/../lib/gcc/sparc-gaisler-elf/7.2.0/leon/mfix-at697f/crtend.o
 .init          0x000000004003f324        0xc c:/opt/bcc-2.0.2-gcc/bin/../lib/gcc/sparc-gaisler-elf/7.2.0/leon/mfix-at697f/crtn.o
 *(.fini)
 .fini          0x000000004003f330        0x4 c:/opt/bcc-2.0.2-gcc/bin/../lib/gcc/sparc-gaisler-elf/7.2.0/leon/mfix-at697f/crti.o
                0x000000004003f330                _fini
 .fini          0x000000004003f334        0x8 c:/opt/bcc-2.0.2-gcc/bin/../lib/gcc/sparc-gaisler-elf/7.2.0/leon/mfix-at697f/crtbegin.o
 .fini          0x000000004003f33c        0xc c:/opt/bcc-2.0.2-gcc/bin/../lib/gcc/sparc-gaisler-elf/7.2.0/leon/mfix-at697f/crtn.o
 *(.lit)
 *(.shdata)
                0x000000004003f350                . = ALIGN (0x10)
 *fill*         0x000000004003f348        0x8 
                0x000000004003f350                __text_end = .

.gcc_except_table
 *(.gcc_except_table)

.rodata         0x000000004003f350     0x5130
                0x000000004003f350                __rodata_start = .
 *(.rodata*)
 .rodata.cst8   0x000000004003f350       0x38 C:\Users\ajarr\AppData\Local\Temp\cclcRNkm.o
 .rodata        0x000000004003f388        0x0 C:\Users\ajarr\AppData\Local\Temp\ccXi6CuD.o
 .rodata        0x000000004003f388       0x10 C:\Users\ajarr\AppData\Local\Temp\cck0ztpe.o
 .rodata.cst4   0x000000004003f398        0x4 C:\Users\ajarr\AppData\Local\Temp\ccgZ79fC.o
 .rodata        0x000000004003f39c        0x0 C:\Users\ajarr\AppData\Local\Temp\ccgZ79fC.o
 .rodata        0x000000004003f39c        0x0 C:\Users\ajarr\AppData\Local\Temp\ccySgCMJ.o
 *fill*         0x000000004003f39c        0x4 
 .rodata.cst8   0x000000004003f3a0        0x8 C:\Users\ajarr\AppData\Local\Temp\ccW8vVNE.o
 .rodata.cst8   0x000000004003f3a8       0x58 C:\Users\ajarr\AppData\Local\Temp\ccH43JHx.o
                                         0xc8 (size before relaxing)
 .rodata.cst4   0x000000004003f400        0x4 C:\Users\ajarr\AppData\Local\Temp\ccH43JHx.o
 *fill*         0x000000004003f404        0x4 
 .rodata.cst8   0x000000004003f408       0x18 C:\Users\ajarr\AppData\Local\Temp\cco0QbZ8.o
                                         0x78 (size before relaxing)
 .rodata        0x000000004003f420     0x4724 C:\Users\ajarr\AppData\Local\Temp\cc5Z9OQN.o
                0x000000004003f420                c_I_nine_cross_nine
                0x000000004003f6a8                c_I_three_cross_three
                0x000000004003f6f0                c_Tv_wof_0034
                0x000000004003f738                c_Tv_wof_0204
                0x000000004003f780                c_Tv_wof_0230
                0x000000004003f7c8                c_Tv_wof_1004
                0x000000004003f810                c_Tv_wof_1030
                0x000000004003f858                c_Tv_wof_1200
                0x000000004003f8a0                c_B2wh_mat_0034
                0x000000004003f900                c_B2wh_mat_0204
                0x000000004003f960                c_B2wh_mat_0230
                0x000000004003f9c0                c_B2wh_mat_1004
                0x000000004003fa20                c_B2wh_mat_1030
                0x000000004003fa80                c_B2wh_mat_1200
                0x000000004003fae0                c_B2wh_mat_0234
                0x000000004003fb40                c_B2wh_mat_1034
                0x000000004003fba0                c_B2wh_mat_1204
                0x000000004003fc00                c_B2wh_mat_1230
                0x000000004003fc60                c_B2wh_mat_4RW
                0x000000004003fcc0                c_wh2B_mat_0034
                0x000000004003fd20                c_wh2B_mat_0204
                0x000000004003fd80                c_wh2B_mat_0230
                0x000000004003fde0                c_wh2B_mat_1004
                0x000000004003fe40                c_wh2B_mat_1030
                0x000000004003fea0                c_wh2B_mat_1200
                0x000000004003ff00                c_wh2B_mat_0234
                0x000000004003ff60                c_wh2B_mat_1034
                0x000000004003ffc0                c_wh2B_mat_1204
                0x0000000040040020                c_wh2B_mat_1230
                0x0000000040040080                c_wh2B_mat_4RW
                0x00000000400400e0                c_MOI_wh
                0x00000000400400e8                c_MOI_wh4
                0x00000000400400f0                c_MOI_wh3
                0x00000000400400f8                c_MOI_wh2
                0x0000000040040100                c_MOI_wh1
                0x0000000040040108                TC_T_RW_MAX
                0x0000000040040110                c_RADps2RPM
                0x0000000040040118                c_RPM2RADpS
                0x0000000040040120                c_DPMMAX
                0x0000000040040128                c_wkm_sunmag
                0x0000000040040130                c_wks_sunmag
                0x0000000040040138                c_wkm_mag
                0x0000000040040140                c_wks_mag
                0x0000000040040148                c_ss2b4156
                0x0000000040040190                c_ss2b3456
                0x00000000400401d8                c_ss2b2356
                0x0000000040040220                c_ss2b1256
                0x0000000040040268                c_misaln_cor146
                0x00000000400402b0                c_misaln_cor145
                0x00000000400402f8                c_misaln_cor346
                0x0000000040040340                c_misaln_cor345
                0x0000000040040388                c_misaln_cor326
                0x00000000400403d0                c_misaln_cor325
                0x0000000040040418                c_misaln_cor126
                0x0000000040040460                c_misaln_cor125
                0x00000000400404a8                c_AngDev_SAMtransit_thrsld
                0x00000000400404b0                c_AngDev_SMtransit_thrsld
                0x00000000400404b8                c_Sunlit_Thrsld
                0x00000000400404c0                c_SSThrsld
                0x00000000400404c8                c_Imax_YN_Main
                0x00000000400404d0                c_Imax_YP_Main
                0x00000000400404d8                c_Imax_PN_Main
                0x00000000400404e0                c_Imax_PP_Main
                0x00000000400404e8                c_Imax_RNND_Main
                0x00000000400404f0                c_Imax_RPND_Main
                0x00000000400404f8                c_Imax_RND_Main
                0x0000000040040500                c_Imax_RPD_Main
                0x0000000040040508                c_Imax_YN_Red
                0x0000000040040510                c_Imax_YP_Red
                0x0000000040040518                c_Imax_PN_Red
                0x0000000040040520                c_Imax_PP_Red
                0x0000000040040528                c_Imax_RNND_Red
                0x0000000040040530                c_Imax_RPND_Red
                0x0000000040040538                c_Imax_RND_Red
                0x0000000040040540                c_Imax_RPD_Red
                0x0000000040040548                c_KDset3
                0x0000000040040550                c_KDset2
                0x0000000040040558                c_KDset1
                0x0000000040040560                c_Epsilon2
                0x0000000040040568                c_Epsilon1
                0x0000000040040570                c_Sun_Dis3
                0x0000000040040578                c_Sun_Dis2
                0x0000000040040580                c_Sun_Dis1
                0x0000000040040588                c_L_Ecliptic2
                0x0000000040040590                c_L_Ecliptic1
                0x0000000040040598                c_Msun2
                0x00000000400405a0                c_Msun1
                0x00000000400405a8                c_L_Msun2
                0x00000000400405b0                c_L_Msun1
                0x00000000400405b8                c_hsval
                0x00000000400408f8                c_hval
                0x0000000040040c38                c_gsval
                0x0000000040040f78                c_gval
                0x00000000400412b8                c_sdmax
                0x00000000400412c0                c_a
                0x00000000400412c8                c_Pibytwo
                0x00000000400412d0                c_Kmax
                0x00000000400412d4                c_Nmax
                0x00000000400412d8                nut
                0x00000000400433f8                fc
                0x00000000400434c0                c_rk_T
                0x0000000040043748                c_rk
                0x00000000400439d0                c_I_four_cross_four
                0x0000000040043a10                c_onesecond
                0x0000000040043a18                c_oneminute
                0x0000000040043a20                c_halfhour
                0x0000000040043a28                c_Mmax
                0x0000000040043a30                c_AS2R
                0x0000000040043a38                c_R2D
                0x0000000040043a40                c_D2R
                0x0000000040043a48                c_min_per_day
                0x0000000040043a50                c_temp4
                0x0000000040043a58                c_j4
                0x0000000040043a60                c_j3oj2
                0x0000000040043a68                c_qzms2t
                0x0000000040043a70                c_ss
                0x0000000040043a78                c_xpdotp
                0x0000000040043a80                c_Pi
                0x0000000040043a88                c_Day_To_Seconds
                0x0000000040043a90                c_invmu
                0x0000000040043a98                c_mu
                0x0000000040043aa0                c_dividebyzerovalue
                0x0000000040043aa8                c_xke
                0x0000000040043ab0                c_x2o3
                0x0000000040043ab8                c_Twopi
                0x0000000040043ac0                c_j2
                0x0000000040043ac8                c_au
                0x0000000040043ad0                c_auer
                0x0000000040043ad8                c_radiusearthkm
                0x0000000040043ae0                c_vkmpersec
                0x0000000040043ae8                c_OMEGAE
                0x0000000040043af0                c_tsince_min
                0x0000000040043af8                c_twomu
                0x0000000040043b00                c_MiC
                0x0000000040043b08                c_MaC
                0x0000000040043b10                c_TM_RW_Resol
                0x0000000040043b18                c_TM_Resol_B
                0x0000000040043b20                c_TM_Resol_w
                0x0000000040043b28                c_TM_Resol_DelThta
                0x0000000040043b30                c_Resol_DelThta
                0x0000000040043b38                c_Resol_B
                0x0000000040043b40                c_FFFF
 *fill*         0x0000000040043b44        0x4 
 .rodata.cst8   0x0000000040043b48       0x58 C:\Users\ajarr\AppData\Local\Temp\cchzLcEP.o
                                         0xb0 (size before relaxing)
 .rodata.cst8   0x0000000040043ba0       0x30 C:\Users\ajarr\AppData\Local\Temp\ccDrgrG5.o
                                         0x78 (size before relaxing)
 .rodata        0x0000000040043bd0        0x0 C:\Users\ajarr\AppData\Local\Temp\ccDrgrG5.o
 .rodata.cst8   0x0000000040043bd0       0x48 C:\Users\ajarr\AppData\Local\Temp\ccpYH1o5.o
                                         0x68 (size before relaxing)
 .rodata.cst4   0x0000000040043c18        0x8 C:\Users\ajarr\AppData\Local\Temp\ccpYH1o5.o
 .rodata.cst8   0x0000000040043c20       0x38 C:\Users\ajarr\AppData\Local\Temp\cce8IkUa.o
                                         0xa0 (size before relaxing)
 .rodata.cst4   0x0000000040043c58        0x8 C:\Users\ajarr\AppData\Local\Temp\cce8IkUa.o
                                          0xc (size before relaxing)
 .rodata.cst8   0x0000000040043c60      0x290 C:\Users\ajarr\AppData\Local\Temp\ccwpWlcN.o
                                        0x3c0 (size before relaxing)
 .rodata.cst8   0x0000000040043ef0       0x88 C:\Users\ajarr\AppData\Local\Temp\ccIOj7WD.o
 .rodata.cst8   0x0000000040043ef0       0xa8 c:/opt/bcc-2.0.2-gcc/bin/../lib/gcc/sparc-gaisler-elf/7.2.0/../../../../sparc-gaisler-elf/lib/leon/mfix-at697f\libm.a(lib_a-s_atan.o)
                                         0xd0 (size before relaxing)
 .rodata.cst8   0x0000000040043f98       0x10 c:/opt/bcc-2.0.2-gcc/bin/../lib/gcc/sparc-gaisler-elf/7.2.0/../../../../sparc-gaisler-elf/lib/leon/mfix-at697f\libm.a(lib_a-s_floor.o)
 .rodata.str1.8
                0x0000000040043f98        0x9 c:/opt/bcc-2.0.2-gcc/bin/../lib/gcc/sparc-gaisler-elf/7.2.0/../../../../sparc-gaisler-elf/lib/leon/mfix-at697f\libm.a(lib_a-w_acos.o)
 .rodata.cst8   0x0000000040043fa1        0x8 c:/opt/bcc-2.0.2-gcc/bin/../lib/gcc/sparc-gaisler-elf/7.2.0/../../../../sparc-gaisler-elf/lib/leon/mfix-at697f\libm.a(lib_a-w_acos.o)
 *fill*         0x0000000040043fa1        0x7 
 .rodata.str1.8
                0x0000000040043fa8        0x5 c:/opt/bcc-2.0.2-gcc/bin/../lib/gcc/sparc-gaisler-elf/7.2.0/../../../../sparc-gaisler-elf/lib/leon/mfix-at697f\libm.a(lib_a-w_asin.o)
                                          0x9 (size before relaxing)
 .rodata.cst8   0x0000000040043fad        0x8 c:/opt/bcc-2.0.2-gcc/bin/../lib/gcc/sparc-gaisler-elf/7.2.0/../../../../sparc-gaisler-elf/lib/leon/mfix-at697f\libm.a(lib_a-w_asin.o)
 *fill*         0x0000000040043fad        0x3 
 .rodata.str1.8
                0x0000000040043fb0        0x5 c:/opt/bcc-2.0.2-gcc/bin/../lib/gcc/sparc-gaisler-elf/7.2.0/../../../../sparc-gaisler-elf/lib/leon/mfix-at697f\libm.a(lib_a-w_fmod.o)
 .rodata.cst8   0x0000000040043fb5        0x8 c:/opt/bcc-2.0.2-gcc/bin/../lib/gcc/sparc-gaisler-elf/7.2.0/../../../../sparc-gaisler-elf/lib/leon/mfix-at697f\libm.a(lib_a-w_fmod.o)
 *fill*         0x0000000040043fb5        0x3 
 .rodata.str1.8
                0x0000000040043fb8        0x4 c:/opt/bcc-2.0.2-gcc/bin/../lib/gcc/sparc-gaisler-elf/7.2.0/../../../../sparc-gaisler-elf/lib/leon/mfix-at697f\libm.a(lib_a-w_pow.o)
 *fill*         0x0000000040043fbc        0x4 
 .rodata.cst8   0x0000000040043fc0       0x20 c:/opt/bcc-2.0.2-gcc/bin/../lib/gcc/sparc-gaisler-elf/7.2.0/../../../../sparc-gaisler-elf/lib/leon/mfix-at697f\libm.a(lib_a-w_pow.o)
                                         0x38 (size before relaxing)
 .rodata.str1.8
                0x0000000040043fe0        0x8 c:/opt/bcc-2.0.2-gcc/bin/../lib/gcc/sparc-gaisler-elf/7.2.0/../../../../sparc-gaisler-elf/lib/leon/mfix-at697f\libm.a(lib_a-w_sqrt.o)
                                          0x5 (size before relaxing)
 .rodata.cst8   0x0000000040043fe8        0x8 c:/opt/bcc-2.0.2-gcc/bin/../lib/gcc/sparc-gaisler-elf/7.2.0/../../../../sparc-gaisler-elf/lib/leon/mfix-at697f\libm.a(lib_a-w_sqrt.o)
 .rodata.cst8   0x0000000040043fe8       0x58 c:/opt/bcc-2.0.2-gcc/bin/../lib/gcc/sparc-gaisler-elf/7.2.0/../../../../sparc-gaisler-elf/lib/leon/mfix-at697f\libm.a(lib_a-e_acos.o)
                                         0x80 (size before relaxing)
 .rodata.cst8   0x0000000040044040       0x80 c:/opt/bcc-2.0.2-gcc/bin/../lib/gcc/sparc-gaisler-elf/7.2.0/../../../../sparc-gaisler-elf/lib/leon/mfix-at697f\libm.a(lib_a-e_asin.o)
 .rodata.cst8   0x0000000040044040       0x28 c:/opt/bcc-2.0.2-gcc/bin/../lib/gcc/sparc-gaisler-elf/7.2.0/../../../../sparc-gaisler-elf/lib/leon/mfix-at697f\libm.a(lib_a-e_atan2.o)
                                         0x58 (size before relaxing)
 .rodata        0x0000000040044068       0x10 c:/opt/bcc-2.0.2-gcc/bin/../lib/gcc/sparc-gaisler-elf/7.2.0/../../../../sparc-gaisler-elf/lib/leon/mfix-at697f\libm.a(lib_a-e_fmod.o)
 .rodata.str1.8
                0x0000000040044078        0x1 c:/opt/bcc-2.0.2-gcc/bin/../lib/gcc/sparc-gaisler-elf/7.2.0/../../../../sparc-gaisler-elf/lib/leon/mfix-at697f\libm.a(lib_a-e_pow.o)
 .rodata.cst8   0x0000000040044078       0xc8 c:/opt/bcc-2.0.2-gcc/bin/../lib/gcc/sparc-gaisler-elf/7.2.0/../../../../sparc-gaisler-elf/lib/leon/mfix-at697f\libm.a(lib_a-e_pow.o)
                                        0x120 (size before relaxing)
 .rodata.cst8   0x0000000040044140       0x40 c:/opt/bcc-2.0.2-gcc/bin/../lib/gcc/sparc-gaisler-elf/7.2.0/../../../../sparc-gaisler-elf/lib/leon/mfix-at697f\libm.a(lib_a-e_rem_pio2.o)
                                         0x50 (size before relaxing)
 .rodata        0x0000000040044180      0x188 c:/opt/bcc-2.0.2-gcc/bin/../lib/gcc/sparc-gaisler-elf/7.2.0/../../../../sparc-gaisler-elf/lib/leon/mfix-at697f\libm.a(lib_a-e_rem_pio2.o)
 .rodata.cst8   0x0000000040044308       0x40 c:/opt/bcc-2.0.2-gcc/bin/../lib/gcc/sparc-gaisler-elf/7.2.0/../../../../sparc-gaisler-elf/lib/leon/mfix-at697f\libm.a(lib_a-k_cos.o)
                                         0x50 (size before relaxing)
 .rodata.cst8   0x0000000040044348       0x50 c:/opt/bcc-2.0.2-gcc/bin/../lib/gcc/sparc-gaisler-elf/7.2.0/../../../../sparc-gaisler-elf/lib/leon/mfix-at697f\libm.a(lib_a-k_rem_pio2.o)
                                         0x78 (size before relaxing)
 .rodata        0x0000000040044398       0x10 c:/opt/bcc-2.0.2-gcc/bin/../lib/gcc/sparc-gaisler-elf/7.2.0/../../../../sparc-gaisler-elf/lib/leon/mfix-at697f\libm.a(lib_a-k_rem_pio2.o)
 .rodata.cst8   0x00000000400443a8       0x30 c:/opt/bcc-2.0.2-gcc/bin/../lib/gcc/sparc-gaisler-elf/7.2.0/../../../../sparc-gaisler-elf/lib/leon/mfix-at697f\libm.a(lib_a-k_sin.o)
                                         0x38 (size before relaxing)
 .rodata.cst8   0x00000000400443d8       0x68 c:/opt/bcc-2.0.2-gcc/bin/../lib/gcc/sparc-gaisler-elf/7.2.0/../../../../sparc-gaisler-elf/lib/leon/mfix-at697f\libm.a(lib_a-k_tan.o)
                                         0x90 (size before relaxing)
 .rodata.cst8   0x0000000040044440        0x8 c:/opt/bcc-2.0.2-gcc/bin/../lib/gcc/sparc-gaisler-elf/7.2.0/../../../../sparc-gaisler-elf/lib/leon/mfix-at697f\libm.a(lib_a-s_nan.o)
 .rodata        0x0000000040044448       0x10 c:/opt/bcc-2.0.2-gcc/bin/../lib/gcc/sparc-gaisler-elf/7.2.0/../../../../sparc-gaisler-elf/lib/leon/mfix-at697f\libm.a(lib_a-s_rint.o)
 .rodata.cst8   0x0000000040044458       0x18 c:/opt/bcc-2.0.2-gcc/bin/../lib/gcc/sparc-gaisler-elf/7.2.0/../../../../sparc-gaisler-elf/lib/leon/mfix-at697f\libm.a(lib_a-s_scalbn.o)
                                         0x20 (size before relaxing)
 .rodata        0x0000000040044470        0x4 c:/opt/bcc-2.0.2-gcc/bin/../lib/gcc/sparc-gaisler-elf/7.2.0/../../../../sparc-gaisler-elf/lib/leon/mfix-at697f\libc.a(lib_a-impure.o)
                0x0000000040044470                _global_impure_ptr
 *(.gnu.linkonce.r*)
                0x0000000040044480                . = ALIGN (0x10)
 *fill*         0x0000000040044474        0xc 
                0x0000000040044480                __rodata_end = .

.rela.dyn       0x0000000040044480        0x0
 .rela.iplt     0x0000000040044480        0x0 c:/opt/bcc-2.0.2-gcc/bin/../sparc-gaisler-elf/bsp/leon2/leon/mfix-at697f/trap_table_mvt.S.o
 .rela.text.traptable
                0x0000000040044480        0x0 c:/opt/bcc-2.0.2-gcc/bin/../sparc-gaisler-elf/bsp/leon2/leon/mfix-at697f/trap_table_mvt.S.o
 .rela.text     0x0000000040044480        0x0 c:/opt/bcc-2.0.2-gcc/bin/../sparc-gaisler-elf/bsp/leon2/leon/mfix-at697f/trap_table_mvt.S.o
 .rela.text.startup
                0x0000000040044480        0x0 c:/opt/bcc-2.0.2-gcc/bin/../sparc-gaisler-elf/bsp/leon2/leon/mfix-at697f/trap_table_mvt.S.o
 .rela.data     0x0000000040044480        0x0 c:/opt/bcc-2.0.2-gcc/bin/../sparc-gaisler-elf/bsp/leon2/leon/mfix-at697f/trap_table_mvt.S.o

.ext.data       0x0000000040044480        0x0
                0x0000000040044480                . = ALIGN (0x8)
                0x0000000040044480                __extdata_start = .
 *(.data.ext)
                0x0000000040044480                . = ALIGN (0x8)
                0x0000000040044480                __extdata_end = .
                0x0000000040044480                __extdata_start_lma = LOADADDR (.ext.data)
                0x0000000000000000                __extdata_size = SIZEOF (.ext.data)

.data           0x0000000040044480      0x540
                0x0000000040044480                . = ALIGN (0x8)
                0x0000000040044480                __data_start = .
 *(.data .data.*)
 .data          0x0000000040044480        0x0 c:/opt/bcc-2.0.2-gcc/bin/../sparc-gaisler-elf/bsp/leon2/leon/mfix-at697f/trap_table_mvt.S.o
 .data          0x0000000040044480        0x0 c:/opt/bcc-2.0.2-gcc/bin/../sparc-gaisler-elf/bsp/leon2/leon/mfix-at697f/crt0.S.o
 .data          0x0000000040044480        0x0 c:/opt/bcc-2.0.2-gcc/bin/../lib/gcc/sparc-gaisler-elf/7.2.0/leon/mfix-at697f/crti.o
 .data          0x0000000040044480        0x4 c:/opt/bcc-2.0.2-gcc/bin/../lib/gcc/sparc-gaisler-elf/7.2.0/leon/mfix-at697f/crtbegin.o
                0x0000000040044480                __dso_handle
 .data          0x0000000040044484        0x0 C:\Users\ajarr\AppData\Local\Temp\cclcRNkm.o
 .data          0x0000000040044484        0x0 C:\Users\ajarr\AppData\Local\Temp\ccXi6CuD.o
 .data          0x0000000040044484       0x24 C:\Users\ajarr\AppData\Local\Temp\cck0ztpe.o
                0x0000000040044498                test_st_sp_d
                0x000000004004449c                test_st_sp_c
                0x00000000400444a0                test_st_sp_b
                0x00000000400444a1                test_st_b
                0x00000000400444a2                test_st
                0x00000000400444a4                real_tm_wait
 .data          0x00000000400444a8      0x390 C:\Users\ajarr\AppData\Local\Temp\ccgZ79fC.o
                0x00000000400444a8                Resol_Table_Adcs
                0x0000000040044570                BlkExe_Status
                0x0000000040044574                FuncExecute_Table
                0x00000000400447cc                Resol_Table
 .data          0x0000000040044838        0x0 C:\Users\ajarr\AppData\Local\Temp\cccsHxM4.o
 .data          0x0000000040044838        0x0 C:\Users\ajarr\AppData\Local\Temp\cczKCchi.o
 .data          0x0000000040044838        0x8 C:\Users\ajarr\AppData\Local\Temp\ccySgCMJ.o
                0x0000000040044838                PL_Debug_Data
 .data          0x0000000040044840       0x20 C:\Users\ajarr\AppData\Local\Temp\ccJGVwWh.o
                0x0000000040044840                inter_HAL_EPS_Hardware_Status_SEL
 .data          0x0000000040044860        0x0 C:\Users\ajarr\AppData\Local\Temp\ccwUhEmU.o
 .data          0x0000000040044860        0x0 C:\Users\ajarr\AppData\Local\Temp\ccTGUrKF.o
 .data          0x0000000040044860        0x0 C:\Users\ajarr\AppData\Local\Temp\ccW8NopI.o
 .data          0x0000000040044860       0xbc C:\Users\ajarr\AppData\Local\Temp\ccQfD6IQ.o
                0x0000000040044860                Auto_manual
                0x0000000040044864                UTP
                0x00000000400448a4                LTP
                0x00000000400448e4                Thermister_index_select
 .data          0x000000004004491c        0x0 C:\Users\ajarr\AppData\Local\Temp\ccegzvw7.o
 *fill*         0x000000004004491c        0x4 
 .data          0x0000000040044920        0x4 C:\Users\ajarr\AppData\Local\Temp\ccW8vVNE.o
                0x0000000040044920                NSP_addr_table
 .data          0x0000000040044924        0x0 C:\Users\ajarr\AppData\Local\Temp\ccmmE1Hm.o
 .data          0x0000000040044924        0x0 C:\Users\ajarr\AppData\Local\Temp\ccH43JHx.o
 .data          0x0000000040044924        0x0 C:\Users\ajarr\AppData\Local\Temp\cco0QbZ8.o
 .data          0x0000000040044924        0x0 C:\Users\ajarr\AppData\Local\Temp\cc5Z9OQN.o
 .data          0x0000000040044924        0x0 C:\Users\ajarr\AppData\Local\Temp\cchzLcEP.o
 .data          0x0000000040044924        0x0 C:\Users\ajarr\AppData\Local\Temp\ccDrgrG5.o
 .data          0x0000000040044924        0x0 C:\Users\ajarr\AppData\Local\Temp\ccpYH1o5.o
 .data          0x0000000040044924        0x0 C:\Users\ajarr\AppData\Local\Temp\cce8IkUa.o
 .data          0x0000000040044924        0x0 C:\Users\ajarr\AppData\Local\Temp\ccmHMWab.o
 .data          0x0000000040044924        0x0 C:\Users\ajarr\AppData\Local\Temp\ccwpWlcN.o
 .data          0x0000000040044924        0x0 C:\Users\ajarr\AppData\Local\Temp\ccIOj7WD.o
 .data          0x0000000040044924        0x0 C:\Users\ajarr\AppData\Local\Temp\ccaOdSgz.o
 .data          0x0000000040044924        0x0 c:/opt/bcc-2.0.2-gcc/bin/../lib/gcc/sparc-gaisler-elf/7.2.0/../../../../sparc-gaisler-elf/lib/leon/mfix-at697f\libm.a(lib_a-s_atan.o)
 .data          0x0000000040044924        0x0 c:/opt/bcc-2.0.2-gcc/bin/../lib/gcc/sparc-gaisler-elf/7.2.0/../../../../sparc-gaisler-elf/lib/leon/mfix-at697f\libm.a(lib_a-s_cos.o)
 .data          0x0000000040044924        0x0 c:/opt/bcc-2.0.2-gcc/bin/../lib/gcc/sparc-gaisler-elf/7.2.0/../../../../sparc-gaisler-elf/lib/leon/mfix-at697f\libm.a(lib_a-s_fabs.o)
 .data          0x0000000040044924        0x0 c:/opt/bcc-2.0.2-gcc/bin/../lib/gcc/sparc-gaisler-elf/7.2.0/../../../../sparc-gaisler-elf/lib/leon/mfix-at697f\libm.a(lib_a-s_floor.o)
 .data          0x0000000040044924        0x0 c:/opt/bcc-2.0.2-gcc/bin/../lib/gcc/sparc-gaisler-elf/7.2.0/../../../../sparc-gaisler-elf/lib/leon/mfix-at697f\libm.a(lib_a-s_round.o)
 .data          0x0000000040044924        0x0 c:/opt/bcc-2.0.2-gcc/bin/../lib/gcc/sparc-gaisler-elf/7.2.0/../../../../sparc-gaisler-elf/lib/leon/mfix-at697f\libm.a(lib_a-s_sin.o)
 .data          0x0000000040044924        0x0 c:/opt/bcc-2.0.2-gcc/bin/../lib/gcc/sparc-gaisler-elf/7.2.0/../../../../sparc-gaisler-elf/lib/leon/mfix-at697f\libm.a(lib_a-s_tan.o)
 .data          0x0000000040044924        0x0 c:/opt/bcc-2.0.2-gcc/bin/../lib/gcc/sparc-gaisler-elf/7.2.0/../../../../sparc-gaisler-elf/lib/leon/mfix-at697f\libm.a(lib_a-w_acos.o)
 .data          0x0000000040044924        0x0 c:/opt/bcc-2.0.2-gcc/bin/../lib/gcc/sparc-gaisler-elf/7.2.0/../../../../sparc-gaisler-elf/lib/leon/mfix-at697f\libm.a(lib_a-w_asin.o)
 .data          0x0000000040044924        0x0 c:/opt/bcc-2.0.2-gcc/bin/../lib/gcc/sparc-gaisler-elf/7.2.0/../../../../sparc-gaisler-elf/lib/leon/mfix-at697f\libm.a(lib_a-w_atan2.o)
 .data          0x0000000040044924        0x0 c:/opt/bcc-2.0.2-gcc/bin/../lib/gcc/sparc-gaisler-elf/7.2.0/../../../../sparc-gaisler-elf/lib/leon/mfix-at697f\libm.a(lib_a-w_fmod.o)
 .data          0x0000000040044924        0x0 c:/opt/bcc-2.0.2-gcc/bin/../lib/gcc/sparc-gaisler-elf/7.2.0/../../../../sparc-gaisler-elf/lib/leon/mfix-at697f\libm.a(lib_a-w_pow.o)
 .data          0x0000000040044924        0x0 c:/opt/bcc-2.0.2-gcc/bin/../lib/gcc/sparc-gaisler-elf/7.2.0/../../../../sparc-gaisler-elf/lib/leon/mfix-at697f\libm.a(lib_a-w_sqrt.o)
 .data          0x0000000040044924        0x0 c:/opt/bcc-2.0.2-gcc/bin/../lib/gcc/sparc-gaisler-elf/7.2.0/../../../../sparc-gaisler-elf/lib/leon/mfix-at697f\libm.a(lib_a-e_acos.o)
 .data          0x0000000040044924        0x0 c:/opt/bcc-2.0.2-gcc/bin/../lib/gcc/sparc-gaisler-elf/7.2.0/../../../../sparc-gaisler-elf/lib/leon/mfix-at697f\libm.a(lib_a-e_asin.o)
 .data          0x0000000040044924        0x0 c:/opt/bcc-2.0.2-gcc/bin/../lib/gcc/sparc-gaisler-elf/7.2.0/../../../../sparc-gaisler-elf/lib/leon/mfix-at697f\libm.a(lib_a-e_atan2.o)
 .data          0x0000000040044924        0x0 c:/opt/bcc-2.0.2-gcc/bin/../lib/gcc/sparc-gaisler-elf/7.2.0/../../../../sparc-gaisler-elf/lib/leon/mfix-at697f\libm.a(lib_a-e_fmod.o)
 .data          0x0000000040044924        0x0 c:/opt/bcc-2.0.2-gcc/bin/../lib/gcc/sparc-gaisler-elf/7.2.0/../../../../sparc-gaisler-elf/lib/leon/mfix-at697f\libm.a(lib_a-e_pow.o)
 .data          0x0000000040044924        0x0 c:/opt/bcc-2.0.2-gcc/bin/../lib/gcc/sparc-gaisler-elf/7.2.0/../../../../sparc-gaisler-elf/lib/leon/mfix-at697f\libm.a(lib_a-e_rem_pio2.o)
 .data          0x0000000040044924        0x0 c:/opt/bcc-2.0.2-gcc/bin/../lib/gcc/sparc-gaisler-elf/7.2.0/../../../../sparc-gaisler-elf/lib/leon/mfix-at697f\libm.a(lib_a-e_sqrt.o)
 .data          0x0000000040044924        0x0 c:/opt/bcc-2.0.2-gcc/bin/../lib/gcc/sparc-gaisler-elf/7.2.0/../../../../sparc-gaisler-elf/lib/leon/mfix-at697f\libm.a(lib_a-k_cos.o)
 .data          0x0000000040044924        0x0 c:/opt/bcc-2.0.2-gcc/bin/../lib/gcc/sparc-gaisler-elf/7.2.0/../../../../sparc-gaisler-elf/lib/leon/mfix-at697f\libm.a(lib_a-k_rem_pio2.o)
 .data          0x0000000040044924        0x0 c:/opt/bcc-2.0.2-gcc/bin/../lib/gcc/sparc-gaisler-elf/7.2.0/../../../../sparc-gaisler-elf/lib/leon/mfix-at697f\libm.a(lib_a-k_sin.o)
 .data          0x0000000040044924        0x0 c:/opt/bcc-2.0.2-gcc/bin/../lib/gcc/sparc-gaisler-elf/7.2.0/../../../../sparc-gaisler-elf/lib/leon/mfix-at697f\libm.a(lib_a-k_tan.o)
 .data          0x0000000040044924        0x0 c:/opt/bcc-2.0.2-gcc/bin/../lib/gcc/sparc-gaisler-elf/7.2.0/../../../../sparc-gaisler-elf/lib/leon/mfix-at697f\libm.a(lib_a-s_finite.o)
 .data          0x0000000040044924        0x4 c:/opt/bcc-2.0.2-gcc/bin/../lib/gcc/sparc-gaisler-elf/7.2.0/../../../../sparc-gaisler-elf/lib/leon/mfix-at697f\libm.a(lib_a-s_lib_ver.o)
                0x0000000040044924                __fdlib_version
 .data          0x0000000040044928        0x0 c:/opt/bcc-2.0.2-gcc/bin/../lib/gcc/sparc-gaisler-elf/7.2.0/../../../../sparc-gaisler-elf/lib/leon/mfix-at697f\libm.a(lib_a-s_matherr.o)
 .data          0x0000000040044928        0x0 c:/opt/bcc-2.0.2-gcc/bin/../lib/gcc/sparc-gaisler-elf/7.2.0/../../../../sparc-gaisler-elf/lib/leon/mfix-at697f\libm.a(lib_a-s_nan.o)
 .data          0x0000000040044928        0x0 c:/opt/bcc-2.0.2-gcc/bin/../lib/gcc/sparc-gaisler-elf/7.2.0/../../../../sparc-gaisler-elf/lib/leon/mfix-at697f\libm.a(lib_a-s_rint.o)
 .data          0x0000000040044928        0x0 c:/opt/bcc-2.0.2-gcc/bin/../lib/gcc/sparc-gaisler-elf/7.2.0/../../../../sparc-gaisler-elf/lib/leon/mfix-at697f\libm.a(lib_a-s_scalbn.o)
 .data          0x0000000040044928        0x0 c:/opt/bcc-2.0.2-gcc/bin/../lib/gcc/sparc-gaisler-elf/7.2.0/../../../../sparc-gaisler-elf/lib/leon/mfix-at697f\libm.a(lib_a-s_copysign.o)
 .data          0x0000000040044928        0x0 c:/opt/bcc-2.0.2-gcc/bin/../sparc-gaisler-elf/bsp/leon2/leon/mfix-at697f\libbcc.a(reset_trap_mvt.S.o)
 .data          0x0000000040044928        0x0 c:/opt/bcc-2.0.2-gcc/bin/../sparc-gaisler-elf/bsp/leon2/leon/mfix-at697f\libbcc.a(window_trap.S.o)
 .data          0x0000000040044928        0x0 c:/opt/bcc-2.0.2-gcc/bin/../sparc-gaisler-elf/bsp/leon2/leon/mfix-at697f\libbcc.a(interrupt_trap.S.o)
 .data          0x0000000040044928        0x0 c:/opt/bcc-2.0.2-gcc/bin/../sparc-gaisler-elf/bsp/leon2/leon/mfix-at697f\libbcc.a(flush_windows_trap.S.o)
 .data          0x0000000040044928        0x0 c:/opt/bcc-2.0.2-gcc/bin/../sparc-gaisler-elf/bsp/leon2/leon/mfix-at697f\libbcc.a(sw_trap_set_pil.S.o)
 .data          0x0000000040044928        0x0 c:/opt/bcc-2.0.2-gcc/bin/../sparc-gaisler-elf/bsp/leon2/leon/mfix-at697f\libbcc.a(trap.c.o)
 .data          0x0000000040044928        0x0 c:/opt/bcc-2.0.2-gcc/bin/../sparc-gaisler-elf/bsp/leon2/leon/mfix-at697f\libbcc.a(isr.c.o)
 .data          0x0000000040044928       0x10 c:/opt/bcc-2.0.2-gcc/bin/../sparc-gaisler-elf/bsp/leon2/leon/mfix-at697f\libbcc.a(int_nest.c.o)
                0x0000000040044928                __bcc_int_nest
 .data          0x0000000040044938        0x0 c:/opt/bcc-2.0.2-gcc/bin/../sparc-gaisler-elf/bsp/leon2/leon/mfix-at697f\libbcc.a(init.S.o)
 .data          0x0000000040044938       0x10 c:/opt/bcc-2.0.2-gcc/bin/../sparc-gaisler-elf/bsp/leon2/leon/mfix-at697f\libbcc.a(leon_info.S.o)
                0x0000000040044938                __bcc_leon_version
                0x000000004004493c                __bcc_nwindows_min1
                0x0000000040044940                __bcc_nwindows
                0x0000000040044944                __bcc_cpuid
 .data          0x0000000040044948        0x0 c:/opt/bcc-2.0.2-gcc/bin/../sparc-gaisler-elf/bsp/leon2/leon/mfix-at697f\libbcc.a(dwzero.S.o)
 .data          0x0000000040044948        0x0 c:/opt/bcc-2.0.2-gcc/bin/../sparc-gaisler-elf/bsp/leon2/leon/mfix-at697f\libbcc.a(copy_data.c.o)
 .data          0x0000000040044948        0x0 c:/opt/bcc-2.0.2-gcc/bin/../sparc-gaisler-elf/bsp/leon2/leon/mfix-at697f\libbcc.a(lowlevel.S.o)
 .data          0x0000000040044948        0x0 c:/opt/bcc-2.0.2-gcc/bin/../sparc-gaisler-elf/bsp/leon2/leon/mfix-at697f\libbcc.a(lowlevel_leon2.S.o)
 .data          0x0000000040044948        0x0 c:/opt/bcc-2.0.2-gcc/bin/../sparc-gaisler-elf/bsp/leon2/leon/mfix-at697f\libbcc.a(int_leon2.c.o)
 .data          0x0000000040044948        0x0 c:/opt/bcc-2.0.2-gcc/bin/../sparc-gaisler-elf/bsp/leon2/leon/mfix-at697f\libbcc.a(int_leon2_get_source.c.o)
 .data          0x0000000040044948        0x0 c:/opt/bcc-2.0.2-gcc/bin/../sparc-gaisler-elf/bsp/leon2/leon/mfix-at697f\libbcc.a(int_leon2_init.c.o)
 .data          0x0000000040044948        0x0 c:/opt/bcc-2.0.2-gcc/bin/../sparc-gaisler-elf/bsp/leon2/leon/mfix-at697f\libbcc.a(con_leon2.c.o)
 .data          0x0000000040044948        0x0 c:/opt/bcc-2.0.2-gcc/bin/../sparc-gaisler-elf/bsp/leon2/leon/mfix-at697f\libbcc.a(timer_leon2.c.o)
 .data          0x0000000040044948        0x0 c:/opt/bcc-2.0.2-gcc/bin/../sparc-gaisler-elf/bsp/leon2/leon/mfix-at697f\libbcc.a(set_pil.S.o)
 .data          0x0000000040044948        0x4 c:/opt/bcc-2.0.2-gcc/bin/../sparc-gaisler-elf/bsp/leon2/leon/mfix-at697f\libbcc.a(int_leon2_handle.c.o)
                0x0000000040044948                __bcc_int_handle
 .data          0x000000004004494c        0x4 c:/opt/bcc-2.0.2-gcc/bin/../sparc-gaisler-elf/bsp/leon2/leon/mfix-at697f\libbcc.a(con_handle.c.o)
                0x000000004004494c                __bcc_con_handle
 .data          0x0000000040044950        0x8 c:/opt/bcc-2.0.2-gcc/bin/../sparc-gaisler-elf/bsp/leon2/leon/mfix-at697f\libbcc.a(timer_handle.c.o)
                0x0000000040044950                __bcc_timer_interrupt
                0x0000000040044954                __bcc_timer_handle
 .data          0x0000000040044958        0x0 c:/opt/bcc-2.0.2-gcc/bin/../lib/gcc/sparc-gaisler-elf/7.2.0/../../../../sparc-gaisler-elf/lib/leon/mfix-at697f\libc.a(lib_a-atexit.o)
 .data          0x0000000040044958        0x0 c:/opt/bcc-2.0.2-gcc/bin/../lib/gcc/sparc-gaisler-elf/7.2.0/../../../../sparc-gaisler-elf/lib/leon/mfix-at697f\libc.a(lib_a-errno.o)
 .data          0x0000000040044958        0x0 c:/opt/bcc-2.0.2-gcc/bin/../lib/gcc/sparc-gaisler-elf/7.2.0/../../../../sparc-gaisler-elf/lib/leon/mfix-at697f\libc.a(lib_a-exit.o)
 .data          0x0000000040044958       0x64 c:/opt/bcc-2.0.2-gcc/bin/../lib/gcc/sparc-gaisler-elf/7.2.0/../../../../sparc-gaisler-elf/lib/leon/mfix-at697f\libc.a(lib_a-impure.o)
                0x0000000040044958                _impure_ptr
 .data          0x00000000400449bc        0x0 c:/opt/bcc-2.0.2-gcc/bin/../lib/gcc/sparc-gaisler-elf/7.2.0/../../../../sparc-gaisler-elf/lib/leon/mfix-at697f\libc.a(lib_a-memcpy.o)
 .data          0x00000000400449bc        0x0 c:/opt/bcc-2.0.2-gcc/bin/../lib/gcc/sparc-gaisler-elf/7.2.0/../../../../sparc-gaisler-elf/lib/leon/mfix-at697f\libc.a(lib_a-__atexit.o)
 .data          0x00000000400449bc        0x0 c:/opt/bcc-2.0.2-gcc/bin/../lib/gcc/sparc-gaisler-elf/7.2.0/../../../../sparc-gaisler-elf/lib/leon/mfix-at697f\libc.a(lib_a-__call_atexit.o)
 .data          0x00000000400449bc        0x0 c:/opt/bcc-2.0.2-gcc/bin/../sparc-gaisler-elf/bsp/leon2/leon/mfix-at697f\libbcc.a(_exit.S.o)
 .data          0x00000000400449bc        0x0 c:/opt/bcc-2.0.2-gcc/bin/../lib/gcc/sparc-gaisler-elf/7.2.0/leon/mfix-at697f/crtend.o
 .data          0x00000000400449bc        0x0 c:/opt/bcc-2.0.2-gcc/bin/../lib/gcc/sparc-gaisler-elf/7.2.0/leon/mfix-at697f/crtn.o
                0x00000000400449c0                . = ALIGN (0x8)
 *fill*         0x00000000400449bc        0x4 
                0x00000000400449c0                __data_end = .
                0x0000000040044480                __data_start_lma = LOADADDR (.data)
                0x0000000000000540                __data_size = SIZEOF (.data)

.iplt           0x00000000400449c0        0x0
 .iplt          0x00000000400449c0        0x0 c:/opt/bcc-2.0.2-gcc/bin/../sparc-gaisler-elf/bsp/leon2/leon/mfix-at697f/trap_table_mvt.S.o

.tm_clone_table
                0x00000000400449c0        0x0
 .tm_clone_table
                0x00000000400449c0        0x0 c:/opt/bcc-2.0.2-gcc/bin/../lib/gcc/sparc-gaisler-elf/7.2.0/leon/mfix-at697f/crtbegin.o
 .tm_clone_table
                0x00000000400449c0        0x0 c:/opt/bcc-2.0.2-gcc/bin/../lib/gcc/sparc-gaisler-elf/7.2.0/leon/mfix-at697f/crtend.o

.bss            0x00000000400449c0    0x8e9b8
                0x00000000400449c0                . = ALIGN (0x8)
                0x00000000400449c0                __bss_start = .
 *(.bss .bss.*)
 .bss           0x00000000400449c0        0x0 c:/opt/bcc-2.0.2-gcc/bin/../sparc-gaisler-elf/bsp/leon2/leon/mfix-at697f/trap_table_mvt.S.o
 .bss           0x00000000400449c0        0x4 c:/opt/bcc-2.0.2-gcc/bin/../sparc-gaisler-elf/bsp/leon2/leon/mfix-at697f/crt0.S.o
                0x00000000400449c0                __bcc_sp_at_entry
 .bss           0x00000000400449c4        0x0 c:/opt/bcc-2.0.2-gcc/bin/../lib/gcc/sparc-gaisler-elf/7.2.0/leon/mfix-at697f/crti.o
 .bss           0x00000000400449c4       0x20 c:/opt/bcc-2.0.2-gcc/bin/../lib/gcc/sparc-gaisler-elf/7.2.0/leon/mfix-at697f/crtbegin.o
 .bss           0x00000000400449e4        0x0 C:\Users\ajarr\AppData\Local\Temp\cclcRNkm.o
 .bss           0x00000000400449e4        0x1 C:\Users\ajarr\AppData\Local\Temp\ccXi6CuD.o
 *fill*         0x00000000400449e5        0x3 
 .bss           0x00000000400449e8        0x8 C:\Users\ajarr\AppData\Local\Temp\cck0ztpe.o
                0x00000000400449e8                test_st_sp
                0x00000000400449e9                filler_byte3
                0x00000000400449ea                filler_byte2
                0x00000000400449eb                filler_byte1
                0x00000000400449ec                repeat_count
 .bss           0x00000000400449f0       0x22 C:\Users\ajarr\AppData\Local\Temp\ccgZ79fC.o
                0x00000000400449f0                Diff_stop_srl_num
                0x00000000400449f4                Diff_start_srl_num
                0x00000000400449f8                DTTC_count
                0x00000000400449fc                head
                0x0000000040044a00                ATTC_count
                0x0000000040044a04                ATTC_exe_en
                0x0000000040044a08                ATTC_Master_en
                0x0000000040044a0c                Nodeptrempty_flag
                0x0000000040044a10                ComputedParity
                0x0000000040044a11                RcvdParity
 .bss           0x0000000040044a12        0x0 C:\Users\ajarr\AppData\Local\Temp\cccsHxM4.o
 .bss           0x0000000040044a12        0x0 C:\Users\ajarr\AppData\Local\Temp\cczKCchi.o
 .bss           0x0000000040044a12        0x0 C:\Users\ajarr\AppData\Local\Temp\ccySgCMJ.o
 *fill*         0x0000000040044a12        0x2 
 .bss           0x0000000040044a14        0x8 C:\Users\ajarr\AppData\Local\Temp\ccJGVwWh.o
                0x0000000040044a14                load_shedding_flag
                0x0000000040044a15                low_battery_voltage
                0x0000000040044a18                inter_HAL_EPS_Hardware_Status_count
 .bss           0x0000000040044a1c        0x4 C:\Users\ajarr\AppData\Local\Temp\ccwUhEmU.o
                0x0000000040044a1c                imu_count
 .bss           0x0000000040044a20        0x0 C:\Users\ajarr\AppData\Local\Temp\ccTGUrKF.o
 .bss           0x0000000040044a20        0xc C:\Users\ajarr\AppData\Local\Temp\ccW8NopI.o
                0x0000000040044a20                gpstest
                0x0000000040044a24                gps_ready_bit
                0x0000000040044a28                gps_count
 .bss           0x0000000040044a2c        0x0 C:\Users\ajarr\AppData\Local\Temp\ccQfD6IQ.o
 .bss           0x0000000040044a2c        0x4 C:\Users\ajarr\AppData\Local\Temp\ccegzvw7.o
                0x0000000040044a2c                MTR_Reset_Flag
 .bss           0x0000000040044a30        0xe C:\Users\ajarr\AppData\Local\Temp\ccW8vVNE.o
                0x0000000040044a3c                crc_test
 *fill*         0x0000000040044a3e        0x2 
 .bss           0x0000000040044a40       0x18 C:\Users\ajarr\AppData\Local\Temp\ccmmE1Hm.o
                0x0000000040044a40                SA2_status
                0x0000000040044a44                SA1_status
                0x0000000040044a48                TC_HAL_SA_Deploy
                0x0000000040044a4c                SA_Command_Type
                0x0000000040044a50                SA2_Deploy_cmd_rcvd_time
                0x0000000040044a54                SA1_Deploy_cmd_rcvd_time
 .bss           0x0000000040044a58        0x0 C:\Users\ajarr\AppData\Local\Temp\ccH43JHx.o
 .bss           0x0000000040044a58        0x0 C:\Users\ajarr\AppData\Local\Temp\cco0QbZ8.o
 .bss           0x0000000040044a58        0x0 C:\Users\ajarr\AppData\Local\Temp\cc5Z9OQN.o
 .bss           0x0000000040044a58        0x0 C:\Users\ajarr\AppData\Local\Temp\cchzLcEP.o
 .bss           0x0000000040044a58        0x0 C:\Users\ajarr\AppData\Local\Temp\ccDrgrG5.o
 .bss           0x0000000040044a58        0x0 C:\Users\ajarr\AppData\Local\Temp\ccpYH1o5.o
 .bss           0x0000000040044a58        0x0 C:\Users\ajarr\AppData\Local\Temp\cce8IkUa.o
 .bss           0x0000000040044a58       0x30 C:\Users\ajarr\AppData\Local\Temp\ccmHMWab.o
                0x0000000040044a58                tmin
                0x0000000040044a60                distsqrd
                0x0000000040044a68                adotb
                0x0000000040044a70                asqrd
                0x0000000040044a78                bsqrd
                0x0000000040044a80                tempse
 .bss           0x0000000040044a88        0x0 C:\Users\ajarr\AppData\Local\Temp\ccwpWlcN.o
 .bss           0x0000000040044a88        0x0 C:\Users\ajarr\AppData\Local\Temp\ccIOj7WD.o
 .bss           0x0000000040044a88        0x0 C:\Users\ajarr\AppData\Local\Temp\ccaOdSgz.o
 .bss           0x0000000040044a88        0x0 c:/opt/bcc-2.0.2-gcc/bin/../lib/gcc/sparc-gaisler-elf/7.2.0/../../../../sparc-gaisler-elf/lib/leon/mfix-at697f\libm.a(lib_a-s_atan.o)
 .bss           0x0000000040044a88        0x0 c:/opt/bcc-2.0.2-gcc/bin/../lib/gcc/sparc-gaisler-elf/7.2.0/../../../../sparc-gaisler-elf/lib/leon/mfix-at697f\libm.a(lib_a-s_cos.o)
 .bss           0x0000000040044a88        0x0 c:/opt/bcc-2.0.2-gcc/bin/../lib/gcc/sparc-gaisler-elf/7.2.0/../../../../sparc-gaisler-elf/lib/leon/mfix-at697f\libm.a(lib_a-s_fabs.o)
 .bss           0x0000000040044a88        0x0 c:/opt/bcc-2.0.2-gcc/bin/../lib/gcc/sparc-gaisler-elf/7.2.0/../../../../sparc-gaisler-elf/lib/leon/mfix-at697f\libm.a(lib_a-s_floor.o)
 .bss           0x0000000040044a88        0x0 c:/opt/bcc-2.0.2-gcc/bin/../lib/gcc/sparc-gaisler-elf/7.2.0/../../../../sparc-gaisler-elf/lib/leon/mfix-at697f\libm.a(lib_a-s_round.o)
 .bss           0x0000000040044a88        0x0 c:/opt/bcc-2.0.2-gcc/bin/../lib/gcc/sparc-gaisler-elf/7.2.0/../../../../sparc-gaisler-elf/lib/leon/mfix-at697f\libm.a(lib_a-s_sin.o)
 .bss           0x0000000040044a88        0x0 c:/opt/bcc-2.0.2-gcc/bin/../lib/gcc/sparc-gaisler-elf/7.2.0/../../../../sparc-gaisler-elf/lib/leon/mfix-at697f\libm.a(lib_a-s_tan.o)
 .bss           0x0000000040044a88        0x0 c:/opt/bcc-2.0.2-gcc/bin/../lib/gcc/sparc-gaisler-elf/7.2.0/../../../../sparc-gaisler-elf/lib/leon/mfix-at697f\libm.a(lib_a-w_acos.o)
 .bss           0x0000000040044a88        0x0 c:/opt/bcc-2.0.2-gcc/bin/../lib/gcc/sparc-gaisler-elf/7.2.0/../../../../sparc-gaisler-elf/lib/leon/mfix-at697f\libm.a(lib_a-w_asin.o)
 .bss           0x0000000040044a88        0x0 c:/opt/bcc-2.0.2-gcc/bin/../lib/gcc/sparc-gaisler-elf/7.2.0/../../../../sparc-gaisler-elf/lib/leon/mfix-at697f\libm.a(lib_a-w_atan2.o)
 .bss           0x0000000040044a88        0x0 c:/opt/bcc-2.0.2-gcc/bin/../lib/gcc/sparc-gaisler-elf/7.2.0/../../../../sparc-gaisler-elf/lib/leon/mfix-at697f\libm.a(lib_a-w_fmod.o)
 .bss           0x0000000040044a88        0x0 c:/opt/bcc-2.0.2-gcc/bin/../lib/gcc/sparc-gaisler-elf/7.2.0/../../../../sparc-gaisler-elf/lib/leon/mfix-at697f\libm.a(lib_a-w_pow.o)
 .bss           0x0000000040044a88        0x0 c:/opt/bcc-2.0.2-gcc/bin/../lib/gcc/sparc-gaisler-elf/7.2.0/../../../../sparc-gaisler-elf/lib/leon/mfix-at697f\libm.a(lib_a-w_sqrt.o)
 .bss           0x0000000040044a88        0x0 c:/opt/bcc-2.0.2-gcc/bin/../lib/gcc/sparc-gaisler-elf/7.2.0/../../../../sparc-gaisler-elf/lib/leon/mfix-at697f\libm.a(lib_a-e_acos.o)
 .bss           0x0000000040044a88        0x0 c:/opt/bcc-2.0.2-gcc/bin/../lib/gcc/sparc-gaisler-elf/7.2.0/../../../../sparc-gaisler-elf/lib/leon/mfix-at697f\libm.a(lib_a-e_asin.o)
 .bss           0x0000000040044a88        0x0 c:/opt/bcc-2.0.2-gcc/bin/../lib/gcc/sparc-gaisler-elf/7.2.0/../../../../sparc-gaisler-elf/lib/leon/mfix-at697f\libm.a(lib_a-e_atan2.o)
 .bss           0x0000000040044a88        0x0 c:/opt/bcc-2.0.2-gcc/bin/../lib/gcc/sparc-gaisler-elf/7.2.0/../../../../sparc-gaisler-elf/lib/leon/mfix-at697f\libm.a(lib_a-e_fmod.o)
 .bss           0x0000000040044a88        0x0 c:/opt/bcc-2.0.2-gcc/bin/../lib/gcc/sparc-gaisler-elf/7.2.0/../../../../sparc-gaisler-elf/lib/leon/mfix-at697f\libm.a(lib_a-e_pow.o)
 .bss           0x0000000040044a88        0x0 c:/opt/bcc-2.0.2-gcc/bin/../lib/gcc/sparc-gaisler-elf/7.2.0/../../../../sparc-gaisler-elf/lib/leon/mfix-at697f\libm.a(lib_a-e_rem_pio2.o)
 .bss           0x0000000040044a88        0x0 c:/opt/bcc-2.0.2-gcc/bin/../lib/gcc/sparc-gaisler-elf/7.2.0/../../../../sparc-gaisler-elf/lib/leon/mfix-at697f\libm.a(lib_a-e_sqrt.o)
 .bss           0x0000000040044a88        0x0 c:/opt/bcc-2.0.2-gcc/bin/../lib/gcc/sparc-gaisler-elf/7.2.0/../../../../sparc-gaisler-elf/lib/leon/mfix-at697f\libm.a(lib_a-k_cos.o)
 .bss           0x0000000040044a88        0x0 c:/opt/bcc-2.0.2-gcc/bin/../lib/gcc/sparc-gaisler-elf/7.2.0/../../../../sparc-gaisler-elf/lib/leon/mfix-at697f\libm.a(lib_a-k_rem_pio2.o)
 .bss           0x0000000040044a88        0x0 c:/opt/bcc-2.0.2-gcc/bin/../lib/gcc/sparc-gaisler-elf/7.2.0/../../../../sparc-gaisler-elf/lib/leon/mfix-at697f\libm.a(lib_a-k_sin.o)
 .bss           0x0000000040044a88        0x0 c:/opt/bcc-2.0.2-gcc/bin/../lib/gcc/sparc-gaisler-elf/7.2.0/../../../../sparc-gaisler-elf/lib/leon/mfix-at697f\libm.a(lib_a-k_tan.o)
 .bss           0x0000000040044a88        0x0 c:/opt/bcc-2.0.2-gcc/bin/../lib/gcc/sparc-gaisler-elf/7.2.0/../../../../sparc-gaisler-elf/lib/leon/mfix-at697f\libm.a(lib_a-s_finite.o)
 .bss           0x0000000040044a88        0x0 c:/opt/bcc-2.0.2-gcc/bin/../lib/gcc/sparc-gaisler-elf/7.2.0/../../../../sparc-gaisler-elf/lib/leon/mfix-at697f\libm.a(lib_a-s_lib_ver.o)
 .bss           0x0000000040044a88        0x0 c:/opt/bcc-2.0.2-gcc/bin/../lib/gcc/sparc-gaisler-elf/7.2.0/../../../../sparc-gaisler-elf/lib/leon/mfix-at697f\libm.a(lib_a-s_matherr.o)
 .bss           0x0000000040044a88        0x0 c:/opt/bcc-2.0.2-gcc/bin/../lib/gcc/sparc-gaisler-elf/7.2.0/../../../../sparc-gaisler-elf/lib/leon/mfix-at697f\libm.a(lib_a-s_nan.o)
 .bss           0x0000000040044a88        0x0 c:/opt/bcc-2.0.2-gcc/bin/../lib/gcc/sparc-gaisler-elf/7.2.0/../../../../sparc-gaisler-elf/lib/leon/mfix-at697f\libm.a(lib_a-s_rint.o)
 .bss           0x0000000040044a88        0x0 c:/opt/bcc-2.0.2-gcc/bin/../lib/gcc/sparc-gaisler-elf/7.2.0/../../../../sparc-gaisler-elf/lib/leon/mfix-at697f\libm.a(lib_a-s_scalbn.o)
 .bss           0x0000000040044a88        0x0 c:/opt/bcc-2.0.2-gcc/bin/../lib/gcc/sparc-gaisler-elf/7.2.0/../../../../sparc-gaisler-elf/lib/leon/mfix-at697f\libm.a(lib_a-s_copysign.o)
 .bss           0x0000000040044a88        0x0 c:/opt/bcc-2.0.2-gcc/bin/../sparc-gaisler-elf/bsp/leon2/leon/mfix-at697f\libbcc.a(reset_trap_mvt.S.o)
 .bss           0x0000000040044a88        0x0 c:/opt/bcc-2.0.2-gcc/bin/../sparc-gaisler-elf/bsp/leon2/leon/mfix-at697f\libbcc.a(window_trap.S.o)
 .bss           0x0000000040044a88        0x0 c:/opt/bcc-2.0.2-gcc/bin/../sparc-gaisler-elf/bsp/leon2/leon/mfix-at697f\libbcc.a(interrupt_trap.S.o)
 .bss           0x0000000040044a88       0x14 c:/opt/bcc-2.0.2-gcc/bin/../sparc-gaisler-elf/bsp/leon2/leon/mfix-at697f\libbcc.a(flush_windows_trap.S.o)
 .bss           0x0000000040044a9c        0x0 c:/opt/bcc-2.0.2-gcc/bin/../sparc-gaisler-elf/bsp/leon2/leon/mfix-at697f\libbcc.a(sw_trap_set_pil.S.o)
 .bss           0x0000000040044a9c        0x0 c:/opt/bcc-2.0.2-gcc/bin/../sparc-gaisler-elf/bsp/leon2/leon/mfix-at697f\libbcc.a(trap.c.o)
 .bss           0x0000000040044a9c        0x0 c:/opt/bcc-2.0.2-gcc/bin/../sparc-gaisler-elf/bsp/leon2/leon/mfix-at697f\libbcc.a(isr.c.o)
 .bss           0x0000000040044a9c        0x0 c:/opt/bcc-2.0.2-gcc/bin/../sparc-gaisler-elf/bsp/leon2/leon/mfix-at697f\libbcc.a(int_nest.c.o)
 .bss           0x0000000040044a9c        0x0 c:/opt/bcc-2.0.2-gcc/bin/../sparc-gaisler-elf/bsp/leon2/leon/mfix-at697f\libbcc.a(init.S.o)
 .bss           0x0000000040044a9c        0x0 c:/opt/bcc-2.0.2-gcc/bin/../sparc-gaisler-elf/bsp/leon2/leon/mfix-at697f\libbcc.a(leon_info.S.o)
 .bss           0x0000000040044a9c        0x0 c:/opt/bcc-2.0.2-gcc/bin/../sparc-gaisler-elf/bsp/leon2/leon/mfix-at697f\libbcc.a(dwzero.S.o)
 .bss           0x0000000040044a9c        0x0 c:/opt/bcc-2.0.2-gcc/bin/../sparc-gaisler-elf/bsp/leon2/leon/mfix-at697f\libbcc.a(copy_data.c.o)
 .bss           0x0000000040044a9c        0x0 c:/opt/bcc-2.0.2-gcc/bin/../sparc-gaisler-elf/bsp/leon2/leon/mfix-at697f\libbcc.a(lowlevel.S.o)
 .bss           0x0000000040044a9c        0x0 c:/opt/bcc-2.0.2-gcc/bin/../sparc-gaisler-elf/bsp/leon2/leon/mfix-at697f\libbcc.a(lowlevel_leon2.S.o)
 .bss           0x0000000040044a9c        0x0 c:/opt/bcc-2.0.2-gcc/bin/../sparc-gaisler-elf/bsp/leon2/leon/mfix-at697f\libbcc.a(int_leon2.c.o)
 .bss           0x0000000040044a9c        0x0 c:/opt/bcc-2.0.2-gcc/bin/../sparc-gaisler-elf/bsp/leon2/leon/mfix-at697f\libbcc.a(int_leon2_get_source.c.o)
 .bss           0x0000000040044a9c        0x0 c:/opt/bcc-2.0.2-gcc/bin/../sparc-gaisler-elf/bsp/leon2/leon/mfix-at697f\libbcc.a(int_leon2_init.c.o)
 .bss           0x0000000040044a9c        0x0 c:/opt/bcc-2.0.2-gcc/bin/../sparc-gaisler-elf/bsp/leon2/leon/mfix-at697f\libbcc.a(con_leon2.c.o)
 .bss           0x0000000040044a9c        0x0 c:/opt/bcc-2.0.2-gcc/bin/../sparc-gaisler-elf/bsp/leon2/leon/mfix-at697f\libbcc.a(timer_leon2.c.o)
 .bss           0x0000000040044a9c        0x0 c:/opt/bcc-2.0.2-gcc/bin/../sparc-gaisler-elf/bsp/leon2/leon/mfix-at697f\libbcc.a(set_pil.S.o)
 .bss           0x0000000040044a9c        0x0 c:/opt/bcc-2.0.2-gcc/bin/../sparc-gaisler-elf/bsp/leon2/leon/mfix-at697f\libbcc.a(int_leon2_handle.c.o)
 .bss           0x0000000040044a9c        0x0 c:/opt/bcc-2.0.2-gcc/bin/../sparc-gaisler-elf/bsp/leon2/leon/mfix-at697f\libbcc.a(con_handle.c.o)
 .bss           0x0000000040044a9c        0x0 c:/opt/bcc-2.0.2-gcc/bin/../sparc-gaisler-elf/bsp/leon2/leon/mfix-at697f\libbcc.a(timer_handle.c.o)
 .bss           0x0000000040044a9c        0x0 c:/opt/bcc-2.0.2-gcc/bin/../lib/gcc/sparc-gaisler-elf/7.2.0/../../../../sparc-gaisler-elf/lib/leon/mfix-at697f\libc.a(lib_a-atexit.o)
 .bss           0x0000000040044a9c        0x0 c:/opt/bcc-2.0.2-gcc/bin/../lib/gcc/sparc-gaisler-elf/7.2.0/../../../../sparc-gaisler-elf/lib/leon/mfix-at697f\libc.a(lib_a-errno.o)
 .bss           0x0000000040044a9c        0x0 c:/opt/bcc-2.0.2-gcc/bin/../lib/gcc/sparc-gaisler-elf/7.2.0/../../../../sparc-gaisler-elf/lib/leon/mfix-at697f\libc.a(lib_a-exit.o)
 .bss           0x0000000040044a9c        0x0 c:/opt/bcc-2.0.2-gcc/bin/../lib/gcc/sparc-gaisler-elf/7.2.0/../../../../sparc-gaisler-elf/lib/leon/mfix-at697f\libc.a(lib_a-impure.o)
 .bss           0x0000000040044a9c        0x0 c:/opt/bcc-2.0.2-gcc/bin/../lib/gcc/sparc-gaisler-elf/7.2.0/../../../../sparc-gaisler-elf/lib/leon/mfix-at697f\libc.a(lib_a-memcpy.o)
 .bss           0x0000000040044a9c       0x8c c:/opt/bcc-2.0.2-gcc/bin/../lib/gcc/sparc-gaisler-elf/7.2.0/../../../../sparc-gaisler-elf/lib/leon/mfix-at697f\libc.a(lib_a-__atexit.o)
 .bss           0x0000000040044b28        0x4 c:/opt/bcc-2.0.2-gcc/bin/../lib/gcc/sparc-gaisler-elf/7.2.0/../../../../sparc-gaisler-elf/lib/leon/mfix-at697f\libc.a(lib_a-__call_atexit.o)
                0x0000000040044b28                _global_atexit
 .bss           0x0000000040044b2c        0x0 c:/opt/bcc-2.0.2-gcc/bin/../sparc-gaisler-elf/bsp/leon2/leon/mfix-at697f\libbcc.a(_exit.S.o)
 .bss           0x0000000040044b2c        0x0 c:/opt/bcc-2.0.2-gcc/bin/../lib/gcc/sparc-gaisler-elf/7.2.0/leon/mfix-at697f/crtend.o
 .bss           0x0000000040044b2c        0x0 c:/opt/bcc-2.0.2-gcc/bin/../lib/gcc/sparc-gaisler-elf/7.2.0/leon/mfix-at697f/crtn.o
 *(COMMON)
 *fill*         0x0000000040044b2c        0x4 
 COMMON         0x0000000040044b30    0x6e707 C:\Users\ajarr\AppData\Local\Temp\cclcRNkm.o
                0x0000000040044b30                Out_Latch_1
                0x0000000040044b34                IO_Latch_Register_5_Data
                0x0000000040044b38                inter_HAL_TM_Write_Word_Count
                0x0000000040044b3c                TC_gain_select_u
                0x0000000040044b58                ST_TC_history_Buffer
                0x0000000040044c58                rt_tm_frame_finish
                0x0000000040044c5c                minor_cycle_counter_test
                0x0000000040044c60                eeprom_cur_addr
                0x0000000040044c64                Normal_st_table_page1
                0x0000000040044c68                count_tc_hist
                0x0000000040044c6c                MUX_1
                0x0000000040044c70                GPS1
                0x0000000040044cb0                Special_st_table_page3
                0x0000000040044cb4                Norm_ST_Table
                0x0000000040046cdc                eeprom_chksum
                0x0000000040046ce0                Pl_tm_data
                0x0000000040046de0                TM
                0x0000000040047699                SWHW_STATUS
                0x000000004004769e                ST_TCH_frame_count
                0x00000000400476a0                TCH_dump_finish
                0x00000000400476a4                Major_Cycle_Count
                0x00000000400476a8                inter_TM_Pl_Buffer
                0x00000000400476ac                inter_ST_TC_TM_Minor_Cycle_Count
                0x00000000400476b0                ST_normal
                0x00000000400477f8                TC_input_cmd
                0x0000000040047800                ST_end_read
                0x0000000040047804                ST_start_read
                0x0000000040047808                ADC_Buffer
                0x00000000400478c4                TC_ST_Table_Row_No
                0x00000000400478c8                IMU1_DATA
                0x00000000400478f8                ST_Out_Latch_3
                0x0000000040047900                Special_source
                0x0000000040047a00                IMU2_DATA
                0x0000000040047a30                Spacecraft_Mode
                0x0000000040047a34                eeprom_blk_end_addr
                0x0000000040047a38                ADCS_TC_data_command_Table
                0x0000000040047b20                GPIO_pins
                0x0000000040047b24                tor_counter
                0x0000000040047b28                Normal_source
                0x0000000040047c28                Dest_TC_final_end_addr
                0x0000000040047c2c                MUX_3
                0x0000000040047c2e                ST_NM_Buffer
                0x0000000040047d76                input_latch_2
                0x0000000040047d78                TCH_full_dump_finish
                0x0000000040047d80                TC_hist_data
                0x0000000040057780                Out_latch_4
                0x0000000040057784                inter_at697f_checksum
                0x0000000040057788                inter_TM_Byte_Count
                0x0000000040057790                TM_Buffer
                0x0000000040057890                ST_SP_Buffer
                0x0000000040057b34                TCH_read_ptr
                0x0000000040057b38                inter_TM_Source_Addr
                0x0000000040057b3c                nml_output_latch_data
                0x0000000040057b3f                TM_Table
                0x000000004005fbc7                SS_Redundant_DB
                0x000000004005fe4b                IMU1_Corr
                0x000000004005ff90                gain_set
                0x00000000400608f0                pl_data_command
                0x00000000400608fc                inter_TM_ST_TC_NS_Write_Source_Addr
                0x0000000040060900                ST_Out_Latch_2
                0x0000000040060904                inter_TM_Dest_Addr
                0x0000000040060908                Out_latch_6
                0x000000004006090a                heaters
                0x000000004006090c                chksum_arr
                0x000000004006092c                IO_Latch_Register_4_Data
                0x0000000040060930                storage_page_count
                0x0000000040060934                ST_output_latch
                0x0000000040060938                SS_Redundant_2Exe_DB
                0x0000000040060bbc                Out_latch_5
                0x0000000040060bc0                Storage
                0x000000004009f3c0                ST_special
                0x000000004009f661                GAIN_DATA_SET
                0x000000004009fb41                Out_Latch_2
                0x000000004009fb44                inter_TM_Status_Data
                0x000000004009fb46                MUX_4
                0x000000004009fb48                inter_TM_Main_Buffer_Empty
                0x000000004009fb4c                read_str_ptr
                0x000000004009fb50                ram_scrub_addr
                0x000000004009fb54                TC_str_ptr
                0x000000004009fb58                inter_TM_DP_Addr
                0x000000004009fb5c                TMTC_gain_select_u
                0x000000004009fb64                inter_at697_var
                0x000000004009fb68                TC_history_table
                0x00000000400a0378                ST_TC_header_Buffer
                0x00000000400a0384                Spec_ST_Table_Row_No
                0x00000000400a0388                IMU2_Corr
                0x00000000400a04cc                TC_data_command_Table
                0x00000000400a0538                bbbb
                0x00000000400a053c                Minor_Cycle_Count
                0x00000000400a0540                ee_blk_no
                0x00000000400a0542                ST_frame_count
                0x00000000400a0544                ST_Dest_Addr
                0x00000000400a0548                ss_main_db_checksum_obc
                0x00000000400a054c                ST_Out_latch_5
                0x00000000400a0550                TCH_read_full_ptr
                0x00000000400a0554                HILS_packet
                0x00000000400a0594                inter_at697f_count
                0x00000000400a0598                TMTC_boolean_u
                0x00000000400a05a0                ST_TC_history_final_Buffer
                0x00000000400affa0                TM_IMU2
                0x00000000400affb8                ss_redundant_db_checksum_obc
                0x00000000400affbc                Norm_ST_Table_Row_No
                0x00000000400affc0                Normal_st_table_page3
                0x00000000400affc4                Special_st_table_page2
                0x00000000400affc8                aaaa
                0x00000000400affcc                eeprom_flag
                0x00000000400affd0                addr_pointer_TM
                0x00000000400affd4                Spec_ST_Table
                0x00000000400b1ffc                Buffer
                0x00000000400b28b5                Out_Latch_3
                0x00000000400b28b7                SS_Main_DB
                0x00000000400b2b3c                Dest_end_addr
                0x00000000400b2b40                IMU_1_DB
                0x00000000400b2c84                GPS2
                0x00000000400b2cc4                IO_In_Latch_Register_4_Data
                0x00000000400b2cc8                IO_Latch_Register_3_Data
                0x00000000400b2ccc                TM_IMU1
                0x00000000400b2ce4                FDI_NMI_Count
                0x00000000400b2ce8                Normal_st_table_page2
                0x00000000400b2cec                MUX_2
                0x00000000400b2cf0                write_str_ptr
                0x00000000400b2cf4                TC_boolean_u
                0x00000000400b2d38                ST_source_Buffer
                0x00000000400b2e38                TM_page_count
                0x00000000400b2e3c                heaters_manual
                0x00000000400b2e40                Remote_data_addr
                0x00000000400b2e44                bbb
                0x00000000400b2e48                Special_st_table_page1
                0x00000000400b2e4c                NMI_fail_count
                0x00000000400b2e50                inter_TM_real_Minor_Cycle_Count
                0x00000000400b2e54                inter_ST_TM_Minor_Cycle_Count
                0x00000000400b2e58                inter_TM_Minor_Cycle_Count
                0x00000000400b2e5c                input_latch_1
                0x00000000400b2e5e                IMU_2_DB
                0x00000000400b2fa4                TM_Table_Row_No
                0x00000000400b2fa8                TCH_cpy_ptr
                0x00000000400b2fac                IO_Latch_Register_2_Data
                0x00000000400b2fb0                ccc
                0x00000000400b2fb2                TCH_start_buffer_ready
                0x00000000400b2fb3                SS_Main_2Exe_DB
 *fill*         0x00000000400b3237        0x1 
 COMMON         0x00000000400b3238    0x169ec C:\Users\ajarr\AppData\Local\Temp\ccXi6CuD.o
                0x00000000400b3238                MUX_data2
                0x00000000400b323c                BlkCurrent_Cmd
                0x00000000400b3240                TC_count
                0x00000000400b3242                Nodearray
                0x00000000400b6124                TC_TLE_data
                0x00000000400b6168                new_data
                0x00000000400b6170                abc
                0x00000000400b6178                TC_exe
                0x00000000400b6180                block_test_array
                0x00000000400b6310                MUX_data3
                0x00000000400b6314                temp
                0x00000000400b6318                TC_storing_buffer
                0x00000000400b6718                TC_cmd_executed
                0x00000000400b671a                test_data_3
                0x00000000400b671c                MUX_data1
                0x00000000400b6720                TC_hist_read_ptr
                0x00000000400b6724                u_DTTC
                0x00000000400b672c                u_TC
                0x00000000400b6734                Remote_Addr
                0x00000000400b6738                new_node
                0x00000000400b6740                Block_array
                0x00000000400c6740                DTTCarray
                0x00000000400c8680                TC_Status_Data
                0x00000000400c8684                MUX_data4
                0x00000000400c8688                TC_authentic_pulse_rcvd
                0x00000000400c868c                TC_DATA
                0x00000000400c8694                RW_number
                0x00000000400c8698                ram_scrub_cnt
                0x00000000400c869c                Remote_minotoring_addr
                0x00000000400c86a0                Top_index
                0x00000000400c86a4                prev
                0x00000000400c86a8                Block_Index
                0x00000000400c87a8                Nodeptr
                0x00000000400c9748                TC_buffer_count
                0x00000000400c9bf8                Absolutetime
                0x00000000400c9bfc                commandptr
                0x00000000400c9c00                TC_flag
                0x00000000400c9c04                TC_Buffer_Addr
                0x00000000400c9c08                flag_mni
                0x00000000400c9c0c                TC_command_pending
                0x00000000400c9c10                TC_hist_write_ptr
                0x00000000400c9c14                Remote_data
                0x00000000400c9c18                Telecommand_ptr
                0x00000000400c9c1c                TC_Rcvd
                0x00000000400c9c20                TC_cmd_executed_count
 COMMON         0x00000000400c9c24       0x28 C:\Users\ajarr\AppData\Local\Temp\cck0ztpe.o
                0x00000000400c9c24                sampling_rate_count
                0x00000000400c9c28                cp_cnt1
                0x00000000400c9c2c                TC_OBT_Start
                0x00000000400c9c30                flag_for_test
                0x00000000400c9c34                count_plus
                0x00000000400c9c38                normal_count1
                0x00000000400c9c3c                copy_frame_count
                0x00000000400c9c40                cp_cnt
                0x00000000400c9c44                real_storage
                0x00000000400c9c48                real_tm_finish
 *fill*         0x00000000400c9c4c        0x4 
 COMMON         0x00000000400c9c50      0x8e0 C:\Users\ajarr\AppData\Local\Temp\ccgZ79fC.o
                0x00000000400c9c50                inter_HAL_IMU_Data
                0x00000000400c9c54                sun_quadrant
                0x00000000400c9c58                B_rawdata
                0x00000000400c9c64                IMU_On
                0x00000000400c9c68                TC_ptr_count
                0x00000000400c9c6c                BDOT_Counter
                0x00000000400c9c70                Roll_pos_D
                0x00000000400c9c78                az1
                0x00000000400c9c80                inter_HAL_IMU_Configure_Address
                0x00000000400c9c84                block_test
                0x00000000400c9c88                tos
                0x00000000400c9c90                gyrodet_B
                0x00000000400c9ca8                SS_prcd_data_ptr
                0x00000000400c9cb0                SB_RED
                0x00000000400c9cc8                inter_sunsensor_i
                0x00000000400c9cd0                SC6ImaxF
                0x00000000400c9cd8                GYRO_Counter
                0x00000000400c9ce0                B_LPF
                0x00000000400c9cf8                SC5
                0x00000000400c9d00                inter_imu_i
                0x00000000400c9d08                B_RPY
                0x00000000400c9d20                SC5ImaxF
                0x00000000400c9d28                test_3
                0x00000000400c9d30                TC_SS_Main_Cells_Sel
                0x00000000400c9d34                Sunlit_presence_timer
                0x00000000400c9d38                S_BODY
                0x00000000400c9d50                AngDev_SAMtransit_thrsld
                0x00000000400c9d58                inter_HAL_IMU_Control_Data
                0x00000000400c9d60                Roll_neg_D
                0x00000000400c9d68                temp12
                0x00000000400c9d70                Panel_Deployment
                0x00000000400c9d78                w_ABC
                0x00000000400c9d90                test_attc
                0x00000000400c9d98                B_IMU
                0x00000000400c9db0                ab_test1
                0x00000000400c9db8                sun_sf
                0x00000000400c9dd0                AngDev_SMtransit_thrsld
                0x00000000400c9dd8                w_RPY
                0x00000000400c9df0                Ang_Deviation
                0x00000000400c9df8                inter_HAL_IMU_Status_Data_2
                0x00000000400c9e00                B_BODY_IMU2
                0x00000000400c9e18                tempat
                0x00000000400c9e20                Roll_neg_ND
                0x00000000400c9e28                SunNPP_SAMtransit
                0x00000000400c9e2c                BLK_opn
                0x00000000400c9e30                B_BODYn
                0x00000000400c9e48                SB_MAIN
                0x00000000400c9e60                SC7
                0x00000000400c9e68                SC2
                0x00000000400c9e70                B_BODY
                0x00000000400c9e88                Thta_BODY_IMU2
                0x00000000400c9ea0                w_AMSC
                0x00000000400c9eb8                Yaw_ang_err
                0x00000000400c9ec0                B_BODY_IMU1
                0x00000000400c9ed8                Yaw_neg
                0x00000000400c9ee0                SC1
                0x00000000400c9ee8                comb1
                0x00000000400c9ef0                B_BODYtesla
                0x00000000400c9f08                gyrodet_w
                0x00000000400c9f20                SunNPP_SMtransit
                0x00000000400c9f28                Thta_rawdata
                0x00000000400c9f40                SC8
                0x00000000400c9f48                w_BODYdeg
                0x00000000400c9f60                ele2
                0x00000000400c9f68                B_BiasCor
                0x00000000400c9f80                SC1ImaxF
                0x00000000400c9f88                IMU_Sen2Bdy
                0x00000000400c9fd0                j_MatEq
                0x00000000400c9fd8                w_LPF
                0x00000000400c9ff0                SC3ImaxF
                0x00000000400c9ff8                DTTCtime_reference
                0x00000000400ca000                B_AMSC
                0x00000000400ca018                IMU_Diag_Done
                0x00000000400ca01c                i_MatEq
                0x00000000400ca020                w_BiasCor
                0x00000000400ca038                SunNPP_SAMtransit_counter
                0x00000000400ca040                Bpresent
                0x00000000400ca058                tc_ecv_test
                0x00000000400ca1e8                temp11
                0x00000000400ca1f0                block_test2
                0x00000000400ca1f4                f_Sunlit_Presence
                0x00000000400ca1f8                inter_HAL_IMU_Locations
                0x00000000400ca1fc                block_test1
                0x00000000400ca200                Bprev
                0x00000000400ca218                inter_sunsensor_j
                0x00000000400ca220                SC4ImaxF
                0x00000000400ca228                SunNPP_SAMtransit_count_limit
                0x00000000400ca230                Roll_pos_ND
                0x00000000400ca238                tempdata2
                0x00000000400ca23c                tc_cnt_test
                0x00000000400ca240                BDOT
                0x00000000400ca258                inter_HAL_IMU_Buffer_Addr
                0x00000000400ca260                B_ASC
                0x00000000400ca278                SC3
                0x00000000400ca280                SS_prcd_data
                0x00000000400ca298                ab_test
                0x00000000400ca2a0                ele1
                0x00000000400ca2a8                SC6
                0x00000000400ca2b0                block_test3
                0x00000000400ca2b8                DelThta_rawdata
                0x00000000400ca2d0                temp_data_rw
                0x00000000400ca2d8                w_BODYnorm
                0x00000000400ca2e0                BLK_number
                0x00000000400ca2e8                Pitch_pos
                0x00000000400ca2f0                Thta_BODY_IMU1
                0x00000000400ca308                SS_Data
                0x00000000400ca388                SC2ImaxF
                0x00000000400ca390                comb2
                0x00000000400ca398                imu2_db_checksum_obc
                0x00000000400ca39c                IMU_Config_Done
                0x00000000400ca3a0                imu1_db_checksum_obc
                0x00000000400ca3a4                IMU_Data_Available
                0x00000000400ca3a8                w_BODY_IMU1
                0x00000000400ca3c0                B_ABC
                0x00000000400ca3d8                SunNPP_SMtransit_counter
                0x00000000400ca3dc                inter_HAL_IMU_Status_Data
                0x00000000400ca3e0                ss2b
                0x00000000400ca428                Bsq
                0x00000000400ca430                IMU_prcd_data_ptr
                0x00000000400ca434                IMU_1
                0x00000000400ca448                Yaw_pos
                0x00000000400ca450                inter_imu_j
                0x00000000400ca458                w_ASC
                0x00000000400ca470                Det_BDOT_MC_Count
                0x00000000400ca474                inter_HAL_IMU_Addr_Count
                0x00000000400ca478                Roll_ang_err
                0x00000000400ca480                S_BODYn
                0x00000000400ca498                IMU_prcd_data
                0x00000000400ca4c8                i_tc_test
                0x00000000400ca4cc                rw_data
                0x00000000400ca4d0                w_BODY
                0x00000000400ca4e8                SunNPP_SMtransit_count_limit
                0x00000000400ca4ec                tempdata1
                0x00000000400ca4f0                Pitch_neg
                0x00000000400ca4f8                IMU_2
                0x00000000400ca508                w_BODY_IMU2
                0x00000000400ca520                atp
                0x00000000400ca528                SC4
 COMMON         0x00000000400ca530       0xb8 C:\Users\ajarr\AppData\Local\Temp\ccySgCMJ.o
                0x00000000400ca530                PL_Exe_Flag
                0x00000000400ca534                hils_ptr_sh
                0x00000000400ca538                pl_configure_data
                0x00000000400ca53c                PL_TM_write_Flag
                0x00000000400ca540                Hils_ptr
                0x00000000400ca544                PL_2_on_off_flag
                0x00000000400ca548                pl_cmd_id
                0x00000000400ca54c                pl_data_rcvd
                0x00000000400ca550                pl_command_data
                0x00000000400ca554                PL_TM_Status_flag
                0x00000000400ca558                length
                0x00000000400ca55c                rHAL_pl_sts_check_mj_flag
                0x00000000400ca560                pl_x_tx_data_on_flag
                0x00000000400ca564                pl_buffer_len
                0x00000000400ca568                PL_TX_TM_2_EN
                0x00000000400ca56c                TC_command
                0x00000000400ca570                inter_PL_TM_Source_Addr
                0x00000000400ca574                pl_buffer_addr
                0x00000000400ca578                pl_test10
                0x00000000400ca57c                pl_tx_tm_flag
                0x00000000400ca580                PL_1_on_off_flag
                0x00000000400ca584                Enable_PL_TM_flag
                0x00000000400ca588                pl_mode
                0x00000000400ca58a                pl_data_rx
                0x00000000400ca59c                pl_config_addr_ptr
                0x00000000400ca5a0                pl_ack_count
                0x00000000400ca5a2                temp_data_1
                0x00000000400ca5a4                PL_on_off_sts_flag
                0x00000000400ca5a8                pl_test12
                0x00000000400ca5ac                pl_HLT_en
                0x00000000400ca5b0                data
                0x00000000400ca5b4                pl_x_tx_data_off_flag
                0x00000000400ca5b8                pl_hlt_flag
                0x00000000400ca5bc                pl_acq_flag
                0x00000000400ca5c0                pl_diag_flag
                0x00000000400ca5c4                PL_ACK
                0x00000000400ca5c8                data_nc
                0x00000000400ca5cc                pl_sts_chk_flag
                0x00000000400ca5d0                pl_i
                0x00000000400ca5d4                data_x_tx
                0x00000000400ca5d8                inter_PL_TM_Dest_Addr
                0x00000000400ca5dc                temp_data_2
                0x00000000400ca5e0                tm_ds_en_flag
                0x00000000400ca5e4                pl_tm_ptr
 COMMON         0x00000000400ca5e8        0x8 C:\Users\ajarr\AppData\Local\Temp\ccwUhEmU.o
                0x00000000400ca5e8                imu_data_ready_count_1
                0x00000000400ca5ec                imu_data_ready_count
 COMMON         0x00000000400ca5f0       0x8c C:\Users\ajarr\AppData\Local\Temp\ccTGUrKF.o
                0x00000000400ca5f0                agc_test
                0x00000000400ca5f4                ADC_Buffer_Addr
                0x00000000400ca5f8                ADC_Status_Data
                0x00000000400ca600                ss_data_2
                0x00000000400ca610                thermistor_15
                0x00000000400ca614                inter_Update_TM_With_ADC_byte_offset
                0x00000000400ca618                SA_thermistor1
                0x00000000400ca61c                battery_temp_2
                0x00000000400ca620                SA_thermistor2
                0x00000000400ca624                thermistor_lsb
                0x00000000400ca63c                test_agc
                0x00000000400ca640                ADC_Locations
                0x00000000400ca644                agc_test1
                0x00000000400ca646                test_thermistor_1
                0x00000000400ca648                inter_HAL_ADC_Data_Ready
                0x00000000400ca64c                battery_temp_1
                0x00000000400ca650                ss_data
                0x00000000400ca670                inter_Update_TM_With_ADC_offset
                0x00000000400ca674                ADC_Addr_Count
                0x00000000400ca678                ADC_Data
 COMMON         0x00000000400ca67c      0x5cc C:\Users\ajarr\AppData\Local\Temp\ccW8NopI.o
                0x00000000400ca67c                GPS_Status_Data
                0x00000000400ca680                GPS_OBT_Read_2
                0x00000000400ca684                gpstestbuff
                0x00000000400ca6c8                GPS_Config_ptr
                0x00000000400ca6cc                gps_test_counter
                0x00000000400ca6d0                GPS_msg_header_MSB
                0x00000000400ca6d4                GPS_Config_Status
                0x00000000400ca6d8                GPS_Config_Msg
                0x00000000400ca6e4                gps_pulse_mic_cnt
                0x00000000400ca6e8                gps_data_length
                0x00000000400ca6ec                GPS_OBT_Read_1
                0x00000000400ca6f0                GPS_Buffer_Data
                0x00000000400ca898                test_gps_conf4
                0x00000000400ca89c                GPS_Buffer_Addr
                0x00000000400ca8a0                gps_data_test
                0x00000000400caa48                GPS_msg_header
                0x00000000400caa4c                test_gps_conf6
                0x00000000400caa50                test_gps_conf1
                0x00000000400caa54                GPS_Data_Read_Status
                0x00000000400caa58                gps_obt_count_prev
                0x00000000400caa5c                GPS_obc_checkum
                0x00000000400caa60                GPS_pulse_rcvd
                0x00000000400caa64                GPS2_ptr
                0x00000000400caa68                GPS1_ptr
                0x00000000400caa6c                GPS_Status2_Msg
                0x00000000400caa70                GPS_Data
                0x00000000400caa74                GPS_RCVD_DATA
                0x00000000400cac1c                gps_obt_counter
                0x00000000400cac20                GPS_TM_Buffer_Addr_USC
                0x00000000400cac24                test_gps_conf5
                0x00000000400cac28                GPS_msg_header_LSB
                0x00000000400cac2c                GPS_Addr_Count
                0x00000000400cac30                GPS_OBT_Latch_enable
                0x00000000400cac34                test_gps_conf2
                0x00000000400cac38                f_GPS_Valid_Data
                0x00000000400cac3c                test_gps_conf3
                0x00000000400cac40                GPS_Locations
                0x00000000400cac44                i_GPS_B_Count
 COMMON         0x00000000400cac48       0x96 C:\Users\ajarr\AppData\Local\Temp\ccQfD6IQ.o
                0x00000000400cac48                heater_update_buffer
                0x00000000400cac88                IMU_temperature
                0x00000000400cac8c                heater_manual_tc
                0x00000000400cac90                ltp12
                0x00000000400cac94                Manual_flag
                0x00000000400cac98                Thermistor_Selection
                0x00000000400cacd0                manual_on_off
                0x00000000400cacd4                LTP_data
                0x00000000400cacd8                heaters_auto
                0x00000000400cacdc                UTP_data
 *fill*         0x00000000400cacde        0x2 
 COMMON         0x00000000400cace0       0x14 C:\Users\ajarr\AppData\Local\Temp\ccegzvw7.o
                0x00000000400cace0                Roll_Pol
                0x00000000400cace4                MTR_Polarity
                0x00000000400cace8                MTR_Axis
                0x00000000400cacec                Pitch_Pol
                0x00000000400cacf0                Yaw_Pol
 *fill*         0x00000000400cacf4        0x4 
 COMMON         0x00000000400cacf8      0x960 C:\Users\ajarr\AppData\Local\Temp\ccW8vVNE.o
                0x00000000400cacf8                rw_count_test
                0x00000000400cad00                RW_Data_SlipFrame_TC
                0x00000000400cad18                RW_Data_SlipFrame_Init
                0x00000000400cad2c                RW_TM_ptr
                0x00000000400cad30                NOB_SFC_Init
                0x00000000400cad34                rw_init
                0x00000000400cad40                TC_ptr
                0x00000000400cad44                rw_tc_count
                0x00000000400cad48                rw_test_array
                0x00000000400caf48                temp_short
                0x00000000400caf4c                NOB_CRC_Init
                0x00000000400caf50                RW_TMC
                0x00000000400caf58                NOB_SFC_TC
                0x00000000400caf5c                RW_3
                0x00000000400caf6c                RW_2
                0x00000000400caf7c                aa
                0x00000000400caf80                RW_Data_SlipFrame_TMC
                0x00000000400caf94                rw_tmtc_count
                0x00000000400caf98                Init_data_ptr
                0x00000000400caf9c                RW_TM_ptr_init
                0x00000000400cafa0                TMC_data_ptr
                0x00000000400cafa4                TC_data_ptr
                0x00000000400cafa8                NOB_CRC_TC
                0x00000000400cafac                rw_tc_count_test
                0x00000000400cafb0                Init_ptr
                0x00000000400cafb4                RW_Wheel_Speed
                0x00000000400cafc4                RW_TC
                0x00000000400cafd4                RW_Buffer_u_rx
                0x00000000400cb1d4                RW_Write_ptr
                0x00000000400cb1d8                RW_TM_Raw_Data_ptr
                0x00000000400cb1dc                RW_4
                0x00000000400cb1ec                inter_HAL_RW_Status_Register
                0x00000000400cb1f0                rw_tm_count
                0x00000000400cb1f8                RW_Write_Data
                0x00000000400cb20c                RW_TM
                0x00000000400cb40c                inter_HAL_RW_Read_Addr
                0x00000000400cb410                TMC_ptr
                0x00000000400cb414                dak
                0x00000000400cb418                inter_HAL_RW_Read_Limit
                0x00000000400cb41c                RW_Buffer_u
                0x00000000400cb61c                RW_Measured
                0x00000000400cb62c                NOB_CRC_TMC
                0x00000000400cb630                NOB_SFC_TMC
                0x00000000400cb634                RWS
                0x00000000400cb644                USIF_u
                0x00000000400cb648                RW_1
 COMMON         0x00000000400cb658       0x10 C:\Users\ajarr\AppData\Local\Temp\ccmmE1Hm.o
                0x00000000400cb658                TC_HAL_SA_Heater_Timer
                0x00000000400cb65c                Antenna_ACK
                0x00000000400cb65e                sa_data
                0x00000000400cb660                sa_test
                0x00000000400cb664                inter_HAL_Antenna_Addr
 COMMON         0x00000000400cb668        0x4 C:\Users\ajarr\AppData\Local\Temp\ccDrgrG5.o
                0x00000000400cb668                qerror
 *fill*         0x00000000400cb66c        0x4 
 COMMON         0x00000000400cb670     0x7c84 C:\Users\ajarr\AppData\Local\Temp\ccmHMWab.o
                0x00000000400cb670                inclo
                0x00000000400cb678                rk_Qk
                0x00000000400cb900                DPM_Polarity
                0x00000000400cb910                rl
                0x00000000400cb918                CB_Q_propagation
                0x00000000400cb920                TC_lat_station
                0x00000000400cb928                BDOT_Reduction_Count
                0x00000000400cb930                vz
                0x00000000400cb938                i_jday
                0x00000000400cb940                Rho
                0x00000000400cb948                OrbitModel_Start
                0x00000000400cb950                delmo
                0x00000000400cb958                d_DAD
                0x00000000400cb960                q_prop_out
                0x00000000400cb980                ActWhMom
                0x00000000400cb9a0                JDTDT
                0x00000000400cb9a8                Z_EPO2ECI
                0x00000000400cb9c0                DeltaT_Updated
                0x00000000400cb9c4                J_MAGAD
                0x00000000400cb9c8                TC_wh_speed_thres
                0x00000000400cb9d0                trueanomoly_GPS
                0x00000000400cb9d8                latitude_temp
                0x00000000400cb9e0                wcreci
                0x00000000400cb9f8                xlm
                0x00000000400cba00                Qk_temp4
                0x00000000400cba08                tut
                0x00000000400cba10                del
                0x00000000400cba18                epochdays_sel
                0x00000000400cba20                Orbit_Period_Comp
                0x00000000400cba28                t3
                0x00000000400cba30                HB
                0x00000000400cba48                Tdes
                0x00000000400cba60                wkm
                0x00000000400cba68                func_prev_DAD
                0x00000000400cba70                pk_plus
                0x00000000400cbcf8                PosR_Deployed
                0x00000000400cbd00                one_by_2
                0x00000000400cbd08                nodedf
                0x00000000400cbd10                BNorth
                0x00000000400cbd18                NRB_sunmag
                0x00000000400cbdd8                Del_Q
                0x00000000400cbdf8                longitude_tan_den
                0x00000000400cbe00                pow_psisq
                0x00000000400cbe08                wcrecef
                0x00000000400cbe20                argpdf
                0x00000000400cbe28                rvdot
                0x00000000400cbe30                q_by_two
                0x00000000400cbe90                SS_M8
                0x00000000400cbe98                TC_StationTracking
                0x00000000400cbea0                mag_noise
                0x00000000400cbea8                Y_SVO2ECI
                0x00000000400cbec0                cc2
                0x00000000400cbec8                TC_delAT
                0x00000000400cbed0                mat_sm_DataCounter
                0x00000000400cbed8                delomg
                0x00000000400cbee0                root_DAD
                0x00000000400cbee8                func_DAD
                0x00000000400cbef0                cosi
                0x00000000400cbef8                xhdot1
                0x00000000400cbf00                ibexp_TLE_tc
                0x00000000400cbf08                omgcof
                0x00000000400cbf10                phi_11_temp4
                0x00000000400cbf58                w_REF
                0x00000000400cbf70                tempe
                0x00000000400cbf78                mu_m
                0x00000000400cbf90                el2
                0x00000000400cbf98                Q_angle
                0x00000000400cbfa0                a_DAD
                0x00000000400cbfa8                Orbit_Period
                0x00000000400cbfb0                hk_xk_minus
                0x00000000400cbfc8                nutation
                0x00000000400cc010                bstar_sel
                0x00000000400cc018                Y_SFDO2ECI
                0x00000000400cc030                TC_max_whspeed
                0x00000000400cc038                Zt_DAD
                0x00000000400cc050                sine_of_Wk1_Delta
                0x00000000400cc058                delmo_temp
                0x00000000400cc060                temp_or_init
                0x00000000400cc068                vsatx_eci
                0x00000000400cc070                TTDT
                0x00000000400cc078                mm
                0x00000000400cc080                ecc_temp1
                0x00000000400cc088                bstar_tc
                0x00000000400cc090                intermediate
                0x00000000400cc098                gN_MAGAD
                0x00000000400cc09c                Delta_TLE
                0x00000000400cc0a0                rtom
                0x00000000400cc0a8                sinu
                0x00000000400cc0b0                CB_OrbitModel
                0x00000000400cc0b4                j
                0x00000000400cc0b8                Ry
                0x00000000400cc100                ch_obs_whsp
                0x00000000400cc120                k_kf
                0x00000000400cc128                u_perp
                0x00000000400cc140                Ton
                0x00000000400cc150                determinant
                0x00000000400cc158                Pitch_MTREnable
                0x00000000400cc15c                SunAcq3ThreeAx_trsit_cnt
                0x00000000400cc160                TTDB2
                0x00000000400cc168                eccsq
                0x00000000400cc170                eccanomaly
                0x00000000400cc178                spin_up_avg_count
                0x00000000400cc17c                TC_GPS2TLE_Switch
                0x00000000400cc180                ecc_GPS
                0x00000000400cc188                radialdistance
                0x00000000400cc190                BNorth_old
                0x00000000400cc198                uy
                0x00000000400cc1a0                DFCcountHigh
                0x00000000400cc1a4                hr_TLE_tc
                0x00000000400cc1a8                eSpaceCraftMode
                0x00000000400cc1b0                q_magad
                0x00000000400cc500                aynl
                0x00000000400cc508                perigee
                0x00000000400cc510                K_DAD
                0x00000000400cc518                Day_Of_Year_DeltaT
                0x00000000400cc520                Del_R_theta
                0x00000000400cc528                Z_SVO2ECI
                0x00000000400cc540                UT1
                0x00000000400cc548                nut_temp
                0x00000000400cc590                ActuationCycle
                0x00000000400cc598                T_RWBn
                0x00000000400cc5b0                Roll_MTR_Pol_Reversal
                0x00000000400cc5b8                trueanomoly
                0x00000000400cc5c0                temp2
                0x00000000400cc5c8                TC_TLE_Elements_select
                0x00000000400cc5cc                TLE_Select
                0x00000000400cc5d0                cos_and_sin
                0x00000000400cc650                SunAcq2DetMode_counter
                0x00000000400cc658                TC_min_whspeed
                0x00000000400cc660                f
                0x00000000400cc688                TC_MDk
                0x00000000400cc690                Vel_ECIn
                0x00000000400cc6a8                UTC_mon_GPS
                0x00000000400cc6b0                B2wh_mat
                0x00000000400cc710                Delta_by2
                0x00000000400cc718                Q_EPO2ECI
                0x00000000400cc738                old_cos
                0x00000000400cc740                Not_Deployed
                0x00000000400cc748                eccanomaly_GPS
                0x00000000400cc750                angmomentumvec
                0x00000000400cc768                out_Quat_norm
                0x00000000400cc788                cc5
                0x00000000400cc790                gast
                0x00000000400cc798                temp_magad
                0x00000000400cc7a0                nut_sid_temp
                0x00000000400cc7e8                sec_sel
                0x00000000400cc7f0                K_MAGAD
                0x00000000400cc7f8                B_REF
                0x00000000400cc810                omecc
                0x00000000400cc818                del_v0a
                0x00000000400cc820                argofperigee
                0x00000000400cc828                phi_k_T
                0x00000000400ccab0                argpo_tc
                0x00000000400ccab8                eSafeMode
                0x00000000400ccac0                Alti_GPS
                0x00000000400ccac8                TC_wAD_BODYmaxThYaw
                0x00000000400ccad0                T_RWB
                0x00000000400ccae8                s_magad
                0x00000000400ccaf0                Toff
                0x00000000400ccb00                rdotrst
                0x00000000400ccb08                B_NED
                0x00000000400ccb20                alpha_2RW
                0x00000000400ccb28                temp1_or_init
                0x00000000400ccb30                prev_obs_whsp_ch
                0x00000000400ccb50                Wk1_one
                0x00000000400ccb98                d1
                0x00000000400ccba0                coskp
                0x00000000400ccba8                TDB
                0x00000000400ccbb0                SunAcquisition2ThreeAxis_autotransit
                0x00000000400ccbb8                Zt_Ssqr_Z_DAD
                0x00000000400ccbc0                f_DataSort_SUNMAG
                0x00000000400ccbc8                sine1
                0x00000000400ccbd0                wheel_spin_logic
                0x00000000400ccbd8                con42
                0x00000000400ccbe0                Epochyear_GPS
                0x00000000400ccbe4                CB_DutyCycleGeneration
                0x00000000400ccbe8                inclination_GPS
                0x00000000400ccbf0                Matout341
                0x00000000400ccc08                wh2B_mat
                0x00000000400ccc68                xmy
                0x00000000400ccc70                uuu
                0x00000000400ccc78                TAI
                0x00000000400ccc80                NMB_sunmag
                0x00000000400ccd40                nodeo_GPS
                0x00000000400ccd48                TC_GPSvalidity_Threshold
                0x00000000400ccd4c                CB_Torquer_Polarity_Check
                0x00000000400ccd50                x7thm1
                0x00000000400ccd58                ak
                0x00000000400ccd60                ecc_TLE_tc
                0x00000000400ccd68                Tv_wof
                0x00000000400ccdb0                CB_AngularMomentumDumping
                0x00000000400ccdb8                LossWhMomFilt
                0x00000000400ccdd8                v0_rad_sec
                0x00000000400ccdf8                TC_RW_ARC_Count_thres
                0x00000000400cce00                del_temp
                0x00000000400cce08                f_Sunlit_Presence_OBC
                0x00000000400cce10                g
                0x00000000400cd590                TC_eesqrd
                0x00000000400cd598                eeta
                0x00000000400cd5a0                xnode
                0x00000000400cd5a8                B_Rho
                0x00000000400cd5b0                rdotl
                0x00000000400cd5b8                QRD_vect_norm
                0x00000000400cd5c0                Z_DAD
                0x00000000400cd5d8                semimajoraxis
                0x00000000400cd5e0                gmm
                0x00000000400cd5e8                S_REFn
                0x00000000400cd600                mat_adj
                0x00000000400cd648                TorquerPolaritySetFlag
                0x00000000400cd64c                CB_RefRate_Computation
                0x00000000400cd650                GPS_Elements_Available
                0x00000000400cd658                NRBt_mag
                0x00000000400cd898                Kk_Hk
                0x00000000400cdb20                X_EPO2ECI
                0x00000000400cdb38                cosim
                0x00000000400cdb40                CB_SpeedBasedMomentumDumping
                0x00000000400cdb48                mo_tc
                0x00000000400cdb50                i_comr
                0x00000000400cdb54                hr_sel
                0x00000000400cdb58                inclm
                0x00000000400cdb60                TC_BDOT_Compute_Count
                0x00000000400cdb68                mod_of_Wk1
                0x00000000400cdb70                qzms24_temp
                0x00000000400cdb78                DFriction_Compensation
                0x00000000400cdb80                S_DAD
                0x00000000400cdbc8                mm_temp
                0x00000000400cdbd0                temp_temp
                0x00000000400cdbd8                pk_HkT_Hk_Rk
                0x00000000400cdc20                u_temp
                0x00000000400cdc28                TC_BDOT_Det_Thresh
                0x00000000400cdc30                NMB_NRBt
                0x00000000400cdc78                A3_magad
                0x00000000400cdc80                ecc_temp2
                0x00000000400cdc88                year_GPS
                0x00000000400cdc90                Y_SPO2ECI
                0x00000000400cdca8                sigma_m
                0x00000000400cdcb0                CB_ReferenceQuatComputation
                0x00000000400cdcb8                sinkp
                0x00000000400cdcc0                adj_S_DAD
                0x00000000400cdd08                p_magad
                0x00000000400ce058                GYRO_max_threshold_count
                0x00000000400ce05c                day_TLE_tc
                0x00000000400ce060                TC_SpeedDumpTime
                0x00000000400ce068                H_retn
                0x00000000400ce070                Epochyear_TLE_tc
                0x00000000400ce078                MY
                0x00000000400ce080                bstar
                0x00000000400ce088                argpo_GPS
                0x00000000400ce090                Q_SFDO2ECI
                0x00000000400ce0b0                X_DAD
                0x00000000400ce0c8                TC_wAD_updateTimeThresh
                0x00000000400ce0d0                ecc_temp4
                0x00000000400ce0d8                Vel_ECEF_GPS
                0x00000000400ce0f0                nodecf
                0x00000000400ce0f8                Tdeficit
                0x00000000400ce110                vecnorm_mag
                0x00000000400ce118                Vel_ECI_GPS
                0x00000000400ce130                Q_REF_pres
                0x00000000400ce150                phi_12_temp3
                0x00000000400ce198                epochdays
                0x00000000400ce1a0                adel
                0x00000000400ce1a8                xmcof
                0x00000000400ce1b0                k
                0x00000000400ce1b8                TC_momentum_dumping_gain
                0x00000000400ce1c0                cosio2
                0x00000000400ce1c8                Yk_minus_hk_Kk
                0x00000000400ce210                mvt
                0x00000000400ce218                Rz
                0x00000000400ce260                St_DAD
                0x00000000400ce2a8                x1mth2
                0x00000000400ce2b0                t2
                0x00000000400ce2b8                speed_based_torquer_control
                0x00000000400ce2c0                B_REFn
                0x00000000400ce2d8                Tsince
                0x00000000400ce2e0                r_delta
                0x00000000400ce2e8                var1
                0x00000000400ce2f0                epochyr_sel
                0x00000000400ce2f4                entrytime2eclipse
                0x00000000400ce2f8                em
                0x00000000400ce300                Qk_temp2
                0x00000000400ce308                Xk_plus_temp
                0x00000000400ce320                Q_SPO2ECI
                0x00000000400ce340                W_cross
                0x00000000400ce388                Vel_ECI
                0x00000000400ce3a0                pk_HkT_Hk
                0x00000000400ce3e8                Tcv_temp
                0x00000000400ce400                NRS
                0x00000000400ce4c0                Tdeficit_temp1
                0x00000000400ce4d8                theta2
                0x00000000400ce4e0                gmst_
                0x00000000400ce4e8                psi_sl_ecl
                0x00000000400ce4f0                Pitch_MTR_Pol_Reversal
                0x00000000400ce4f8                rsun
                0x00000000400ce510                Yk
                0x00000000400ce528                CB_Wheel_Spin_updown
                0x00000000400ce530                vx
                0x00000000400ce538                inttemp
                0x00000000400ce53c                TLE_Data_Available
                0x00000000400ce540                Q_REF_prev
                0x00000000400ce560                BEast
                0x00000000400ce568                SunAcq_Ang_Thres
                0x00000000400ce570                DutyCycleGenEnable
                0x00000000400ce578                Tmm_actual
                0x00000000400ce590                CB_MagFieldComp
                0x00000000400ce594                eDetumblingMode
                0x00000000400ce598                tempa
                0x00000000400ce5a0                xsaty_eci
                0x00000000400ce5a8                pinvsq
                0x00000000400ce5b0                mod_of_Wk1_square
                0x00000000400ce5b8                ecc_temp3
                0x00000000400ce5c0                count_arc_w3
                0x00000000400ce5c4                DFCcountLow
                0x00000000400ce5c8                CB_ExtendedKalmanFilter
                0x00000000400ce5d0                no_TLE_tc
                0x00000000400ce5d8                TC_elapsed_orbitTimer
                0x00000000400ce5e0                semi_den
                0x00000000400ce5e8                STATION_vector
                0x00000000400ce600                wks
                0x00000000400ce608                TC_enQuest_update
                0x00000000400ce60c                days_sel
                0x00000000400ce610                TC_SunEarthVaryingFrame
                0x00000000400ce618                big_omega
                0x00000000400ce698                tempdays
                0x00000000400ce69c                Present_OBT
                0x00000000400ce6a0                Tsince_TLE_tc
                0x00000000400ce6a8                X_SPO2ECI_mag
                0x00000000400ce6b0                temparg
                0x00000000400ce6b8                ibexp_sel
                0x00000000400ce6c0                VelZ_ECEF_GPS
                0x00000000400ce6c8                TC_detumbling_bdot_gain
                0x00000000400ce6e0                LPFK1HighSL
                0x00000000400ce6e8                xinc
                0x00000000400ce6f0                Twof_veh
                0x00000000400ce738                mdot
                0x00000000400ce740                DB_GyroLPF
                0x00000000400ce748                LossWhMom
                0x00000000400ce768                b_DAD
                0x00000000400ce770                NMS
                0x00000000400ce830                TC_GPS_pulse_duration
                0x00000000400ce838                phi_k
                0x00000000400ceac0                xin_temp
                0x00000000400ceac8                UTC_hr_GPS
                0x00000000400cead0                one_by_3
                0x00000000400cead8                axnl
                0x00000000400ceae0                X_SVO2ECI_mag
                0x00000000400ceae8                LPFK1SL
                0x00000000400ceb08                bstar_TLE_tc
                0x00000000400ceb10                coef1
                0x00000000400ceb18                B_DAD
                0x00000000400ceb60                ang
                0x00000000400ceb68                rsat
                0x00000000400ceb80                R_SFAO2ECI
                0x00000000400cebc8                magPitch_angle
                0x00000000400cebd0                beta_S_DAD
                0x00000000400cec18                inclination_sel
                0x00000000400cec20                SS_M4
                0x00000000400cec28                exp_whsp_ch
                0x00000000400cec48                Q_SVO2ECI
                0x00000000400cec68                DelThta_cat_z
                0x00000000400cec70                Y_SFAO2ECI
                0x00000000400cec88                mo_TLE_tc
                0x00000000400cec90                TC_SunFixedAscendingFrame
                0x00000000400cec98                delta_HB
                0x00000000400cecb0                cos_of_Wk1_Delta
                0x00000000400cecb8                PosZ_ECEF_GPS
                0x00000000400cecc0                Tsince_TLE
                0x00000000400cecc8                pk_HkT
                0x00000000400ceda0                sumX_DAD
                0x00000000400cede8                phi_11_temp1
                0x00000000400cee30                TC_wAD_BODYminThYaw
                0x00000000400cee38                j_lict
                0x00000000400cee40                pps_deltaT
                0x00000000400cee48                Kk_matrix
                0x00000000400cf0d0                TC_wAD_BODYminThRoll
                0x00000000400cf0d8                theta
                0x00000000400cf0e0                f_Momentum_Dumping
                0x00000000400cf0e8                SUN_ECI_mag
                0x00000000400cf0f0                Tcv
                0x00000000400cf108                t4
                0x00000000400cf110                cnod
                0x00000000400cf118                mon_sel
                0x00000000400cf120                sidereal
                0x00000000400cf168                tau_ms
                0x00000000400cf170                j_kf
                0x00000000400cf178                sine
                0x00000000400cf180                Z_SVO2ECI_mag
                0x00000000400cf188                Qprop_prev
                0x00000000400cf1a8                uz
                0x00000000400cf1b0                TC_KR
                0x00000000400cf1c8                ExWhMom
                0x00000000400cf1e8                T_MT_2RW
                0x00000000400cf200                one_magad
                0x00000000400cf208                S_ECI
                0x00000000400cf220                minorcyclecount
                0x00000000400cf228                Q_quest_DAD_den
                0x00000000400cf230                two_magad
                0x00000000400cf238                Hk_temp
                0x00000000400cf310                xincp
                0x00000000400cf318                Rx
                0x00000000400cf360                z
                0x00000000400cf368                MTR_ActuationCycle
                0x00000000400cf370                BDOTnorm
                0x00000000400cf378                B_ECI
                0x00000000400cf390                SAT_ANGLE_STAT
                0x00000000400cf398                sigma_DAD
                0x00000000400cf3a0                f_DataSort_MAG
                0x00000000400cf3a8                aycof
                0x00000000400cf3b0                argpo_TLE_tc
                0x00000000400cf3b8                count_arc_w1
                0x00000000400cf3bc                j_gh
                0x00000000400cf3c0                orbit_time
                0x00000000400cf3c8                temp1
                0x00000000400cf3d0                coef
                0x00000000400cf3d8                eSunAcquisitionMode
                0x00000000400cf3e0                sigma_u
                0x00000000400cf3e8                etasq
                0x00000000400cf3f0                T_SD_RW
                0x00000000400cf410                cos2u
                0x00000000400cf418                st_magad
                0x00000000400cf420                Tc
                0x00000000400cf438                UTC
                0x00000000400cf440                out_Quat_mult
                0x00000000400cf460                CB_Wheel_Auto_Reconfiguration
                0x00000000400cf468                Del_P_theta
                0x00000000400cf470                diff_obs_exp_ch
                0x00000000400cf490                GPSDataReady
                0x00000000400cf498                mo_sel
                0x00000000400cf4a0                NRBt_sunmag
                0x00000000400cf560                trace_S_DAD
                0x00000000400cf568                ct_magad
                0x00000000400cf570                BDOT_Threshold_Count
                0x00000000400cf574                i
                0x00000000400cf578                mu_m_temp
                0x00000000400cf590                TC_yp
                0x00000000400cf598                CB_Two_RW_control
                0x00000000400cf59c                j_rfc
                0x00000000400cf5a0                LPFK2SL
                0x00000000400cf5c0                ktr
                0x00000000400cf5c4                I_MFC
                0x00000000400cf5c8                DelThta_cat_y
                0x00000000400cf5d0                magYaw_angle
                0x00000000400cf5d8                epochdays_TLE_tc
                0x00000000400cf5e0                v0c
                0x00000000400cf600                CB_DAD_quest
                0x00000000400cf608                T_RW_sdump
                0x00000000400cf628                no_sel
                0x00000000400cf630                po
                0x00000000400cf638                NMB_mag
                0x00000000400cf878                Vel_ECEFn
                0x00000000400cf890                xmdf
                0x00000000400cf898                cc3
                0x00000000400cf8a0                Rk
                0x00000000400cf8e8                TC_Hmax
                0x00000000400cf8f0                Trwa
                0x00000000400cf910                qzms24
                0x00000000400cf918                TC_SunFixedDescendingFrame
                0x00000000400cf920                T_RW
                0x00000000400cf940                longitude_GPS
                0x00000000400cf948                sini
                0x00000000400cf950                xsatz_eci
                0x00000000400cf958                DFCGainLow
                0x00000000400cf960                i_pini
                0x00000000400cf968                Hk
                0x00000000400cfa40                Delta
                0x00000000400cfa48                Z_SFDO2ECI_mag
                0x00000000400cfa50                u_parl
                0x00000000400cfa68                I_DAD
                0x00000000400cfa6c                year_TLE_tc
                0x00000000400cfa70                ecose
                0x00000000400cfa78                Pos_ECEF
                0x00000000400cfa90                NRB_mag
                0x00000000400cfcd0                ecc_temp6
                0x00000000400cfcd8                j_pini
                0x00000000400cfce0                Q_REF_diff
                0x00000000400cfd00                ECEFtoECI
                0x00000000400cfd48                t5cof
                0x00000000400cfd50                ep
                0x00000000400cfd58                check_dump_wh
                0x00000000400cfd68                epochyr
                0x00000000400cfd6c                Yaw_MTR_Pol_Reversal
                0x00000000400cfd70                nodem
                0x00000000400cfd78                STATION_ECIn
                0x00000000400cfd90                TC_xp
                0x00000000400cfd98                argpp
                0x00000000400cfda0                TC_ARC_Time_Cycle
                0x00000000400cfda4                count_arc_w0
                0x00000000400cfda8                TC_ARC_RPM_Thres
                0x00000000400cfdb0                ECItoECEF
                0x00000000400cfdf8                sinip
                0x00000000400cfe00                Bt_DAD
                0x00000000400cfe48                inclo_tc
                0x00000000400cfe50                rot_ang
                0x00000000400cfe58                alpha_2RW_temp
                0x00000000400cfe70                coslongacnode
                0x00000000400cfe78                eThreeAxisControlMode
                0x00000000400cfe7c                f_threeaxis2safe
                0x00000000400cfe80                DeltaT_MFC
                0x00000000400cfe88                TC_detumbling_rate_gain
                0x00000000400cfea0                esine
                0x00000000400cfea8                T_RW_spin
                0x00000000400cfec8                Wk1
                0x00000000400cff10                wc_qst
                0x00000000400cff18                Cross_Product
                0x00000000400cff30                sd_magad
                0x00000000400cff38                i_QDP
                0x00000000400cff40                Z_SPO2ECI
                0x00000000400cff58                d2
                0x00000000400cff60                TC_Det_GYRO_Compute_Count
                0x00000000400cff68                pl
                0x00000000400cff70                Norm_out
                0x00000000400cff88                NRSt
                0x00000000400d0048                wheel_index
                0x00000000400d0058                L_Msun
                0x00000000400d0060                vpef
                0x00000000400d0078                inclination
                0x00000000400d0080                FirstSpeed
                0x00000000400d0090                cosio
                0x00000000400d0098                i_kf
                0x00000000400d00a0                sinlongacnode
                0x00000000400d00a8                minute_sel
                0x00000000400d00b0                SS_M5
                0x00000000400d00b8                mrt
                0x00000000400d00c0                SunAcq2ThreeAx_trsit_cnt_thres
                0x00000000400d00c8                MR
                0x00000000400d00d0                Qk
                0x00000000400d0358                VelY_ECEF_GPS
                0x00000000400d0360                Matout33
                0x00000000400d03a8                mon_TLE_tc
                0x00000000400d03b0                TC_GYRO_Det_Min_Thresh
                0x00000000400d03b8                betal
                0x00000000400d03c0                Qquest_update
                0x00000000400d03e0                i_god
                0x00000000400d03e8                mo
                0x00000000400d03f0                TC_magMax_angle
                0x00000000400d03f8                tt
                0x00000000400d0418                hk
                0x00000000400d0430                dpsi
                0x00000000400d0438                con41
                0x00000000400d0440                CB_Sun_model
                0x00000000400d0448                R_SVO2ECI
                0x00000000400d0490                qk_plus_temp
                0x00000000400d04b0                delta_hmag
                0x00000000400d04b8                Q_REF_conj
                0x00000000400d04d8                RW_ARC_Logic
                0x00000000400d04e0                MP
                0x00000000400d04e8                Matout31
                0x00000000400d0500                DelThta_cat_x
                0x00000000400d0508                inclination_temp
                0x00000000400d0510                Xk_plus
                0x00000000400d0558                eol
                0x00000000400d0560                spin_up_avg_count_2
                0x00000000400d0568                tsi
                0x00000000400d0570                phi_11
                0x00000000400d05b8                tempta
                0x00000000400d05c0                Cond1
                0x00000000400d05c8                phi_12_temp1
                0x00000000400d0610                Yaw_MTREnable
                0x00000000400d0614                J_DAD
                0x00000000400d0618                CB_RefVectorGeneration
                0x00000000400d0620                magrsun
                0x00000000400d0628                ao_temp
                0x00000000400d0630                TachoHyst
                0x00000000400d0640                TC_wp_QDP
                0x00000000400d0648                pk_plus_one
                0x00000000400d08d0                CB_Wheel_Dynamic_Friction
                0x00000000400d08d8                B_ECEF
                0x00000000400d08f0                Sun_Dis
                0x00000000400d08f8                A_R
                0x00000000400d0900                vy
                0x00000000400d0908                no
                0x00000000400d0910                beta_DAD
                0x00000000400d0918                mo_GPS
                0x00000000400d0920                alpha_DAD
                0x00000000400d0928                DCM2Q_out
                0x00000000400d0948                Q_SFAO2ECI
                0x00000000400d0968                rk_Qk_rk_T
                0x00000000400d0bf0                ao
                0x00000000400d0bf8                Numofdays
                0x00000000400d0bfc                TC_SunMagAD
                0x00000000400d0c00                S_ECIn
                0x00000000400d0c18                longitude
                0x00000000400d0c20                Quest_update_available
                0x00000000400d0c28                N_ecc
                0x00000000400d0c30                M_MAGAD
                0x00000000400d0c34                minute_TLE_tc
                0x00000000400d0c38                cossu
                0x00000000400d0c40                sin_of_W_norm_Delta_by2_W_norm_and_big_omega
                0x00000000400d0cc0                cc4
                0x00000000400d0cc8                phi_k_pk_plus
                0x00000000400d0f50                trueanomoly_sel
                0x00000000400d0f58                MOI_wh
                0x00000000400d0f60                STATION_ECEF
                0x00000000400d0f78                fN_MAGAD
                0x00000000400d0f80                DFCGainSL
                0x00000000400d0fa0                sinmao
                0x00000000400d0fa8                snod
                0x00000000400d0fb0                cos_of_W_norm_Delta_by2_with_I
                0x00000000400d1030                cl_magad
                0x00000000400d10a0                i_gh
                0x00000000400d10a8                Tdet
                0x00000000400d10c0                nm
                0x00000000400d10c8                TTDB3
                0x00000000400d10d0                del_Vw
                0x00000000400d10f0                d4
                0x00000000400d10f8                alpha_I_DAD
                0x00000000400d1140                sc_qst
                0x00000000400d1148                t2cof
                0x00000000400d1150                rpef
                0x00000000400d1168                CB_LinearController
                0x00000000400d1170                TC_Bdot_Gain
                0x00000000400d1188                TC_wAD_BODYmaxThPitch
                0x00000000400d1190                LPFK2HighSL
                0x00000000400d1198                suu
                0x00000000400d11a0                Pos_ECI_GPS
                0x00000000400d11b8                Alti_Mod
                0x00000000400d11c0                Msun
                0x00000000400d11c8                alpha_2RW_tempnorm
                0x00000000400d11d0                X_SFAO2ECI
                0x00000000400d11e8                Q_REF
                0x00000000400d1208                rp
                0x00000000400d1210                nodeo_tc
                0x00000000400d1218                Y_EPO2ECI
                0x00000000400d1230                radialdistance_ecef
                0x00000000400d1238                CB_QuestDataProcessing
                0x00000000400d123c                year_sel
                0x00000000400d1240                sinio
                0x00000000400d1248                TC_EarthPointingFrame
                0x00000000400d1250                Epsilon
                0x00000000400d1258                j_god
                0x00000000400d1260                Qk_temp1
                0x00000000400d1268                TTDB
                0x00000000400d1270                TC_SpeedAngularMomemtumDumping
                0x00000000400d1278                pre_temp
                0x00000000400d12c0                VelX_ECEF_GPS
                0x00000000400d12c8                Z_SFDO2ECI
                0x00000000400d12e0                X_SFDO2ECI_mag
                0x00000000400d12e8                LPFK1LowSL
                0x00000000400d12f0                DFCCountLimSL
                0x00000000400d1300                am_temp
                0x00000000400d1308                k_DAD
                0x00000000400d1310                Qk_temp3
                0x00000000400d1318                sec_TLE_tc
                0x00000000400d1320                SS_M1
                0x00000000400d1328                invangmomentumvecmag
                0x00000000400d1330                rvdotl
                0x00000000400d1338                Pos_ECEFn
                0x00000000400d1350                X_EPO2ECI_mag
                0x00000000400d1358                emsq
                0x00000000400d1360                c_DAD
                0x00000000400d1368                NEDtoECEF
                0x00000000400d13b0                sine2
                0x00000000400d13b8                TB_sMD
                0x00000000400d13d0                DB_MagLPF
                0x00000000400d13d8                GPSDataReady_NA_count
                0x00000000400d13e0                ecc
                0x00000000400d13e8                ref_cross
                0x00000000400d1430                cosip
                0x00000000400d1438                CB_ErrorComputation
                0x00000000400d1440                ecc_r
                0x00000000400d1448                TC_long_station
                0x00000000400d1450                H_wh
                0x00000000400d1470                wh_sdump_start
                0x00000000400d1480                temp_prop
                0x00000000400d1488                Z_SFAO2ECI_mag
                0x00000000400d1490                Tsince_GPS
                0x00000000400d1498                pres_exp_whsp_ch
                0x00000000400d14b8                m_gh
                0x00000000400d14c0                B_ECItesla
                0x00000000400d14d8                Result_of_sine_Delta_cube
                0x00000000400d14e0                Pse_Inv_Dist_Mat
                0x00000000400d1540                LPFK2LowSL
                0x00000000400d1548                ux
                0x00000000400d1550                TC_KP
                0x00000000400d1568                templ
                0x00000000400d1570                cos_of_W_norm_and_Delta_by2
                0x00000000400d1578                Q_StP2ECI
                0x00000000400d1598                phi_11_temp3
                0x00000000400d15e0                phi_11_temp2
                0x00000000400d1628                wo
                0x00000000400d1630                gamma_DAD
                0x00000000400d1638                epochdays_GPS
                0x00000000400d1640                UTC_min_GPS
                0x00000000400d1644                CB_Detumbling_Mode
                0x00000000400d1648                phi_k_pk_plus_phi_k_T
                0x00000000400d18d0                Qerror
                0x00000000400d18f0                TC_delUT1
                0x00000000400d18f8                OBT_at_TLE_uplink
                0x00000000400d18fc                MP_Polarity
                0x00000000400d1900                argpo
                0x00000000400d1908                am_den
                0x00000000400d1910                mat_mult
                0x00000000400d1958                delm
                0x00000000400d1960                Tdefnorm
                0x00000000400d1968                WhMom0
                0x00000000400d1988                Pos_ECIn
                0x00000000400d19a0                cc1sq
                0x00000000400d19a8                TC_wAD_BODYmaxThRoll
                0x00000000400d19b0                TC_wAD_BODYminThPitch
                0x00000000400d19b8                I_MAGAD
                0x00000000400d19c0                ecc_temp5
                0x00000000400d19c8                jd_time
                0x00000000400d19d0                ecco
                0x00000000400d19d8                vsaty_eci
                0x00000000400d19e0                xlcof
                0x00000000400d19e8                K_temp
                0x00000000400d1a30                h
                0x00000000400d21b0                NMS_NRSt
                0x00000000400d21f8                latitude
                0x00000000400d2200                TC_Det_Bprev_Count
                0x00000000400d2208                Vel_ECEF_temp
                0x00000000400d2220                count_arc_w2
                0x00000000400d2228                Y_EPO2ECI_mag
                0x00000000400d2230                cd_magad
                0x00000000400d2238                latitude_GPS
                0x00000000400d2240                del_v0
                0x00000000400d2260                RW_ARC_Count
                0x00000000400d2264                TC_AutoTransitAnyMode2Det
                0x00000000400d2268                DFCTorq
                0x00000000400d2288                sinim
                0x00000000400d2290                var
                0x00000000400d2298                qk_minus
                0x00000000400d22b8                Q_REF_prev_conj
                0x00000000400d22d8                cosu
                0x00000000400d22e0                BDOTNormCount
                0x00000000400d22e4                BDOT_Norm_Count
                0x00000000400d22e8                Susp_cnt
                0x00000000400d22f0                ao_sfour
                0x00000000400d22f8                precession
                0x00000000400d2340                Z_SFAO2ECI
                0x00000000400d2358                S_sqr_DAD
                0x00000000400d23a0                nodeo
                0x00000000400d23a8                R_StP2ECI
                0x00000000400d23f0                theta1
                0x00000000400d23f8                sun_noise
                0x00000000400d2400                TC_Hmin
                0x00000000400d2408                TC_magMin_angle
                0x00000000400d2410                ecc_sel
                0x00000000400d2418                n_gh
                0x00000000400d2420                ecc_temp7
                0x00000000400d2428                etempe
                0x00000000400d2430                A1_magad
                0x00000000400d2438                R_SPO2ECI
                0x00000000400d2480                xsatx_eci
                0x00000000400d2488                no_GPS
                0x00000000400d2490                Yk_minus_hk
                0x00000000400d24a8                TDT
                0x00000000400d24b0                qk_DCM
                0x00000000400d24f8                mat_mag_DataCounter
                0x00000000400d2500                argpo_sel
                0x00000000400d2508                psetasq
                0x00000000400d2510                f_battery_safemode
                0x00000000400d2518                Pos_ECI
                0x00000000400d2530                e_vecdtr
                0x00000000400d2538                nodeo_TLE_tc
                0x00000000400d2540                L_Ecliptic
                0x00000000400d2548                trueanomoly_TLE_tc
                0x00000000400d2550                w_q_update_satisfy
                0x00000000400d2558                rteosq
                0x00000000400d2560                lmonth
                0x00000000400d2598                R_SFDO2ECI
                0x00000000400d25e0                UTC_sec_GPS
                0x00000000400d25e8                M_quad
                0x00000000400d25f0                speedDFCch
                0x00000000400d25f8                dc_qst
                0x00000000400d2600                cc1
                0x00000000400d2608                X_SVO2ECI
                0x00000000400d2620                tut1
                0x00000000400d2628                Tdeficit_temp2
                0x00000000400d2640                Delta_T
                0x00000000400d2648                Kk_Hk_with_minus_one
                0x00000000400d28d0                BDown
                0x00000000400d28d8                dumping_on
                0x00000000400d28dc                wAD_updatecount
                0x00000000400d28e0                polarmotion
                0x00000000400d2928                posq
                0x00000000400d2930                X_SFDO2ECI
                0x00000000400d2948                TC_AngMomDump_Thrsld
                0x00000000400d2950                t3cof
                0x00000000400d2958                ThreeAxis2DetMode_counter
                0x00000000400d2960                co_dec
                0x00000000400d2968                Roll_MTREnable
                0x00000000400d296c                k_comr
                0x00000000400d2970                STATION_ECI
                0x00000000400d2988                eps
                0x00000000400d2990                Y_SPO2ECI_mag
                0x00000000400d2998                B_ECIn
                0x00000000400d29b0                vsatz_eci
                0x00000000400d29b8                mod_of_Wk1_cube
                0x00000000400d29c0                sin2u
                0x00000000400d29c8                velmag
                0x00000000400d29d0                A2_magad
                0x00000000400d29d8                sl_magad
                0x00000000400d2a48                Result_of_sine_Delta
                0x00000000400d2a50                Dfunc_DAD
                0x00000000400d2a58                cosio4
                0x00000000400d2a60                temp_om
                0x00000000400d2a68                Pos_ECEF_GPS
                0x00000000400d2a80                min_TW
                0x00000000400d2a88                Zt_S_Z_DAD
                0x00000000400d2a90                deps
                0x00000000400d2a98                Ndte_vec
                0x00000000400d2aa0                CB_Wheel_OverSpeed_TorqueCutOff
                0x00000000400d2aa8                W_norm
                0x00000000400d2ab0                TC_KalmanFilter_ENABLE
                0x00000000400d2ab8                xmx
                0x00000000400d2ac0                Q_quest_DAD
                0x00000000400d2ae0                DFCGainHigh
                0x00000000400d2ae8                Torquer_Shutdown
                0x00000000400d2af0                nodeo_sel
                0x00000000400d2af8                qk_plus
                0x00000000400d2b18                magRoll_angle
                0x00000000400d2b20                sigma_v
                0x00000000400d2b28                j_comr
                0x00000000400d2b30                SS_M2
                0x00000000400d2b38                sin_of_W_norm_and_Delta_by2
                0x00000000400d2b40                ibexp
                0x00000000400d2b48                GYRO_Threshold_Count
                0x00000000400d2b4c                MY_Polarity
                0x00000000400d2b50                inclination_TLE_tc
                0x00000000400d2b58                PosY_ECEF_GPS
                0x00000000400d2b60                CB_BDOT_Computation
                0x00000000400d2b68                Qbody
                0x00000000400d2b88                eSuspendedMode
                0x00000000400d2b8c                i_lict
                0x00000000400d2b90                delta_DAD
                0x00000000400d2b98                temp3
                0x00000000400d2ba0                B_Tef_ANG
                0x00000000400d2ba8                X_SPO2ECI
                0x00000000400d2bc0                sine_of_Wk1_Delta_by_Wk1
                0x00000000400d2bc8                PosX_ECEF_GPS
                0x00000000400d2bd0                SS_M7
                0x00000000400d2bd8                SS_M6
                0x00000000400d2be0                Q_axis
                0x00000000400d2bf8                Wheel_Config
                0x00000000400d2c00                psisq
                0x00000000400d2c08                N_MAGAD
                0x00000000400d2c10                argpm
                0x00000000400d2c18                mp
                0x00000000400d2c20                am
                0x00000000400d2c28                TC_comd_pitch_rate
                0x00000000400d2c30                TorquerDutyCycle
                0x00000000400d2c48                All_Deployed
                0x00000000400d2c50                xl
                0x00000000400d2c58                dayofyr
                0x00000000400d2c60                eta
                0x00000000400d2c68                ibexp_tc
                0x00000000400d2c70                TC_BDOT_Norm_Threshold
                0x00000000400d2c78                CB_IMUDataProcessing
                0x00000000400d2c80                nodep
                0x00000000400d2c88                Vel_ECI_temp
                0x00000000400d2ca0                omeosq
                0x00000000400d2ca8                Matout431
                0x00000000400d2cc8                R_EPO2ECI
                0x00000000400d2d10                majorcyclecount
                0x00000000400d2d18                phi_12
                0x00000000400d2d60                Alti
                0x00000000400d2d68                MR_Polarity
                0x00000000400d2d70                temp_jday
                0x00000000400d2d78                Del_Y_theta
                0x00000000400d2d80                pk
                0x00000000400d3008                longitude_tan_num
                0x00000000400d3010                DFCCount
                0x00000000400d3020                cos_of_Wk1_Delta_by_Wk1_square
                0x00000000400d3028                Julian_day
                0x00000000400d3030                SS_M3
                0x00000000400d3038                GPS_Select
                0x00000000400d3040                Trwa_mt_comp
                0x00000000400d3058                ak_temp
                0x00000000400d3060                BDOT_deltaT
                0x00000000400d3068                sinsu
                0x00000000400d3070                zeta
                0x00000000400d3078                velmagsq
                0x00000000400d3080                CB_Sl_Ecl_OnBrd_detection
                0x00000000400d3088                nodedot
                0x00000000400d3090                e_vec
                0x00000000400d30a8                wheel_index_ARCsum
                0x00000000400d30b0                RWSpeed
                0x00000000400d30d0                sin_of_W_norm_Delta_by2_and_W_norm
                0x00000000400d30d8                S_REF
                0x00000000400d30f0                Xk
                0x00000000400d3138                RAAN
                0x00000000400d3140                NegR_Deployed
                0x00000000400d3148                Zt_Z_DAD
                0x00000000400d3150                nm_temp
                0x00000000400d3158                Vel_ECEF
                0x00000000400d3170                REF_FRAME_DCM
                0x00000000400d31b8                sfour
                0x00000000400d31c0                angmomentumvecmag
                0x00000000400d31c8                Invmatout33
                0x00000000400d3210                Matout441
                0x00000000400d3230                gmst0
                0x00000000400d3238                argpdot
                0x00000000400d3240                cose
                0x00000000400d3248                DPM
                0x00000000400d3260                TC_SpeedDumpLimit
                0x00000000400d3268                d3
                0x00000000400d3270                t4cof
                0x00000000400d3278                rdtv
                0x00000000400d3280                semimajoraxis_GPS
                0x00000000400d3288                JDTDB
                0x00000000400d3290                r1
                0x00000000400d3298                phi_12_temp2
                0x00000000400d32e0                X_SFAO2ECI_mag
                0x00000000400d32e8                UTC_day_GPS
                0x00000000400d32ec                i_rfc
                0x00000000400d32f0                CB_SunSensorDataProcessing
 COMMON         0x00000000400d32f4       0x80 c:/opt/bcc-2.0.2-gcc/bin/../sparc-gaisler-elf/bsp/leon2/leon/mfix-at697f\libbcc.a(isr.c.o)
                0x00000000400d32f4                __bcc_isr_list
                0x00000000400d3378                . = ALIGN (0x8)
 *fill*         0x00000000400d3374        0x4 
                0x00000000400d3378                __bss_end = .
                0x00000000400d3378                __heap_min = .
                0x00000000400d3378                . = ALIGN (0x8)

.jcr
 *(.jcr)

.stab
 *(.stab)

.stabstr
 *(.stabstr)

.debug
 *(.debug)

.line
 *(.line)

.debug_srcinfo
 *(.debug_srcinfo)

.debug_sfnames
 *(.debug_sfnames)

.debug_aranges  0x0000000000000000      0xb00
 *(.debug_aranges)
 .debug_aranges
                0x0000000000000000       0x20 c:/opt/bcc-2.0.2-gcc/bin/../sparc-gaisler-elf/bsp/leon2/leon/mfix-at697f/trap_table_mvt.S.o
 .debug_aranges
                0x0000000000000020       0x20 c:/opt/bcc-2.0.2-gcc/bin/../sparc-gaisler-elf/bsp/leon2/leon/mfix-at697f/crt0.S.o
 .debug_aranges
                0x0000000000000040       0x28 C:\Users\ajarr\AppData\Local\Temp\cclcRNkm.o
 .debug_aranges
                0x0000000000000068       0x20 C:\Users\ajarr\AppData\Local\Temp\ccXi6CuD.o
 .debug_aranges
                0x0000000000000088       0x20 C:\Users\ajarr\AppData\Local\Temp\cck0ztpe.o
 .debug_aranges
                0x00000000000000a8       0x20 C:\Users\ajarr\AppData\Local\Temp\ccgZ79fC.o
 .debug_aranges
                0x00000000000000c8       0x20 C:\Users\ajarr\AppData\Local\Temp\cccsHxM4.o
 .debug_aranges
                0x00000000000000e8       0x20 C:\Users\ajarr\AppData\Local\Temp\cczKCchi.o
 .debug_aranges
                0x0000000000000108       0x20 C:\Users\ajarr\AppData\Local\Temp\ccySgCMJ.o
 .debug_aranges
                0x0000000000000128       0x20 C:\Users\ajarr\AppData\Local\Temp\ccJGVwWh.o
 .debug_aranges
                0x0000000000000148       0x20 C:\Users\ajarr\AppData\Local\Temp\ccwUhEmU.o
 .debug_aranges
                0x0000000000000168       0x20 C:\Users\ajarr\AppData\Local\Temp\ccTGUrKF.o
 .debug_aranges
                0x0000000000000188       0x20 C:\Users\ajarr\AppData\Local\Temp\ccW8NopI.o
 .debug_aranges
                0x00000000000001a8       0x20 C:\Users\ajarr\AppData\Local\Temp\ccQfD6IQ.o
 .debug_aranges
                0x00000000000001c8       0x20 C:\Users\ajarr\AppData\Local\Temp\ccegzvw7.o
 .debug_aranges
                0x00000000000001e8       0x20 C:\Users\ajarr\AppData\Local\Temp\ccW8vVNE.o
 .debug_aranges
                0x0000000000000208       0x20 C:\Users\ajarr\AppData\Local\Temp\ccmmE1Hm.o
 .debug_aranges
                0x0000000000000228       0x20 C:\Users\ajarr\AppData\Local\Temp\ccH43JHx.o
 .debug_aranges
                0x0000000000000248       0x20 C:\Users\ajarr\AppData\Local\Temp\cco0QbZ8.o
 .debug_aranges
                0x0000000000000268       0x18 C:\Users\ajarr\AppData\Local\Temp\cc5Z9OQN.o
 .debug_aranges
                0x0000000000000280       0x20 C:\Users\ajarr\AppData\Local\Temp\cchzLcEP.o
 .debug_aranges
                0x00000000000002a0       0x20 C:\Users\ajarr\AppData\Local\Temp\ccDrgrG5.o
 .debug_aranges
                0x00000000000002c0       0x20 C:\Users\ajarr\AppData\Local\Temp\ccpYH1o5.o
 .debug_aranges
                0x00000000000002e0       0x20 C:\Users\ajarr\AppData\Local\Temp\cce8IkUa.o
 .debug_aranges
                0x0000000000000300       0x18 C:\Users\ajarr\AppData\Local\Temp\ccmHMWab.o
 .debug_aranges
                0x0000000000000318       0x20 C:\Users\ajarr\AppData\Local\Temp\ccwpWlcN.o
 .debug_aranges
                0x0000000000000338       0x20 C:\Users\ajarr\AppData\Local\Temp\ccIOj7WD.o
 .debug_aranges
                0x0000000000000358       0x20 C:\Users\ajarr\AppData\Local\Temp\ccaOdSgz.o
 .debug_aranges
                0x0000000000000378       0x20 c:/opt/bcc-2.0.2-gcc/bin/../lib/gcc/sparc-gaisler-elf/7.2.0/../../../../sparc-gaisler-elf/lib/leon/mfix-at697f\libm.a(lib_a-s_atan.o)
 .debug_aranges
                0x0000000000000398       0x20 c:/opt/bcc-2.0.2-gcc/bin/../lib/gcc/sparc-gaisler-elf/7.2.0/../../../../sparc-gaisler-elf/lib/leon/mfix-at697f\libm.a(lib_a-s_cos.o)
 .debug_aranges
                0x00000000000003b8       0x20 c:/opt/bcc-2.0.2-gcc/bin/../lib/gcc/sparc-gaisler-elf/7.2.0/../../../../sparc-gaisler-elf/lib/leon/mfix-at697f\libm.a(lib_a-s_fabs.o)
 .debug_aranges
                0x00000000000003d8       0x20 c:/opt/bcc-2.0.2-gcc/bin/../lib/gcc/sparc-gaisler-elf/7.2.0/../../../../sparc-gaisler-elf/lib/leon/mfix-at697f\libm.a(lib_a-s_floor.o)
 .debug_aranges
                0x00000000000003f8       0x20 c:/opt/bcc-2.0.2-gcc/bin/../lib/gcc/sparc-gaisler-elf/7.2.0/../../../../sparc-gaisler-elf/lib/leon/mfix-at697f\libm.a(lib_a-s_round.o)
 .debug_aranges
                0x0000000000000418       0x20 c:/opt/bcc-2.0.2-gcc/bin/../lib/gcc/sparc-gaisler-elf/7.2.0/../../../../sparc-gaisler-elf/lib/leon/mfix-at697f\libm.a(lib_a-s_sin.o)
 .debug_aranges
                0x0000000000000438       0x20 c:/opt/bcc-2.0.2-gcc/bin/../lib/gcc/sparc-gaisler-elf/7.2.0/../../../../sparc-gaisler-elf/lib/leon/mfix-at697f\libm.a(lib_a-s_tan.o)
 .debug_aranges
                0x0000000000000458       0x20 c:/opt/bcc-2.0.2-gcc/bin/../lib/gcc/sparc-gaisler-elf/7.2.0/../../../../sparc-gaisler-elf/lib/leon/mfix-at697f\libm.a(lib_a-w_acos.o)
 .debug_aranges
                0x0000000000000478       0x20 c:/opt/bcc-2.0.2-gcc/bin/../lib/gcc/sparc-gaisler-elf/7.2.0/../../../../sparc-gaisler-elf/lib/leon/mfix-at697f\libm.a(lib_a-w_asin.o)
 .debug_aranges
                0x0000000000000498       0x20 c:/opt/bcc-2.0.2-gcc/bin/../lib/gcc/sparc-gaisler-elf/7.2.0/../../../../sparc-gaisler-elf/lib/leon/mfix-at697f\libm.a(lib_a-w_atan2.o)
 .debug_aranges
                0x00000000000004b8       0x20 c:/opt/bcc-2.0.2-gcc/bin/../lib/gcc/sparc-gaisler-elf/7.2.0/../../../../sparc-gaisler-elf/lib/leon/mfix-at697f\libm.a(lib_a-w_fmod.o)
 .debug_aranges
                0x00000000000004d8       0x20 c:/opt/bcc-2.0.2-gcc/bin/../lib/gcc/sparc-gaisler-elf/7.2.0/../../../../sparc-gaisler-elf/lib/leon/mfix-at697f\libm.a(lib_a-w_pow.o)
 .debug_aranges
                0x00000000000004f8       0x20 c:/opt/bcc-2.0.2-gcc/bin/../lib/gcc/sparc-gaisler-elf/7.2.0/../../../../sparc-gaisler-elf/lib/leon/mfix-at697f\libm.a(lib_a-w_sqrt.o)
 .debug_aranges
                0x0000000000000518       0x20 c:/opt/bcc-2.0.2-gcc/bin/../lib/gcc/sparc-gaisler-elf/7.2.0/../../../../sparc-gaisler-elf/lib/leon/mfix-at697f\libm.a(lib_a-e_acos.o)
 .debug_aranges
                0x0000000000000538       0x20 c:/opt/bcc-2.0.2-gcc/bin/../lib/gcc/sparc-gaisler-elf/7.2.0/../../../../sparc-gaisler-elf/lib/leon/mfix-at697f\libm.a(lib_a-e_asin.o)
 .debug_aranges
                0x0000000000000558       0x20 c:/opt/bcc-2.0.2-gcc/bin/../lib/gcc/sparc-gaisler-elf/7.2.0/../../../../sparc-gaisler-elf/lib/leon/mfix-at697f\libm.a(lib_a-e_atan2.o)
 .debug_aranges
                0x0000000000000578       0x20 c:/opt/bcc-2.0.2-gcc/bin/../lib/gcc/sparc-gaisler-elf/7.2.0/../../../../sparc-gaisler-elf/lib/leon/mfix-at697f\libm.a(lib_a-e_fmod.o)
 .debug_aranges
                0x0000000000000598       0x20 c:/opt/bcc-2.0.2-gcc/bin/../lib/gcc/sparc-gaisler-elf/7.2.0/../../../../sparc-gaisler-elf/lib/leon/mfix-at697f\libm.a(lib_a-e_pow.o)
 .debug_aranges
                0x00000000000005b8       0x20 c:/opt/bcc-2.0.2-gcc/bin/../lib/gcc/sparc-gaisler-elf/7.2.0/../../../../sparc-gaisler-elf/lib/leon/mfix-at697f\libm.a(lib_a-e_rem_pio2.o)
 .debug_aranges
                0x00000000000005d8       0x20 c:/opt/bcc-2.0.2-gcc/bin/../lib/gcc/sparc-gaisler-elf/7.2.0/../../../../sparc-gaisler-elf/lib/leon/mfix-at697f\libm.a(lib_a-e_sqrt.o)
 .debug_aranges
                0x00000000000005f8       0x20 c:/opt/bcc-2.0.2-gcc/bin/../lib/gcc/sparc-gaisler-elf/7.2.0/../../../../sparc-gaisler-elf/lib/leon/mfix-at697f\libm.a(lib_a-k_cos.o)
 .debug_aranges
                0x0000000000000618       0x20 c:/opt/bcc-2.0.2-gcc/bin/../lib/gcc/sparc-gaisler-elf/7.2.0/../../../../sparc-gaisler-elf/lib/leon/mfix-at697f\libm.a(lib_a-k_rem_pio2.o)
 .debug_aranges
                0x0000000000000638       0x20 c:/opt/bcc-2.0.2-gcc/bin/../lib/gcc/sparc-gaisler-elf/7.2.0/../../../../sparc-gaisler-elf/lib/leon/mfix-at697f\libm.a(lib_a-k_sin.o)
 .debug_aranges
                0x0000000000000658       0x20 c:/opt/bcc-2.0.2-gcc/bin/../lib/gcc/sparc-gaisler-elf/7.2.0/../../../../sparc-gaisler-elf/lib/leon/mfix-at697f\libm.a(lib_a-k_tan.o)
 .debug_aranges
                0x0000000000000678       0x20 c:/opt/bcc-2.0.2-gcc/bin/../lib/gcc/sparc-gaisler-elf/7.2.0/../../../../sparc-gaisler-elf/lib/leon/mfix-at697f\libm.a(lib_a-s_finite.o)
 .debug_aranges
                0x0000000000000698       0x18 c:/opt/bcc-2.0.2-gcc/bin/../lib/gcc/sparc-gaisler-elf/7.2.0/../../../../sparc-gaisler-elf/lib/leon/mfix-at697f\libm.a(lib_a-s_lib_ver.o)
 .debug_aranges
                0x00000000000006b0       0x20 c:/opt/bcc-2.0.2-gcc/bin/../lib/gcc/sparc-gaisler-elf/7.2.0/../../../../sparc-gaisler-elf/lib/leon/mfix-at697f\libm.a(lib_a-s_matherr.o)
 .debug_aranges
                0x00000000000006d0       0x20 c:/opt/bcc-2.0.2-gcc/bin/../lib/gcc/sparc-gaisler-elf/7.2.0/../../../../sparc-gaisler-elf/lib/leon/mfix-at697f\libm.a(lib_a-s_nan.o)
 .debug_aranges
                0x00000000000006f0       0x20 c:/opt/bcc-2.0.2-gcc/bin/../lib/gcc/sparc-gaisler-elf/7.2.0/../../../../sparc-gaisler-elf/lib/leon/mfix-at697f\libm.a(lib_a-s_rint.o)
 .debug_aranges
                0x0000000000000710       0x20 c:/opt/bcc-2.0.2-gcc/bin/../lib/gcc/sparc-gaisler-elf/7.2.0/../../../../sparc-gaisler-elf/lib/leon/mfix-at697f\libm.a(lib_a-s_scalbn.o)
 .debug_aranges
                0x0000000000000730       0x20 c:/opt/bcc-2.0.2-gcc/bin/../lib/gcc/sparc-gaisler-elf/7.2.0/../../../../sparc-gaisler-elf/lib/leon/mfix-at697f\libm.a(lib_a-s_copysign.o)
 .debug_aranges
                0x0000000000000750       0x20 c:/opt/bcc-2.0.2-gcc/bin/../sparc-gaisler-elf/bsp/leon2/leon/mfix-at697f\libbcc.a(reset_trap_mvt.S.o)
 .debug_aranges
                0x0000000000000770       0x20 c:/opt/bcc-2.0.2-gcc/bin/../sparc-gaisler-elf/bsp/leon2/leon/mfix-at697f\libbcc.a(window_trap.S.o)
 .debug_aranges
                0x0000000000000790       0x20 c:/opt/bcc-2.0.2-gcc/bin/../sparc-gaisler-elf/bsp/leon2/leon/mfix-at697f\libbcc.a(interrupt_trap.S.o)
 .debug_aranges
                0x00000000000007b0       0x20 c:/opt/bcc-2.0.2-gcc/bin/../sparc-gaisler-elf/bsp/leon2/leon/mfix-at697f\libbcc.a(flush_windows_trap.S.o)
 .debug_aranges
                0x00000000000007d0       0x20 c:/opt/bcc-2.0.2-gcc/bin/../sparc-gaisler-elf/bsp/leon2/leon/mfix-at697f\libbcc.a(sw_trap_set_pil.S.o)
 .debug_aranges
                0x00000000000007f0       0x20 c:/opt/bcc-2.0.2-gcc/bin/../sparc-gaisler-elf/bsp/leon2/leon/mfix-at697f\libbcc.a(trap.c.o)
 .debug_aranges
                0x0000000000000810       0x18 c:/opt/bcc-2.0.2-gcc/bin/../sparc-gaisler-elf/bsp/leon2/leon/mfix-at697f\libbcc.a(isr.c.o)
 .debug_aranges
                0x0000000000000828       0x18 c:/opt/bcc-2.0.2-gcc/bin/../sparc-gaisler-elf/bsp/leon2/leon/mfix-at697f\libbcc.a(int_nest.c.o)
 .debug_aranges
                0x0000000000000840       0x20 c:/opt/bcc-2.0.2-gcc/bin/../sparc-gaisler-elf/bsp/leon2/leon/mfix-at697f\libbcc.a(init.S.o)
 .debug_aranges
                0x0000000000000860       0x20 c:/opt/bcc-2.0.2-gcc/bin/../sparc-gaisler-elf/bsp/leon2/leon/mfix-at697f\libbcc.a(leon_info.S.o)
 .debug_aranges
                0x0000000000000880       0x20 c:/opt/bcc-2.0.2-gcc/bin/../sparc-gaisler-elf/bsp/leon2/leon/mfix-at697f\libbcc.a(dwzero.S.o)
 .debug_aranges
                0x00000000000008a0       0x20 c:/opt/bcc-2.0.2-gcc/bin/../sparc-gaisler-elf/bsp/leon2/leon/mfix-at697f\libbcc.a(copy_data.c.o)
 .debug_aranges
                0x00000000000008c0       0x20 c:/opt/bcc-2.0.2-gcc/bin/../sparc-gaisler-elf/bsp/leon2/leon/mfix-at697f\libbcc.a(lowlevel.S.o)
 .debug_aranges
                0x00000000000008e0       0x20 c:/opt/bcc-2.0.2-gcc/bin/../sparc-gaisler-elf/bsp/leon2/leon/mfix-at697f\libbcc.a(lowlevel_leon2.S.o)
 .debug_aranges
                0x0000000000000900       0x20 c:/opt/bcc-2.0.2-gcc/bin/../sparc-gaisler-elf/bsp/leon2/leon/mfix-at697f\libbcc.a(int_leon2.c.o)
 .debug_aranges
                0x0000000000000920       0x20 c:/opt/bcc-2.0.2-gcc/bin/../sparc-gaisler-elf/bsp/leon2/leon/mfix-at697f\libbcc.a(int_leon2_get_source.c.o)
 .debug_aranges
                0x0000000000000940       0x20 c:/opt/bcc-2.0.2-gcc/bin/../sparc-gaisler-elf/bsp/leon2/leon/mfix-at697f\libbcc.a(int_leon2_init.c.o)
 .debug_aranges
                0x0000000000000960       0x20 c:/opt/bcc-2.0.2-gcc/bin/../sparc-gaisler-elf/bsp/leon2/leon/mfix-at697f\libbcc.a(con_leon2.c.o)
 .debug_aranges
                0x0000000000000980       0x20 c:/opt/bcc-2.0.2-gcc/bin/../sparc-gaisler-elf/bsp/leon2/leon/mfix-at697f\libbcc.a(timer_leon2.c.o)
 .debug_aranges
                0x00000000000009a0       0x20 c:/opt/bcc-2.0.2-gcc/bin/../sparc-gaisler-elf/bsp/leon2/leon/mfix-at697f\libbcc.a(set_pil.S.o)
 .debug_aranges
                0x00000000000009c0       0x18 c:/opt/bcc-2.0.2-gcc/bin/../sparc-gaisler-elf/bsp/leon2/leon/mfix-at697f\libbcc.a(int_leon2_handle.c.o)
 .debug_aranges
                0x00000000000009d8       0x18 c:/opt/bcc-2.0.2-gcc/bin/../sparc-gaisler-elf/bsp/leon2/leon/mfix-at697f\libbcc.a(con_handle.c.o)
 .debug_aranges
                0x00000000000009f0       0x18 c:/opt/bcc-2.0.2-gcc/bin/../sparc-gaisler-elf/bsp/leon2/leon/mfix-at697f\libbcc.a(timer_handle.c.o)
 .debug_aranges
                0x0000000000000a08       0x20 c:/opt/bcc-2.0.2-gcc/bin/../lib/gcc/sparc-gaisler-elf/7.2.0/../../../../sparc-gaisler-elf/lib/leon/mfix-at697f\libc.a(lib_a-atexit.o)
 .debug_aranges
                0x0000000000000a28       0x20 c:/opt/bcc-2.0.2-gcc/bin/../lib/gcc/sparc-gaisler-elf/7.2.0/../../../../sparc-gaisler-elf/lib/leon/mfix-at697f\libc.a(lib_a-errno.o)
 .debug_aranges
                0x0000000000000a48       0x20 c:/opt/bcc-2.0.2-gcc/bin/../lib/gcc/sparc-gaisler-elf/7.2.0/../../../../sparc-gaisler-elf/lib/leon/mfix-at697f\libc.a(lib_a-exit.o)
 .debug_aranges
                0x0000000000000a68       0x18 c:/opt/bcc-2.0.2-gcc/bin/../lib/gcc/sparc-gaisler-elf/7.2.0/../../../../sparc-gaisler-elf/lib/leon/mfix-at697f\libc.a(lib_a-impure.o)
 .debug_aranges
                0x0000000000000a80       0x20 c:/opt/bcc-2.0.2-gcc/bin/../lib/gcc/sparc-gaisler-elf/7.2.0/../../../../sparc-gaisler-elf/lib/leon/mfix-at697f\libc.a(lib_a-memcpy.o)
 .debug_aranges
                0x0000000000000aa0       0x20 c:/opt/bcc-2.0.2-gcc/bin/../lib/gcc/sparc-gaisler-elf/7.2.0/../../../../sparc-gaisler-elf/lib/leon/mfix-at697f\libc.a(lib_a-__atexit.o)
 .debug_aranges
                0x0000000000000ac0       0x20 c:/opt/bcc-2.0.2-gcc/bin/../lib/gcc/sparc-gaisler-elf/7.2.0/../../../../sparc-gaisler-elf/lib/leon/mfix-at697f\libc.a(lib_a-__call_atexit.o)
 .debug_aranges
                0x0000000000000ae0       0x20 c:/opt/bcc-2.0.2-gcc/bin/../sparc-gaisler-elf/bsp/leon2/leon/mfix-at697f\libbcc.a(_exit.S.o)

.debug_pubnames
 *(.debug_pubnames)

.debug_info     0x0000000000000000    0xf1751
 *(.debug_info)
 .debug_info    0x0000000000000000       0xd0 c:/opt/bcc-2.0.2-gcc/bin/../sparc-gaisler-elf/bsp/leon2/leon/mfix-at697f/trap_table_mvt.S.o
 .debug_info    0x00000000000000d0       0xc1 c:/opt/bcc-2.0.2-gcc/bin/../sparc-gaisler-elf/bsp/leon2/leon/mfix-at697f/crt0.S.o
 .debug_info    0x0000000000000191     0x9f0c C:\Users\ajarr\AppData\Local\Temp\cclcRNkm.o
 .debug_info    0x000000000000a09d     0xa43b C:\Users\ajarr\AppData\Local\Temp\ccXi6CuD.o
 .debug_info    0x00000000000144d8     0xb454 C:\Users\ajarr\AppData\Local\Temp\cck0ztpe.o
 .debug_info    0x000000000001f92c     0xcd95 C:\Users\ajarr\AppData\Local\Temp\ccgZ79fC.o
 .debug_info    0x000000000002c6c1       0x63 C:\Users\ajarr\AppData\Local\Temp\cccsHxM4.o
 .debug_info    0x000000000002c724     0xad3b C:\Users\ajarr\AppData\Local\Temp\cczKCchi.o
 .debug_info    0x000000000003745f     0xa8ef C:\Users\ajarr\AppData\Local\Temp\ccySgCMJ.o
 .debug_info    0x0000000000041d4e     0x5dcd C:\Users\ajarr\AppData\Local\Temp\ccJGVwWh.o
 .debug_info    0x0000000000047b1b     0x7b7f C:\Users\ajarr\AppData\Local\Temp\ccwUhEmU.o
 .debug_info    0x000000000004f69a     0x7f04 C:\Users\ajarr\AppData\Local\Temp\ccTGUrKF.o
 .debug_info    0x000000000005759e     0x9a14 C:\Users\ajarr\AppData\Local\Temp\ccW8NopI.o
 .debug_info    0x0000000000060fb2     0x6a77 C:\Users\ajarr\AppData\Local\Temp\ccQfD6IQ.o
 .debug_info    0x0000000000067a29     0xa33d C:\Users\ajarr\AppData\Local\Temp\ccegzvw7.o
 .debug_info    0x0000000000071d66     0x685d C:\Users\ajarr\AppData\Local\Temp\ccW8vVNE.o
 .debug_info    0x00000000000785c3     0x5278 C:\Users\ajarr\AppData\Local\Temp\ccmmE1Hm.o
 .debug_info    0x000000000007d83b     0xab20 C:\Users\ajarr\AppData\Local\Temp\ccH43JHx.o
 .debug_info    0x000000000008835b     0xa45a C:\Users\ajarr\AppData\Local\Temp\cco0QbZ8.o
 .debug_info    0x00000000000927b5     0x4d60 C:\Users\ajarr\AppData\Local\Temp\cc5Z9OQN.o
 .debug_info    0x0000000000097515     0x94ad C:\Users\ajarr\AppData\Local\Temp\cchzLcEP.o
 .debug_info    0x00000000000a09c2     0xabd4 C:\Users\ajarr\AppData\Local\Temp\ccDrgrG5.o
 .debug_info    0x00000000000ab596     0x7837 C:\Users\ajarr\AppData\Local\Temp\ccpYH1o5.o
 .debug_info    0x00000000000b2dcd     0xafca C:\Users\ajarr\AppData\Local\Temp\cce8IkUa.o
 .debug_info    0x00000000000bdd97     0x7ae1 C:\Users\ajarr\AppData\Local\Temp\ccmHMWab.o
 .debug_info    0x00000000000c5878     0xae65 C:\Users\ajarr\AppData\Local\Temp\ccwpWlcN.o
 .debug_info    0x00000000000d06dd     0x5230 C:\Users\ajarr\AppData\Local\Temp\ccIOj7WD.o
 .debug_info    0x00000000000d590d       0xcc C:\Users\ajarr\AppData\Local\Temp\ccaOdSgz.o
 .debug_info    0x00000000000d59d9      0xb79 c:/opt/bcc-2.0.2-gcc/bin/../lib/gcc/sparc-gaisler-elf/7.2.0/../../../../sparc-gaisler-elf/lib/leon/mfix-at697f\libm.a(lib_a-s_atan.o)
 .debug_info    0x00000000000d6552      0xa78 c:/opt/bcc-2.0.2-gcc/bin/../lib/gcc/sparc-gaisler-elf/7.2.0/../../../../sparc-gaisler-elf/lib/leon/mfix-at697f\libm.a(lib_a-s_cos.o)
 .debug_info    0x00000000000d6fca      0xa44 c:/opt/bcc-2.0.2-gcc/bin/../lib/gcc/sparc-gaisler-elf/7.2.0/../../../../sparc-gaisler-elf/lib/leon/mfix-at697f\libm.a(lib_a-s_fabs.o)
 .debug_info    0x00000000000d7a0e      0xaa1 c:/opt/bcc-2.0.2-gcc/bin/../lib/gcc/sparc-gaisler-elf/7.2.0/../../../../sparc-gaisler-elf/lib/leon/mfix-at697f\libm.a(lib_a-s_floor.o)
 .debug_info    0x00000000000d84af      0xab7 c:/opt/bcc-2.0.2-gcc/bin/../lib/gcc/sparc-gaisler-elf/7.2.0/../../../../sparc-gaisler-elf/lib/leon/mfix-at697f\libm.a(lib_a-s_round.o)
 .debug_info    0x00000000000d8f66      0xa78 c:/opt/bcc-2.0.2-gcc/bin/../lib/gcc/sparc-gaisler-elf/7.2.0/../../../../sparc-gaisler-elf/lib/leon/mfix-at697f\libm.a(lib_a-s_sin.o)
 .debug_info    0x00000000000d99de      0xa78 c:/opt/bcc-2.0.2-gcc/bin/../lib/gcc/sparc-gaisler-elf/7.2.0/../../../../sparc-gaisler-elf/lib/leon/mfix-at697f\libm.a(lib_a-s_tan.o)
 .debug_info    0x00000000000da456      0xa60 c:/opt/bcc-2.0.2-gcc/bin/../lib/gcc/sparc-gaisler-elf/7.2.0/../../../../sparc-gaisler-elf/lib/leon/mfix-at697f\libm.a(lib_a-w_acos.o)
 .debug_info    0x00000000000daeb6      0xa60 c:/opt/bcc-2.0.2-gcc/bin/../lib/gcc/sparc-gaisler-elf/7.2.0/../../../../sparc-gaisler-elf/lib/leon/mfix-at697f\libm.a(lib_a-w_asin.o)
 .debug_info    0x00000000000db916      0x9ef c:/opt/bcc-2.0.2-gcc/bin/../lib/gcc/sparc-gaisler-elf/7.2.0/../../../../sparc-gaisler-elf/lib/leon/mfix-at697f\libm.a(lib_a-w_atan2.o)
 .debug_info    0x00000000000dc305      0xa6d c:/opt/bcc-2.0.2-gcc/bin/../lib/gcc/sparc-gaisler-elf/7.2.0/../../../../sparc-gaisler-elf/lib/leon/mfix-at697f\libm.a(lib_a-w_fmod.o)
 .debug_info    0x00000000000dcd72      0xa6d c:/opt/bcc-2.0.2-gcc/bin/../lib/gcc/sparc-gaisler-elf/7.2.0/../../../../sparc-gaisler-elf/lib/leon/mfix-at697f\libm.a(lib_a-w_pow.o)
 .debug_info    0x00000000000dd7df      0xa60 c:/opt/bcc-2.0.2-gcc/bin/../lib/gcc/sparc-gaisler-elf/7.2.0/../../../../sparc-gaisler-elf/lib/leon/mfix-at697f\libm.a(lib_a-w_sqrt.o)
 .debug_info    0x00000000000de23f      0xbfe c:/opt/bcc-2.0.2-gcc/bin/../lib/gcc/sparc-gaisler-elf/7.2.0/../../../../sparc-gaisler-elf/lib/leon/mfix-at697f\libm.a(lib_a-e_acos.o)
 .debug_info    0x00000000000dee3d      0xc09 c:/opt/bcc-2.0.2-gcc/bin/../lib/gcc/sparc-gaisler-elf/7.2.0/../../../../sparc-gaisler-elf/lib/leon/mfix-at697f\libm.a(lib_a-e_asin.o)
 .debug_info    0x00000000000dfa46      0xb76 c:/opt/bcc-2.0.2-gcc/bin/../lib/gcc/sparc-gaisler-elf/7.2.0/../../../../sparc-gaisler-elf/lib/leon/mfix-at697f\libm.a(lib_a-e_atan2.o)
 .debug_info    0x00000000000e05bc      0xb62 c:/opt/bcc-2.0.2-gcc/bin/../lib/gcc/sparc-gaisler-elf/7.2.0/../../../../sparc-gaisler-elf/lib/leon/mfix-at697f\libm.a(lib_a-e_fmod.o)
 .debug_info    0x00000000000e111e      0xfb9 c:/opt/bcc-2.0.2-gcc/bin/../lib/gcc/sparc-gaisler-elf/7.2.0/../../../../sparc-gaisler-elf/lib/leon/mfix-at697f\libm.a(lib_a-e_pow.o)
 .debug_info    0x00000000000e20d7      0xc9d c:/opt/bcc-2.0.2-gcc/bin/../lib/gcc/sparc-gaisler-elf/7.2.0/../../../../sparc-gaisler-elf/lib/leon/mfix-at697f\libm.a(lib_a-e_rem_pio2.o)
 .debug_info    0x00000000000e2d74      0xb2d c:/opt/bcc-2.0.2-gcc/bin/../lib/gcc/sparc-gaisler-elf/7.2.0/../../../../sparc-gaisler-elf/lib/leon/mfix-at697f\libm.a(lib_a-e_sqrt.o)
 .debug_info    0x00000000000e38a1      0xb37 c:/opt/bcc-2.0.2-gcc/bin/../lib/gcc/sparc-gaisler-elf/7.2.0/../../../../sparc-gaisler-elf/lib/leon/mfix-at697f\libm.a(lib_a-k_cos.o)
 .debug_info    0x00000000000e43d8      0xbd5 c:/opt/bcc-2.0.2-gcc/bin/../lib/gcc/sparc-gaisler-elf/7.2.0/../../../../sparc-gaisler-elf/lib/leon/mfix-at697f\libm.a(lib_a-k_rem_pio2.o)
 .debug_info    0x00000000000e4fad      0xb0a c:/opt/bcc-2.0.2-gcc/bin/../lib/gcc/sparc-gaisler-elf/7.2.0/../../../../sparc-gaisler-elf/lib/leon/mfix-at697f\libm.a(lib_a-k_sin.o)
 .debug_info    0x00000000000e5ab7      0xbeb c:/opt/bcc-2.0.2-gcc/bin/../lib/gcc/sparc-gaisler-elf/7.2.0/../../../../sparc-gaisler-elf/lib/leon/mfix-at697f\libm.a(lib_a-k_tan.o)
 .debug_info    0x00000000000e66a2      0xa30 c:/opt/bcc-2.0.2-gcc/bin/../lib/gcc/sparc-gaisler-elf/7.2.0/../../../../sparc-gaisler-elf/lib/leon/mfix-at697f\libm.a(lib_a-s_finite.o)
 .debug_info    0x00000000000e70d2      0x98c c:/opt/bcc-2.0.2-gcc/bin/../lib/gcc/sparc-gaisler-elf/7.2.0/../../../../sparc-gaisler-elf/lib/leon/mfix-at697f\libm.a(lib_a-s_lib_ver.o)
 .debug_info    0x00000000000e7a5e      0xa2a c:/opt/bcc-2.0.2-gcc/bin/../lib/gcc/sparc-gaisler-elf/7.2.0/../../../../sparc-gaisler-elf/lib/leon/mfix-at697f\libm.a(lib_a-s_matherr.o)
 .debug_info    0x00000000000e8488      0x9c0 c:/opt/bcc-2.0.2-gcc/bin/../lib/gcc/sparc-gaisler-elf/7.2.0/../../../../sparc-gaisler-elf/lib/leon/mfix-at697f\libm.a(lib_a-s_nan.o)
 .debug_info    0x00000000000e8e48      0xb1e c:/opt/bcc-2.0.2-gcc/bin/../lib/gcc/sparc-gaisler-elf/7.2.0/../../../../sparc-gaisler-elf/lib/leon/mfix-at697f\libm.a(lib_a-s_rint.o)
 .debug_info    0x00000000000e9966      0xb0a c:/opt/bcc-2.0.2-gcc/bin/../lib/gcc/sparc-gaisler-elf/7.2.0/../../../../sparc-gaisler-elf/lib/leon/mfix-at697f\libm.a(lib_a-s_scalbn.o)
 .debug_info    0x00000000000ea470      0xa6c c:/opt/bcc-2.0.2-gcc/bin/../lib/gcc/sparc-gaisler-elf/7.2.0/../../../../sparc-gaisler-elf/lib/leon/mfix-at697f\libm.a(lib_a-s_copysign.o)
 .debug_info    0x00000000000eaedc       0xd0 c:/opt/bcc-2.0.2-gcc/bin/../sparc-gaisler-elf/bsp/leon2/leon/mfix-at697f\libbcc.a(reset_trap_mvt.S.o)
 .debug_info    0x00000000000eafac       0xcd c:/opt/bcc-2.0.2-gcc/bin/../sparc-gaisler-elf/bsp/leon2/leon/mfix-at697f\libbcc.a(window_trap.S.o)
 .debug_info    0x00000000000eb079       0xd0 c:/opt/bcc-2.0.2-gcc/bin/../sparc-gaisler-elf/bsp/leon2/leon/mfix-at697f\libbcc.a(interrupt_trap.S.o)
 .debug_info    0x00000000000eb149       0xd4 c:/opt/bcc-2.0.2-gcc/bin/../sparc-gaisler-elf/bsp/leon2/leon/mfix-at697f\libbcc.a(flush_windows_trap.S.o)
 .debug_info    0x00000000000eb21d       0xd1 c:/opt/bcc-2.0.2-gcc/bin/../sparc-gaisler-elf/bsp/leon2/leon/mfix-at697f\libbcc.a(sw_trap_set_pil.S.o)
 .debug_info    0x00000000000eb2ee      0x2d1 c:/opt/bcc-2.0.2-gcc/bin/../sparc-gaisler-elf/bsp/leon2/leon/mfix-at697f\libbcc.a(trap.c.o)
 .debug_info    0x00000000000eb5bf      0x9e6 c:/opt/bcc-2.0.2-gcc/bin/../sparc-gaisler-elf/bsp/leon2/leon/mfix-at697f\libbcc.a(isr.c.o)
 .debug_info    0x00000000000ebfa5       0xc5 c:/opt/bcc-2.0.2-gcc/bin/../sparc-gaisler-elf/bsp/leon2/leon/mfix-at697f\libbcc.a(int_nest.c.o)
 .debug_info    0x00000000000ec06a       0xc1 c:/opt/bcc-2.0.2-gcc/bin/../sparc-gaisler-elf/bsp/leon2/leon/mfix-at697f\libbcc.a(init.S.o)
 .debug_info    0x00000000000ec12b       0xc6 c:/opt/bcc-2.0.2-gcc/bin/../sparc-gaisler-elf/bsp/leon2/leon/mfix-at697f\libbcc.a(leon_info.S.o)
 .debug_info    0x00000000000ec1f1       0xc3 c:/opt/bcc-2.0.2-gcc/bin/../sparc-gaisler-elf/bsp/leon2/leon/mfix-at697f\libbcc.a(dwzero.S.o)
 .debug_info    0x00000000000ec2b4       0xe9 c:/opt/bcc-2.0.2-gcc/bin/../sparc-gaisler-elf/bsp/leon2/leon/mfix-at697f\libbcc.a(copy_data.c.o)
 .debug_info    0x00000000000ec39d       0xc5 c:/opt/bcc-2.0.2-gcc/bin/../sparc-gaisler-elf/bsp/leon2/leon/mfix-at697f\libbcc.a(lowlevel.S.o)
 .debug_info    0x00000000000ec462       0xcb c:/opt/bcc-2.0.2-gcc/bin/../sparc-gaisler-elf/bsp/leon2/leon/mfix-at697f\libbcc.a(lowlevel_leon2.S.o)
 .debug_info    0x00000000000ec52d      0x366 c:/opt/bcc-2.0.2-gcc/bin/../sparc-gaisler-elf/bsp/leon2/leon/mfix-at697f\libbcc.a(int_leon2.c.o)
 .debug_info    0x00000000000ec893       0x57 c:/opt/bcc-2.0.2-gcc/bin/../sparc-gaisler-elf/bsp/leon2/leon/mfix-at697f\libbcc.a(int_leon2_get_source.c.o)
 .debug_info    0x00000000000ec8ea      0x139 c:/opt/bcc-2.0.2-gcc/bin/../sparc-gaisler-elf/bsp/leon2/leon/mfix-at697f\libbcc.a(int_leon2_init.c.o)
 .debug_info    0x00000000000eca23      0x1fb c:/opt/bcc-2.0.2-gcc/bin/../sparc-gaisler-elf/bsp/leon2/leon/mfix-at697f\libbcc.a(con_leon2.c.o)
 .debug_info    0x00000000000ecc1e      0x216 c:/opt/bcc-2.0.2-gcc/bin/../sparc-gaisler-elf/bsp/leon2/leon/mfix-at697f\libbcc.a(timer_leon2.c.o)
 .debug_info    0x00000000000ece34       0xc4 c:/opt/bcc-2.0.2-gcc/bin/../sparc-gaisler-elf/bsp/leon2/leon/mfix-at697f\libbcc.a(set_pil.S.o)
 .debug_info    0x00000000000ecef8      0x10b c:/opt/bcc-2.0.2-gcc/bin/../sparc-gaisler-elf/bsp/leon2/leon/mfix-at697f\libbcc.a(int_leon2_handle.c.o)
 .debug_info    0x00000000000ed003      0x10b c:/opt/bcc-2.0.2-gcc/bin/../sparc-gaisler-elf/bsp/leon2/leon/mfix-at697f\libbcc.a(con_handle.c.o)
 .debug_info    0x00000000000ed10e      0x118 c:/opt/bcc-2.0.2-gcc/bin/../sparc-gaisler-elf/bsp/leon2/leon/mfix-at697f\libbcc.a(timer_handle.c.o)
 .debug_info    0x00000000000ed226      0x998 c:/opt/bcc-2.0.2-gcc/bin/../lib/gcc/sparc-gaisler-elf/7.2.0/../../../../sparc-gaisler-elf/lib/leon/mfix-at697f\libc.a(lib_a-atexit.o)
 .debug_info    0x00000000000edbbe      0x992 c:/opt/bcc-2.0.2-gcc/bin/../lib/gcc/sparc-gaisler-elf/7.2.0/../../../../sparc-gaisler-elf/lib/leon/mfix-at697f\libc.a(lib_a-errno.o)
 .debug_info    0x00000000000ee550      0x9cb c:/opt/bcc-2.0.2-gcc/bin/../lib/gcc/sparc-gaisler-elf/7.2.0/../../../../sparc-gaisler-elf/lib/leon/mfix-at697f\libc.a(lib_a-exit.o)
 .debug_info    0x00000000000eef1b      0x964 c:/opt/bcc-2.0.2-gcc/bin/../lib/gcc/sparc-gaisler-elf/7.2.0/../../../../sparc-gaisler-elf/lib/leon/mfix-at697f\libc.a(lib_a-impure.o)
 .debug_info    0x00000000000ef87f      0x9ef c:/opt/bcc-2.0.2-gcc/bin/../lib/gcc/sparc-gaisler-elf/7.2.0/../../../../sparc-gaisler-elf/lib/leon/mfix-at697f\libc.a(lib_a-memcpy.o)
 .debug_info    0x00000000000f026e      0xa0d c:/opt/bcc-2.0.2-gcc/bin/../lib/gcc/sparc-gaisler-elf/7.2.0/../../../../sparc-gaisler-elf/lib/leon/mfix-at697f\libc.a(lib_a-__atexit.o)
 .debug_info    0x00000000000f0c7b      0xa14 c:/opt/bcc-2.0.2-gcc/bin/../lib/gcc/sparc-gaisler-elf/7.2.0/../../../../sparc-gaisler-elf/lib/leon/mfix-at697f\libc.a(lib_a-__call_atexit.o)
 .debug_info    0x00000000000f168f       0xc2 c:/opt/bcc-2.0.2-gcc/bin/../sparc-gaisler-elf/bsp/leon2/leon/mfix-at697f\libbcc.a(_exit.S.o)

.debug_abbrev   0x0000000000000000     0x9aeb
 *(.debug_abbrev)
 .debug_abbrev  0x0000000000000000       0x14 c:/opt/bcc-2.0.2-gcc/bin/../sparc-gaisler-elf/bsp/leon2/leon/mfix-at697f/trap_table_mvt.S.o
 .debug_abbrev  0x0000000000000014       0x14 c:/opt/bcc-2.0.2-gcc/bin/../sparc-gaisler-elf/bsp/leon2/leon/mfix-at697f/crt0.S.o
 .debug_abbrev  0x0000000000000028      0x352 C:\Users\ajarr\AppData\Local\Temp\cclcRNkm.o
 .debug_abbrev  0x000000000000037a      0x37f C:\Users\ajarr\AppData\Local\Temp\ccXi6CuD.o
 .debug_abbrev  0x00000000000006f9      0x4d1 C:\Users\ajarr\AppData\Local\Temp\cck0ztpe.o
 .debug_abbrev  0x0000000000000bca      0x4d7 C:\Users\ajarr\AppData\Local\Temp\ccgZ79fC.o
 .debug_abbrev  0x00000000000010a1       0x14 C:\Users\ajarr\AppData\Local\Temp\cccsHxM4.o
 .debug_abbrev  0x00000000000010b5      0x2c0 C:\Users\ajarr\AppData\Local\Temp\cczKCchi.o
 .debug_abbrev  0x0000000000001375      0x36c C:\Users\ajarr\AppData\Local\Temp\ccySgCMJ.o
 .debug_abbrev  0x00000000000016e1      0x29a C:\Users\ajarr\AppData\Local\Temp\ccJGVwWh.o
 .debug_abbrev  0x000000000000197b      0x298 C:\Users\ajarr\AppData\Local\Temp\ccwUhEmU.o
 .debug_abbrev  0x0000000000001c13      0x2eb C:\Users\ajarr\AppData\Local\Temp\ccTGUrKF.o
 .debug_abbrev  0x0000000000001efe      0x2ed C:\Users\ajarr\AppData\Local\Temp\ccW8NopI.o
 .debug_abbrev  0x00000000000021eb      0x31f C:\Users\ajarr\AppData\Local\Temp\ccQfD6IQ.o
 .debug_abbrev  0x000000000000250a      0x30c C:\Users\ajarr\AppData\Local\Temp\ccegzvw7.o
 .debug_abbrev  0x0000000000002816      0x416 C:\Users\ajarr\AppData\Local\Temp\ccW8vVNE.o
 .debug_abbrev  0x0000000000002c2c      0x2d7 C:\Users\ajarr\AppData\Local\Temp\ccmmE1Hm.o
 .debug_abbrev  0x0000000000002f03      0x356 C:\Users\ajarr\AppData\Local\Temp\ccH43JHx.o
 .debug_abbrev  0x0000000000003259      0x2ca C:\Users\ajarr\AppData\Local\Temp\cco0QbZ8.o
 .debug_abbrev  0x0000000000003523      0x15b C:\Users\ajarr\AppData\Local\Temp\cc5Z9OQN.o
 .debug_abbrev  0x000000000000367e      0x354 C:\Users\ajarr\AppData\Local\Temp\cchzLcEP.o
 .debug_abbrev  0x00000000000039d2      0x2f5 C:\Users\ajarr\AppData\Local\Temp\ccDrgrG5.o
 .debug_abbrev  0x0000000000003cc7      0x27a C:\Users\ajarr\AppData\Local\Temp\ccpYH1o5.o
 .debug_abbrev  0x0000000000003f41      0x415 C:\Users\ajarr\AppData\Local\Temp\cce8IkUa.o
 .debug_abbrev  0x0000000000004356      0x15b C:\Users\ajarr\AppData\Local\Temp\ccmHMWab.o
 .debug_abbrev  0x00000000000044b1      0x400 C:\Users\ajarr\AppData\Local\Temp\ccwpWlcN.o
 .debug_abbrev  0x00000000000048b1      0x2b5 C:\Users\ajarr\AppData\Local\Temp\ccIOj7WD.o
 .debug_abbrev  0x0000000000004b66       0x34 C:\Users\ajarr\AppData\Local\Temp\ccaOdSgz.o
 .debug_abbrev  0x0000000000004b9a      0x216 c:/opt/bcc-2.0.2-gcc/bin/../lib/gcc/sparc-gaisler-elf/7.2.0/../../../../sparc-gaisler-elf/lib/leon/mfix-at697f\libm.a(lib_a-s_atan.o)
 .debug_abbrev  0x0000000000004db0      0x1f3 c:/opt/bcc-2.0.2-gcc/bin/../lib/gcc/sparc-gaisler-elf/7.2.0/../../../../sparc-gaisler-elf/lib/leon/mfix-at697f\libm.a(lib_a-s_cos.o)
 .debug_abbrev  0x0000000000004fa3      0x1d3 c:/opt/bcc-2.0.2-gcc/bin/../lib/gcc/sparc-gaisler-elf/7.2.0/../../../../sparc-gaisler-elf/lib/leon/mfix-at697f\libm.a(lib_a-s_fabs.o)
 .debug_abbrev  0x0000000000005176      0x1f1 c:/opt/bcc-2.0.2-gcc/bin/../lib/gcc/sparc-gaisler-elf/7.2.0/../../../../sparc-gaisler-elf/lib/leon/mfix-at697f\libm.a(lib_a-s_floor.o)
 .debug_abbrev  0x0000000000005367      0x1fa c:/opt/bcc-2.0.2-gcc/bin/../lib/gcc/sparc-gaisler-elf/7.2.0/../../../../sparc-gaisler-elf/lib/leon/mfix-at697f\libm.a(lib_a-s_round.o)
 .debug_abbrev  0x0000000000005561      0x1f3 c:/opt/bcc-2.0.2-gcc/bin/../lib/gcc/sparc-gaisler-elf/7.2.0/../../../../sparc-gaisler-elf/lib/leon/mfix-at697f\libm.a(lib_a-s_sin.o)
 .debug_abbrev  0x0000000000005754      0x1f3 c:/opt/bcc-2.0.2-gcc/bin/../lib/gcc/sparc-gaisler-elf/7.2.0/../../../../sparc-gaisler-elf/lib/leon/mfix-at697f\libm.a(lib_a-s_tan.o)
 .debug_abbrev  0x0000000000005947      0x1b4 c:/opt/bcc-2.0.2-gcc/bin/../lib/gcc/sparc-gaisler-elf/7.2.0/../../../../sparc-gaisler-elf/lib/leon/mfix-at697f\libm.a(lib_a-w_acos.o)
 .debug_abbrev  0x0000000000005afb      0x1b4 c:/opt/bcc-2.0.2-gcc/bin/../lib/gcc/sparc-gaisler-elf/7.2.0/../../../../sparc-gaisler-elf/lib/leon/mfix-at697f\libm.a(lib_a-w_asin.o)
 .debug_abbrev  0x0000000000005caf      0x196 c:/opt/bcc-2.0.2-gcc/bin/../lib/gcc/sparc-gaisler-elf/7.2.0/../../../../sparc-gaisler-elf/lib/leon/mfix-at697f\libm.a(lib_a-w_atan2.o)
 .debug_abbrev  0x0000000000005e45      0x1b4 c:/opt/bcc-2.0.2-gcc/bin/../lib/gcc/sparc-gaisler-elf/7.2.0/../../../../sparc-gaisler-elf/lib/leon/mfix-at697f\libm.a(lib_a-w_fmod.o)
 .debug_abbrev  0x0000000000005ff9      0x1b4 c:/opt/bcc-2.0.2-gcc/bin/../lib/gcc/sparc-gaisler-elf/7.2.0/../../../../sparc-gaisler-elf/lib/leon/mfix-at697f\libm.a(lib_a-w_pow.o)
 .debug_abbrev  0x00000000000061ad      0x1b4 c:/opt/bcc-2.0.2-gcc/bin/../lib/gcc/sparc-gaisler-elf/7.2.0/../../../../sparc-gaisler-elf/lib/leon/mfix-at697f\libm.a(lib_a-w_sqrt.o)
 .debug_abbrev  0x0000000000006361      0x207 c:/opt/bcc-2.0.2-gcc/bin/../lib/gcc/sparc-gaisler-elf/7.2.0/../../../../sparc-gaisler-elf/lib/leon/mfix-at697f\libm.a(lib_a-e_acos.o)
 .debug_abbrev  0x0000000000006568      0x216 c:/opt/bcc-2.0.2-gcc/bin/../lib/gcc/sparc-gaisler-elf/7.2.0/../../../../sparc-gaisler-elf/lib/leon/mfix-at697f\libm.a(lib_a-e_asin.o)
 .debug_abbrev  0x000000000000677e      0x227 c:/opt/bcc-2.0.2-gcc/bin/../lib/gcc/sparc-gaisler-elf/7.2.0/../../../../sparc-gaisler-elf/lib/leon/mfix-at697f\libm.a(lib_a-e_atan2.o)
 .debug_abbrev  0x00000000000069a5      0x211 c:/opt/bcc-2.0.2-gcc/bin/../lib/gcc/sparc-gaisler-elf/7.2.0/../../../../sparc-gaisler-elf/lib/leon/mfix-at697f\libm.a(lib_a-e_fmod.o)
 .debug_abbrev  0x0000000000006bb6      0x234 c:/opt/bcc-2.0.2-gcc/bin/../lib/gcc/sparc-gaisler-elf/7.2.0/../../../../sparc-gaisler-elf/lib/leon/mfix-at697f\libm.a(lib_a-e_pow.o)
 .debug_abbrev  0x0000000000006dea      0x235 c:/opt/bcc-2.0.2-gcc/bin/../lib/gcc/sparc-gaisler-elf/7.2.0/../../../../sparc-gaisler-elf/lib/leon/mfix-at697f\libm.a(lib_a-e_rem_pio2.o)
 .debug_abbrev  0x000000000000701f      0x213 c:/opt/bcc-2.0.2-gcc/bin/../lib/gcc/sparc-gaisler-elf/7.2.0/../../../../sparc-gaisler-elf/lib/leon/mfix-at697f\libm.a(lib_a-e_sqrt.o)
 .debug_abbrev  0x0000000000007232      0x202 c:/opt/bcc-2.0.2-gcc/bin/../lib/gcc/sparc-gaisler-elf/7.2.0/../../../../sparc-gaisler-elf/lib/leon/mfix-at697f\libm.a(lib_a-k_cos.o)
 .debug_abbrev  0x0000000000007434      0x1fd c:/opt/bcc-2.0.2-gcc/bin/../lib/gcc/sparc-gaisler-elf/7.2.0/../../../../sparc-gaisler-elf/lib/leon/mfix-at697f\libm.a(lib_a-k_rem_pio2.o)
 .debug_abbrev  0x0000000000007631      0x1f7 c:/opt/bcc-2.0.2-gcc/bin/../lib/gcc/sparc-gaisler-elf/7.2.0/../../../../sparc-gaisler-elf/lib/leon/mfix-at697f\libm.a(lib_a-k_sin.o)
 .debug_abbrev  0x0000000000007828      0x207 c:/opt/bcc-2.0.2-gcc/bin/../lib/gcc/sparc-gaisler-elf/7.2.0/../../../../sparc-gaisler-elf/lib/leon/mfix-at697f\libm.a(lib_a-k_tan.o)
 .debug_abbrev  0x0000000000007a2f      0x1c6 c:/opt/bcc-2.0.2-gcc/bin/../lib/gcc/sparc-gaisler-elf/7.2.0/../../../../sparc-gaisler-elf/lib/leon/mfix-at697f\libm.a(lib_a-s_finite.o)
 .debug_abbrev  0x0000000000007bf5      0x163 c:/opt/bcc-2.0.2-gcc/bin/../lib/gcc/sparc-gaisler-elf/7.2.0/../../../../sparc-gaisler-elf/lib/leon/mfix-at697f\libm.a(lib_a-s_lib_ver.o)
 .debug_abbrev  0x0000000000007d58      0x191 c:/opt/bcc-2.0.2-gcc/bin/../lib/gcc/sparc-gaisler-elf/7.2.0/../../../../sparc-gaisler-elf/lib/leon/mfix-at697f\libm.a(lib_a-s_matherr.o)
 .debug_abbrev  0x0000000000007ee9      0x18f c:/opt/bcc-2.0.2-gcc/bin/../lib/gcc/sparc-gaisler-elf/7.2.0/../../../../sparc-gaisler-elf/lib/leon/mfix-at697f\libm.a(lib_a-s_nan.o)
 .debug_abbrev  0x0000000000008078      0x212 c:/opt/bcc-2.0.2-gcc/bin/../lib/gcc/sparc-gaisler-elf/7.2.0/../../../../sparc-gaisler-elf/lib/leon/mfix-at697f\libm.a(lib_a-s_rint.o)
 .debug_abbrev  0x000000000000828a      0x202 c:/opt/bcc-2.0.2-gcc/bin/../lib/gcc/sparc-gaisler-elf/7.2.0/../../../../sparc-gaisler-elf/lib/leon/mfix-at697f\libm.a(lib_a-s_scalbn.o)
 .debug_abbrev  0x000000000000848c      0x1e0 c:/opt/bcc-2.0.2-gcc/bin/../lib/gcc/sparc-gaisler-elf/7.2.0/../../../../sparc-gaisler-elf/lib/leon/mfix-at697f\libm.a(lib_a-s_copysign.o)
 .debug_abbrev  0x000000000000866c       0x14 c:/opt/bcc-2.0.2-gcc/bin/../sparc-gaisler-elf/bsp/leon2/leon/mfix-at697f\libbcc.a(reset_trap_mvt.S.o)
 .debug_abbrev  0x0000000000008680       0x14 c:/opt/bcc-2.0.2-gcc/bin/../sparc-gaisler-elf/bsp/leon2/leon/mfix-at697f\libbcc.a(window_trap.S.o)
 .debug_abbrev  0x0000000000008694       0x14 c:/opt/bcc-2.0.2-gcc/bin/../sparc-gaisler-elf/bsp/leon2/leon/mfix-at697f\libbcc.a(interrupt_trap.S.o)
 .debug_abbrev  0x00000000000086a8       0x14 c:/opt/bcc-2.0.2-gcc/bin/../sparc-gaisler-elf/bsp/leon2/leon/mfix-at697f\libbcc.a(flush_windows_trap.S.o)
 .debug_abbrev  0x00000000000086bc       0x14 c:/opt/bcc-2.0.2-gcc/bin/../sparc-gaisler-elf/bsp/leon2/leon/mfix-at697f\libbcc.a(sw_trap_set_pil.S.o)
 .debug_abbrev  0x00000000000086d0      0x17e c:/opt/bcc-2.0.2-gcc/bin/../sparc-gaisler-elf/bsp/leon2/leon/mfix-at697f\libbcc.a(trap.c.o)
 .debug_abbrev  0x000000000000884e      0x153 c:/opt/bcc-2.0.2-gcc/bin/../sparc-gaisler-elf/bsp/leon2/leon/mfix-at697f\libbcc.a(isr.c.o)
 .debug_abbrev  0x00000000000089a1       0x79 c:/opt/bcc-2.0.2-gcc/bin/../sparc-gaisler-elf/bsp/leon2/leon/mfix-at697f\libbcc.a(int_nest.c.o)
 .debug_abbrev  0x0000000000008a1a       0x14 c:/opt/bcc-2.0.2-gcc/bin/../sparc-gaisler-elf/bsp/leon2/leon/mfix-at697f\libbcc.a(init.S.o)
 .debug_abbrev  0x0000000000008a2e       0x14 c:/opt/bcc-2.0.2-gcc/bin/../sparc-gaisler-elf/bsp/leon2/leon/mfix-at697f\libbcc.a(leon_info.S.o)
 .debug_abbrev  0x0000000000008a42       0x14 c:/opt/bcc-2.0.2-gcc/bin/../sparc-gaisler-elf/bsp/leon2/leon/mfix-at697f\libbcc.a(dwzero.S.o)
 .debug_abbrev  0x0000000000008a56       0x7c c:/opt/bcc-2.0.2-gcc/bin/../sparc-gaisler-elf/bsp/leon2/leon/mfix-at697f\libbcc.a(copy_data.c.o)
 .debug_abbrev  0x0000000000008ad2       0x14 c:/opt/bcc-2.0.2-gcc/bin/../sparc-gaisler-elf/bsp/leon2/leon/mfix-at697f\libbcc.a(lowlevel.S.o)
 .debug_abbrev  0x0000000000008ae6       0x14 c:/opt/bcc-2.0.2-gcc/bin/../sparc-gaisler-elf/bsp/leon2/leon/mfix-at697f\libbcc.a(lowlevel_leon2.S.o)
 .debug_abbrev  0x0000000000008afa      0x162 c:/opt/bcc-2.0.2-gcc/bin/../sparc-gaisler-elf/bsp/leon2/leon/mfix-at697f\libbcc.a(int_leon2.c.o)
 .debug_abbrev  0x0000000000008c5c       0x47 c:/opt/bcc-2.0.2-gcc/bin/../sparc-gaisler-elf/bsp/leon2/leon/mfix-at697f\libbcc.a(int_leon2_get_source.c.o)
 .debug_abbrev  0x0000000000008ca3       0x7e c:/opt/bcc-2.0.2-gcc/bin/../sparc-gaisler-elf/bsp/leon2/leon/mfix-at697f\libbcc.a(int_leon2_init.c.o)
 .debug_abbrev  0x0000000000008d21       0xd8 c:/opt/bcc-2.0.2-gcc/bin/../sparc-gaisler-elf/bsp/leon2/leon/mfix-at697f\libbcc.a(con_leon2.c.o)
 .debug_abbrev  0x0000000000008df9       0xec c:/opt/bcc-2.0.2-gcc/bin/../sparc-gaisler-elf/bsp/leon2/leon/mfix-at697f\libbcc.a(timer_leon2.c.o)
 .debug_abbrev  0x0000000000008ee5       0x14 c:/opt/bcc-2.0.2-gcc/bin/../sparc-gaisler-elf/bsp/leon2/leon/mfix-at697f\libbcc.a(set_pil.S.o)
 .debug_abbrev  0x0000000000008ef9       0x5a c:/opt/bcc-2.0.2-gcc/bin/../sparc-gaisler-elf/bsp/leon2/leon/mfix-at697f\libbcc.a(int_leon2_handle.c.o)
 .debug_abbrev  0x0000000000008f53       0x5a c:/opt/bcc-2.0.2-gcc/bin/../sparc-gaisler-elf/bsp/leon2/leon/mfix-at697f\libbcc.a(con_handle.c.o)
 .debug_abbrev  0x0000000000008fad       0x5a c:/opt/bcc-2.0.2-gcc/bin/../sparc-gaisler-elf/bsp/leon2/leon/mfix-at697f\libbcc.a(timer_handle.c.o)
 .debug_abbrev  0x0000000000009007      0x188 c:/opt/bcc-2.0.2-gcc/bin/../lib/gcc/sparc-gaisler-elf/7.2.0/../../../../sparc-gaisler-elf/lib/leon/mfix-at697f\libc.a(lib_a-atexit.o)
 .debug_abbrev  0x000000000000918f      0x166 c:/opt/bcc-2.0.2-gcc/bin/../lib/gcc/sparc-gaisler-elf/7.2.0/../../../../sparc-gaisler-elf/lib/leon/mfix-at697f\libc.a(lib_a-errno.o)
 .debug_abbrev  0x00000000000092f5      0x16e c:/opt/bcc-2.0.2-gcc/bin/../lib/gcc/sparc-gaisler-elf/7.2.0/../../../../sparc-gaisler-elf/lib/leon/mfix-at697f\libc.a(lib_a-exit.o)
 .debug_abbrev  0x0000000000009463      0x14d c:/opt/bcc-2.0.2-gcc/bin/../lib/gcc/sparc-gaisler-elf/7.2.0/../../../../sparc-gaisler-elf/lib/leon/mfix-at697f\libc.a(lib_a-impure.o)
 .debug_abbrev  0x00000000000095b0      0x184 c:/opt/bcc-2.0.2-gcc/bin/../lib/gcc/sparc-gaisler-elf/7.2.0/../../../../sparc-gaisler-elf/lib/leon/mfix-at697f\libc.a(lib_a-memcpy.o)
 .debug_abbrev  0x0000000000009734      0x1cd c:/opt/bcc-2.0.2-gcc/bin/../lib/gcc/sparc-gaisler-elf/7.2.0/../../../../sparc-gaisler-elf/lib/leon/mfix-at697f\libc.a(lib_a-__atexit.o)
 .debug_abbrev  0x0000000000009901      0x1d6 c:/opt/bcc-2.0.2-gcc/bin/../lib/gcc/sparc-gaisler-elf/7.2.0/../../../../sparc-gaisler-elf/lib/leon/mfix-at697f\libc.a(lib_a-__call_atexit.o)
 .debug_abbrev  0x0000000000009ad7       0x14 c:/opt/bcc-2.0.2-gcc/bin/../sparc-gaisler-elf/bsp/leon2/leon/mfix-at697f\libbcc.a(_exit.S.o)

.debug_line     0x0000000000000000    0x12a3b
 *(.debug_line)
 .debug_line    0x0000000000000000       0xda c:/opt/bcc-2.0.2-gcc/bin/../sparc-gaisler-elf/bsp/leon2/leon/mfix-at697f/trap_table_mvt.S.o
 .debug_line    0x00000000000000da       0x84 c:/opt/bcc-2.0.2-gcc/bin/../sparc-gaisler-elf/bsp/leon2/leon/mfix-at697f/crt0.S.o
 .debug_line    0x000000000000015e      0x2f6 C:\Users\ajarr\AppData\Local\Temp\cclcRNkm.o
 .debug_line    0x0000000000000454      0x2b8 C:\Users\ajarr\AppData\Local\Temp\ccXi6CuD.o
 .debug_line    0x000000000000070c     0x459c C:\Users\ajarr\AppData\Local\Temp\cck0ztpe.o
 .debug_line    0x0000000000004ca8      0xce9 C:\Users\ajarr\AppData\Local\Temp\ccgZ79fC.o
 .debug_line    0x0000000000005991       0x47 C:\Users\ajarr\AppData\Local\Temp\cccsHxM4.o
 .debug_line    0x00000000000059d8      0x547 C:\Users\ajarr\AppData\Local\Temp\cczKCchi.o
 .debug_line    0x0000000000005f1f      0x2c8 C:\Users\ajarr\AppData\Local\Temp\ccySgCMJ.o
 .debug_line    0x00000000000061e7       0xfe C:\Users\ajarr\AppData\Local\Temp\ccJGVwWh.o
 .debug_line    0x00000000000062e5       0xcf C:\Users\ajarr\AppData\Local\Temp\ccwUhEmU.o
 .debug_line    0x00000000000063b4      0x16a C:\Users\ajarr\AppData\Local\Temp\ccTGUrKF.o
 .debug_line    0x000000000000651e      0x34e C:\Users\ajarr\AppData\Local\Temp\ccW8NopI.o
 .debug_line    0x000000000000686c      0x3b2 C:\Users\ajarr\AppData\Local\Temp\ccQfD6IQ.o
 .debug_line    0x0000000000006c1e      0x24d C:\Users\ajarr\AppData\Local\Temp\ccegzvw7.o
 .debug_line    0x0000000000006e6b      0x304 C:\Users\ajarr\AppData\Local\Temp\ccW8vVNE.o
 .debug_line    0x000000000000716f      0x163 C:\Users\ajarr\AppData\Local\Temp\ccmmE1Hm.o
 .debug_line    0x00000000000072d2      0x86b C:\Users\ajarr\AppData\Local\Temp\ccH43JHx.o
 .debug_line    0x0000000000007b3d      0x825 C:\Users\ajarr\AppData\Local\Temp\cco0QbZ8.o
 .debug_line    0x0000000000008362       0x4b C:\Users\ajarr\AppData\Local\Temp\cc5Z9OQN.o
 .debug_line    0x00000000000083ad      0x6b6 C:\Users\ajarr\AppData\Local\Temp\cchzLcEP.o
 .debug_line    0x0000000000008a63      0x3f8 C:\Users\ajarr\AppData\Local\Temp\ccDrgrG5.o
 .debug_line    0x0000000000008e5b      0xd16 C:\Users\ajarr\AppData\Local\Temp\ccpYH1o5.o
 .debug_line    0x0000000000009b71      0xd05 C:\Users\ajarr\AppData\Local\Temp\cce8IkUa.o
 .debug_line    0x000000000000a876       0x51 C:\Users\ajarr\AppData\Local\Temp\ccmHMWab.o
 .debug_line    0x000000000000a8c7      0xbb2 C:\Users\ajarr\AppData\Local\Temp\ccwpWlcN.o
 .debug_line    0x000000000000b479      0x29d C:\Users\ajarr\AppData\Local\Temp\ccIOj7WD.o
 .debug_line    0x000000000000b716       0x50 C:\Users\ajarr\AppData\Local\Temp\ccaOdSgz.o
 .debug_line    0x000000000000b766      0x2b6 c:/opt/bcc-2.0.2-gcc/bin/../lib/gcc/sparc-gaisler-elf/7.2.0/../../../../sparc-gaisler-elf/lib/leon/mfix-at697f\libm.a(lib_a-s_atan.o)
 .debug_line    0x000000000000ba1c      0x273 c:/opt/bcc-2.0.2-gcc/bin/../lib/gcc/sparc-gaisler-elf/7.2.0/../../../../sparc-gaisler-elf/lib/leon/mfix-at697f\libm.a(lib_a-s_cos.o)
 .debug_line    0x000000000000bc8f      0x260 c:/opt/bcc-2.0.2-gcc/bin/../lib/gcc/sparc-gaisler-elf/7.2.0/../../../../sparc-gaisler-elf/lib/leon/mfix-at697f\libm.a(lib_a-s_fabs.o)
 .debug_line    0x000000000000beef      0x295 c:/opt/bcc-2.0.2-gcc/bin/../lib/gcc/sparc-gaisler-elf/7.2.0/../../../../sparc-gaisler-elf/lib/leon/mfix-at697f\libm.a(lib_a-s_floor.o)
 .debug_line    0x000000000000c184      0x249 c:/opt/bcc-2.0.2-gcc/bin/../lib/gcc/sparc-gaisler-elf/7.2.0/../../../../sparc-gaisler-elf/lib/leon/mfix-at697f\libm.a(lib_a-s_round.o)
 .debug_line    0x000000000000c3cd      0x274 c:/opt/bcc-2.0.2-gcc/bin/../lib/gcc/sparc-gaisler-elf/7.2.0/../../../../sparc-gaisler-elf/lib/leon/mfix-at697f\libm.a(lib_a-s_sin.o)
 .debug_line    0x000000000000c641      0x26e c:/opt/bcc-2.0.2-gcc/bin/../lib/gcc/sparc-gaisler-elf/7.2.0/../../../../sparc-gaisler-elf/lib/leon/mfix-at697f\libm.a(lib_a-s_tan.o)
 .debug_line    0x000000000000c8af      0x1de c:/opt/bcc-2.0.2-gcc/bin/../lib/gcc/sparc-gaisler-elf/7.2.0/../../../../sparc-gaisler-elf/lib/leon/mfix-at697f\libm.a(lib_a-w_acos.o)
 .debug_line    0x000000000000ca8d      0x1de c:/opt/bcc-2.0.2-gcc/bin/../lib/gcc/sparc-gaisler-elf/7.2.0/../../../../sparc-gaisler-elf/lib/leon/mfix-at697f\libm.a(lib_a-w_asin.o)
 .debug_line    0x000000000000cc6b      0x1c3 c:/opt/bcc-2.0.2-gcc/bin/../lib/gcc/sparc-gaisler-elf/7.2.0/../../../../sparc-gaisler-elf/lib/leon/mfix-at697f\libm.a(lib_a-w_atan2.o)
 .debug_line    0x000000000000ce2e      0x1df c:/opt/bcc-2.0.2-gcc/bin/../lib/gcc/sparc-gaisler-elf/7.2.0/../../../../sparc-gaisler-elf/lib/leon/mfix-at697f\libm.a(lib_a-w_fmod.o)
 .debug_line    0x000000000000d00d      0x257 c:/opt/bcc-2.0.2-gcc/bin/../lib/gcc/sparc-gaisler-elf/7.2.0/../../../../sparc-gaisler-elf/lib/leon/mfix-at697f\libm.a(lib_a-w_pow.o)
 .debug_line    0x000000000000d264      0x1d8 c:/opt/bcc-2.0.2-gcc/bin/../lib/gcc/sparc-gaisler-elf/7.2.0/../../../../sparc-gaisler-elf/lib/leon/mfix-at697f\libm.a(lib_a-w_sqrt.o)
 .debug_line    0x000000000000d43c      0x2c7 c:/opt/bcc-2.0.2-gcc/bin/../lib/gcc/sparc-gaisler-elf/7.2.0/../../../../sparc-gaisler-elf/lib/leon/mfix-at697f\libm.a(lib_a-e_acos.o)
 .debug_line    0x000000000000d703      0x2bc c:/opt/bcc-2.0.2-gcc/bin/../lib/gcc/sparc-gaisler-elf/7.2.0/../../../../sparc-gaisler-elf/lib/leon/mfix-at697f\libm.a(lib_a-e_asin.o)
 .debug_line    0x000000000000d9bf      0x2b1 c:/opt/bcc-2.0.2-gcc/bin/../lib/gcc/sparc-gaisler-elf/7.2.0/../../../../sparc-gaisler-elf/lib/leon/mfix-at697f\libm.a(lib_a-e_atan2.o)
 .debug_line    0x000000000000dc70      0x2d1 c:/opt/bcc-2.0.2-gcc/bin/../lib/gcc/sparc-gaisler-elf/7.2.0/../../../../sparc-gaisler-elf/lib/leon/mfix-at697f\libm.a(lib_a-e_fmod.o)
 .debug_line    0x000000000000df41      0x3c1 c:/opt/bcc-2.0.2-gcc/bin/../lib/gcc/sparc-gaisler-elf/7.2.0/../../../../sparc-gaisler-elf/lib/leon/mfix-at697f\libm.a(lib_a-e_pow.o)
 .debug_line    0x000000000000e302      0x2e1 c:/opt/bcc-2.0.2-gcc/bin/../lib/gcc/sparc-gaisler-elf/7.2.0/../../../../sparc-gaisler-elf/lib/leon/mfix-at697f\libm.a(lib_a-e_rem_pio2.o)
 .debug_line    0x000000000000e5e3      0x2b8 c:/opt/bcc-2.0.2-gcc/bin/../lib/gcc/sparc-gaisler-elf/7.2.0/../../../../sparc-gaisler-elf/lib/leon/mfix-at697f\libm.a(lib_a-e_sqrt.o)
 .debug_line    0x000000000000e89b      0x280 c:/opt/bcc-2.0.2-gcc/bin/../lib/gcc/sparc-gaisler-elf/7.2.0/../../../../sparc-gaisler-elf/lib/leon/mfix-at697f\libm.a(lib_a-k_cos.o)
 .debug_line    0x000000000000eb1b      0x339 c:/opt/bcc-2.0.2-gcc/bin/../lib/gcc/sparc-gaisler-elf/7.2.0/../../../../sparc-gaisler-elf/lib/leon/mfix-at697f\libm.a(lib_a-k_rem_pio2.o)
 .debug_line    0x000000000000ee54      0x270 c:/opt/bcc-2.0.2-gcc/bin/../lib/gcc/sparc-gaisler-elf/7.2.0/../../../../sparc-gaisler-elf/lib/leon/mfix-at697f\libm.a(lib_a-k_sin.o)
 .debug_line    0x000000000000f0c4      0x2a9 c:/opt/bcc-2.0.2-gcc/bin/../lib/gcc/sparc-gaisler-elf/7.2.0/../../../../sparc-gaisler-elf/lib/leon/mfix-at697f\libm.a(lib_a-k_tan.o)
 .debug_line    0x000000000000f36d      0x21f c:/opt/bcc-2.0.2-gcc/bin/../lib/gcc/sparc-gaisler-elf/7.2.0/../../../../sparc-gaisler-elf/lib/leon/mfix-at697f\libm.a(lib_a-s_finite.o)
 .debug_line    0x000000000000f58c      0x1ab c:/opt/bcc-2.0.2-gcc/bin/../lib/gcc/sparc-gaisler-elf/7.2.0/../../../../sparc-gaisler-elf/lib/leon/mfix-at697f\libm.a(lib_a-s_lib_ver.o)
 .debug_line    0x000000000000f737      0x1bc c:/opt/bcc-2.0.2-gcc/bin/../lib/gcc/sparc-gaisler-elf/7.2.0/../../../../sparc-gaisler-elf/lib/leon/mfix-at697f\libm.a(lib_a-s_matherr.o)
 .debug_line    0x000000000000f8f3      0x1b8 c:/opt/bcc-2.0.2-gcc/bin/../lib/gcc/sparc-gaisler-elf/7.2.0/../../../../sparc-gaisler-elf/lib/leon/mfix-at697f\libm.a(lib_a-s_nan.o)
 .debug_line    0x000000000000faab      0x253 c:/opt/bcc-2.0.2-gcc/bin/../lib/gcc/sparc-gaisler-elf/7.2.0/../../../../sparc-gaisler-elf/lib/leon/mfix-at697f\libm.a(lib_a-s_rint.o)
 .debug_line    0x000000000000fcfe      0x241 c:/opt/bcc-2.0.2-gcc/bin/../lib/gcc/sparc-gaisler-elf/7.2.0/../../../../sparc-gaisler-elf/lib/leon/mfix-at697f\libm.a(lib_a-s_scalbn.o)
 .debug_line    0x000000000000ff3f      0x223 c:/opt/bcc-2.0.2-gcc/bin/../lib/gcc/sparc-gaisler-elf/7.2.0/../../../../sparc-gaisler-elf/lib/leon/mfix-at697f\libm.a(lib_a-s_copysign.o)
 .debug_line    0x0000000000010162       0x87 c:/opt/bcc-2.0.2-gcc/bin/../sparc-gaisler-elf/bsp/leon2/leon/mfix-at697f\libbcc.a(reset_trap_mvt.S.o)
 .debug_line    0x00000000000101e9       0x90 c:/opt/bcc-2.0.2-gcc/bin/../sparc-gaisler-elf/bsp/leon2/leon/mfix-at697f\libbcc.a(window_trap.S.o)
 .debug_line    0x0000000000010279       0xd4 c:/opt/bcc-2.0.2-gcc/bin/../sparc-gaisler-elf/bsp/leon2/leon/mfix-at697f\libbcc.a(interrupt_trap.S.o)
 .debug_line    0x000000000001034d       0x8d c:/opt/bcc-2.0.2-gcc/bin/../sparc-gaisler-elf/bsp/leon2/leon/mfix-at697f\libbcc.a(flush_windows_trap.S.o)
 .debug_line    0x00000000000103da       0x75 c:/opt/bcc-2.0.2-gcc/bin/../sparc-gaisler-elf/bsp/leon2/leon/mfix-at697f\libbcc.a(sw_trap_set_pil.S.o)
 .debug_line    0x000000000001044f      0x202 c:/opt/bcc-2.0.2-gcc/bin/../sparc-gaisler-elf/bsp/leon2/leon/mfix-at697f\libbcc.a(trap.c.o)
 .debug_line    0x0000000000010651      0x1ec c:/opt/bcc-2.0.2-gcc/bin/../sparc-gaisler-elf/bsp/leon2/leon/mfix-at697f\libbcc.a(isr.c.o)
 .debug_line    0x000000000001083d      0x1aa c:/opt/bcc-2.0.2-gcc/bin/../sparc-gaisler-elf/bsp/leon2/leon/mfix-at697f\libbcc.a(int_nest.c.o)
 .debug_line    0x00000000000109e7       0x5c c:/opt/bcc-2.0.2-gcc/bin/../sparc-gaisler-elf/bsp/leon2/leon/mfix-at697f\libbcc.a(init.S.o)
 .debug_line    0x0000000000010a43       0x7f c:/opt/bcc-2.0.2-gcc/bin/../sparc-gaisler-elf/bsp/leon2/leon/mfix-at697f\libbcc.a(leon_info.S.o)
 .debug_line    0x0000000000010ac2       0x67 c:/opt/bcc-2.0.2-gcc/bin/../sparc-gaisler-elf/bsp/leon2/leon/mfix-at697f\libbcc.a(dwzero.S.o)
 .debug_line    0x0000000000010b29      0x1ac c:/opt/bcc-2.0.2-gcc/bin/../sparc-gaisler-elf/bsp/leon2/leon/mfix-at697f\libbcc.a(copy_data.c.o)
 .debug_line    0x0000000000010cd5       0x7e c:/opt/bcc-2.0.2-gcc/bin/../sparc-gaisler-elf/bsp/leon2/leon/mfix-at697f\libbcc.a(lowlevel.S.o)
 .debug_line    0x0000000000010d53       0x78 c:/opt/bcc-2.0.2-gcc/bin/../sparc-gaisler-elf/bsp/leon2/leon/mfix-at697f\libbcc.a(lowlevel_leon2.S.o)
 .debug_line    0x0000000000010dcb      0x27f c:/opt/bcc-2.0.2-gcc/bin/../sparc-gaisler-elf/bsp/leon2/leon/mfix-at697f\libbcc.a(int_leon2.c.o)
 .debug_line    0x000000000001104a       0x76 c:/opt/bcc-2.0.2-gcc/bin/../sparc-gaisler-elf/bsp/leon2/leon/mfix-at697f\libbcc.a(int_leon2_get_source.c.o)
 .debug_line    0x00000000000110c0      0x200 c:/opt/bcc-2.0.2-gcc/bin/../sparc-gaisler-elf/bsp/leon2/leon/mfix-at697f\libbcc.a(int_leon2_init.c.o)
 .debug_line    0x00000000000112c0      0x246 c:/opt/bcc-2.0.2-gcc/bin/../sparc-gaisler-elf/bsp/leon2/leon/mfix-at697f\libbcc.a(con_leon2.c.o)
 .debug_line    0x0000000000011506      0x243 c:/opt/bcc-2.0.2-gcc/bin/../sparc-gaisler-elf/bsp/leon2/leon/mfix-at697f\libbcc.a(timer_leon2.c.o)
 .debug_line    0x0000000000011749       0x60 c:/opt/bcc-2.0.2-gcc/bin/../sparc-gaisler-elf/bsp/leon2/leon/mfix-at697f\libbcc.a(set_pil.S.o)
 .debug_line    0x00000000000117a9      0x1e9 c:/opt/bcc-2.0.2-gcc/bin/../sparc-gaisler-elf/bsp/leon2/leon/mfix-at697f\libbcc.a(int_leon2_handle.c.o)
 .debug_line    0x0000000000011992      0x1e1 c:/opt/bcc-2.0.2-gcc/bin/../sparc-gaisler-elf/bsp/leon2/leon/mfix-at697f\libbcc.a(con_handle.c.o)
 .debug_line    0x0000000000011b73      0x1e1 c:/opt/bcc-2.0.2-gcc/bin/../sparc-gaisler-elf/bsp/leon2/leon/mfix-at697f\libbcc.a(timer_handle.c.o)
 .debug_line    0x0000000000011d54      0x1c6 c:/opt/bcc-2.0.2-gcc/bin/../lib/gcc/sparc-gaisler-elf/7.2.0/../../../../sparc-gaisler-elf/lib/leon/mfix-at697f\libc.a(lib_a-atexit.o)
 .debug_line    0x0000000000011f1a      0x17c c:/opt/bcc-2.0.2-gcc/bin/../lib/gcc/sparc-gaisler-elf/7.2.0/../../../../sparc-gaisler-elf/lib/leon/mfix-at697f\libc.a(lib_a-errno.o)
 .debug_line    0x0000000000012096      0x1c7 c:/opt/bcc-2.0.2-gcc/bin/../lib/gcc/sparc-gaisler-elf/7.2.0/../../../../sparc-gaisler-elf/lib/leon/mfix-at697f\libc.a(lib_a-exit.o)
 .debug_line    0x000000000001225d      0x161 c:/opt/bcc-2.0.2-gcc/bin/../lib/gcc/sparc-gaisler-elf/7.2.0/../../../../sparc-gaisler-elf/lib/leon/mfix-at697f\libc.a(lib_a-impure.o)
 .debug_line    0x00000000000123be      0x1ed c:/opt/bcc-2.0.2-gcc/bin/../lib/gcc/sparc-gaisler-elf/7.2.0/../../../../sparc-gaisler-elf/lib/leon/mfix-at697f\libc.a(lib_a-memcpy.o)
 .debug_line    0x00000000000125ab      0x202 c:/opt/bcc-2.0.2-gcc/bin/../lib/gcc/sparc-gaisler-elf/7.2.0/../../../../sparc-gaisler-elf/lib/leon/mfix-at697f\libc.a(lib_a-__atexit.o)
 .debug_line    0x00000000000127ad      0x22d c:/opt/bcc-2.0.2-gcc/bin/../lib/gcc/sparc-gaisler-elf/7.2.0/../../../../sparc-gaisler-elf/lib/leon/mfix-at697f\libc.a(lib_a-__call_atexit.o)
 .debug_line    0x00000000000129da       0x61 c:/opt/bcc-2.0.2-gcc/bin/../sparc-gaisler-elf/bsp/leon2/leon/mfix-at697f\libbcc.a(_exit.S.o)

.debug_frame    0x0000000000000000     0x28b0
 *(.debug_frame)
 .debug_frame   0x0000000000000000       0x60 C:\Users\ajarr\AppData\Local\Temp\cclcRNkm.o
 .debug_frame   0x0000000000000060       0xd4 C:\Users\ajarr\AppData\Local\Temp\ccXi6CuD.o
 .debug_frame   0x0000000000000134      0x200 C:\Users\ajarr\AppData\Local\Temp\cck0ztpe.o
 .debug_frame   0x0000000000000334      0xdf0 C:\Users\ajarr\AppData\Local\Temp\ccgZ79fC.o
 .debug_frame   0x0000000000001124       0x28 C:\Users\ajarr\AppData\Local\Temp\cczKCchi.o
 .debug_frame   0x000000000000114c      0x150 C:\Users\ajarr\AppData\Local\Temp\ccySgCMJ.o
 .debug_frame   0x000000000000129c       0x50 C:\Users\ajarr\AppData\Local\Temp\ccJGVwWh.o
 .debug_frame   0x00000000000012ec       0x38 C:\Users\ajarr\AppData\Local\Temp\ccwUhEmU.o
 .debug_frame   0x0000000000001324       0x60 C:\Users\ajarr\AppData\Local\Temp\ccTGUrKF.o
 .debug_frame   0x0000000000001384       0xa8 C:\Users\ajarr\AppData\Local\Temp\ccW8NopI.o
 .debug_frame   0x000000000000142c      0x218 C:\Users\ajarr\AppData\Local\Temp\ccQfD6IQ.o
 .debug_frame   0x0000000000001644       0x68 C:\Users\ajarr\AppData\Local\Temp\ccegzvw7.o
 .debug_frame   0x00000000000016ac      0x160 C:\Users\ajarr\AppData\Local\Temp\ccW8vVNE.o
 .debug_frame   0x000000000000180c      0x108 C:\Users\ajarr\AppData\Local\Temp\ccmmE1Hm.o
 .debug_frame   0x0000000000001914       0xb0 C:\Users\ajarr\AppData\Local\Temp\ccH43JHx.o
 .debug_frame   0x00000000000019c4       0xd0 C:\Users\ajarr\AppData\Local\Temp\cco0QbZ8.o
 .debug_frame   0x0000000000001a94       0xb0 C:\Users\ajarr\AppData\Local\Temp\cchzLcEP.o
 .debug_frame   0x0000000000001b44       0xc4 C:\Users\ajarr\AppData\Local\Temp\ccDrgrG5.o
 .debug_frame   0x0000000000001c08       0x28 C:\Users\ajarr\AppData\Local\Temp\ccpYH1o5.o
 .debug_frame   0x0000000000001c30      0x1c8 C:\Users\ajarr\AppData\Local\Temp\cce8IkUa.o
 .debug_frame   0x0000000000001df8      0x170 C:\Users\ajarr\AppData\Local\Temp\ccwpWlcN.o
 .debug_frame   0x0000000000001f68      0x150 C:\Users\ajarr\AppData\Local\Temp\ccIOj7WD.o
 .debug_frame   0x00000000000020b8      0x130 C:\Users\ajarr\AppData\Local\Temp\ccaOdSgz.o
 .debug_frame   0x00000000000021e8       0x28 c:/opt/bcc-2.0.2-gcc/bin/../lib/gcc/sparc-gaisler-elf/7.2.0/../../../../sparc-gaisler-elf/lib/leon/mfix-at697f\libm.a(lib_a-s_atan.o)
 .debug_frame   0x0000000000002210       0x28 c:/opt/bcc-2.0.2-gcc/bin/../lib/gcc/sparc-gaisler-elf/7.2.0/../../../../sparc-gaisler-elf/lib/leon/mfix-at697f\libm.a(lib_a-s_cos.o)
 .debug_frame   0x0000000000002238       0x24 c:/opt/bcc-2.0.2-gcc/bin/../lib/gcc/sparc-gaisler-elf/7.2.0/../../../../sparc-gaisler-elf/lib/leon/mfix-at697f\libm.a(lib_a-s_fabs.o)
 .debug_frame   0x000000000000225c       0x24 c:/opt/bcc-2.0.2-gcc/bin/../lib/gcc/sparc-gaisler-elf/7.2.0/../../../../sparc-gaisler-elf/lib/leon/mfix-at697f\libm.a(lib_a-s_floor.o)
 .debug_frame   0x0000000000002280       0x24 c:/opt/bcc-2.0.2-gcc/bin/../lib/gcc/sparc-gaisler-elf/7.2.0/../../../../sparc-gaisler-elf/lib/leon/mfix-at697f\libm.a(lib_a-s_round.o)
 .debug_frame   0x00000000000022a4       0x28 c:/opt/bcc-2.0.2-gcc/bin/../lib/gcc/sparc-gaisler-elf/7.2.0/../../../../sparc-gaisler-elf/lib/leon/mfix-at697f\libm.a(lib_a-s_sin.o)
 .debug_frame   0x00000000000022cc       0x28 c:/opt/bcc-2.0.2-gcc/bin/../lib/gcc/sparc-gaisler-elf/7.2.0/../../../../sparc-gaisler-elf/lib/leon/mfix-at697f\libm.a(lib_a-s_tan.o)
 .debug_frame   0x00000000000022f4       0x28 c:/opt/bcc-2.0.2-gcc/bin/../lib/gcc/sparc-gaisler-elf/7.2.0/../../../../sparc-gaisler-elf/lib/leon/mfix-at697f\libm.a(lib_a-w_acos.o)
 .debug_frame   0x000000000000231c       0x28 c:/opt/bcc-2.0.2-gcc/bin/../lib/gcc/sparc-gaisler-elf/7.2.0/../../../../sparc-gaisler-elf/lib/leon/mfix-at697f\libm.a(lib_a-w_asin.o)
 .debug_frame   0x0000000000002344       0x20 c:/opt/bcc-2.0.2-gcc/bin/../lib/gcc/sparc-gaisler-elf/7.2.0/../../../../sparc-gaisler-elf/lib/leon/mfix-at697f\libm.a(lib_a-w_atan2.o)
 .debug_frame   0x0000000000002364       0x28 c:/opt/bcc-2.0.2-gcc/bin/../lib/gcc/sparc-gaisler-elf/7.2.0/../../../../sparc-gaisler-elf/lib/leon/mfix-at697f\libm.a(lib_a-w_fmod.o)
 .debug_frame   0x000000000000238c       0x28 c:/opt/bcc-2.0.2-gcc/bin/../lib/gcc/sparc-gaisler-elf/7.2.0/../../../../sparc-gaisler-elf/lib/leon/mfix-at697f\libm.a(lib_a-w_pow.o)
 .debug_frame   0x00000000000023b4       0x28 c:/opt/bcc-2.0.2-gcc/bin/../lib/gcc/sparc-gaisler-elf/7.2.0/../../../../sparc-gaisler-elf/lib/leon/mfix-at697f\libm.a(lib_a-w_sqrt.o)
 .debug_frame   0x00000000000023dc       0x28 c:/opt/bcc-2.0.2-gcc/bin/../lib/gcc/sparc-gaisler-elf/7.2.0/../../../../sparc-gaisler-elf/lib/leon/mfix-at697f\libm.a(lib_a-e_acos.o)
 .debug_frame   0x0000000000002404       0x28 c:/opt/bcc-2.0.2-gcc/bin/../lib/gcc/sparc-gaisler-elf/7.2.0/../../../../sparc-gaisler-elf/lib/leon/mfix-at697f\libm.a(lib_a-e_asin.o)
 .debug_frame   0x000000000000242c       0x28 c:/opt/bcc-2.0.2-gcc/bin/../lib/gcc/sparc-gaisler-elf/7.2.0/../../../../sparc-gaisler-elf/lib/leon/mfix-at697f\libm.a(lib_a-e_atan2.o)
 .debug_frame   0x0000000000002454       0x24 c:/opt/bcc-2.0.2-gcc/bin/../lib/gcc/sparc-gaisler-elf/7.2.0/../../../../sparc-gaisler-elf/lib/leon/mfix-at697f\libm.a(lib_a-e_fmod.o)
 .debug_frame   0x0000000000002478       0x28 c:/opt/bcc-2.0.2-gcc/bin/../lib/gcc/sparc-gaisler-elf/7.2.0/../../../../sparc-gaisler-elf/lib/leon/mfix-at697f\libm.a(lib_a-e_pow.o)
 .debug_frame   0x00000000000024a0       0x28 c:/opt/bcc-2.0.2-gcc/bin/../lib/gcc/sparc-gaisler-elf/7.2.0/../../../../sparc-gaisler-elf/lib/leon/mfix-at697f\libm.a(lib_a-e_rem_pio2.o)
 .debug_frame   0x00000000000024c8       0x28 c:/opt/bcc-2.0.2-gcc/bin/../lib/gcc/sparc-gaisler-elf/7.2.0/../../../../sparc-gaisler-elf/lib/leon/mfix-at697f\libm.a(lib_a-e_sqrt.o)
 .debug_frame   0x00000000000024f0       0x24 c:/opt/bcc-2.0.2-gcc/bin/../lib/gcc/sparc-gaisler-elf/7.2.0/../../../../sparc-gaisler-elf/lib/leon/mfix-at697f\libm.a(lib_a-k_cos.o)
 .debug_frame   0x0000000000002514       0x28 c:/opt/bcc-2.0.2-gcc/bin/../lib/gcc/sparc-gaisler-elf/7.2.0/../../../../sparc-gaisler-elf/lib/leon/mfix-at697f\libm.a(lib_a-k_rem_pio2.o)
 .debug_frame   0x000000000000253c       0x24 c:/opt/bcc-2.0.2-gcc/bin/../lib/gcc/sparc-gaisler-elf/7.2.0/../../../../sparc-gaisler-elf/lib/leon/mfix-at697f\libm.a(lib_a-k_sin.o)
 .debug_frame   0x0000000000002560       0x28 c:/opt/bcc-2.0.2-gcc/bin/../lib/gcc/sparc-gaisler-elf/7.2.0/../../../../sparc-gaisler-elf/lib/leon/mfix-at697f\libm.a(lib_a-k_tan.o)
 .debug_frame   0x0000000000002588       0x20 c:/opt/bcc-2.0.2-gcc/bin/../lib/gcc/sparc-gaisler-elf/7.2.0/../../../../sparc-gaisler-elf/lib/leon/mfix-at697f\libm.a(lib_a-s_finite.o)
 .debug_frame   0x00000000000025a8       0x20 c:/opt/bcc-2.0.2-gcc/bin/../lib/gcc/sparc-gaisler-elf/7.2.0/../../../../sparc-gaisler-elf/lib/leon/mfix-at697f\libm.a(lib_a-s_matherr.o)
 .debug_frame   0x00000000000025c8       0x20 c:/opt/bcc-2.0.2-gcc/bin/../lib/gcc/sparc-gaisler-elf/7.2.0/../../../../sparc-gaisler-elf/lib/leon/mfix-at697f\libm.a(lib_a-s_nan.o)
 .debug_frame   0x00000000000025e8       0x24 c:/opt/bcc-2.0.2-gcc/bin/../lib/gcc/sparc-gaisler-elf/7.2.0/../../../../sparc-gaisler-elf/lib/leon/mfix-at697f\libm.a(lib_a-s_rint.o)
 .debug_frame   0x000000000000260c       0x28 c:/opt/bcc-2.0.2-gcc/bin/../lib/gcc/sparc-gaisler-elf/7.2.0/../../../../sparc-gaisler-elf/lib/leon/mfix-at697f\libm.a(lib_a-s_scalbn.o)
 .debug_frame   0x0000000000002634       0x24 c:/opt/bcc-2.0.2-gcc/bin/../lib/gcc/sparc-gaisler-elf/7.2.0/../../../../sparc-gaisler-elf/lib/leon/mfix-at697f\libm.a(lib_a-s_copysign.o)
 .debug_frame   0x0000000000002658       0x28 c:/opt/bcc-2.0.2-gcc/bin/../sparc-gaisler-elf/bsp/leon2/leon/mfix-at697f\libbcc.a(trap.c.o)
 .debug_frame   0x0000000000002680       0x20 c:/opt/bcc-2.0.2-gcc/bin/../sparc-gaisler-elf/bsp/leon2/leon/mfix-at697f\libbcc.a(copy_data.c.o)
 .debug_frame   0x00000000000026a0       0x80 c:/opt/bcc-2.0.2-gcc/bin/../sparc-gaisler-elf/bsp/leon2/leon/mfix-at697f\libbcc.a(int_leon2.c.o)
 .debug_frame   0x0000000000002720       0x20 c:/opt/bcc-2.0.2-gcc/bin/../sparc-gaisler-elf/bsp/leon2/leon/mfix-at697f\libbcc.a(int_leon2_get_source.c.o)
 .debug_frame   0x0000000000002740       0x20 c:/opt/bcc-2.0.2-gcc/bin/../sparc-gaisler-elf/bsp/leon2/leon/mfix-at697f\libbcc.a(int_leon2_init.c.o)
 .debug_frame   0x0000000000002760       0x40 c:/opt/bcc-2.0.2-gcc/bin/../sparc-gaisler-elf/bsp/leon2/leon/mfix-at697f\libbcc.a(con_leon2.c.o)
 .debug_frame   0x00000000000027a0       0x30 c:/opt/bcc-2.0.2-gcc/bin/../sparc-gaisler-elf/bsp/leon2/leon/mfix-at697f\libbcc.a(timer_leon2.c.o)
 .debug_frame   0x00000000000027d0       0x20 c:/opt/bcc-2.0.2-gcc/bin/../lib/gcc/sparc-gaisler-elf/7.2.0/../../../../sparc-gaisler-elf/lib/leon/mfix-at697f\libc.a(lib_a-atexit.o)
 .debug_frame   0x00000000000027f0       0x20 c:/opt/bcc-2.0.2-gcc/bin/../lib/gcc/sparc-gaisler-elf/7.2.0/../../../../sparc-gaisler-elf/lib/leon/mfix-at697f\libc.a(lib_a-errno.o)
 .debug_frame   0x0000000000002810       0x28 c:/opt/bcc-2.0.2-gcc/bin/../lib/gcc/sparc-gaisler-elf/7.2.0/../../../../sparc-gaisler-elf/lib/leon/mfix-at697f\libc.a(lib_a-exit.o)
 .debug_frame   0x0000000000002838       0x28 c:/opt/bcc-2.0.2-gcc/bin/../lib/gcc/sparc-gaisler-elf/7.2.0/../../../../sparc-gaisler-elf/lib/leon/mfix-at697f\libc.a(lib_a-memcpy.o)
 .debug_frame   0x0000000000002860       0x28 c:/opt/bcc-2.0.2-gcc/bin/../lib/gcc/sparc-gaisler-elf/7.2.0/../../../../sparc-gaisler-elf/lib/leon/mfix-at697f\libc.a(lib_a-__atexit.o)
 .debug_frame   0x0000000000002888       0x28 c:/opt/bcc-2.0.2-gcc/bin/../lib/gcc/sparc-gaisler-elf/7.2.0/../../../../sparc-gaisler-elf/lib/leon/mfix-at697f\libc.a(lib_a-__call_atexit.o)

.debug_str      0x0000000000000000     0xc3ab
 *(.debug_str)
 .debug_str     0x0000000000000000     0x7028 C:\Users\ajarr\AppData\Local\Temp\cclcRNkm.o
                                       0x75a9 (size before relaxing)
 .debug_str     0x0000000000007028      0x518 C:\Users\ajarr\AppData\Local\Temp\ccXi6CuD.o
                                       0x7691 (size before relaxing)
 .debug_str     0x0000000000007540      0x3d9 C:\Users\ajarr\AppData\Local\Temp\cck0ztpe.o
                                       0x7d3a (size before relaxing)
 .debug_str     0x0000000000007919     0x1265 C:\Users\ajarr\AppData\Local\Temp\ccgZ79fC.o
                                       0x8c31 (size before relaxing)
 .debug_str     0x0000000000008b7e        0xa C:\Users\ajarr\AppData\Local\Temp\cczKCchi.o
                                       0x7995 (size before relaxing)
 .debug_str     0x0000000000008b88      0x3e2 C:\Users\ajarr\AppData\Local\Temp\ccySgCMJ.o
                                       0x78f3 (size before relaxing)
 .debug_str     0x0000000000008f6a       0x9a C:\Users\ajarr\AppData\Local\Temp\ccJGVwWh.o
                                       0x4496 (size before relaxing)
 .debug_str     0x0000000000009004       0x67 C:\Users\ajarr\AppData\Local\Temp\ccwUhEmU.o
                                       0x54a2 (size before relaxing)
 .debug_str     0x000000000000906b      0x206 C:\Users\ajarr\AppData\Local\Temp\ccTGUrKF.o
                                       0x55c1 (size before relaxing)
 .debug_str     0x0000000000009271      0x2ec C:\Users\ajarr\AppData\Local\Temp\ccW8NopI.o
                                       0x73f6 (size before relaxing)
 .debug_str     0x000000000000955d      0x3f2 C:\Users\ajarr\AppData\Local\Temp\ccQfD6IQ.o
                                       0x4802 (size before relaxing)
 .debug_str     0x000000000000994f       0x62 C:\Users\ajarr\AppData\Local\Temp\ccegzvw7.o
                                       0x7552 (size before relaxing)
 .debug_str     0x00000000000099b1      0x5df C:\Users\ajarr\AppData\Local\Temp\ccW8vVNE.o
                                       0x4d21 (size before relaxing)
 .debug_str     0x0000000000009f90      0x1a3 C:\Users\ajarr\AppData\Local\Temp\ccmmE1Hm.o
                                       0x4192 (size before relaxing)
 .debug_str     0x000000000000a133       0x9d C:\Users\ajarr\AppData\Local\Temp\ccH43JHx.o
                                       0x7a13 (size before relaxing)
 .debug_str     0x000000000000a1d0       0xa7 C:\Users\ajarr\AppData\Local\Temp\cco0QbZ8.o
                                       0x74a7 (size before relaxing)
 .debug_str     0x000000000000a277       0x11 C:\Users\ajarr\AppData\Local\Temp\cc5Z9OQN.o
                                       0x339b (size before relaxing)
 .debug_str     0x000000000000a288       0xb9 C:\Users\ajarr\AppData\Local\Temp\cchzLcEP.o
                                       0x6dac (size before relaxing)
 .debug_str     0x000000000000a341      0x106 C:\Users\ajarr\AppData\Local\Temp\ccDrgrG5.o
                                       0x7a7c (size before relaxing)
 .debug_str     0x000000000000a447       0x1c C:\Users\ajarr\AppData\Local\Temp\ccpYH1o5.o
                                       0x5b2f (size before relaxing)
 .debug_str     0x000000000000a463      0x1ce C:\Users\ajarr\AppData\Local\Temp\cce8IkUa.o
                                       0x7c3c (size before relaxing)
 .debug_str     0x000000000000a631       0x7c C:\Users\ajarr\AppData\Local\Temp\ccmHMWab.o
                                       0x3406 (size before relaxing)
 .debug_str     0x000000000000a6ad       0xff C:\Users\ajarr\AppData\Local\Temp\ccwpWlcN.o
                                       0x7a86 (size before relaxing)
 .debug_str     0x000000000000a7ac      0x169 C:\Users\ajarr\AppData\Local\Temp\ccIOj7WD.o
                                       0x39bf (size before relaxing)
 .debug_str     0x000000000000a915      0x1e7 C:\Users\ajarr\AppData\Local\Temp\ccaOdSgz.o
                                        0x241 (size before relaxing)
 .debug_str     0x000000000000aafc      0x184 c:/opt/bcc-2.0.2-gcc/bin/../lib/gcc/sparc-gaisler-elf/7.2.0/../../../../sparc-gaisler-elf/lib/leon/mfix-at697f\libm.a(lib_a-s_atan.o)
                                        0x682 (size before relaxing)
 .debug_str     0x000000000000ac80       0x41 c:/opt/bcc-2.0.2-gcc/bin/../lib/gcc/sparc-gaisler-elf/7.2.0/../../../../sparc-gaisler-elf/lib/leon/mfix-at697f\libm.a(lib_a-s_cos.o)
                                        0x664 (size before relaxing)
 .debug_str     0x000000000000acc1       0x51 c:/opt/bcc-2.0.2-gcc/bin/../lib/gcc/sparc-gaisler-elf/7.2.0/../../../../sparc-gaisler-elf/lib/leon/mfix-at697f\libm.a(lib_a-s_fabs.o)
                                        0x66a (size before relaxing)
 .debug_str     0x000000000000ad12       0x53 c:/opt/bcc-2.0.2-gcc/bin/../lib/gcc/sparc-gaisler-elf/7.2.0/../../../../sparc-gaisler-elf/lib/leon/mfix-at697f\libm.a(lib_a-s_floor.o)
                                        0x676 (size before relaxing)
 .debug_str     0x000000000000ad65      0x10a c:/opt/bcc-2.0.2-gcc/bin/../lib/gcc/sparc-gaisler-elf/7.2.0/../../../../sparc-gaisler-elf/lib/leon/mfix-at697f\libm.a(lib_a-s_round.o)
                                        0x696 (size before relaxing)
 .debug_str     0x000000000000ae6f       0x41 c:/opt/bcc-2.0.2-gcc/bin/../lib/gcc/sparc-gaisler-elf/7.2.0/../../../../sparc-gaisler-elf/lib/leon/mfix-at697f\libm.a(lib_a-s_sin.o)
                                        0x664 (size before relaxing)
 .debug_str     0x000000000000aeb0       0x41 c:/opt/bcc-2.0.2-gcc/bin/../lib/gcc/sparc-gaisler-elf/7.2.0/../../../../sparc-gaisler-elf/lib/leon/mfix-at697f\libm.a(lib_a-s_tan.o)
                                        0x664 (size before relaxing)
 .debug_str     0x000000000000aef1       0x79 c:/opt/bcc-2.0.2-gcc/bin/../lib/gcc/sparc-gaisler-elf/7.2.0/../../../../sparc-gaisler-elf/lib/leon/mfix-at697f\libm.a(lib_a-w_acos.o)
                                        0x669 (size before relaxing)
 .debug_str     0x000000000000af6a       0x42 c:/opt/bcc-2.0.2-gcc/bin/../lib/gcc/sparc-gaisler-elf/7.2.0/../../../../sparc-gaisler-elf/lib/leon/mfix-at697f\libm.a(lib_a-w_asin.o)
                                        0x669 (size before relaxing)
 .debug_str     0x000000000000afac       0x43 c:/opt/bcc-2.0.2-gcc/bin/../lib/gcc/sparc-gaisler-elf/7.2.0/../../../../sparc-gaisler-elf/lib/leon/mfix-at697f\libm.a(lib_a-w_atan2.o)
                                        0x646 (size before relaxing)
 .debug_str     0x000000000000afef       0x42 c:/opt/bcc-2.0.2-gcc/bin/../lib/gcc/sparc-gaisler-elf/7.2.0/../../../../sparc-gaisler-elf/lib/leon/mfix-at697f\libm.a(lib_a-w_fmod.o)
                                        0x669 (size before relaxing)
 .debug_str     0x000000000000b031       0x41 c:/opt/bcc-2.0.2-gcc/bin/../lib/gcc/sparc-gaisler-elf/7.2.0/../../../../sparc-gaisler-elf/lib/leon/mfix-at697f\libm.a(lib_a-w_pow.o)
                                        0x663 (size before relaxing)
 .debug_str     0x000000000000b072       0x42 c:/opt/bcc-2.0.2-gcc/bin/../lib/gcc/sparc-gaisler-elf/7.2.0/../../../../sparc-gaisler-elf/lib/leon/mfix-at697f\libm.a(lib_a-w_sqrt.o)
                                        0x669 (size before relaxing)
 .debug_str     0x000000000000b0b4       0x66 c:/opt/bcc-2.0.2-gcc/bin/../lib/gcc/sparc-gaisler-elf/7.2.0/../../../../sparc-gaisler-elf/lib/leon/mfix-at697f\libm.a(lib_a-e_acos.o)
                                        0x68e (size before relaxing)
 .debug_str     0x000000000000b11a       0x59 c:/opt/bcc-2.0.2-gcc/bin/../lib/gcc/sparc-gaisler-elf/7.2.0/../../../../sparc-gaisler-elf/lib/leon/mfix-at697f\libm.a(lib_a-e_asin.o)
                                        0x69b (size before relaxing)
 .debug_str     0x000000000000b173       0x71 c:/opt/bcc-2.0.2-gcc/bin/../lib/gcc/sparc-gaisler-elf/7.2.0/../../../../sparc-gaisler-elf/lib/leon/mfix-at697f\libm.a(lib_a-e_atan2.o)
                                        0x69e (size before relaxing)
 .debug_str     0x000000000000b1e4       0x56 c:/opt/bcc-2.0.2-gcc/bin/../lib/gcc/sparc-gaisler-elf/7.2.0/../../../../sparc-gaisler-elf/lib/leon/mfix-at697f\libm.a(lib_a-e_fmod.o)
                                        0x67e (size before relaxing)
 .debug_str     0x000000000000b23a       0x92 c:/opt/bcc-2.0.2-gcc/bin/../lib/gcc/sparc-gaisler-elf/7.2.0/../../../../sparc-gaisler-elf/lib/leon/mfix-at697f\libm.a(lib_a-e_pow.o)
                                        0x6d3 (size before relaxing)
 .debug_str     0x000000000000b2cc       0xae c:/opt/bcc-2.0.2-gcc/bin/../lib/gcc/sparc-gaisler-elf/7.2.0/../../../../sparc-gaisler-elf/lib/leon/mfix-at697f\libm.a(lib_a-e_rem_pio2.o)
                                        0x6ea (size before relaxing)
 .debug_str     0x000000000000b37a       0x51 c:/opt/bcc-2.0.2-gcc/bin/../lib/gcc/sparc-gaisler-elf/7.2.0/../../../../sparc-gaisler-elf/lib/leon/mfix-at697f\libm.a(lib_a-e_sqrt.o)
                                        0x683 (size before relaxing)
 .debug_str     0x000000000000b3cb       0x4e c:/opt/bcc-2.0.2-gcc/bin/../lib/gcc/sparc-gaisler-elf/7.2.0/../../../../sparc-gaisler-elf/lib/leon/mfix-at697f\libm.a(lib_a-k_cos.o)
                                        0x676 (size before relaxing)
 .debug_str     0x000000000000b419       0x82 c:/opt/bcc-2.0.2-gcc/bin/../lib/gcc/sparc-gaisler-elf/7.2.0/../../../../sparc-gaisler-elf/lib/leon/mfix-at697f\libm.a(lib_a-k_rem_pio2.o)
                                        0x682 (size before relaxing)
 .debug_str     0x000000000000b49b       0x4e c:/opt/bcc-2.0.2-gcc/bin/../lib/gcc/sparc-gaisler-elf/7.2.0/../../../../sparc-gaisler-elf/lib/leon/mfix-at697f\libm.a(lib_a-k_sin.o)
                                        0x676 (size before relaxing)
 .debug_str     0x000000000000b4e9       0x5a c:/opt/bcc-2.0.2-gcc/bin/../lib/gcc/sparc-gaisler-elf/7.2.0/../../../../sparc-gaisler-elf/lib/leon/mfix-at697f\libm.a(lib_a-k_tan.o)
                                        0x687 (size before relaxing)
 .debug_str     0x000000000000b543       0x4d c:/opt/bcc-2.0.2-gcc/bin/../lib/gcc/sparc-gaisler-elf/7.2.0/../../../../sparc-gaisler-elf/lib/leon/mfix-at697f\libm.a(lib_a-s_finite.o)
                                        0x672 (size before relaxing)
 .debug_str     0x000000000000b590       0x47 c:/opt/bcc-2.0.2-gcc/bin/../lib/gcc/sparc-gaisler-elf/7.2.0/../../../../sparc-gaisler-elf/lib/leon/mfix-at697f\libm.a(lib_a-s_lib_ver.o)
                                        0x62f (size before relaxing)
 .debug_str     0x000000000000b5d7       0x4f c:/opt/bcc-2.0.2-gcc/bin/../lib/gcc/sparc-gaisler-elf/7.2.0/../../../../sparc-gaisler-elf/lib/leon/mfix-at697f\libm.a(lib_a-s_matherr.o)
                                        0x65c (size before relaxing)
 .debug_str     0x000000000000b626       0x4a c:/opt/bcc-2.0.2-gcc/bin/../lib/gcc/sparc-gaisler-elf/7.2.0/../../../../sparc-gaisler-elf/lib/leon/mfix-at697f\libm.a(lib_a-s_nan.o)
                                        0x632 (size before relaxing)
 .debug_str     0x000000000000b670       0x4f c:/opt/bcc-2.0.2-gcc/bin/../lib/gcc/sparc-gaisler-elf/7.2.0/../../../../sparc-gaisler-elf/lib/leon/mfix-at697f\libm.a(lib_a-s_rint.o)
                                        0x683 (size before relaxing)
 .debug_str     0x000000000000b6bf       0x5a c:/opt/bcc-2.0.2-gcc/bin/../lib/gcc/sparc-gaisler-elf/7.2.0/../../../../sparc-gaisler-elf/lib/leon/mfix-at697f\libm.a(lib_a-s_scalbn.o)
                                        0x693 (size before relaxing)
 .debug_str     0x000000000000b719       0x51 c:/opt/bcc-2.0.2-gcc/bin/../lib/gcc/sparc-gaisler-elf/7.2.0/../../../../sparc-gaisler-elf/lib/leon/mfix-at697f\libm.a(lib_a-s_copysign.o)
                                        0x671 (size before relaxing)
 .debug_str     0x000000000000b76a      0x1e4 c:/opt/bcc-2.0.2-gcc/bin/../sparc-gaisler-elf/bsp/leon2/leon/mfix-at697f\libbcc.a(trap.c.o)
                                        0x293 (size before relaxing)
 .debug_str     0x000000000000b94e       0x51 c:/opt/bcc-2.0.2-gcc/bin/../sparc-gaisler-elf/bsp/leon2/leon/mfix-at697f\libbcc.a(isr.c.o)
                                        0x5b4 (size before relaxing)
 .debug_str     0x000000000000b99f       0x6d c:/opt/bcc-2.0.2-gcc/bin/../sparc-gaisler-elf/bsp/leon2/leon/mfix-at697f\libbcc.a(int_nest.c.o)
                                        0x1b2 (size before relaxing)
 .debug_str     0x000000000000ba0c       0x6a c:/opt/bcc-2.0.2-gcc/bin/../sparc-gaisler-elf/bsp/leon2/leon/mfix-at697f\libbcc.a(copy_data.c.o)
                                        0x1b1 (size before relaxing)
 .debug_str     0x000000000000ba76      0x151 c:/opt/bcc-2.0.2-gcc/bin/../sparc-gaisler-elf/bsp/leon2/leon/mfix-at697f\libbcc.a(int_leon2.c.o)
                                        0x2d8 (size before relaxing)
 .debug_str     0x000000000000bbc7       0x5b c:/opt/bcc-2.0.2-gcc/bin/../sparc-gaisler-elf/bsp/leon2/leon/mfix-at697f\libbcc.a(int_leon2_get_source.c.o)
                                        0x10a (size before relaxing)
 .debug_str     0x000000000000bc22       0x4f c:/opt/bcc-2.0.2-gcc/bin/../sparc-gaisler-elf/bsp/leon2/leon/mfix-at697f\libbcc.a(int_leon2_init.c.o)
                                        0x261 (size before relaxing)
 .debug_str     0x000000000000bc71       0x84 c:/opt/bcc-2.0.2-gcc/bin/../sparc-gaisler-elf/bsp/leon2/leon/mfix-at697f\libbcc.a(con_leon2.c.o)
                                        0x2b2 (size before relaxing)
 .debug_str     0x000000000000bcf5       0xa6 c:/opt/bcc-2.0.2-gcc/bin/../sparc-gaisler-elf/bsp/leon2/leon/mfix-at697f\libbcc.a(timer_leon2.c.o)
                                        0x2d7 (size before relaxing)
 .debug_str     0x000000000000bd9b       0x42 c:/opt/bcc-2.0.2-gcc/bin/../sparc-gaisler-elf/bsp/leon2/leon/mfix-at697f\libbcc.a(int_leon2_handle.c.o)
                                        0x232 (size before relaxing)
 .debug_str     0x000000000000bddd       0x3a c:/opt/bcc-2.0.2-gcc/bin/../sparc-gaisler-elf/bsp/leon2/leon/mfix-at697f\libbcc.a(con_handle.c.o)
                                        0x22a (size before relaxing)
 .debug_str     0x000000000000be17       0x3a c:/opt/bcc-2.0.2-gcc/bin/../sparc-gaisler-elf/bsp/leon2/leon/mfix-at697f\libbcc.a(timer_handle.c.o)
                                        0x22a (size before relaxing)
 .debug_str     0x000000000000be51      0x112 c:/opt/bcc-2.0.2-gcc/bin/../lib/gcc/sparc-gaisler-elf/7.2.0/../../../../sparc-gaisler-elf/lib/leon/mfix-at697f\libc.a(lib_a-atexit.o)
                                        0x605 (size before relaxing)
 .debug_str     0x000000000000bf63       0xe7 c:/opt/bcc-2.0.2-gcc/bin/../lib/gcc/sparc-gaisler-elf/7.2.0/../../../../sparc-gaisler-elf/lib/leon/mfix-at697f\libc.a(lib_a-errno.o)
                                        0x5e0 (size before relaxing)
 .debug_str     0x000000000000c04a       0x6d c:/opt/bcc-2.0.2-gcc/bin/../lib/gcc/sparc-gaisler-elf/7.2.0/../../../../sparc-gaisler-elf/lib/leon/mfix-at697f\libc.a(lib_a-exit.o)
                                        0x603 (size before relaxing)
 .debug_str     0x000000000000c0b7       0xec c:/opt/bcc-2.0.2-gcc/bin/../lib/gcc/sparc-gaisler-elf/7.2.0/../../../../sparc-gaisler-elf/lib/leon/mfix-at697f\libc.a(lib_a-impure.o)
                                        0x5ce (size before relaxing)
 .debug_str     0x000000000000c1a3      0x117 c:/opt/bcc-2.0.2-gcc/bin/../lib/gcc/sparc-gaisler-elf/7.2.0/../../../../sparc-gaisler-elf/lib/leon/mfix-at697f\libc.a(lib_a-memcpy.o)
                                        0x5f9 (size before relaxing)
 .debug_str     0x000000000000c2ba       0x79 c:/opt/bcc-2.0.2-gcc/bin/../lib/gcc/sparc-gaisler-elf/7.2.0/../../../../sparc-gaisler-elf/lib/leon/mfix-at697f\libc.a(lib_a-__atexit.o)
                                        0x63d (size before relaxing)
 .debug_str     0x000000000000c333       0x78 c:/opt/bcc-2.0.2-gcc/bin/../lib/gcc/sparc-gaisler-elf/7.2.0/../../../../sparc-gaisler-elf/lib/leon/mfix-at697f\libc.a(lib_a-__call_atexit.o)
                                        0x60c (size before relaxing)

.debug_loc      0x0000000000000000     0x6d16
 *(.debug_loc)
 .debug_loc     0x0000000000000000       0xc7 C:\Users\ajarr\AppData\Local\Temp\cclcRNkm.o
 .debug_loc     0x00000000000000c7      0x212 C:\Users\ajarr\AppData\Local\Temp\ccXi6CuD.o
 .debug_loc     0x00000000000002d9      0x584 C:\Users\ajarr\AppData\Local\Temp\cck0ztpe.o
 .debug_loc     0x000000000000085d      0x87b C:\Users\ajarr\AppData\Local\Temp\ccgZ79fC.o
 .debug_loc     0x00000000000010d8       0x20 C:\Users\ajarr\AppData\Local\Temp\cczKCchi.o
 .debug_loc     0x00000000000010f8      0x27f C:\Users\ajarr\AppData\Local\Temp\ccySgCMJ.o
 .debug_loc     0x0000000000001377       0xc4 C:\Users\ajarr\AppData\Local\Temp\ccJGVwWh.o
 .debug_loc     0x000000000000143b       0x49 C:\Users\ajarr\AppData\Local\Temp\ccwUhEmU.o
 .debug_loc     0x0000000000001484      0x107 C:\Users\ajarr\AppData\Local\Temp\ccTGUrKF.o
 .debug_loc     0x000000000000158b      0x1af C:\Users\ajarr\AppData\Local\Temp\ccW8NopI.o
 .debug_loc     0x000000000000173a      0x211 C:\Users\ajarr\AppData\Local\Temp\ccQfD6IQ.o
 .debug_loc     0x000000000000194b       0x92 C:\Users\ajarr\AppData\Local\Temp\ccegzvw7.o
 .debug_loc     0x00000000000019dd      0x48a C:\Users\ajarr\AppData\Local\Temp\ccW8vVNE.o
 .debug_loc     0x0000000000001e67       0xe8 C:\Users\ajarr\AppData\Local\Temp\ccmmE1Hm.o
 .debug_loc     0x0000000000001f4f       0xfc C:\Users\ajarr\AppData\Local\Temp\ccH43JHx.o
 .debug_loc     0x000000000000204b      0x100 C:\Users\ajarr\AppData\Local\Temp\cco0QbZ8.o
 .debug_loc     0x000000000000214b      0x191 C:\Users\ajarr\AppData\Local\Temp\cchzLcEP.o
 .debug_loc     0x00000000000022dc       0xe1 C:\Users\ajarr\AppData\Local\Temp\ccDrgrG5.o
 .debug_loc     0x00000000000023bd       0x20 C:\Users\ajarr\AppData\Local\Temp\ccpYH1o5.o
 .debug_loc     0x00000000000023dd      0x486 C:\Users\ajarr\AppData\Local\Temp\cce8IkUa.o
 .debug_loc     0x0000000000002863      0x409 C:\Users\ajarr\AppData\Local\Temp\ccwpWlcN.o
 .debug_loc     0x0000000000002c6c      0x566 C:\Users\ajarr\AppData\Local\Temp\ccIOj7WD.o
 .debug_loc     0x00000000000031d2      0x1a4 c:/opt/bcc-2.0.2-gcc/bin/../lib/gcc/sparc-gaisler-elf/7.2.0/../../../../sparc-gaisler-elf/lib/leon/mfix-at697f\libm.a(lib_a-s_atan.o)
 .debug_loc     0x0000000000003376       0x84 c:/opt/bcc-2.0.2-gcc/bin/../lib/gcc/sparc-gaisler-elf/7.2.0/../../../../sparc-gaisler-elf/lib/leon/mfix-at697f\libm.a(lib_a-s_cos.o)
 .debug_loc     0x00000000000033fa       0x61 c:/opt/bcc-2.0.2-gcc/bin/../lib/gcc/sparc-gaisler-elf/7.2.0/../../../../sparc-gaisler-elf/lib/leon/mfix-at697f\libm.a(lib_a-s_fabs.o)
 .debug_loc     0x000000000000345b      0x1f0 c:/opt/bcc-2.0.2-gcc/bin/../lib/gcc/sparc-gaisler-elf/7.2.0/../../../../sparc-gaisler-elf/lib/leon/mfix-at697f\libm.a(lib_a-s_floor.o)
 .debug_loc     0x000000000000364b      0x139 c:/opt/bcc-2.0.2-gcc/bin/../lib/gcc/sparc-gaisler-elf/7.2.0/../../../../sparc-gaisler-elf/lib/leon/mfix-at697f\libm.a(lib_a-s_round.o)
 .debug_loc     0x0000000000003784       0x84 c:/opt/bcc-2.0.2-gcc/bin/../lib/gcc/sparc-gaisler-elf/7.2.0/../../../../sparc-gaisler-elf/lib/leon/mfix-at697f\libm.a(lib_a-s_sin.o)
 .debug_loc     0x0000000000003808       0x84 c:/opt/bcc-2.0.2-gcc/bin/../lib/gcc/sparc-gaisler-elf/7.2.0/../../../../sparc-gaisler-elf/lib/leon/mfix-at697f\libm.a(lib_a-s_tan.o)
 .debug_loc     0x000000000000388c       0x62 c:/opt/bcc-2.0.2-gcc/bin/../lib/gcc/sparc-gaisler-elf/7.2.0/../../../../sparc-gaisler-elf/lib/leon/mfix-at697f\libm.a(lib_a-w_acos.o)
 .debug_loc     0x00000000000038ee       0x62 c:/opt/bcc-2.0.2-gcc/bin/../lib/gcc/sparc-gaisler-elf/7.2.0/../../../../sparc-gaisler-elf/lib/leon/mfix-at697f\libm.a(lib_a-w_asin.o)
 .debug_loc     0x0000000000003950       0x9c c:/opt/bcc-2.0.2-gcc/bin/../lib/gcc/sparc-gaisler-elf/7.2.0/../../../../sparc-gaisler-elf/lib/leon/mfix-at697f\libm.a(lib_a-w_fmod.o)
 .debug_loc     0x00000000000039ec      0x128 c:/opt/bcc-2.0.2-gcc/bin/../lib/gcc/sparc-gaisler-elf/7.2.0/../../../../sparc-gaisler-elf/lib/leon/mfix-at697f\libm.a(lib_a-w_pow.o)
 .debug_loc     0x0000000000003b14       0x74 c:/opt/bcc-2.0.2-gcc/bin/../lib/gcc/sparc-gaisler-elf/7.2.0/../../../../sparc-gaisler-elf/lib/leon/mfix-at697f\libm.a(lib_a-w_sqrt.o)
 .debug_loc     0x0000000000003b88      0x134 c:/opt/bcc-2.0.2-gcc/bin/../lib/gcc/sparc-gaisler-elf/7.2.0/../../../../sparc-gaisler-elf/lib/leon/mfix-at697f\libm.a(lib_a-e_acos.o)
 .debug_loc     0x0000000000003cbc      0x14e c:/opt/bcc-2.0.2-gcc/bin/../lib/gcc/sparc-gaisler-elf/7.2.0/../../../../sparc-gaisler-elf/lib/leon/mfix-at697f\libm.a(lib_a-e_asin.o)
 .debug_loc     0x0000000000003e0a      0x1aa c:/opt/bcc-2.0.2-gcc/bin/../lib/gcc/sparc-gaisler-elf/7.2.0/../../../../sparc-gaisler-elf/lib/leon/mfix-at697f\libm.a(lib_a-e_atan2.o)
 .debug_loc     0x0000000000003fb4      0x499 c:/opt/bcc-2.0.2-gcc/bin/../lib/gcc/sparc-gaisler-elf/7.2.0/../../../../sparc-gaisler-elf/lib/leon/mfix-at697f\libm.a(lib_a-e_fmod.o)
 .debug_loc     0x000000000000444d      0xb51 c:/opt/bcc-2.0.2-gcc/bin/../lib/gcc/sparc-gaisler-elf/7.2.0/../../../../sparc-gaisler-elf/lib/leon/mfix-at697f\libm.a(lib_a-e_pow.o)
 .debug_loc     0x0000000000004f9e      0x3b9 c:/opt/bcc-2.0.2-gcc/bin/../lib/gcc/sparc-gaisler-elf/7.2.0/../../../../sparc-gaisler-elf/lib/leon/mfix-at697f\libm.a(lib_a-e_rem_pio2.o)
 .debug_loc     0x0000000000005357      0x2ed c:/opt/bcc-2.0.2-gcc/bin/../lib/gcc/sparc-gaisler-elf/7.2.0/../../../../sparc-gaisler-elf/lib/leon/mfix-at697f\libm.a(lib_a-e_sqrt.o)
 .debug_loc     0x0000000000005644      0x122 c:/opt/bcc-2.0.2-gcc/bin/../lib/gcc/sparc-gaisler-elf/7.2.0/../../../../sparc-gaisler-elf/lib/leon/mfix-at697f\libm.a(lib_a-k_cos.o)
 .debug_loc     0x0000000000005766      0x694 c:/opt/bcc-2.0.2-gcc/bin/../lib/gcc/sparc-gaisler-elf/7.2.0/../../../../sparc-gaisler-elf/lib/leon/mfix-at697f\libm.a(lib_a-k_rem_pio2.o)
 .debug_loc     0x0000000000005dfa       0xa5 c:/opt/bcc-2.0.2-gcc/bin/../lib/gcc/sparc-gaisler-elf/7.2.0/../../../../sparc-gaisler-elf/lib/leon/mfix-at697f\libm.a(lib_a-k_sin.o)
 .debug_loc     0x0000000000005e9f      0x2ed c:/opt/bcc-2.0.2-gcc/bin/../lib/gcc/sparc-gaisler-elf/7.2.0/../../../../sparc-gaisler-elf/lib/leon/mfix-at697f\libm.a(lib_a-k_tan.o)
 .debug_loc     0x000000000000618c       0x18 c:/opt/bcc-2.0.2-gcc/bin/../lib/gcc/sparc-gaisler-elf/7.2.0/../../../../sparc-gaisler-elf/lib/leon/mfix-at697f\libm.a(lib_a-s_finite.o)
 .debug_loc     0x00000000000061a4       0x13 c:/opt/bcc-2.0.2-gcc/bin/../lib/gcc/sparc-gaisler-elf/7.2.0/../../../../sparc-gaisler-elf/lib/leon/mfix-at697f\libm.a(lib_a-s_matherr.o)
 .debug_loc     0x00000000000061b7      0x1e1 c:/opt/bcc-2.0.2-gcc/bin/../lib/gcc/sparc-gaisler-elf/7.2.0/../../../../sparc-gaisler-elf/lib/leon/mfix-at697f\libm.a(lib_a-s_rint.o)
 .debug_loc     0x0000000000006398      0x1b9 c:/opt/bcc-2.0.2-gcc/bin/../lib/gcc/sparc-gaisler-elf/7.2.0/../../../../sparc-gaisler-elf/lib/leon/mfix-at697f\libm.a(lib_a-s_scalbn.o)
 .debug_loc     0x0000000000006551       0x79 c:/opt/bcc-2.0.2-gcc/bin/../lib/gcc/sparc-gaisler-elf/7.2.0/../../../../sparc-gaisler-elf/lib/leon/mfix-at697f\libm.a(lib_a-s_copysign.o)
 .debug_loc     0x00000000000065ca      0x10a c:/opt/bcc-2.0.2-gcc/bin/../sparc-gaisler-elf/bsp/leon2/leon/mfix-at697f\libbcc.a(trap.c.o)
 .debug_loc     0x00000000000066d4      0x155 c:/opt/bcc-2.0.2-gcc/bin/../sparc-gaisler-elf/bsp/leon2/leon/mfix-at697f\libbcc.a(int_leon2.c.o)
 .debug_loc     0x0000000000006829       0x13 c:/opt/bcc-2.0.2-gcc/bin/../sparc-gaisler-elf/bsp/leon2/leon/mfix-at697f\libbcc.a(con_leon2.c.o)
 .debug_loc     0x000000000000683c       0x13 c:/opt/bcc-2.0.2-gcc/bin/../sparc-gaisler-elf/bsp/leon2/leon/mfix-at697f\libbcc.a(timer_leon2.c.o)
 .debug_loc     0x000000000000684f       0x1e c:/opt/bcc-2.0.2-gcc/bin/../lib/gcc/sparc-gaisler-elf/7.2.0/../../../../sparc-gaisler-elf/lib/leon/mfix-at697f\libc.a(lib_a-atexit.o)
 .debug_loc     0x000000000000686d       0x3e c:/opt/bcc-2.0.2-gcc/bin/../lib/gcc/sparc-gaisler-elf/7.2.0/../../../../sparc-gaisler-elf/lib/leon/mfix-at697f\libc.a(lib_a-exit.o)
 .debug_loc     0x00000000000068ab      0x197 c:/opt/bcc-2.0.2-gcc/bin/../lib/gcc/sparc-gaisler-elf/7.2.0/../../../../sparc-gaisler-elf/lib/leon/mfix-at697f\libc.a(lib_a-memcpy.o)
 .debug_loc     0x0000000000006a42      0x121 c:/opt/bcc-2.0.2-gcc/bin/../lib/gcc/sparc-gaisler-elf/7.2.0/../../../../sparc-gaisler-elf/lib/leon/mfix-at697f\libc.a(lib_a-__atexit.o)
 .debug_loc     0x0000000000006b63      0x1b3 c:/opt/bcc-2.0.2-gcc/bin/../lib/gcc/sparc-gaisler-elf/7.2.0/../../../../sparc-gaisler-elf/lib/leon/mfix-at697f\libc.a(lib_a-__call_atexit.o)

.comment        0x0000000000000000       0x18
 .comment       0x0000000000000000       0x18 c:/opt/bcc-2.0.2-gcc/bin/../lib/gcc/sparc-gaisler-elf/7.2.0/leon/mfix-at697f/crtbegin.o
                                         0x19 (size before relaxing)
 .comment       0x0000000000000018       0x19 C:\Users\ajarr\AppData\Local\Temp\cclcRNkm.o
 .comment       0x0000000000000018       0x19 C:\Users\ajarr\AppData\Local\Temp\ccXi6CuD.o
 .comment       0x0000000000000018       0x19 C:\Users\ajarr\AppData\Local\Temp\cck0ztpe.o
 .comment       0x0000000000000018       0x19 C:\Users\ajarr\AppData\Local\Temp\ccgZ79fC.o
 .comment       0x0000000000000018       0x19 C:\Users\ajarr\AppData\Local\Temp\cczKCchi.o
 .comment       0x0000000000000018       0x19 C:\Users\ajarr\AppData\Local\Temp\ccySgCMJ.o
 .comment       0x0000000000000018       0x19 C:\Users\ajarr\AppData\Local\Temp\ccJGVwWh.o
 .comment       0x0000000000000018       0x19 C:\Users\ajarr\AppData\Local\Temp\ccwUhEmU.o
 .comment       0x0000000000000018       0x19 C:\Users\ajarr\AppData\Local\Temp\ccTGUrKF.o
 .comment       0x0000000000000018       0x19 C:\Users\ajarr\AppData\Local\Temp\ccW8NopI.o
 .comment       0x0000000000000018       0x19 C:\Users\ajarr\AppData\Local\Temp\ccQfD6IQ.o
 .comment       0x0000000000000018       0x19 C:\Users\ajarr\AppData\Local\Temp\ccegzvw7.o
 .comment       0x0000000000000018       0x19 C:\Users\ajarr\AppData\Local\Temp\ccW8vVNE.o
 .comment       0x0000000000000018       0x19 C:\Users\ajarr\AppData\Local\Temp\ccmmE1Hm.o
 .comment       0x0000000000000018       0x19 C:\Users\ajarr\AppData\Local\Temp\ccH43JHx.o
 .comment       0x0000000000000018       0x19 C:\Users\ajarr\AppData\Local\Temp\cco0QbZ8.o
 .comment       0x0000000000000018       0x19 C:\Users\ajarr\AppData\Local\Temp\cc5Z9OQN.o
 .comment       0x0000000000000018       0x19 C:\Users\ajarr\AppData\Local\Temp\cchzLcEP.o
 .comment       0x0000000000000018       0x19 C:\Users\ajarr\AppData\Local\Temp\ccDrgrG5.o
 .comment       0x0000000000000018       0x19 C:\Users\ajarr\AppData\Local\Temp\ccpYH1o5.o
 .comment       0x0000000000000018       0x19 C:\Users\ajarr\AppData\Local\Temp\cce8IkUa.o
 .comment       0x0000000000000018       0x19 C:\Users\ajarr\AppData\Local\Temp\ccmHMWab.o
 .comment       0x0000000000000018       0x19 C:\Users\ajarr\AppData\Local\Temp\ccwpWlcN.o
 .comment       0x0000000000000018       0x19 C:\Users\ajarr\AppData\Local\Temp\ccIOj7WD.o
 .comment       0x0000000000000018       0x19 C:\Users\ajarr\AppData\Local\Temp\ccaOdSgz.o
 .comment       0x0000000000000018       0x19 c:/opt/bcc-2.0.2-gcc/bin/../lib/gcc/sparc-gaisler-elf/7.2.0/../../../../sparc-gaisler-elf/lib/leon/mfix-at697f\libm.a(lib_a-s_atan.o)
 .comment       0x0000000000000018       0x19 c:/opt/bcc-2.0.2-gcc/bin/../lib/gcc/sparc-gaisler-elf/7.2.0/../../../../sparc-gaisler-elf/lib/leon/mfix-at697f\libm.a(lib_a-s_cos.o)
 .comment       0x0000000000000018       0x19 c:/opt/bcc-2.0.2-gcc/bin/../lib/gcc/sparc-gaisler-elf/7.2.0/../../../../sparc-gaisler-elf/lib/leon/mfix-at697f\libm.a(lib_a-s_fabs.o)
 .comment       0x0000000000000018       0x19 c:/opt/bcc-2.0.2-gcc/bin/../lib/gcc/sparc-gaisler-elf/7.2.0/../../../../sparc-gaisler-elf/lib/leon/mfix-at697f\libm.a(lib_a-s_floor.o)
 .comment       0x0000000000000018       0x19 c:/opt/bcc-2.0.2-gcc/bin/../lib/gcc/sparc-gaisler-elf/7.2.0/../../../../sparc-gaisler-elf/lib/leon/mfix-at697f\libm.a(lib_a-s_round.o)
 .comment       0x0000000000000018       0x19 c:/opt/bcc-2.0.2-gcc/bin/../lib/gcc/sparc-gaisler-elf/7.2.0/../../../../sparc-gaisler-elf/lib/leon/mfix-at697f\libm.a(lib_a-s_sin.o)
 .comment       0x0000000000000018       0x19 c:/opt/bcc-2.0.2-gcc/bin/../lib/gcc/sparc-gaisler-elf/7.2.0/../../../../sparc-gaisler-elf/lib/leon/mfix-at697f\libm.a(lib_a-s_tan.o)
 .comment       0x0000000000000018       0x19 c:/opt/bcc-2.0.2-gcc/bin/../lib/gcc/sparc-gaisler-elf/7.2.0/../../../../sparc-gaisler-elf/lib/leon/mfix-at697f\libm.a(lib_a-w_acos.o)
 .comment       0x0000000000000018       0x19 c:/opt/bcc-2.0.2-gcc/bin/../lib/gcc/sparc-gaisler-elf/7.2.0/../../../../sparc-gaisler-elf/lib/leon/mfix-at697f\libm.a(lib_a-w_asin.o)
 .comment       0x0000000000000018       0x19 c:/opt/bcc-2.0.2-gcc/bin/../lib/gcc/sparc-gaisler-elf/7.2.0/../../../../sparc-gaisler-elf/lib/leon/mfix-at697f\libm.a(lib_a-w_atan2.o)
 .comment       0x0000000000000018       0x19 c:/opt/bcc-2.0.2-gcc/bin/../lib/gcc/sparc-gaisler-elf/7.2.0/../../../../sparc-gaisler-elf/lib/leon/mfix-at697f\libm.a(lib_a-w_fmod.o)
 .comment       0x0000000000000018       0x19 c:/opt/bcc-2.0.2-gcc/bin/../lib/gcc/sparc-gaisler-elf/7.2.0/../../../../sparc-gaisler-elf/lib/leon/mfix-at697f\libm.a(lib_a-w_pow.o)
 .comment       0x0000000000000018       0x19 c:/opt/bcc-2.0.2-gcc/bin/../lib/gcc/sparc-gaisler-elf/7.2.0/../../../../sparc-gaisler-elf/lib/leon/mfix-at697f\libm.a(lib_a-w_sqrt.o)
 .comment       0x0000000000000018       0x19 c:/opt/bcc-2.0.2-gcc/bin/../lib/gcc/sparc-gaisler-elf/7.2.0/../../../../sparc-gaisler-elf/lib/leon/mfix-at697f\libm.a(lib_a-e_acos.o)
 .comment       0x0000000000000018       0x19 c:/opt/bcc-2.0.2-gcc/bin/../lib/gcc/sparc-gaisler-elf/7.2.0/../../../../sparc-gaisler-elf/lib/leon/mfix-at697f\libm.a(lib_a-e_asin.o)
 .comment       0x0000000000000018       0x19 c:/opt/bcc-2.0.2-gcc/bin/../lib/gcc/sparc-gaisler-elf/7.2.0/../../../../sparc-gaisler-elf/lib/leon/mfix-at697f\libm.a(lib_a-e_atan2.o)
 .comment       0x0000000000000018       0x19 c:/opt/bcc-2.0.2-gcc/bin/../lib/gcc/sparc-gaisler-elf/7.2.0/../../../../sparc-gaisler-elf/lib/leon/mfix-at697f\libm.a(lib_a-e_fmod.o)
 .comment       0x0000000000000018       0x19 c:/opt/bcc-2.0.2-gcc/bin/../lib/gcc/sparc-gaisler-elf/7.2.0/../../../../sparc-gaisler-elf/lib/leon/mfix-at697f\libm.a(lib_a-e_pow.o)
 .comment       0x0000000000000018       0x19 c:/opt/bcc-2.0.2-gcc/bin/../lib/gcc/sparc-gaisler-elf/7.2.0/../../../../sparc-gaisler-elf/lib/leon/mfix-at697f\libm.a(lib_a-e_rem_pio2.o)
 .comment       0x0000000000000018       0x19 c:/opt/bcc-2.0.2-gcc/bin/../lib/gcc/sparc-gaisler-elf/7.2.0/../../../../sparc-gaisler-elf/lib/leon/mfix-at697f\libm.a(lib_a-e_sqrt.o)
 .comment       0x0000000000000018       0x19 c:/opt/bcc-2.0.2-gcc/bin/../lib/gcc/sparc-gaisler-elf/7.2.0/../../../../sparc-gaisler-elf/lib/leon/mfix-at697f\libm.a(lib_a-k_cos.o)
 .comment       0x0000000000000018       0x19 c:/opt/bcc-2.0.2-gcc/bin/../lib/gcc/sparc-gaisler-elf/7.2.0/../../../../sparc-gaisler-elf/lib/leon/mfix-at697f\libm.a(lib_a-k_rem_pio2.o)
 .comment       0x0000000000000018       0x19 c:/opt/bcc-2.0.2-gcc/bin/../lib/gcc/sparc-gaisler-elf/7.2.0/../../../../sparc-gaisler-elf/lib/leon/mfix-at697f\libm.a(lib_a-k_sin.o)
 .comment       0x0000000000000018       0x19 c:/opt/bcc-2.0.2-gcc/bin/../lib/gcc/sparc-gaisler-elf/7.2.0/../../../../sparc-gaisler-elf/lib/leon/mfix-at697f\libm.a(lib_a-k_tan.o)
 .comment       0x0000000000000018       0x19 c:/opt/bcc-2.0.2-gcc/bin/../lib/gcc/sparc-gaisler-elf/7.2.0/../../../../sparc-gaisler-elf/lib/leon/mfix-at697f\libm.a(lib_a-s_finite.o)
 .comment       0x0000000000000018       0x19 c:/opt/bcc-2.0.2-gcc/bin/../lib/gcc/sparc-gaisler-elf/7.2.0/../../../../sparc-gaisler-elf/lib/leon/mfix-at697f\libm.a(lib_a-s_lib_ver.o)
 .comment       0x0000000000000018       0x19 c:/opt/bcc-2.0.2-gcc/bin/../lib/gcc/sparc-gaisler-elf/7.2.0/../../../../sparc-gaisler-elf/lib/leon/mfix-at697f\libm.a(lib_a-s_matherr.o)
 .comment       0x0000000000000018       0x19 c:/opt/bcc-2.0.2-gcc/bin/../lib/gcc/sparc-gaisler-elf/7.2.0/../../../../sparc-gaisler-elf/lib/leon/mfix-at697f\libm.a(lib_a-s_nan.o)
 .comment       0x0000000000000018       0x19 c:/opt/bcc-2.0.2-gcc/bin/../lib/gcc/sparc-gaisler-elf/7.2.0/../../../../sparc-gaisler-elf/lib/leon/mfix-at697f\libm.a(lib_a-s_rint.o)
 .comment       0x0000000000000018       0x19 c:/opt/bcc-2.0.2-gcc/bin/../lib/gcc/sparc-gaisler-elf/7.2.0/../../../../sparc-gaisler-elf/lib/leon/mfix-at697f\libm.a(lib_a-s_scalbn.o)
 .comment       0x0000000000000018       0x19 c:/opt/bcc-2.0.2-gcc/bin/../lib/gcc/sparc-gaisler-elf/7.2.0/../../../../sparc-gaisler-elf/lib/leon/mfix-at697f\libm.a(lib_a-s_copysign.o)
 .comment       0x0000000000000018       0x19 c:/opt/bcc-2.0.2-gcc/bin/../sparc-gaisler-elf/bsp/leon2/leon/mfix-at697f\libbcc.a(trap.c.o)
 .comment       0x0000000000000018       0x19 c:/opt/bcc-2.0.2-gcc/bin/../sparc-gaisler-elf/bsp/leon2/leon/mfix-at697f\libbcc.a(isr.c.o)
 .comment       0x0000000000000018       0x19 c:/opt/bcc-2.0.2-gcc/bin/../sparc-gaisler-elf/bsp/leon2/leon/mfix-at697f\libbcc.a(int_nest.c.o)
 .comment       0x0000000000000018       0x19 c:/opt/bcc-2.0.2-gcc/bin/../sparc-gaisler-elf/bsp/leon2/leon/mfix-at697f\libbcc.a(copy_data.c.o)
 .comment       0x0000000000000018       0x19 c:/opt/bcc-2.0.2-gcc/bin/../sparc-gaisler-elf/bsp/leon2/leon/mfix-at697f\libbcc.a(int_leon2.c.o)
 .comment       0x0000000000000018       0x19 c:/opt/bcc-2.0.2-gcc/bin/../sparc-gaisler-elf/bsp/leon2/leon/mfix-at697f\libbcc.a(int_leon2_get_source.c.o)
 .comment       0x0000000000000018       0x19 c:/opt/bcc-2.0.2-gcc/bin/../sparc-gaisler-elf/bsp/leon2/leon/mfix-at697f\libbcc.a(int_leon2_init.c.o)
 .comment       0x0000000000000018       0x19 c:/opt/bcc-2.0.2-gcc/bin/../sparc-gaisler-elf/bsp/leon2/leon/mfix-at697f\libbcc.a(con_leon2.c.o)
 .comment       0x0000000000000018       0x19 c:/opt/bcc-2.0.2-gcc/bin/../sparc-gaisler-elf/bsp/leon2/leon/mfix-at697f\libbcc.a(timer_leon2.c.o)
 .comment       0x0000000000000018       0x19 c:/opt/bcc-2.0.2-gcc/bin/../sparc-gaisler-elf/bsp/leon2/leon/mfix-at697f\libbcc.a(int_leon2_handle.c.o)
 .comment       0x0000000000000018       0x19 c:/opt/bcc-2.0.2-gcc/bin/../sparc-gaisler-elf/bsp/leon2/leon/mfix-at697f\libbcc.a(con_handle.c.o)
 .comment       0x0000000000000018       0x19 c:/opt/bcc-2.0.2-gcc/bin/../sparc-gaisler-elf/bsp/leon2/leon/mfix-at697f\libbcc.a(timer_handle.c.o)
 .comment       0x0000000000000018       0x19 c:/opt/bcc-2.0.2-gcc/bin/../lib/gcc/sparc-gaisler-elf/7.2.0/../../../../sparc-gaisler-elf/lib/leon/mfix-at697f\libc.a(lib_a-atexit.o)
 .comment       0x0000000000000018       0x19 c:/opt/bcc-2.0.2-gcc/bin/../lib/gcc/sparc-gaisler-elf/7.2.0/../../../../sparc-gaisler-elf/lib/leon/mfix-at697f\libc.a(lib_a-errno.o)
 .comment       0x0000000000000018       0x19 c:/opt/bcc-2.0.2-gcc/bin/../lib/gcc/sparc-gaisler-elf/7.2.0/../../../../sparc-gaisler-elf/lib/leon/mfix-at697f\libc.a(lib_a-exit.o)
 .comment       0x0000000000000018       0x19 c:/opt/bcc-2.0.2-gcc/bin/../lib/gcc/sparc-gaisler-elf/7.2.0/../../../../sparc-gaisler-elf/lib/leon/mfix-at697f\libc.a(lib_a-impure.o)
 .comment       0x0000000000000018       0x19 c:/opt/bcc-2.0.2-gcc/bin/../lib/gcc/sparc-gaisler-elf/7.2.0/../../../../sparc-gaisler-elf/lib/leon/mfix-at697f\libc.a(lib_a-memcpy.o)
 .comment       0x0000000000000018       0x19 c:/opt/bcc-2.0.2-gcc/bin/../lib/gcc/sparc-gaisler-elf/7.2.0/../../../../sparc-gaisler-elf/lib/leon/mfix-at697f\libc.a(lib_a-__atexit.o)
 .comment       0x0000000000000018       0x19 c:/opt/bcc-2.0.2-gcc/bin/../lib/gcc/sparc-gaisler-elf/7.2.0/../../../../sparc-gaisler-elf/lib/leon/mfix-at697f\libc.a(lib_a-__call_atexit.o)
 .comment       0x0000000000000018       0x19 c:/opt/bcc-2.0.2-gcc/bin/../lib/gcc/sparc-gaisler-elf/7.2.0/leon/mfix-at697f/crtend.o

.gnu.attributes
                0x0000000000000000       0x10
 .gnu.attributes
                0x0000000000000000       0x10 C:\Users\ajarr\AppData\Local\Temp\cco0QbZ8.o
 .gnu.attributes
                0x0000000000000010       0x10 C:\Users\ajarr\AppData\Local\Temp\cchzLcEP.o
 .gnu.attributes
                0x0000000000000020       0x10 C:\Users\ajarr\AppData\Local\Temp\ccpYH1o5.o
 .gnu.attributes
                0x0000000000000030       0x10 C:\Users\ajarr\AppData\Local\Temp\cce8IkUa.o
 .gnu.attributes
                0x0000000000000040       0x10 C:\Users\ajarr\AppData\Local\Temp\ccIOj7WD.o
 .gnu.attributes
                0x0000000000000050       0x10 c:/opt/bcc-2.0.2-gcc/bin/../lib/gcc/sparc-gaisler-elf/7.2.0/../../../../sparc-gaisler-elf/lib/leon/mfix-at697f\libm.a(lib_a-k_rem_pio2.o)

.debug_macinfo
 *(.debug_macinfo)

.debug_weaknames
 *(.debug_weaknames)

.debug_funcnames
 *(.debug_funcnames)

.debug_typenames
 *(.debug_typenames)

.debug_varnames
 *(.debug_varnames)
LOAD c:/opt/bcc-2.0.2-gcc/bin/../lib/gcc/sparc-gaisler-elf/7.2.0/leon/mfix-at697f\libgcc.a
START GROUP
LOAD c:/opt/bcc-2.0.2-gcc/bin/../sparc-gaisler-elf/bsp/leon2/leon/mfix-at697f\libbcc.a
LOAD c:/opt/bcc-2.0.2-gcc/bin/../lib/gcc/sparc-gaisler-elf/7.2.0/../../../../sparc-gaisler-elf/lib/leon/mfix-at697f\libc.a
END GROUP
LOAD c:/opt/bcc-2.0.2-gcc/bin/../lib/gcc/sparc-gaisler-elf/7.2.0/leon/mfix-at697f\libgcc.a
LOAD c:/opt/bcc-2.0.2-gcc/bin/../lib/gcc/sparc-gaisler-elf/7.2.0/leon/mfix-at697f/crtend.o
LOAD c:/opt/bcc-2.0.2-gcc/bin/../lib/gcc/sparc-gaisler-elf/7.2.0/leon/mfix-at697f/crtn.o
OUTPUT(rsat-obc.elf elf32-sparc)
