Archive member included to satisfy reference by file (symbol)

c:/opt/bcc-2.0.2-gcc/bin/../lib/gcc/sparc-gaisler-elf/7.2.0/../../../../sparc-gaisler-elf/lib/leon/mfix-at697f\libm.a(lib_a-s_atan.o)
                              C:\Users\ajarr\AppData\Local\Temp\cc8e2yNj.o (atan)
c:/opt/bcc-2.0.2-gcc/bin/../lib/gcc/sparc-gaisler-elf/7.2.0/../../../../sparc-gaisler-elf/lib/leon/mfix-at697f\libm.a(lib_a-s_cos.o)
                              C:\Users\ajarr\AppData\Local\Temp\ccXhqPVa.o (cos)
c:/opt/bcc-2.0.2-gcc/bin/../lib/gcc/sparc-gaisler-elf/7.2.0/../../../../sparc-gaisler-elf/lib/leon/mfix-at697f\libm.a(lib_a-s_fabs.o)
                              c:/opt/bcc-2.0.2-gcc/bin/../lib/gcc/sparc-gaisler-elf/7.2.0/../../../../sparc-gaisler-elf/lib/leon/mfix-at697f\libm.a(lib_a-s_atan.o) (fabs)
c:/opt/bcc-2.0.2-gcc/bin/../lib/gcc/sparc-gaisler-elf/7.2.0/../../../../sparc-gaisler-elf/lib/leon/mfix-at697f\libm.a(lib_a-s_floor.o)
                              C:\Users\ajarr\AppData\Local\Temp\ccjuLCXH.o (floor)
c:/opt/bcc-2.0.2-gcc/bin/../lib/gcc/sparc-gaisler-elf/7.2.0/../../../../sparc-gaisler-elf/lib/leon/mfix-at697f\libm.a(lib_a-s_round.o)
                              C:\Users\ajarr\AppData\Local\Temp\ccwbk5Wx.o (round)
c:/opt/bcc-2.0.2-gcc/bin/../lib/gcc/sparc-gaisler-elf/7.2.0/../../../../sparc-gaisler-elf/lib/leon/mfix-at697f\libm.a(lib_a-s_sin.o)
                              C:\Users\ajarr\AppData\Local\Temp\ccXhqPVa.o (sin)
c:/opt/bcc-2.0.2-gcc/bin/../lib/gcc/sparc-gaisler-elf/7.2.0/../../../../sparc-gaisler-elf/lib/leon/mfix-at697f\libm.a(lib_a-s_tan.o)
                              C:\Users\ajarr\AppData\Local\Temp\cc8e2yNj.o (tan)
c:/opt/bcc-2.0.2-gcc/bin/../lib/gcc/sparc-gaisler-elf/7.2.0/../../../../sparc-gaisler-elf/lib/leon/mfix-at697f\libm.a(lib_a-w_acos.o)
                              C:\Users\ajarr\AppData\Local\Temp\ccNMwkyO.o (acos)
c:/opt/bcc-2.0.2-gcc/bin/../lib/gcc/sparc-gaisler-elf/7.2.0/../../../../sparc-gaisler-elf/lib/leon/mfix-at697f\libm.a(lib_a-w_asin.o)
                              C:\Users\ajarr\AppData\Local\Temp\ccjuLCXH.o (asin)
c:/opt/bcc-2.0.2-gcc/bin/../lib/gcc/sparc-gaisler-elf/7.2.0/../../../../sparc-gaisler-elf/lib/leon/mfix-at697f\libm.a(lib_a-w_atan2.o)
                              C:\Users\ajarr\AppData\Local\Temp\ccNMwkyO.o (atan2)
c:/opt/bcc-2.0.2-gcc/bin/../lib/gcc/sparc-gaisler-elf/7.2.0/../../../../sparc-gaisler-elf/lib/leon/mfix-at697f\libm.a(lib_a-w_fmod.o)
                              C:\Users\ajarr\AppData\Local\Temp\ccjuLCXH.o (fmod)
c:/opt/bcc-2.0.2-gcc/bin/../lib/gcc/sparc-gaisler-elf/7.2.0/../../../../sparc-gaisler-elf/lib/leon/mfix-at697f\libm.a(lib_a-w_pow.o)
                              C:\Users\ajarr\AppData\Local\Temp\ccNMwkyO.o (pow)
c:/opt/bcc-2.0.2-gcc/bin/../lib/gcc/sparc-gaisler-elf/7.2.0/../../../../sparc-gaisler-elf/lib/leon/mfix-at697f\libm.a(lib_a-w_sqrt.o)
                              C:\Users\ajarr\AppData\Local\Temp\ccXhqPVa.o (sqrt)
c:/opt/bcc-2.0.2-gcc/bin/../lib/gcc/sparc-gaisler-elf/7.2.0/../../../../sparc-gaisler-elf/lib/leon/mfix-at697f\libm.a(lib_a-e_acos.o)
                              c:/opt/bcc-2.0.2-gcc/bin/../lib/gcc/sparc-gaisler-elf/7.2.0/../../../../sparc-gaisler-elf/lib/leon/mfix-at697f\libm.a(lib_a-w_acos.o) (__ieee754_acos)
c:/opt/bcc-2.0.2-gcc/bin/../lib/gcc/sparc-gaisler-elf/7.2.0/../../../../sparc-gaisler-elf/lib/leon/mfix-at697f\libm.a(lib_a-e_asin.o)
                              c:/opt/bcc-2.0.2-gcc/bin/../lib/gcc/sparc-gaisler-elf/7.2.0/../../../../sparc-gaisler-elf/lib/leon/mfix-at697f\libm.a(lib_a-w_asin.o) (__ieee754_asin)
c:/opt/bcc-2.0.2-gcc/bin/../lib/gcc/sparc-gaisler-elf/7.2.0/../../../../sparc-gaisler-elf/lib/leon/mfix-at697f\libm.a(lib_a-e_atan2.o)
                              c:/opt/bcc-2.0.2-gcc/bin/../lib/gcc/sparc-gaisler-elf/7.2.0/../../../../sparc-gaisler-elf/lib/leon/mfix-at697f\libm.a(lib_a-w_atan2.o) (__ieee754_atan2)
c:/opt/bcc-2.0.2-gcc/bin/../lib/gcc/sparc-gaisler-elf/7.2.0/../../../../sparc-gaisler-elf/lib/leon/mfix-at697f\libm.a(lib_a-e_fmod.o)
                              c:/opt/bcc-2.0.2-gcc/bin/../lib/gcc/sparc-gaisler-elf/7.2.0/../../../../sparc-gaisler-elf/lib/leon/mfix-at697f\libm.a(lib_a-w_fmod.o) (__ieee754_fmod)
c:/opt/bcc-2.0.2-gcc/bin/../lib/gcc/sparc-gaisler-elf/7.2.0/../../../../sparc-gaisler-elf/lib/leon/mfix-at697f\libm.a(lib_a-e_pow.o)
                              c:/opt/bcc-2.0.2-gcc/bin/../lib/gcc/sparc-gaisler-elf/7.2.0/../../../../sparc-gaisler-elf/lib/leon/mfix-at697f\libm.a(lib_a-w_pow.o) (__ieee754_pow)
c:/opt/bcc-2.0.2-gcc/bin/../lib/gcc/sparc-gaisler-elf/7.2.0/../../../../sparc-gaisler-elf/lib/leon/mfix-at697f\libm.a(lib_a-e_rem_pio2.o)
                              c:/opt/bcc-2.0.2-gcc/bin/../lib/gcc/sparc-gaisler-elf/7.2.0/../../../../sparc-gaisler-elf/lib/leon/mfix-at697f\libm.a(lib_a-s_cos.o) (__ieee754_rem_pio2)
c:/opt/bcc-2.0.2-gcc/bin/../lib/gcc/sparc-gaisler-elf/7.2.0/../../../../sparc-gaisler-elf/lib/leon/mfix-at697f\libm.a(lib_a-e_sqrt.o)
                              c:/opt/bcc-2.0.2-gcc/bin/../lib/gcc/sparc-gaisler-elf/7.2.0/../../../../sparc-gaisler-elf/lib/leon/mfix-at697f\libm.a(lib_a-w_sqrt.o) (__ieee754_sqrt)
c:/opt/bcc-2.0.2-gcc/bin/../lib/gcc/sparc-gaisler-elf/7.2.0/../../../../sparc-gaisler-elf/lib/leon/mfix-at697f\libm.a(lib_a-k_cos.o)
                              c:/opt/bcc-2.0.2-gcc/bin/../lib/gcc/sparc-gaisler-elf/7.2.0/../../../../sparc-gaisler-elf/lib/leon/mfix-at697f\libm.a(lib_a-s_cos.o) (__kernel_cos)
c:/opt/bcc-2.0.2-gcc/bin/../lib/gcc/sparc-gaisler-elf/7.2.0/../../../../sparc-gaisler-elf/lib/leon/mfix-at697f\libm.a(lib_a-k_rem_pio2.o)
                              c:/opt/bcc-2.0.2-gcc/bin/../lib/gcc/sparc-gaisler-elf/7.2.0/../../../../sparc-gaisler-elf/lib/leon/mfix-at697f\libm.a(lib_a-e_rem_pio2.o) (__kernel_rem_pio2)
c:/opt/bcc-2.0.2-gcc/bin/../lib/gcc/sparc-gaisler-elf/7.2.0/../../../../sparc-gaisler-elf/lib/leon/mfix-at697f\libm.a(lib_a-k_sin.o)
                              c:/opt/bcc-2.0.2-gcc/bin/../lib/gcc/sparc-gaisler-elf/7.2.0/../../../../sparc-gaisler-elf/lib/leon/mfix-at697f\libm.a(lib_a-s_cos.o) (__kernel_sin)
c:/opt/bcc-2.0.2-gcc/bin/../lib/gcc/sparc-gaisler-elf/7.2.0/../../../../sparc-gaisler-elf/lib/leon/mfix-at697f\libm.a(lib_a-k_tan.o)
                              c:/opt/bcc-2.0.2-gcc/bin/../lib/gcc/sparc-gaisler-elf/7.2.0/../../../../sparc-gaisler-elf/lib/leon/mfix-at697f\libm.a(lib_a-s_tan.o) (__kernel_tan)
c:/opt/bcc-2.0.2-gcc/bin/../lib/gcc/sparc-gaisler-elf/7.2.0/../../../../sparc-gaisler-elf/lib/leon/mfix-at697f\libm.a(lib_a-s_finite.o)
                              c:/opt/bcc-2.0.2-gcc/bin/../lib/gcc/sparc-gaisler-elf/7.2.0/../../../../sparc-gaisler-elf/lib/leon/mfix-at697f\libm.a(lib_a-w_pow.o) (finite)
c:/opt/bcc-2.0.2-gcc/bin/../lib/gcc/sparc-gaisler-elf/7.2.0/../../../../sparc-gaisler-elf/lib/leon/mfix-at697f\libm.a(lib_a-s_lib_ver.o)
                              c:/opt/bcc-2.0.2-gcc/bin/../lib/gcc/sparc-gaisler-elf/7.2.0/../../../../sparc-gaisler-elf/lib/leon/mfix-at697f\libm.a(lib_a-w_acos.o) (__fdlib_version)
c:/opt/bcc-2.0.2-gcc/bin/../lib/gcc/sparc-gaisler-elf/7.2.0/../../../../sparc-gaisler-elf/lib/leon/mfix-at697f\libm.a(lib_a-s_matherr.o)
                              c:/opt/bcc-2.0.2-gcc/bin/../lib/gcc/sparc-gaisler-elf/7.2.0/../../../../sparc-gaisler-elf/lib/leon/mfix-at697f\libm.a(lib_a-w_acos.o) (matherr)
c:/opt/bcc-2.0.2-gcc/bin/../lib/gcc/sparc-gaisler-elf/7.2.0/../../../../sparc-gaisler-elf/lib/leon/mfix-at697f\libm.a(lib_a-s_nan.o)
                              c:/opt/bcc-2.0.2-gcc/bin/../lib/gcc/sparc-gaisler-elf/7.2.0/../../../../sparc-gaisler-elf/lib/leon/mfix-at697f\libm.a(lib_a-w_acos.o) (nan)
c:/opt/bcc-2.0.2-gcc/bin/../lib/gcc/sparc-gaisler-elf/7.2.0/../../../../sparc-gaisler-elf/lib/leon/mfix-at697f\libm.a(lib_a-s_rint.o)
                              c:/opt/bcc-2.0.2-gcc/bin/../lib/gcc/sparc-gaisler-elf/7.2.0/../../../../sparc-gaisler-elf/lib/leon/mfix-at697f\libm.a(lib_a-w_pow.o) (rint)
c:/opt/bcc-2.0.2-gcc/bin/../lib/gcc/sparc-gaisler-elf/7.2.0/../../../../sparc-gaisler-elf/lib/leon/mfix-at697f\libm.a(lib_a-s_scalbn.o)
                              c:/opt/bcc-2.0.2-gcc/bin/../lib/gcc/sparc-gaisler-elf/7.2.0/../../../../sparc-gaisler-elf/lib/leon/mfix-at697f\libm.a(lib_a-e_pow.o) (scalbn)
c:/opt/bcc-2.0.2-gcc/bin/../lib/gcc/sparc-gaisler-elf/7.2.0/../../../../sparc-gaisler-elf/lib/leon/mfix-at697f\libm.a(lib_a-s_copysign.o)
                              c:/opt/bcc-2.0.2-gcc/bin/../lib/gcc/sparc-gaisler-elf/7.2.0/../../../../sparc-gaisler-elf/lib/leon/mfix-at697f\libm.a(lib_a-s_scalbn.o) (copysign)
c:/opt/bcc-2.0.2-gcc/bin/../sparc-gaisler-elf/bsp/leon2/leon/mfix-at697f\libbcc.a(reset_trap_mvt.S.o)
                              c:/opt/bcc-2.0.2-gcc/bin/../sparc-gaisler-elf/bsp/leon2/leon/mfix-at697f/trap_table_mvt.S.o (__bcc_trap_reset_mvt)
c:/opt/bcc-2.0.2-gcc/bin/../sparc-gaisler-elf/bsp/leon2/leon/mfix-at697f\libbcc.a(window_trap.S.o)
                              c:/opt/bcc-2.0.2-gcc/bin/../sparc-gaisler-elf/bsp/leon2/leon/mfix-at697f/trap_table_mvt.S.o (__bcc_trap_window_overflow)
c:/opt/bcc-2.0.2-gcc/bin/../sparc-gaisler-elf/bsp/leon2/leon/mfix-at697f\libbcc.a(interrupt_trap.S.o)
                              c:/opt/bcc-2.0.2-gcc/bin/../sparc-gaisler-elf/bsp/leon2/leon/mfix-at697f/trap_table_mvt.S.o (__bcc_trap_interrupt)
c:/opt/bcc-2.0.2-gcc/bin/../sparc-gaisler-elf/bsp/leon2/leon/mfix-at697f\libbcc.a(flush_windows_trap.S.o)
                              c:/opt/bcc-2.0.2-gcc/bin/../sparc-gaisler-elf/bsp/leon2/leon/mfix-at697f/trap_table_mvt.S.o (__bcc_trap_flush_windows)
c:/opt/bcc-2.0.2-gcc/bin/../sparc-gaisler-elf/bsp/leon2/leon/mfix-at697f\libbcc.a(sw_trap_set_pil.S.o)
                              c:/opt/bcc-2.0.2-gcc/bin/../sparc-gaisler-elf/bsp/leon2/leon/mfix-at697f/trap_table_mvt.S.o (__bcc_trap_sw_set_pil)
c:/opt/bcc-2.0.2-gcc/bin/../sparc-gaisler-elf/bsp/leon2/leon/mfix-at697f\libbcc.a(trap.c.o)
                              C:\Users\ajarr\AppData\Local\Temp\ccgtKLQ9.o (bcc_set_trap)
c:/opt/bcc-2.0.2-gcc/bin/../sparc-gaisler-elf/bsp/leon2/leon/mfix-at697f\libbcc.a(isr.c.o)
                              c:/opt/bcc-2.0.2-gcc/bin/../sparc-gaisler-elf/bsp/leon2/leon/mfix-at697f\libbcc.a(interrupt_trap.S.o) (__bcc_isr_list)
c:/opt/bcc-2.0.2-gcc/bin/../sparc-gaisler-elf/bsp/leon2/leon/mfix-at697f\libbcc.a(int_nest.c.o)
                              c:/opt/bcc-2.0.2-gcc/bin/../sparc-gaisler-elf/bsp/leon2/leon/mfix-at697f\libbcc.a(interrupt_trap.S.o) (__bcc_int_nest)
c:/opt/bcc-2.0.2-gcc/bin/../sparc-gaisler-elf/bsp/leon2/leon/mfix-at697f\libbcc.a(init.S.o)
                              c:/opt/bcc-2.0.2-gcc/bin/../sparc-gaisler-elf/bsp/leon2/leon/mfix-at697f\libbcc.a(reset_trap_mvt.S.o) (__bcc_init40)
c:/opt/bcc-2.0.2-gcc/bin/../sparc-gaisler-elf/bsp/leon2/leon/mfix-at697f\libbcc.a(leon_info.S.o)
                              c:/opt/bcc-2.0.2-gcc/bin/../sparc-gaisler-elf/bsp/leon2/leon/mfix-at697f/crt0.S.o (__bcc_get_leon_info)
c:/opt/bcc-2.0.2-gcc/bin/../sparc-gaisler-elf/bsp/leon2/leon/mfix-at697f\libbcc.a(dwzero.S.o)
                              c:/opt/bcc-2.0.2-gcc/bin/../sparc-gaisler-elf/bsp/leon2/leon/mfix-at697f/crt0.S.o (bcc_dwzero)
c:/opt/bcc-2.0.2-gcc/bin/../sparc-gaisler-elf/bsp/leon2/leon/mfix-at697f\libbcc.a(copy_data.c.o)
                              c:/opt/bcc-2.0.2-gcc/bin/../sparc-gaisler-elf/bsp/leon2/leon/mfix-at697f/crt0.S.o (__bcc_copy_data)
c:/opt/bcc-2.0.2-gcc/bin/../sparc-gaisler-elf/bsp/leon2/leon/mfix-at697f\libbcc.a(lowlevel.S.o)
                              c:/opt/bcc-2.0.2-gcc/bin/../sparc-gaisler-elf/bsp/leon2/leon/mfix-at697f\libbcc.a(trap.c.o) (bcc_get_tbr)
c:/opt/bcc-2.0.2-gcc/bin/../sparc-gaisler-elf/bsp/leon2/leon/mfix-at697f\libbcc.a(lowlevel_leon2.S.o)
                              C:\Users\ajarr\AppData\Local\Temp\ccgtKLQ9.o (bcc_flush_cache)
c:/opt/bcc-2.0.2-gcc/bin/../sparc-gaisler-elf/bsp/leon2/leon/mfix-at697f\libbcc.a(int_leon2.c.o)
                              C:\Users\ajarr\AppData\Local\Temp\ccgtKLQ9.o (bcc_int_unmask)
c:/opt/bcc-2.0.2-gcc/bin/../sparc-gaisler-elf/bsp/leon2/leon/mfix-at697f\libbcc.a(int_leon2_get_source.c.o)
                              c:/opt/bcc-2.0.2-gcc/bin/../sparc-gaisler-elf/bsp/leon2/leon/mfix-at697f\libbcc.a(interrupt_trap.S.o) (__bcc_int_get_source)
c:/opt/bcc-2.0.2-gcc/bin/../sparc-gaisler-elf/bsp/leon2/leon/mfix-at697f\libbcc.a(int_leon2_init.c.o)
                              c:/opt/bcc-2.0.2-gcc/bin/../sparc-gaisler-elf/bsp/leon2/leon/mfix-at697f/crt0.S.o (__bcc_int_init)
c:/opt/bcc-2.0.2-gcc/bin/../sparc-gaisler-elf/bsp/leon2/leon/mfix-at697f\libbcc.a(con_leon2.c.o)
                              c:/opt/bcc-2.0.2-gcc/bin/../sparc-gaisler-elf/bsp/leon2/leon/mfix-at697f/crt0.S.o (__bcc_con_init)
c:/opt/bcc-2.0.2-gcc/bin/../sparc-gaisler-elf/bsp/leon2/leon/mfix-at697f\libbcc.a(timer_leon2.c.o)
                              c:/opt/bcc-2.0.2-gcc/bin/../sparc-gaisler-elf/bsp/leon2/leon/mfix-at697f/crt0.S.o (__bcc_timer_init)
c:/opt/bcc-2.0.2-gcc/bin/../sparc-gaisler-elf/bsp/leon2/leon/mfix-at697f\libbcc.a(set_pil.S.o)
                              c:/opt/bcc-2.0.2-gcc/bin/../sparc-gaisler-elf/bsp/leon2/leon/mfix-at697f\libbcc.a(int_leon2.c.o) (bcc_set_pil)
c:/opt/bcc-2.0.2-gcc/bin/../sparc-gaisler-elf/bsp/leon2/leon/mfix-at697f\libbcc.a(int_leon2_handle.c.o)
                              c:/opt/bcc-2.0.2-gcc/bin/../sparc-gaisler-elf/bsp/leon2/leon/mfix-at697f\libbcc.a(int_leon2.c.o) (__bcc_int_handle)
c:/opt/bcc-2.0.2-gcc/bin/../sparc-gaisler-elf/bsp/leon2/leon/mfix-at697f\libbcc.a(con_handle.c.o)
                              c:/opt/bcc-2.0.2-gcc/bin/../sparc-gaisler-elf/bsp/leon2/leon/mfix-at697f\libbcc.a(con_leon2.c.o) (__bcc_con_handle)
c:/opt/bcc-2.0.2-gcc/bin/../sparc-gaisler-elf/bsp/leon2/leon/mfix-at697f\libbcc.a(timer_handle.c.o)
                              c:/opt/bcc-2.0.2-gcc/bin/../sparc-gaisler-elf/bsp/leon2/leon/mfix-at697f\libbcc.a(timer_leon2.c.o) (__bcc_timer_handle)
c:/opt/bcc-2.0.2-gcc/bin/../lib/gcc/sparc-gaisler-elf/7.2.0/../../../../sparc-gaisler-elf/lib/leon/mfix-at697f\libc.a(lib_a-atexit.o)
                              c:/opt/bcc-2.0.2-gcc/bin/../sparc-gaisler-elf/bsp/leon2/leon/mfix-at697f/crt0.S.o (atexit)
c:/opt/bcc-2.0.2-gcc/bin/../lib/gcc/sparc-gaisler-elf/7.2.0/../../../../sparc-gaisler-elf/lib/leon/mfix-at697f\libc.a(lib_a-errno.o)
                              c:/opt/bcc-2.0.2-gcc/bin/../lib/gcc/sparc-gaisler-elf/7.2.0/../../../../sparc-gaisler-elf/lib/leon/mfix-at697f\libm.a(lib_a-w_acos.o) (__errno)
c:/opt/bcc-2.0.2-gcc/bin/../lib/gcc/sparc-gaisler-elf/7.2.0/../../../../sparc-gaisler-elf/lib/leon/mfix-at697f\libc.a(lib_a-exit.o)
                              c:/opt/bcc-2.0.2-gcc/bin/../sparc-gaisler-elf/bsp/leon2/leon/mfix-at697f/crt0.S.o (exit)
c:/opt/bcc-2.0.2-gcc/bin/../lib/gcc/sparc-gaisler-elf/7.2.0/../../../../sparc-gaisler-elf/lib/leon/mfix-at697f\libc.a(lib_a-impure.o)
                              c:/opt/bcc-2.0.2-gcc/bin/../lib/gcc/sparc-gaisler-elf/7.2.0/../../../../sparc-gaisler-elf/lib/leon/mfix-at697f\libc.a(lib_a-exit.o) (_global_impure_ptr)
c:/opt/bcc-2.0.2-gcc/bin/../lib/gcc/sparc-gaisler-elf/7.2.0/../../../../sparc-gaisler-elf/lib/leon/mfix-at697f\libc.a(lib_a-memcpy.o)
                              C:\Users\ajarr\AppData\Local\Temp\ccEMnW47.o (memcpy)
c:/opt/bcc-2.0.2-gcc/bin/../lib/gcc/sparc-gaisler-elf/7.2.0/../../../../sparc-gaisler-elf/lib/leon/mfix-at697f\libc.a(lib_a-__atexit.o)
                              c:/opt/bcc-2.0.2-gcc/bin/../lib/gcc/sparc-gaisler-elf/7.2.0/../../../../sparc-gaisler-elf/lib/leon/mfix-at697f\libc.a(lib_a-atexit.o) (__register_exitproc)
c:/opt/bcc-2.0.2-gcc/bin/../lib/gcc/sparc-gaisler-elf/7.2.0/../../../../sparc-gaisler-elf/lib/leon/mfix-at697f\libc.a(lib_a-__call_atexit.o)
                              c:/opt/bcc-2.0.2-gcc/bin/../lib/gcc/sparc-gaisler-elf/7.2.0/../../../../sparc-gaisler-elf/lib/leon/mfix-at697f\libc.a(lib_a-exit.o) (__call_exitprocs)
c:/opt/bcc-2.0.2-gcc/bin/../sparc-gaisler-elf/bsp/leon2/leon/mfix-at697f\libbcc.a(_exit.S.o)
                              c:/opt/bcc-2.0.2-gcc/bin/../lib/gcc/sparc-gaisler-elf/7.2.0/../../../../sparc-gaisler-elf/lib/leon/mfix-at697f\libc.a(lib_a-exit.o) (_exit)

Allocating common symbols
Common symbol       size              file

inclo               0x8               C:\Users\ajarr\AppData\Local\Temp\ccasxzae.o
rk_Qk               0x288             C:\Users\ajarr\AppData\Local\Temp\ccasxzae.o
DPM_Polarity        0xc               C:\Users\ajarr\AppData\Local\Temp\ccasxzae.o
rl                  0x8               C:\Users\ajarr\AppData\Local\Temp\ccasxzae.o
CB_Q_propagation    0x4               C:\Users\ajarr\AppData\Local\Temp\ccasxzae.o
TC_lat_station      0x8               C:\Users\ajarr\AppData\Local\Temp\ccasxzae.o
BDOT_Reduction_Count
                    0x4               C:\Users\ajarr\AppData\Local\Temp\ccasxzae.o
vz                  0x8               C:\Users\ajarr\AppData\Local\Temp\ccasxzae.o
i_jday              0x4               C:\Users\ajarr\AppData\Local\Temp\ccasxzae.o
Rho                 0x8               C:\Users\ajarr\AppData\Local\Temp\ccasxzae.o
OrbitModel_Start    0x4               C:\Users\ajarr\AppData\Local\Temp\ccasxzae.o
delmo               0x8               C:\Users\ajarr\AppData\Local\Temp\ccasxzae.o
d_DAD               0x8               C:\Users\ajarr\AppData\Local\Temp\ccasxzae.o
q_prop_out          0x20              C:\Users\ajarr\AppData\Local\Temp\ccasxzae.o
ActWhMom            0x20              C:\Users\ajarr\AppData\Local\Temp\ccasxzae.o
JDTDT               0x8               C:\Users\ajarr\AppData\Local\Temp\ccasxzae.o
Z_EPO2ECI           0x18              C:\Users\ajarr\AppData\Local\Temp\ccasxzae.o
sampling_rate_count
                    0x4               C:\Users\ajarr\AppData\Local\Temp\ccnGtmfO.o
DeltaT_Updated      0x4               C:\Users\ajarr\AppData\Local\Temp\ccasxzae.o
J_MAGAD             0x4               C:\Users\ajarr\AppData\Local\Temp\ccasxzae.o
TC_wh_speed_thres   0x8               C:\Users\ajarr\AppData\Local\Temp\ccasxzae.o
rw_count_test       0x1               C:\Users\ajarr\AppData\Local\Temp\ccovS4yg.o
trueanomoly_GPS     0x8               C:\Users\ajarr\AppData\Local\Temp\ccasxzae.o
latitude_temp       0x8               C:\Users\ajarr\AppData\Local\Temp\ccasxzae.o
wcreci              0x18              C:\Users\ajarr\AppData\Local\Temp\ccasxzae.o
xlm                 0x8               C:\Users\ajarr\AppData\Local\Temp\ccasxzae.o
Qk_temp4            0x8               C:\Users\ajarr\AppData\Local\Temp\ccasxzae.o
inter_HAL_IMU_Data  0x4               C:\Users\ajarr\AppData\Local\Temp\ccEMnW47.o
tut                 0x8               C:\Users\ajarr\AppData\Local\Temp\ccasxzae.o
TC_HAL_SA_Heater_Timer
                    0x4               C:\Users\ajarr\AppData\Local\Temp\ccduqfO0.o
del                 0x8               C:\Users\ajarr\AppData\Local\Temp\ccasxzae.o
epochdays_sel       0x8               C:\Users\ajarr\AppData\Local\Temp\ccasxzae.o
Orbit_Period_Comp   0x8               C:\Users\ajarr\AppData\Local\Temp\ccasxzae.o
RW_Data_SlipFrame_TC
                    0x14              C:\Users\ajarr\AppData\Local\Temp\ccovS4yg.o
agc_test            0x2               C:\Users\ajarr\AppData\Local\Temp\cclXIhGd.o
t3                  0x8               C:\Users\ajarr\AppData\Local\Temp\ccasxzae.o
HB                  0x18              C:\Users\ajarr\AppData\Local\Temp\ccasxzae.o
Out_Latch_1         0x2               C:\Users\ajarr\AppData\Local\Temp\ccgtKLQ9.o
Tdes                0x18              C:\Users\ajarr\AppData\Local\Temp\ccasxzae.o
wkm                 0x8               C:\Users\ajarr\AppData\Local\Temp\ccasxzae.o
IO_Latch_Register_5_Data
                    0x4               C:\Users\ajarr\AppData\Local\Temp\ccgtKLQ9.o
func_prev_DAD       0x8               C:\Users\ajarr\AppData\Local\Temp\ccasxzae.o
sun_quadrant        0x4               C:\Users\ajarr\AppData\Local\Temp\ccEMnW47.o
pk_plus             0x288             C:\Users\ajarr\AppData\Local\Temp\ccasxzae.o
PosR_Deployed       0x4               C:\Users\ajarr\AppData\Local\Temp\ccasxzae.o
one_by_2            0x8               C:\Users\ajarr\AppData\Local\Temp\ccasxzae.o
nodedf              0x8               C:\Users\ajarr\AppData\Local\Temp\ccasxzae.o
PL_Exe_Flag         0x4               C:\Users\ajarr\AppData\Local\Temp\cczbQmCd.o
BNorth              0x8               C:\Users\ajarr\AppData\Local\Temp\ccasxzae.o
NRB_sunmag          0xc0              C:\Users\ajarr\AppData\Local\Temp\ccasxzae.o
GPS_Status_Data     0x4               C:\Users\ajarr\AppData\Local\Temp\cclUyX1f.o
B_rawdata           0xc               C:\Users\ajarr\AppData\Local\Temp\ccEMnW47.o
Del_Q               0x20              C:\Users\ajarr\AppData\Local\Temp\ccasxzae.o
longitude_tan_den   0x8               C:\Users\ajarr\AppData\Local\Temp\ccasxzae.o
pow_psisq           0x8               C:\Users\ajarr\AppData\Local\Temp\ccasxzae.o
wcrecef             0x18              C:\Users\ajarr\AppData\Local\Temp\ccasxzae.o
argpdf              0x8               C:\Users\ajarr\AppData\Local\Temp\ccasxzae.o
GPS_OBT_Read_2      0x2               C:\Users\ajarr\AppData\Local\Temp\cclUyX1f.o
inter_HAL_TM_Write_Word_Count
                    0x4               C:\Users\ajarr\AppData\Local\Temp\ccgtKLQ9.o
rvdot               0x8               C:\Users\ajarr\AppData\Local\Temp\ccasxzae.o
RW_Data_SlipFrame_Init
                    0x14              C:\Users\ajarr\AppData\Local\Temp\ccovS4yg.o
q_by_two            0x60              C:\Users\ajarr\AppData\Local\Temp\ccasxzae.o
RW_TM_ptr           0x4               C:\Users\ajarr\AppData\Local\Temp\ccovS4yg.o
SS_M8               0x8               C:\Users\ajarr\AppData\Local\Temp\ccasxzae.o
TC_StationTracking  0x4               C:\Users\ajarr\AppData\Local\Temp\ccasxzae.o
mag_noise           0x8               C:\Users\ajarr\AppData\Local\Temp\ccasxzae.o
IMU_On              0x4               C:\Users\ajarr\AppData\Local\Temp\ccEMnW47.o
Y_SVO2ECI           0x18              C:\Users\ajarr\AppData\Local\Temp\ccasxzae.o
cc2                 0x8               C:\Users\ajarr\AppData\Local\Temp\ccasxzae.o
TC_gain_select_u    0x1c              C:\Users\ajarr\AppData\Local\Temp\ccgtKLQ9.o
TC_delAT            0x8               C:\Users\ajarr\AppData\Local\Temp\ccasxzae.o
mat_sm_DataCounter  0x4               C:\Users\ajarr\AppData\Local\Temp\ccasxzae.o
delomg              0x8               C:\Users\ajarr\AppData\Local\Temp\ccasxzae.o
root_DAD            0x8               C:\Users\ajarr\AppData\Local\Temp\ccasxzae.o
ST_TC_history_Buffer
                    0x100             C:\Users\ajarr\AppData\Local\Temp\ccgtKLQ9.o
rt_tm_frame_finish  0x1               C:\Users\ajarr\AppData\Local\Temp\ccgtKLQ9.o
func_DAD            0x8               C:\Users\ajarr\AppData\Local\Temp\ccasxzae.o
TC_ptr_count        0x4               C:\Users\ajarr\AppData\Local\Temp\ccEMnW47.o
minor_cycle_counter_test
                    0x4               C:\Users\ajarr\AppData\Local\Temp\ccgtKLQ9.o
cosi                0x8               C:\Users\ajarr\AppData\Local\Temp\ccasxzae.o
xhdot1              0x8               C:\Users\ajarr\AppData\Local\Temp\ccasxzae.o
ibexp_TLE_tc        0x8               C:\Users\ajarr\AppData\Local\Temp\ccasxzae.o
omgcof              0x8               C:\Users\ajarr\AppData\Local\Temp\ccasxzae.o
phi_11_temp4        0x48              C:\Users\ajarr\AppData\Local\Temp\ccasxzae.o
eeprom_cur_addr     0x4               C:\Users\ajarr\AppData\Local\Temp\ccgtKLQ9.o
w_REF               0x18              C:\Users\ajarr\AppData\Local\Temp\ccasxzae.o
tempe               0x8               C:\Users\ajarr\AppData\Local\Temp\ccasxzae.o
mu_m                0x18              C:\Users\ajarr\AppData\Local\Temp\ccasxzae.o
el2                 0x8               C:\Users\ajarr\AppData\Local\Temp\ccasxzae.o
MUX_data2           0x2               C:\Users\ajarr\AppData\Local\Temp\ccZ3M43h.o
Q_angle             0x8               C:\Users\ajarr\AppData\Local\Temp\ccasxzae.o
BDOT_Counter        0x4               C:\Users\ajarr\AppData\Local\Temp\ccEMnW47.o
a_DAD               0x8               C:\Users\ajarr\AppData\Local\Temp\ccasxzae.o
gpstestbuff         0x44              C:\Users\ajarr\AppData\Local\Temp\cclUyX1f.o
Orbit_Period        0x8               C:\Users\ajarr\AppData\Local\Temp\ccasxzae.o
ADC_Buffer_Addr     0x4               C:\Users\ajarr\AppData\Local\Temp\cclXIhGd.o
Normal_st_table_page1
                    0x4               C:\Users\ajarr\AppData\Local\Temp\ccgtKLQ9.o
hk_xk_minus         0x18              C:\Users\ajarr\AppData\Local\Temp\ccasxzae.o
Roll_pos_D          0x8               C:\Users\ajarr\AppData\Local\Temp\ccEMnW47.o
BlkCurrent_Cmd      0x4               C:\Users\ajarr\AppData\Local\Temp\ccZ3M43h.o
ADC_Status_Data     0x4               C:\Users\ajarr\AppData\Local\Temp\cclXIhGd.o
count_tc_hist       0x4               C:\Users\ajarr\AppData\Local\Temp\ccgtKLQ9.o
MUX_1               0x2               C:\Users\ajarr\AppData\Local\Temp\ccgtKLQ9.o
GPS_Config_ptr      0x4               C:\Users\ajarr\AppData\Local\Temp\cclUyX1f.o
nutation            0x48              C:\Users\ajarr\AppData\Local\Temp\ccasxzae.o
GPS1                0x40              C:\Users\ajarr\AppData\Local\Temp\ccgtKLQ9.o
bstar_sel           0x8               C:\Users\ajarr\AppData\Local\Temp\ccasxzae.o
Y_SFDO2ECI          0x18              C:\Users\ajarr\AppData\Local\Temp\ccasxzae.o
ss_data_2           0x10              C:\Users\ajarr\AppData\Local\Temp\cclXIhGd.o
az1                 0x8               C:\Users\ajarr\AppData\Local\Temp\ccEMnW47.o
TC_max_whspeed      0x8               C:\Users\ajarr\AppData\Local\Temp\ccasxzae.o
inter_HAL_IMU_Configure_Address
                    0x4               C:\Users\ajarr\AppData\Local\Temp\ccEMnW47.o
Zt_DAD              0x18              C:\Users\ajarr\AppData\Local\Temp\ccasxzae.o
sine_of_Wk1_Delta   0x8               C:\Users\ajarr\AppData\Local\Temp\ccasxzae.o
Special_st_table_page3
                    0x4               C:\Users\ajarr\AppData\Local\Temp\ccgtKLQ9.o
delmo_temp          0x8               C:\Users\ajarr\AppData\Local\Temp\ccasxzae.o
temp_or_init        0x8               C:\Users\ajarr\AppData\Local\Temp\ccasxzae.o
vsatx_eci           0x8               C:\Users\ajarr\AppData\Local\Temp\ccasxzae.o
TTDT                0x8               C:\Users\ajarr\AppData\Local\Temp\ccasxzae.o
block_test          0x1               C:\Users\ajarr\AppData\Local\Temp\ccEMnW47.o
mm                  0x8               C:\Users\ajarr\AppData\Local\Temp\ccasxzae.o
Norm_ST_Table       0x2028            C:\Users\ajarr\AppData\Local\Temp\ccgtKLQ9.o
ecc_temp1           0x8               C:\Users\ajarr\AppData\Local\Temp\ccasxzae.o
bstar_tc            0x8               C:\Users\ajarr\AppData\Local\Temp\ccasxzae.o
intermediate        0x8               C:\Users\ajarr\AppData\Local\Temp\ccasxzae.o
gN_MAGAD            0x4               C:\Users\ajarr\AppData\Local\Temp\ccasxzae.o
Delta_TLE           0x4               C:\Users\ajarr\AppData\Local\Temp\ccasxzae.o
tos                 0x4               C:\Users\ajarr\AppData\Local\Temp\ccEMnW47.o
eeprom_chksum       0x4               C:\Users\ajarr\AppData\Local\Temp\ccgtKLQ9.o
rtom                0x8               C:\Users\ajarr\AppData\Local\Temp\ccasxzae.o
sinu                0x8               C:\Users\ajarr\AppData\Local\Temp\ccasxzae.o
CB_OrbitModel       0x4               C:\Users\ajarr\AppData\Local\Temp\ccasxzae.o
j                   0x4               C:\Users\ajarr\AppData\Local\Temp\ccasxzae.o
Ry                  0x48              C:\Users\ajarr\AppData\Local\Temp\ccasxzae.o
ch_obs_whsp         0x20              C:\Users\ajarr\AppData\Local\Temp\ccasxzae.o
Pl_tm_data          0x100             C:\Users\ajarr\AppData\Local\Temp\ccgtKLQ9.o
TM                  0x8b9             C:\Users\ajarr\AppData\Local\Temp\ccgtKLQ9.o
k_kf                0x4               C:\Users\ajarr\AppData\Local\Temp\ccasxzae.o
u_perp              0x18              C:\Users\ajarr\AppData\Local\Temp\ccasxzae.o
SWHW_STATUS         0x4               C:\Users\ajarr\AppData\Local\Temp\ccgtKLQ9.o
cp_cnt1             0x4               C:\Users\ajarr\AppData\Local\Temp\ccnGtmfO.o
Ton                 0xc               C:\Users\ajarr\AppData\Local\Temp\ccasxzae.o
determinant         0x8               C:\Users\ajarr\AppData\Local\Temp\ccasxzae.o
Pitch_MTREnable     0x4               C:\Users\ajarr\AppData\Local\Temp\ccasxzae.o
hils_ptr_sh         0x4               C:\Users\ajarr\AppData\Local\Temp\cczbQmCd.o
TC_OBT_Start        0x4               C:\Users\ajarr\AppData\Local\Temp\ccnGtmfO.o
gyrodet_B           0x18              C:\Users\ajarr\AppData\Local\Temp\ccEMnW47.o
SunAcq3ThreeAx_trsit_cnt
                    0x4               C:\Users\ajarr\AppData\Local\Temp\ccasxzae.o
TTDB2               0x8               C:\Users\ajarr\AppData\Local\Temp\ccasxzae.o
eccsq               0x8               C:\Users\ajarr\AppData\Local\Temp\ccasxzae.o
eccanomaly          0x8               C:\Users\ajarr\AppData\Local\Temp\ccasxzae.o
TC_count            0x2               C:\Users\ajarr\AppData\Local\Temp\ccZ3M43h.o
spin_up_avg_count   0x4               C:\Users\ajarr\AppData\Local\Temp\ccasxzae.o
TC_GPS2TLE_Switch   0x4               C:\Users\ajarr\AppData\Local\Temp\ccasxzae.o
ecc_GPS             0x8               C:\Users\ajarr\AppData\Local\Temp\ccasxzae.o
NOB_SFC_Init        0x4               C:\Users\ajarr\AppData\Local\Temp\ccovS4yg.o
radialdistance      0x8               C:\Users\ajarr\AppData\Local\Temp\ccasxzae.o
BNorth_old          0x8               C:\Users\ajarr\AppData\Local\Temp\ccasxzae.o
uy                  0x8               C:\Users\ajarr\AppData\Local\Temp\ccasxzae.o
pl_configure_data   0x4               C:\Users\ajarr\AppData\Local\Temp\cczbQmCd.o
DFCcountHigh        0x4               C:\Users\ajarr\AppData\Local\Temp\ccasxzae.o
hr_TLE_tc           0x4               C:\Users\ajarr\AppData\Local\Temp\ccasxzae.o
Nodearray           0x2ee0            C:\Users\ajarr\AppData\Local\Temp\ccZ3M43h.o
eSpaceCraftMode     0x4               C:\Users\ajarr\AppData\Local\Temp\ccasxzae.o
q_magad             0x350             C:\Users\ajarr\AppData\Local\Temp\ccasxzae.o
aynl                0x8               C:\Users\ajarr\AppData\Local\Temp\ccasxzae.o
perigee             0x8               C:\Users\ajarr\AppData\Local\Temp\ccasxzae.o
K_DAD               0x4               C:\Users\ajarr\AppData\Local\Temp\ccasxzae.o
gps_test_counter    0x4               C:\Users\ajarr\AppData\Local\Temp\cclUyX1f.o
SS_prcd_data_ptr    0x4               C:\Users\ajarr\AppData\Local\Temp\ccEMnW47.o
Day_Of_Year_DeltaT  0x8               C:\Users\ajarr\AppData\Local\Temp\ccasxzae.o
Del_R_theta         0x8               C:\Users\ajarr\AppData\Local\Temp\ccasxzae.o
Z_SVO2ECI           0x18              C:\Users\ajarr\AppData\Local\Temp\ccasxzae.o
heater_update_buffer
                    0x40              C:\Users\ajarr\AppData\Local\Temp\ccYAcwQn.o
ST_TCH_frame_count  0x2               C:\Users\ajarr\AppData\Local\Temp\ccgtKLQ9.o
TCH_dump_finish     0x4               C:\Users\ajarr\AppData\Local\Temp\ccgtKLQ9.o
UT1                 0x8               C:\Users\ajarr\AppData\Local\Temp\ccasxzae.o
nut_temp            0x48              C:\Users\ajarr\AppData\Local\Temp\ccasxzae.o
SB_RED              0x18              C:\Users\ajarr\AppData\Local\Temp\ccEMnW47.o
Major_Cycle_Count   0x4               C:\Users\ajarr\AppData\Local\Temp\ccgtKLQ9.o
GPS_msg_header_MSB  0x4               C:\Users\ajarr\AppData\Local\Temp\cclUyX1f.o
inter_TM_Pl_Buffer  0x4               C:\Users\ajarr\AppData\Local\Temp\ccgtKLQ9.o
ActuationCycle      0x4               C:\Users\ajarr\AppData\Local\Temp\ccasxzae.o
inter_sunsensor_i   0x4               C:\Users\ajarr\AppData\Local\Temp\ccEMnW47.o
T_RWBn              0x18              C:\Users\ajarr\AppData\Local\Temp\ccasxzae.o
SC6ImaxF            0x8               C:\Users\ajarr\AppData\Local\Temp\ccEMnW47.o
Roll_MTR_Pol_Reversal
                    0x4               C:\Users\ajarr\AppData\Local\Temp\ccasxzae.o
GYRO_Counter        0x4               C:\Users\ajarr\AppData\Local\Temp\ccEMnW47.o
trueanomoly         0x8               C:\Users\ajarr\AppData\Local\Temp\ccasxzae.o
inter_ST_TC_TM_Minor_Cycle_Count
                    0x4               C:\Users\ajarr\AppData\Local\Temp\ccgtKLQ9.o
ST_normal           0x148             C:\Users\ajarr\AppData\Local\Temp\ccgtKLQ9.o
temp2               0x8               C:\Users\ajarr\AppData\Local\Temp\ccasxzae.o
B_LPF               0x18              C:\Users\ajarr\AppData\Local\Temp\ccEMnW47.o
TC_input_cmd        0x8               C:\Users\ajarr\AppData\Local\Temp\ccgtKLQ9.o
TC_TLE_Elements_select
                    0x4               C:\Users\ajarr\AppData\Local\Temp\ccasxzae.o
TLE_Select          0x4               C:\Users\ajarr\AppData\Local\Temp\ccasxzae.o
PL_TM_write_Flag    0x4               C:\Users\ajarr\AppData\Local\Temp\cczbQmCd.o
cos_and_sin         0x80              C:\Users\ajarr\AppData\Local\Temp\ccasxzae.o
TC_TLE_data         0x44              C:\Users\ajarr\AppData\Local\Temp\ccZ3M43h.o
SunAcq2DetMode_counter
                    0x4               C:\Users\ajarr\AppData\Local\Temp\ccasxzae.o
ST_end_read         0x4               C:\Users\ajarr\AppData\Local\Temp\ccgtKLQ9.o
thermistor_15       0x4               C:\Users\ajarr\AppData\Local\Temp\cclXIhGd.o
TC_min_whspeed      0x8               C:\Users\ajarr\AppData\Local\Temp\ccasxzae.o
rw_init             0xb               C:\Users\ajarr\AppData\Local\Temp\ccovS4yg.o
Hils_ptr            0x4               C:\Users\ajarr\AppData\Local\Temp\cczbQmCd.o
f                   0x28              C:\Users\ajarr\AppData\Local\Temp\ccasxzae.o
ST_start_read       0x4               C:\Users\ajarr\AppData\Local\Temp\ccgtKLQ9.o
TC_MDk              0x8               C:\Users\ajarr\AppData\Local\Temp\ccasxzae.o
Vel_ECIn            0x18              C:\Users\ajarr\AppData\Local\Temp\ccasxzae.o
UTC_mon_GPS         0x4               C:\Users\ajarr\AppData\Local\Temp\ccasxzae.o
Antenna_ACK         0x2               C:\Users\ajarr\AppData\Local\Temp\ccduqfO0.o
B2wh_mat            0x60              C:\Users\ajarr\AppData\Local\Temp\ccasxzae.o
SC5                 0x8               C:\Users\ajarr\AppData\Local\Temp\ccEMnW47.o
Delta_by2           0x8               C:\Users\ajarr\AppData\Local\Temp\ccasxzae.o
Q_EPO2ECI           0x20              C:\Users\ajarr\AppData\Local\Temp\ccasxzae.o
inter_imu_i         0x4               C:\Users\ajarr\AppData\Local\Temp\ccEMnW47.o
old_cos             0x8               C:\Users\ajarr\AppData\Local\Temp\ccasxzae.o
flag_for_test       0x4               C:\Users\ajarr\AppData\Local\Temp\ccnGtmfO.o
Not_Deployed        0x4               C:\Users\ajarr\AppData\Local\Temp\ccasxzae.o
ADC_Buffer          0xbc              C:\Users\ajarr\AppData\Local\Temp\ccgtKLQ9.o
eccanomaly_GPS      0x8               C:\Users\ajarr\AppData\Local\Temp\ccasxzae.o
sa_data             0x2               C:\Users\ajarr\AppData\Local\Temp\ccduqfO0.o
angmomentumvec      0x18              C:\Users\ajarr\AppData\Local\Temp\ccasxzae.o
B_RPY               0x18              C:\Users\ajarr\AppData\Local\Temp\ccEMnW47.o
out_Quat_norm       0x20              C:\Users\ajarr\AppData\Local\Temp\ccasxzae.o
cc5                 0x8               C:\Users\ajarr\AppData\Local\Temp\ccasxzae.o
gast                0x8               C:\Users\ajarr\AppData\Local\Temp\ccasxzae.o
TC_ST_Table_Row_No  0x4               C:\Users\ajarr\AppData\Local\Temp\ccgtKLQ9.o
IMU1_DATA           0x30              C:\Users\ajarr\AppData\Local\Temp\ccgtKLQ9.o
temp_magad          0x8               C:\Users\ajarr\AppData\Local\Temp\ccasxzae.o
nut_sid_temp        0x48              C:\Users\ajarr\AppData\Local\Temp\ccasxzae.o
sec_sel             0x8               C:\Users\ajarr\AppData\Local\Temp\ccasxzae.o
K_MAGAD             0x4               C:\Users\ajarr\AppData\Local\Temp\ccasxzae.o
B_REF               0x18              C:\Users\ajarr\AppData\Local\Temp\ccasxzae.o
ST_Out_Latch_3      0x2               C:\Users\ajarr\AppData\Local\Temp\ccgtKLQ9.o
omecc               0x8               C:\Users\ajarr\AppData\Local\Temp\ccasxzae.o
del_v0a             0x8               C:\Users\ajarr\AppData\Local\Temp\ccasxzae.o
argofperigee        0x8               C:\Users\ajarr\AppData\Local\Temp\ccasxzae.o
phi_k_T             0x288             C:\Users\ajarr\AppData\Local\Temp\ccasxzae.o
argpo_tc            0x8               C:\Users\ajarr\AppData\Local\Temp\ccasxzae.o
eSafeMode           0x4               C:\Users\ajarr\AppData\Local\Temp\ccasxzae.o
Special_source      0x100             C:\Users\ajarr\AppData\Local\Temp\ccgtKLQ9.o
Alti_GPS            0x8               C:\Users\ajarr\AppData\Local\Temp\ccasxzae.o
PL_2_on_off_flag    0x4               C:\Users\ajarr\AppData\Local\Temp\cczbQmCd.o
SC5ImaxF            0x8               C:\Users\ajarr\AppData\Local\Temp\ccEMnW47.o
TC_wAD_BODYmaxThYaw
                    0x8               C:\Users\ajarr\AppData\Local\Temp\ccasxzae.o
IMU2_DATA           0x30              C:\Users\ajarr\AppData\Local\Temp\ccgtKLQ9.o
T_RWB               0x18              C:\Users\ajarr\AppData\Local\Temp\ccasxzae.o
count_plus          0x4               C:\Users\ajarr\AppData\Local\Temp\ccnGtmfO.o
test_3              0x8               C:\Users\ajarr\AppData\Local\Temp\ccEMnW47.o
GPS_Config_Status   0x4               C:\Users\ajarr\AppData\Local\Temp\cclUyX1f.o
GPS_Config_Msg      0xc               C:\Users\ajarr\AppData\Local\Temp\cclUyX1f.o
s_magad             0x8               C:\Users\ajarr\AppData\Local\Temp\ccasxzae.o
TC_SS_Main_Cells_Sel
                    0x4               C:\Users\ajarr\AppData\Local\Temp\ccEMnW47.o
Sunlit_presence_timer
                    0x4               C:\Users\ajarr\AppData\Local\Temp\ccEMnW47.o
Toff                0xc               C:\Users\ajarr\AppData\Local\Temp\ccasxzae.o
rdotrst             0x8               C:\Users\ajarr\AppData\Local\Temp\ccasxzae.o
pl_cmd_id           0x4               C:\Users\ajarr\AppData\Local\Temp\cczbQmCd.o
Spacecraft_Mode     0x4               C:\Users\ajarr\AppData\Local\Temp\ccgtKLQ9.o
qerror              0x4               C:\Users\ajarr\AppData\Local\Temp\cc1MBP0N.o
B_NED               0x18              C:\Users\ajarr\AppData\Local\Temp\ccasxzae.o
alpha_2RW           0x8               C:\Users\ajarr\AppData\Local\Temp\ccasxzae.o
temp1_or_init       0x8               C:\Users\ajarr\AppData\Local\Temp\ccasxzae.o
prev_obs_whsp_ch    0x20              C:\Users\ajarr\AppData\Local\Temp\ccasxzae.o
Wk1_one             0x48              C:\Users\ajarr\AppData\Local\Temp\ccasxzae.o
d1                  0x8               C:\Users\ajarr\AppData\Local\Temp\ccasxzae.o
coskp               0x8               C:\Users\ajarr\AppData\Local\Temp\ccasxzae.o
new_data            0x8               C:\Users\ajarr\AppData\Local\Temp\ccZ3M43h.o
TDB                 0x8               C:\Users\ajarr\AppData\Local\Temp\ccasxzae.o
TC_ptr              0x4               C:\Users\ajarr\AppData\Local\Temp\ccovS4yg.o
SunAcquisition2ThreeAxis_autotransit
                    0x4               C:\Users\ajarr\AppData\Local\Temp\ccasxzae.o
rw_tc_count         0x4               C:\Users\ajarr\AppData\Local\Temp\ccovS4yg.o
S_BODY              0x18              C:\Users\ajarr\AppData\Local\Temp\ccEMnW47.o
AngDev_SAMtransit_thrsld
                    0x8               C:\Users\ajarr\AppData\Local\Temp\ccEMnW47.o
Zt_Ssqr_Z_DAD       0x8               C:\Users\ajarr\AppData\Local\Temp\ccasxzae.o
f_DataSort_SUNMAG   0x4               C:\Users\ajarr\AppData\Local\Temp\ccasxzae.o
sine1               0x8               C:\Users\ajarr\AppData\Local\Temp\ccasxzae.o
wheel_spin_logic    0x4               C:\Users\ajarr\AppData\Local\Temp\ccasxzae.o
con42               0x8               C:\Users\ajarr\AppData\Local\Temp\ccasxzae.o
inter_HAL_IMU_Control_Data
                    0x4               C:\Users\ajarr\AppData\Local\Temp\ccEMnW47.o
normal_count1       0x4               C:\Users\ajarr\AppData\Local\Temp\ccnGtmfO.o
Epochyear_GPS       0x4               C:\Users\ajarr\AppData\Local\Temp\ccasxzae.o
CB_DutyCycleGeneration
                    0x4               C:\Users\ajarr\AppData\Local\Temp\ccasxzae.o
eeprom_blk_end_addr
                    0x4               C:\Users\ajarr\AppData\Local\Temp\ccgtKLQ9.o
inclination_GPS     0x8               C:\Users\ajarr\AppData\Local\Temp\ccasxzae.o
Roll_neg_D          0x8               C:\Users\ajarr\AppData\Local\Temp\ccEMnW47.o
pl_data_rcvd        0x4               C:\Users\ajarr\AppData\Local\Temp\cczbQmCd.o
Matout341           0x18              C:\Users\ajarr\AppData\Local\Temp\ccasxzae.o
wh2B_mat            0x60              C:\Users\ajarr\AppData\Local\Temp\ccasxzae.o
ADCS_TC_data_command_Table
                    0xe8              C:\Users\ajarr\AppData\Local\Temp\ccgtKLQ9.o
xmy                 0x8               C:\Users\ajarr\AppData\Local\Temp\ccasxzae.o
gps_pulse_mic_cnt   0x2               C:\Users\ajarr\AppData\Local\Temp\cclUyX1f.o
gps_data_length     0x4               C:\Users\ajarr\AppData\Local\Temp\cclUyX1f.o
uuu                 0x8               C:\Users\ajarr\AppData\Local\Temp\ccasxzae.o
TAI                 0x8               C:\Users\ajarr\AppData\Local\Temp\ccasxzae.o
NMB_sunmag          0xc0              C:\Users\ajarr\AppData\Local\Temp\ccasxzae.o
nodeo_GPS           0x8               C:\Users\ajarr\AppData\Local\Temp\ccasxzae.o
TC_GPSvalidity_Threshold
                    0x4               C:\Users\ajarr\AppData\Local\Temp\ccasxzae.o
CB_Torquer_Polarity_Check
                    0x4               C:\Users\ajarr\AppData\Local\Temp\ccasxzae.o
x7thm1              0x8               C:\Users\ajarr\AppData\Local\Temp\ccasxzae.o
GPIO_pins           0x2               C:\Users\ajarr\AppData\Local\Temp\ccgtKLQ9.o
ak                  0x8               C:\Users\ajarr\AppData\Local\Temp\ccasxzae.o
ecc_TLE_tc          0x8               C:\Users\ajarr\AppData\Local\Temp\ccasxzae.o
Tv_wof              0x48              C:\Users\ajarr\AppData\Local\Temp\ccasxzae.o
CB_AngularMomentumDumping
                    0x4               C:\Users\ajarr\AppData\Local\Temp\ccasxzae.o
LossWhMomFilt       0x20              C:\Users\ajarr\AppData\Local\Temp\ccasxzae.o
v0_rad_sec          0x20              C:\Users\ajarr\AppData\Local\Temp\ccasxzae.o
TC_RW_ARC_Count_thres
                    0x4               C:\Users\ajarr\AppData\Local\Temp\ccasxzae.o
temp12              0x8               C:\Users\ajarr\AppData\Local\Temp\ccEMnW47.o
abc                 0x4               C:\Users\ajarr\AppData\Local\Temp\ccZ3M43h.o
Panel_Deployment    0x4               C:\Users\ajarr\AppData\Local\Temp\ccEMnW47.o
pl_command_data     0x4               C:\Users\ajarr\AppData\Local\Temp\cczbQmCd.o
del_temp            0x8               C:\Users\ajarr\AppData\Local\Temp\ccasxzae.o
inter_Update_TM_With_ADC_byte_offset
                    0x4               C:\Users\ajarr\AppData\Local\Temp\cclXIhGd.o
f_Sunlit_Presence_OBC
                    0x4               C:\Users\ajarr\AppData\Local\Temp\ccasxzae.o
g                   0x780             C:\Users\ajarr\AppData\Local\Temp\ccasxzae.o
rw_test_array       0x200             C:\Users\ajarr\AppData\Local\Temp\ccovS4yg.o
TC_eesqrd           0x8               C:\Users\ajarr\AppData\Local\Temp\ccasxzae.o
eeta                0x8               C:\Users\ajarr\AppData\Local\Temp\ccasxzae.o
w_ABC               0x18              C:\Users\ajarr\AppData\Local\Temp\ccEMnW47.o
test_attc           0x4               C:\Users\ajarr\AppData\Local\Temp\ccEMnW47.o
xnode               0x8               C:\Users\ajarr\AppData\Local\Temp\ccasxzae.o
tor_counter         0x4               C:\Users\ajarr\AppData\Local\Temp\ccgtKLQ9.o
B_Rho               0x8               C:\Users\ajarr\AppData\Local\Temp\ccasxzae.o
rdotl               0x8               C:\Users\ajarr\AppData\Local\Temp\ccasxzae.o
QRD_vect_norm       0x8               C:\Users\ajarr\AppData\Local\Temp\ccasxzae.o
Z_DAD               0x18              C:\Users\ajarr\AppData\Local\Temp\ccasxzae.o
PL_TM_Status_flag   0x2               C:\Users\ajarr\AppData\Local\Temp\cczbQmCd.o
semimajoraxis       0x8               C:\Users\ajarr\AppData\Local\Temp\ccasxzae.o
gmm                 0x4               C:\Users\ajarr\AppData\Local\Temp\ccasxzae.o
S_REFn              0x18              C:\Users\ajarr\AppData\Local\Temp\ccasxzae.o
mat_adj             0x48              C:\Users\ajarr\AppData\Local\Temp\ccasxzae.o
TorquerPolaritySetFlag
                    0x4               C:\Users\ajarr\AppData\Local\Temp\ccasxzae.o
temp_short          0x2               C:\Users\ajarr\AppData\Local\Temp\ccovS4yg.o
CB_RefRate_Computation
                    0x4               C:\Users\ajarr\AppData\Local\Temp\ccasxzae.o
B_IMU               0x18              C:\Users\ajarr\AppData\Local\Temp\ccEMnW47.o
GPS_Elements_Available
                    0x4               C:\Users\ajarr\AppData\Local\Temp\ccasxzae.o
NRBt_mag            0x240             C:\Users\ajarr\AppData\Local\Temp\ccasxzae.o
Kk_Hk               0x288             C:\Users\ajarr\AppData\Local\Temp\ccasxzae.o
Normal_source       0x100             C:\Users\ajarr\AppData\Local\Temp\ccgtKLQ9.o
X_EPO2ECI           0x18              C:\Users\ajarr\AppData\Local\Temp\ccasxzae.o
GPS_OBT_Read_1      0x2               C:\Users\ajarr\AppData\Local\Temp\cclUyX1f.o
cosim               0x8               C:\Users\ajarr\AppData\Local\Temp\ccasxzae.o
CB_SpeedBasedMomentumDumping
                    0x4               C:\Users\ajarr\AppData\Local\Temp\ccasxzae.o
mo_tc               0x8               C:\Users\ajarr\AppData\Local\Temp\ccasxzae.o
i_comr              0x4               C:\Users\ajarr\AppData\Local\Temp\ccasxzae.o
Dest_TC_final_end_addr
                    0x4               C:\Users\ajarr\AppData\Local\Temp\ccgtKLQ9.o
MUX_3               0x2               C:\Users\ajarr\AppData\Local\Temp\ccgtKLQ9.o
hr_sel              0x4               C:\Users\ajarr\AppData\Local\Temp\ccasxzae.o
ab_test1            0x4               C:\Users\ajarr\AppData\Local\Temp\ccEMnW47.o
ST_NM_Buffer        0x148             C:\Users\ajarr\AppData\Local\Temp\ccgtKLQ9.o
inclm               0x8               C:\Users\ajarr\AppData\Local\Temp\ccasxzae.o
TC_BDOT_Compute_Count
                    0x4               C:\Users\ajarr\AppData\Local\Temp\ccasxzae.o
copy_frame_count    0x4               C:\Users\ajarr\AppData\Local\Temp\ccnGtmfO.o
mod_of_Wk1          0x8               C:\Users\ajarr\AppData\Local\Temp\ccasxzae.o
qzms24_temp         0x8               C:\Users\ajarr\AppData\Local\Temp\ccasxzae.o
DFriction_Compensation
                    0x4               C:\Users\ajarr\AppData\Local\Temp\ccasxzae.o
S_DAD               0x48              C:\Users\ajarr\AppData\Local\Temp\ccasxzae.o
input_latch_2       0x2               C:\Users\ajarr\AppData\Local\Temp\ccgtKLQ9.o
TCH_full_dump_finish
                    0x4               C:\Users\ajarr\AppData\Local\Temp\ccgtKLQ9.o
mm_temp             0x8               C:\Users\ajarr\AppData\Local\Temp\ccasxzae.o
temp_temp           0x8               C:\Users\ajarr\AppData\Local\Temp\ccasxzae.o
pk_HkT_Hk_Rk        0x48              C:\Users\ajarr\AppData\Local\Temp\ccasxzae.o
TC_hist_data        0xfa00            C:\Users\ajarr\AppData\Local\Temp\ccgtKLQ9.o
u_temp              0x8               C:\Users\ajarr\AppData\Local\Temp\ccasxzae.o
TC_BDOT_Det_Thresh  0x8               C:\Users\ajarr\AppData\Local\Temp\ccasxzae.o
NMB_NRBt            0x48              C:\Users\ajarr\AppData\Local\Temp\ccasxzae.o
A3_magad            0x8               C:\Users\ajarr\AppData\Local\Temp\ccasxzae.o
ecc_temp2           0x8               C:\Users\ajarr\AppData\Local\Temp\ccasxzae.o
GPS_Buffer_Data     0x1a8             C:\Users\ajarr\AppData\Local\Temp\cclUyX1f.o
NOB_CRC_Init        0x4               C:\Users\ajarr\AppData\Local\Temp\ccovS4yg.o
sun_sf              0x18              C:\Users\ajarr\AppData\Local\Temp\ccEMnW47.o
year_GPS            0x4               C:\Users\ajarr\AppData\Local\Temp\ccasxzae.o
AngDev_SMtransit_thrsld
                    0x8               C:\Users\ajarr\AppData\Local\Temp\ccEMnW47.o
TC_exe              0x8               C:\Users\ajarr\AppData\Local\Temp\ccZ3M43h.o
Y_SPO2ECI           0x18              C:\Users\ajarr\AppData\Local\Temp\ccasxzae.o
length              0x4               C:\Users\ajarr\AppData\Local\Temp\cczbQmCd.o
SA_thermistor1      0x4               C:\Users\ajarr\AppData\Local\Temp\cclXIhGd.o
sigma_m             0x8               C:\Users\ajarr\AppData\Local\Temp\ccasxzae.o
CB_ReferenceQuatComputation
                    0x4               C:\Users\ajarr\AppData\Local\Temp\ccasxzae.o
sinkp               0x8               C:\Users\ajarr\AppData\Local\Temp\ccasxzae.o
adj_S_DAD           0x48              C:\Users\ajarr\AppData\Local\Temp\ccasxzae.o
p_magad             0x350             C:\Users\ajarr\AppData\Local\Temp\ccasxzae.o
Roll_Pol            0x4               C:\Users\ajarr\AppData\Local\Temp\ccjmXURG.o
GYRO_max_threshold_count
                    0x4               C:\Users\ajarr\AppData\Local\Temp\ccasxzae.o
block_test_array    0x190             C:\Users\ajarr\AppData\Local\Temp\ccZ3M43h.o
day_TLE_tc          0x4               C:\Users\ajarr\AppData\Local\Temp\ccasxzae.o
Out_latch_4         0x2               C:\Users\ajarr\AppData\Local\Temp\ccgtKLQ9.o
TC_SpeedDumpTime    0x4               C:\Users\ajarr\AppData\Local\Temp\ccasxzae.o
H_retn              0x8               C:\Users\ajarr\AppData\Local\Temp\ccasxzae.o
w_RPY               0x18              C:\Users\ajarr\AppData\Local\Temp\ccEMnW47.o
Epochyear_TLE_tc    0x4               C:\Users\ajarr\AppData\Local\Temp\ccasxzae.o
MY                  0x8               C:\Users\ajarr\AppData\Local\Temp\ccasxzae.o
bstar               0x8               C:\Users\ajarr\AppData\Local\Temp\ccasxzae.o
argpo_GPS           0x8               C:\Users\ajarr\AppData\Local\Temp\ccasxzae.o
Q_SFDO2ECI          0x20              C:\Users\ajarr\AppData\Local\Temp\ccasxzae.o
Ang_Deviation       0x8               C:\Users\ajarr\AppData\Local\Temp\ccEMnW47.o
inter_HAL_IMU_Status_Data_2
                    0x2               C:\Users\ajarr\AppData\Local\Temp\ccEMnW47.o
inter_at697f_checksum
                    0x4               C:\Users\ajarr\AppData\Local\Temp\ccgtKLQ9.o
B_BODY_IMU2         0x18              C:\Users\ajarr\AppData\Local\Temp\ccEMnW47.o
X_DAD               0x18              C:\Users\ajarr\AppData\Local\Temp\ccasxzae.o
TC_wAD_updateTimeThresh
                    0x4               C:\Users\ajarr\AppData\Local\Temp\ccasxzae.o
tempat              0x4               C:\Users\ajarr\AppData\Local\Temp\ccEMnW47.o
Roll_neg_ND         0x8               C:\Users\ajarr\AppData\Local\Temp\ccEMnW47.o
SunNPP_SAMtransit   0x4               C:\Users\ajarr\AppData\Local\Temp\ccEMnW47.o
BLK_opn             0x1               C:\Users\ajarr\AppData\Local\Temp\ccEMnW47.o
ecc_temp4           0x8               C:\Users\ajarr\AppData\Local\Temp\ccasxzae.o
inter_TM_Byte_Count
                    0x4               C:\Users\ajarr\AppData\Local\Temp\ccgtKLQ9.o
Vel_ECEF_GPS        0x18              C:\Users\ajarr\AppData\Local\Temp\ccasxzae.o
nodecf              0x8               C:\Users\ajarr\AppData\Local\Temp\ccasxzae.o
Tdeficit            0x18              C:\Users\ajarr\AppData\Local\Temp\ccasxzae.o
MUX_data3           0x2               C:\Users\ajarr\AppData\Local\Temp\ccZ3M43h.o
vecnorm_mag         0x8               C:\Users\ajarr\AppData\Local\Temp\ccasxzae.o
Vel_ECI_GPS         0x18              C:\Users\ajarr\AppData\Local\Temp\ccasxzae.o
Q_REF_pres          0x20              C:\Users\ajarr\AppData\Local\Temp\ccasxzae.o
phi_12_temp3        0x48              C:\Users\ajarr\AppData\Local\Temp\ccasxzae.o
epochdays           0x8               C:\Users\ajarr\AppData\Local\Temp\ccasxzae.o
adel                0x8               C:\Users\ajarr\AppData\Local\Temp\ccasxzae.o
TM_Buffer           0x100             C:\Users\ajarr\AppData\Local\Temp\ccgtKLQ9.o
xmcof               0x8               C:\Users\ajarr\AppData\Local\Temp\ccasxzae.o
ST_SP_Buffer        0x2a1             C:\Users\ajarr\AppData\Local\Temp\ccgtKLQ9.o
k                   0x4               C:\Users\ajarr\AppData\Local\Temp\ccasxzae.o
TCH_read_ptr        0x4               C:\Users\ajarr\AppData\Local\Temp\ccgtKLQ9.o
TC_momentum_dumping_gain
                    0x8               C:\Users\ajarr\AppData\Local\Temp\ccasxzae.o
RW_TMC              0x8               C:\Users\ajarr\AppData\Local\Temp\ccovS4yg.o
cosio2              0x8               C:\Users\ajarr\AppData\Local\Temp\ccasxzae.o
Yk_minus_hk_Kk      0x48              C:\Users\ajarr\AppData\Local\Temp\ccasxzae.o
inter_TM_Source_Addr
                    0x4               C:\Users\ajarr\AppData\Local\Temp\ccgtKLQ9.o
mvt                 0x8               C:\Users\ajarr\AppData\Local\Temp\ccasxzae.o
Rz                  0x48              C:\Users\ajarr\AppData\Local\Temp\ccasxzae.o
St_DAD              0x48              C:\Users\ajarr\AppData\Local\Temp\ccasxzae.o
x1mth2              0x8               C:\Users\ajarr\AppData\Local\Temp\ccasxzae.o
t2                  0x8               C:\Users\ajarr\AppData\Local\Temp\ccasxzae.o
speed_based_torquer_control
                    0x4               C:\Users\ajarr\AppData\Local\Temp\ccasxzae.o
B_REFn              0x18              C:\Users\ajarr\AppData\Local\Temp\ccasxzae.o
Tsince              0x8               C:\Users\ajarr\AppData\Local\Temp\ccasxzae.o
B_BODYn             0x18              C:\Users\ajarr\AppData\Local\Temp\ccEMnW47.o
nml_output_latch_data
                    0x3               C:\Users\ajarr\AppData\Local\Temp\ccgtKLQ9.o
r_delta             0x8               C:\Users\ajarr\AppData\Local\Temp\ccasxzae.o
var1                0x8               C:\Users\ajarr\AppData\Local\Temp\ccasxzae.o
epochyr_sel         0x4               C:\Users\ajarr\AppData\Local\Temp\ccasxzae.o
IMU_temperature     0x4               C:\Users\ajarr\AppData\Local\Temp\ccYAcwQn.o
entrytime2eclipse   0x4               C:\Users\ajarr\AppData\Local\Temp\ccasxzae.o
em                  0x8               C:\Users\ajarr\AppData\Local\Temp\ccasxzae.o
rHAL_pl_sts_check_mj_flag
                    0x4               C:\Users\ajarr\AppData\Local\Temp\cczbQmCd.o
TM_Table            0x8088            C:\Users\ajarr\AppData\Local\Temp\ccgtKLQ9.o
Qk_temp2            0x8               C:\Users\ajarr\AppData\Local\Temp\ccasxzae.o
test_gps_conf4      0x4               C:\Users\ajarr\AppData\Local\Temp\cclUyX1f.o
Xk_plus_temp        0x18              C:\Users\ajarr\AppData\Local\Temp\ccasxzae.o
temp                0x4               C:\Users\ajarr\AppData\Local\Temp\ccZ3M43h.o
Q_SPO2ECI           0x20              C:\Users\ajarr\AppData\Local\Temp\ccasxzae.o
W_cross             0x48              C:\Users\ajarr\AppData\Local\Temp\ccasxzae.o
Vel_ECI             0x18              C:\Users\ajarr\AppData\Local\Temp\ccasxzae.o
pk_HkT_Hk           0x48              C:\Users\ajarr\AppData\Local\Temp\ccasxzae.o
battery_temp_2      0x4               C:\Users\ajarr\AppData\Local\Temp\cclXIhGd.o
Tcv_temp            0x18              C:\Users\ajarr\AppData\Local\Temp\ccasxzae.o
NRS                 0xc0              C:\Users\ajarr\AppData\Local\Temp\ccasxzae.o
Tdeficit_temp1      0x18              C:\Users\ajarr\AppData\Local\Temp\ccasxzae.o
theta2              0x8               C:\Users\ajarr\AppData\Local\Temp\ccasxzae.o
gmst_               0x8               C:\Users\ajarr\AppData\Local\Temp\ccasxzae.o
TC_storing_buffer   0x400             C:\Users\ajarr\AppData\Local\Temp\ccZ3M43h.o
psi_sl_ecl          0x8               C:\Users\ajarr\AppData\Local\Temp\ccasxzae.o
Pitch_MTR_Pol_Reversal
                    0x4               C:\Users\ajarr\AppData\Local\Temp\ccasxzae.o
rsun                0x18              C:\Users\ajarr\AppData\Local\Temp\ccasxzae.o
NOB_SFC_TC          0x4               C:\Users\ajarr\AppData\Local\Temp\ccovS4yg.o
Yk                  0x18              C:\Users\ajarr\AppData\Local\Temp\ccasxzae.o
CB_Wheel_Spin_updown
                    0x4               C:\Users\ajarr\AppData\Local\Temp\ccasxzae.o
SB_MAIN             0x18              C:\Users\ajarr\AppData\Local\Temp\ccEMnW47.o
vx                  0x8               C:\Users\ajarr\AppData\Local\Temp\ccasxzae.o
inttemp             0x4               C:\Users\ajarr\AppData\Local\Temp\ccasxzae.o
TLE_Data_Available  0x4               C:\Users\ajarr\AppData\Local\Temp\ccasxzae.o
Q_REF_prev          0x20              C:\Users\ajarr\AppData\Local\Temp\ccasxzae.o
BEast               0x8               C:\Users\ajarr\AppData\Local\Temp\ccasxzae.o
SunAcq_Ang_Thres    0x8               C:\Users\ajarr\AppData\Local\Temp\ccasxzae.o
DutyCycleGenEnable  0x4               C:\Users\ajarr\AppData\Local\Temp\ccasxzae.o
SC7                 0x8               C:\Users\ajarr\AppData\Local\Temp\ccEMnW47.o
Tmm_actual          0x18              C:\Users\ajarr\AppData\Local\Temp\ccasxzae.o
SC2                 0x8               C:\Users\ajarr\AppData\Local\Temp\ccEMnW47.o
CB_MagFieldComp     0x4               C:\Users\ajarr\AppData\Local\Temp\ccasxzae.o
SS_Redundant_DB     0x284             C:\Users\ajarr\AppData\Local\Temp\ccgtKLQ9.o
eDetumblingMode     0x4               C:\Users\ajarr\AppData\Local\Temp\ccasxzae.o
tempa               0x8               C:\Users\ajarr\AppData\Local\Temp\ccasxzae.o
IMU1_Corr           0x144             C:\Users\ajarr\AppData\Local\Temp\ccgtKLQ9.o
xsaty_eci           0x8               C:\Users\ajarr\AppData\Local\Temp\ccasxzae.o
gain_set            0x960             C:\Users\ajarr\AppData\Local\Temp\ccgtKLQ9.o
pinvsq              0x8               C:\Users\ajarr\AppData\Local\Temp\ccasxzae.o
mod_of_Wk1_square   0x8               C:\Users\ajarr\AppData\Local\Temp\ccasxzae.o
ecc_temp3           0x8               C:\Users\ajarr\AppData\Local\Temp\ccasxzae.o
count_arc_w3        0x4               C:\Users\ajarr\AppData\Local\Temp\ccasxzae.o
TC_cmd_executed     0x2               C:\Users\ajarr\AppData\Local\Temp\ccZ3M43h.o
DFCcountLow         0x4               C:\Users\ajarr\AppData\Local\Temp\ccasxzae.o
CB_ExtendedKalmanFilter
                    0x4               C:\Users\ajarr\AppData\Local\Temp\ccasxzae.o
B_BODY              0x18              C:\Users\ajarr\AppData\Local\Temp\ccEMnW47.o
RW_3                0x10              C:\Users\ajarr\AppData\Local\Temp\ccovS4yg.o
RW_2                0x10              C:\Users\ajarr\AppData\Local\Temp\ccovS4yg.o
no_TLE_tc           0x8               C:\Users\ajarr\AppData\Local\Temp\ccasxzae.o
TC_elapsed_orbitTimer
                    0x8               C:\Users\ajarr\AppData\Local\Temp\ccasxzae.o
semi_den            0x8               C:\Users\ajarr\AppData\Local\Temp\ccasxzae.o
test_data_3         0x2               C:\Users\ajarr\AppData\Local\Temp\ccZ3M43h.o
STATION_vector      0x18              C:\Users\ajarr\AppData\Local\Temp\ccasxzae.o
wks                 0x8               C:\Users\ajarr\AppData\Local\Temp\ccasxzae.o
Thta_BODY_IMU2      0x18              C:\Users\ajarr\AppData\Local\Temp\ccEMnW47.o
GPS_Buffer_Addr     0x4               C:\Users\ajarr\AppData\Local\Temp\cclUyX1f.o
TC_enQuest_update   0x4               C:\Users\ajarr\AppData\Local\Temp\ccasxzae.o
pl_x_tx_data_on_flag
                    0x4               C:\Users\ajarr\AppData\Local\Temp\cczbQmCd.o
days_sel            0x4               C:\Users\ajarr\AppData\Local\Temp\ccasxzae.o
TC_SunEarthVaryingFrame
                    0x4               C:\Users\ajarr\AppData\Local\Temp\ccasxzae.o
big_omega           0x80              C:\Users\ajarr\AppData\Local\Temp\ccasxzae.o
tempdays            0x4               C:\Users\ajarr\AppData\Local\Temp\ccasxzae.o
Present_OBT         0x4               C:\Users\ajarr\AppData\Local\Temp\ccasxzae.o
Tsince_TLE_tc       0x8               C:\Users\ajarr\AppData\Local\Temp\ccasxzae.o
pl_buffer_len       0x4               C:\Users\ajarr\AppData\Local\Temp\cczbQmCd.o
X_SPO2ECI_mag       0x8               C:\Users\ajarr\AppData\Local\Temp\ccasxzae.o
temparg             0x8               C:\Users\ajarr\AppData\Local\Temp\ccasxzae.o
ibexp_sel           0x8               C:\Users\ajarr\AppData\Local\Temp\ccasxzae.o
MUX_data1           0x2               C:\Users\ajarr\AppData\Local\Temp\ccZ3M43h.o
VelZ_ECEF_GPS       0x8               C:\Users\ajarr\AppData\Local\Temp\ccasxzae.o
gps_data_test       0x1a8             C:\Users\ajarr\AppData\Local\Temp\cclUyX1f.o
TC_detumbling_bdot_gain
                    0x18              C:\Users\ajarr\AppData\Local\Temp\ccasxzae.o
LPFK1HighSL         0x8               C:\Users\ajarr\AppData\Local\Temp\ccasxzae.o
PL_TX_TM_2_EN       0x2               C:\Users\ajarr\AppData\Local\Temp\cczbQmCd.o
xinc                0x8               C:\Users\ajarr\AppData\Local\Temp\ccasxzae.o
Twof_veh            0x48              C:\Users\ajarr\AppData\Local\Temp\ccasxzae.o
mdot                0x8               C:\Users\ajarr\AppData\Local\Temp\ccasxzae.o
w_AMSC              0x18              C:\Users\ajarr\AppData\Local\Temp\ccEMnW47.o
DB_GyroLPF          0x8               C:\Users\ajarr\AppData\Local\Temp\ccasxzae.o
LossWhMom           0x20              C:\Users\ajarr\AppData\Local\Temp\ccasxzae.o
pl_data_command     0xc               C:\Users\ajarr\AppData\Local\Temp\ccgtKLQ9.o
b_DAD               0x8               C:\Users\ajarr\AppData\Local\Temp\ccasxzae.o
NMS                 0xc0              C:\Users\ajarr\AppData\Local\Temp\ccasxzae.o
TC_GPS_pulse_duration
                    0x4               C:\Users\ajarr\AppData\Local\Temp\ccasxzae.o
phi_k               0x288             C:\Users\ajarr\AppData\Local\Temp\ccasxzae.o
xin_temp            0x8               C:\Users\ajarr\AppData\Local\Temp\ccasxzae.o
UTC_hr_GPS          0x4               C:\Users\ajarr\AppData\Local\Temp\ccasxzae.o
Yaw_ang_err         0x8               C:\Users\ajarr\AppData\Local\Temp\ccEMnW47.o
TC_hist_read_ptr    0x4               C:\Users\ajarr\AppData\Local\Temp\ccZ3M43h.o
one_by_3            0x8               C:\Users\ajarr\AppData\Local\Temp\ccasxzae.o
TC_command          0x4               C:\Users\ajarr\AppData\Local\Temp\cczbQmCd.o
B_BODY_IMU1         0x18              C:\Users\ajarr\AppData\Local\Temp\ccEMnW47.o
axnl                0x8               C:\Users\ajarr\AppData\Local\Temp\ccasxzae.o
Yaw_neg             0x8               C:\Users\ajarr\AppData\Local\Temp\ccEMnW47.o
X_SVO2ECI_mag       0x8               C:\Users\ajarr\AppData\Local\Temp\ccasxzae.o
LPFK1SL             0x20              C:\Users\ajarr\AppData\Local\Temp\ccasxzae.o
bstar_TLE_tc        0x8               C:\Users\ajarr\AppData\Local\Temp\ccasxzae.o
coef1               0x8               C:\Users\ajarr\AppData\Local\Temp\ccasxzae.o
B_DAD               0x48              C:\Users\ajarr\AppData\Local\Temp\ccasxzae.o
ang                 0x8               C:\Users\ajarr\AppData\Local\Temp\ccasxzae.o
inter_TM_ST_TC_NS_Write_Source_Addr
                    0x4               C:\Users\ajarr\AppData\Local\Temp\ccgtKLQ9.o
rsat                0x18              C:\Users\ajarr\AppData\Local\Temp\ccasxzae.o
SA_thermistor2      0x4               C:\Users\ajarr\AppData\Local\Temp\cclXIhGd.o
R_SFAO2ECI          0x48              C:\Users\ajarr\AppData\Local\Temp\ccasxzae.o
magPitch_angle      0x8               C:\Users\ajarr\AppData\Local\Temp\ccasxzae.o
beta_S_DAD          0x48              C:\Users\ajarr\AppData\Local\Temp\ccasxzae.o
inclination_sel     0x8               C:\Users\ajarr\AppData\Local\Temp\ccasxzae.o
SS_M4               0x8               C:\Users\ajarr\AppData\Local\Temp\ccasxzae.o
exp_whsp_ch         0x20              C:\Users\ajarr\AppData\Local\Temp\ccasxzae.o
Q_SVO2ECI           0x20              C:\Users\ajarr\AppData\Local\Temp\ccasxzae.o
ST_Out_Latch_2      0x2               C:\Users\ajarr\AppData\Local\Temp\ccgtKLQ9.o
DelThta_cat_z       0x4               C:\Users\ajarr\AppData\Local\Temp\ccasxzae.o
Y_SFAO2ECI          0x18              C:\Users\ajarr\AppData\Local\Temp\ccasxzae.o
thermistor_lsb      0x17              C:\Users\ajarr\AppData\Local\Temp\cclXIhGd.o
mo_TLE_tc           0x8               C:\Users\ajarr\AppData\Local\Temp\ccasxzae.o
TC_SunFixedAscendingFrame
                    0x4               C:\Users\ajarr\AppData\Local\Temp\ccasxzae.o
delta_HB            0x18              C:\Users\ajarr\AppData\Local\Temp\ccasxzae.o
inter_TM_Dest_Addr  0x4               C:\Users\ajarr\AppData\Local\Temp\ccgtKLQ9.o
cos_of_Wk1_Delta    0x8               C:\Users\ajarr\AppData\Local\Temp\ccasxzae.o
PosZ_ECEF_GPS       0x8               C:\Users\ajarr\AppData\Local\Temp\ccasxzae.o
SC1                 0x8               C:\Users\ajarr\AppData\Local\Temp\ccEMnW47.o
cp_cnt              0x4               C:\Users\ajarr\AppData\Local\Temp\ccnGtmfO.o
u_DTTC              0x8               C:\Users\ajarr\AppData\Local\Temp\ccZ3M43h.o
test_agc            0x4               C:\Users\ajarr\AppData\Local\Temp\cclXIhGd.o
Tsince_TLE          0x8               C:\Users\ajarr\AppData\Local\Temp\ccasxzae.o
pk_HkT              0xd8              C:\Users\ajarr\AppData\Local\Temp\ccasxzae.o
sumX_DAD            0x48              C:\Users\ajarr\AppData\Local\Temp\ccasxzae.o
phi_11_temp1        0x48              C:\Users\ajarr\AppData\Local\Temp\ccasxzae.o
u_TC                0x8               C:\Users\ajarr\AppData\Local\Temp\ccZ3M43h.o
TC_wAD_BODYminThYaw
                    0x8               C:\Users\ajarr\AppData\Local\Temp\ccasxzae.o
j_lict              0x4               C:\Users\ajarr\AppData\Local\Temp\ccasxzae.o
pps_deltaT          0x8               C:\Users\ajarr\AppData\Local\Temp\ccasxzae.o
Kk_matrix           0x288             C:\Users\ajarr\AppData\Local\Temp\ccasxzae.o
TC_wAD_BODYminThRoll
                    0x8               C:\Users\ajarr\AppData\Local\Temp\ccasxzae.o
theta               0x8               C:\Users\ajarr\AppData\Local\Temp\ccasxzae.o
comb1               0x8               C:\Users\ajarr\AppData\Local\Temp\ccEMnW47.o
inter_PL_TM_Source_Addr
                    0x4               C:\Users\ajarr\AppData\Local\Temp\cczbQmCd.o
f_Momentum_Dumping  0x4               C:\Users\ajarr\AppData\Local\Temp\ccasxzae.o
SUN_ECI_mag         0x8               C:\Users\ajarr\AppData\Local\Temp\ccasxzae.o
Tcv                 0x18              C:\Users\ajarr\AppData\Local\Temp\ccasxzae.o
t4                  0x8               C:\Users\ajarr\AppData\Local\Temp\ccasxzae.o
cnod                0x8               C:\Users\ajarr\AppData\Local\Temp\ccasxzae.o
mon_sel             0x4               C:\Users\ajarr\AppData\Local\Temp\ccasxzae.o
pl_buffer_addr      0x4               C:\Users\ajarr\AppData\Local\Temp\cczbQmCd.o
sidereal            0x48              C:\Users\ajarr\AppData\Local\Temp\ccasxzae.o
tau_ms              0x8               C:\Users\ajarr\AppData\Local\Temp\ccasxzae.o
j_kf                0x4               C:\Users\ajarr\AppData\Local\Temp\ccasxzae.o
ADC_Locations       0x4               C:\Users\ajarr\AppData\Local\Temp\cclXIhGd.o
aa                  0x2               C:\Users\ajarr\AppData\Local\Temp\ccovS4yg.o
sine                0x8               C:\Users\ajarr\AppData\Local\Temp\ccasxzae.o
Remote_Addr         0x4               C:\Users\ajarr\AppData\Local\Temp\ccZ3M43h.o
Z_SVO2ECI_mag       0x8               C:\Users\ajarr\AppData\Local\Temp\ccasxzae.o
Qprop_prev          0x20              C:\Users\ajarr\AppData\Local\Temp\ccasxzae.o
pl_test10           0x4               C:\Users\ajarr\AppData\Local\Temp\cczbQmCd.o
Out_latch_6         0x2               C:\Users\ajarr\AppData\Local\Temp\ccgtKLQ9.o
uz                  0x8               C:\Users\ajarr\AppData\Local\Temp\ccasxzae.o
TC_KR               0x18              C:\Users\ajarr\AppData\Local\Temp\ccasxzae.o
ExWhMom             0x20              C:\Users\ajarr\AppData\Local\Temp\ccasxzae.o
B_BODYtesla         0x18              C:\Users\ajarr\AppData\Local\Temp\ccEMnW47.o
T_MT_2RW            0x18              C:\Users\ajarr\AppData\Local\Temp\ccasxzae.o
agc_test1           0x1               C:\Users\ajarr\AppData\Local\Temp\cclXIhGd.o
one_magad           0x8               C:\Users\ajarr\AppData\Local\Temp\ccasxzae.o
S_ECI               0x18              C:\Users\ajarr\AppData\Local\Temp\ccasxzae.o
minorcyclecount     0x4               C:\Users\ajarr\AppData\Local\Temp\ccasxzae.o
RW_Data_SlipFrame_TMC
                    0x14              C:\Users\ajarr\AppData\Local\Temp\ccovS4yg.o
Q_quest_DAD_den     0x8               C:\Users\ajarr\AppData\Local\Temp\ccasxzae.o
gyrodet_w           0x18              C:\Users\ajarr\AppData\Local\Temp\ccEMnW47.o
two_magad           0x8               C:\Users\ajarr\AppData\Local\Temp\ccasxzae.o
Hk_temp             0xd8              C:\Users\ajarr\AppData\Local\Temp\ccasxzae.o
SunNPP_SMtransit    0x4               C:\Users\ajarr\AppData\Local\Temp\ccEMnW47.o
heaters             0x2               C:\Users\ajarr\AppData\Local\Temp\ccgtKLQ9.o
new_node            0x4               C:\Users\ajarr\AppData\Local\Temp\ccZ3M43h.o
MTR_Polarity        0x4               C:\Users\ajarr\AppData\Local\Temp\ccjmXURG.o
xincp               0x8               C:\Users\ajarr\AppData\Local\Temp\ccasxzae.o
Rx                  0x48              C:\Users\ajarr\AppData\Local\Temp\ccasxzae.o
z                   0x8               C:\Users\ajarr\AppData\Local\Temp\ccasxzae.o
chksum_arr          0x20              C:\Users\ajarr\AppData\Local\Temp\ccgtKLQ9.o
MTR_ActuationCycle  0x4               C:\Users\ajarr\AppData\Local\Temp\ccasxzae.o
BDOTnorm            0x8               C:\Users\ajarr\AppData\Local\Temp\ccasxzae.o
pl_tx_tm_flag       0x4               C:\Users\ajarr\AppData\Local\Temp\cczbQmCd.o
B_ECI               0x18              C:\Users\ajarr\AppData\Local\Temp\ccasxzae.o
IO_Latch_Register_4_Data
                    0x4               C:\Users\ajarr\AppData\Local\Temp\ccgtKLQ9.o
SAT_ANGLE_STAT      0x8               C:\Users\ajarr\AppData\Local\Temp\ccasxzae.o
sigma_DAD           0x8               C:\Users\ajarr\AppData\Local\Temp\ccasxzae.o
f_DataSort_MAG      0x4               C:\Users\ajarr\AppData\Local\Temp\ccasxzae.o
Thta_rawdata        0x18              C:\Users\ajarr\AppData\Local\Temp\ccEMnW47.o
aycof               0x8               C:\Users\ajarr\AppData\Local\Temp\ccasxzae.o
argpo_TLE_tc        0x8               C:\Users\ajarr\AppData\Local\Temp\ccasxzae.o
test_thermistor_1   0x2               C:\Users\ajarr\AppData\Local\Temp\cclXIhGd.o
count_arc_w1        0x4               C:\Users\ajarr\AppData\Local\Temp\ccasxzae.o
PL_1_on_off_flag    0x4               C:\Users\ajarr\AppData\Local\Temp\cczbQmCd.o
j_gh                0x1               C:\Users\ajarr\AppData\Local\Temp\ccasxzae.o
SC8                 0x8               C:\Users\ajarr\AppData\Local\Temp\ccEMnW47.o
orbit_time          0x4               C:\Users\ajarr\AppData\Local\Temp\ccasxzae.o
temp1               0x8               C:\Users\ajarr\AppData\Local\Temp\ccasxzae.o
coef                0x8               C:\Users\ajarr\AppData\Local\Temp\ccasxzae.o
eSunAcquisitionMode
                    0x4               C:\Users\ajarr\AppData\Local\Temp\ccasxzae.o
w_BODYdeg           0x18              C:\Users\ajarr\AppData\Local\Temp\ccEMnW47.o
storage_page_count  0x4               C:\Users\ajarr\AppData\Local\Temp\ccgtKLQ9.o
sigma_u             0x8               C:\Users\ajarr\AppData\Local\Temp\ccasxzae.o
etasq               0x8               C:\Users\ajarr\AppData\Local\Temp\ccasxzae.o
T_SD_RW             0x20              C:\Users\ajarr\AppData\Local\Temp\ccasxzae.o
ele2                0x8               C:\Users\ajarr\AppData\Local\Temp\ccEMnW47.o
cos2u               0x8               C:\Users\ajarr\AppData\Local\Temp\ccasxzae.o
st_magad            0x8               C:\Users\ajarr\AppData\Local\Temp\ccasxzae.o
Tc                  0x18              C:\Users\ajarr\AppData\Local\Temp\ccasxzae.o
UTC                 0x8               C:\Users\ajarr\AppData\Local\Temp\ccasxzae.o
GPS_msg_header      0x4               C:\Users\ajarr\AppData\Local\Temp\cclUyX1f.o
B_BiasCor           0x18              C:\Users\ajarr\AppData\Local\Temp\ccEMnW47.o
out_Quat_mult       0x20              C:\Users\ajarr\AppData\Local\Temp\ccasxzae.o
Block_array         0x10000           C:\Users\ajarr\AppData\Local\Temp\ccZ3M43h.o
CB_Wheel_Auto_Reconfiguration
                    0x4               C:\Users\ajarr\AppData\Local\Temp\ccasxzae.o
Del_P_theta         0x8               C:\Users\ajarr\AppData\Local\Temp\ccasxzae.o
diff_obs_exp_ch     0x20              C:\Users\ajarr\AppData\Local\Temp\ccasxzae.o
DTTCarray           0x1f40            C:\Users\ajarr\AppData\Local\Temp\ccZ3M43h.o
ST_output_latch     0x4               C:\Users\ajarr\AppData\Local\Temp\ccgtKLQ9.o
test_gps_conf6      0x4               C:\Users\ajarr\AppData\Local\Temp\cclUyX1f.o
GPSDataReady        0x4               C:\Users\ajarr\AppData\Local\Temp\ccasxzae.o
mo_sel              0x8               C:\Users\ajarr\AppData\Local\Temp\ccasxzae.o
NRBt_sunmag         0xc0              C:\Users\ajarr\AppData\Local\Temp\ccasxzae.o
trace_S_DAD         0x8               C:\Users\ajarr\AppData\Local\Temp\ccasxzae.o
SS_Redundant_2Exe_DB
                    0x284             C:\Users\ajarr\AppData\Local\Temp\ccgtKLQ9.o
ct_magad            0x8               C:\Users\ajarr\AppData\Local\Temp\ccasxzae.o
BDOT_Threshold_Count
                    0x4               C:\Users\ajarr\AppData\Local\Temp\ccasxzae.o
i                   0x4               C:\Users\ajarr\AppData\Local\Temp\ccasxzae.o
mu_m_temp           0x18              C:\Users\ajarr\AppData\Local\Temp\ccasxzae.o
SC1ImaxF            0x8               C:\Users\ajarr\AppData\Local\Temp\ccEMnW47.o
TC_yp               0x8               C:\Users\ajarr\AppData\Local\Temp\ccasxzae.o
CB_Two_RW_control   0x4               C:\Users\ajarr\AppData\Local\Temp\ccasxzae.o
Out_latch_5         0x2               C:\Users\ajarr\AppData\Local\Temp\ccgtKLQ9.o
j_rfc               0x4               C:\Users\ajarr\AppData\Local\Temp\ccasxzae.o
real_storage        0x4               C:\Users\ajarr\AppData\Local\Temp\ccnGtmfO.o
rw_tmtc_count       0x4               C:\Users\ajarr\AppData\Local\Temp\ccovS4yg.o
IMU_Sen2Bdy         0x48              C:\Users\ajarr\AppData\Local\Temp\ccEMnW47.o
LPFK2SL             0x20              C:\Users\ajarr\AppData\Local\Temp\ccasxzae.o
ktr                 0x4               C:\Users\ajarr\AppData\Local\Temp\ccasxzae.o
I_MFC               0x4               C:\Users\ajarr\AppData\Local\Temp\ccasxzae.o
DelThta_cat_y       0x4               C:\Users\ajarr\AppData\Local\Temp\ccasxzae.o
magYaw_angle        0x8               C:\Users\ajarr\AppData\Local\Temp\ccasxzae.o
Init_data_ptr       0x4               C:\Users\ajarr\AppData\Local\Temp\ccovS4yg.o
epochdays_TLE_tc    0x8               C:\Users\ajarr\AppData\Local\Temp\ccasxzae.o
v0c                 0x20              C:\Users\ajarr\AppData\Local\Temp\ccasxzae.o
CB_DAD_quest        0x4               C:\Users\ajarr\AppData\Local\Temp\ccasxzae.o
RW_TM_ptr_init      0x4               C:\Users\ajarr\AppData\Local\Temp\ccovS4yg.o
T_RW_sdump          0x20              C:\Users\ajarr\AppData\Local\Temp\ccasxzae.o
TMC_data_ptr        0x4               C:\Users\ajarr\AppData\Local\Temp\ccovS4yg.o
no_sel              0x8               C:\Users\ajarr\AppData\Local\Temp\ccasxzae.o
po                  0x8               C:\Users\ajarr\AppData\Local\Temp\ccasxzae.o
NMB_mag             0x240             C:\Users\ajarr\AppData\Local\Temp\ccasxzae.o
Vel_ECEFn           0x18              C:\Users\ajarr\AppData\Local\Temp\ccasxzae.o
j_MatEq             0x4               C:\Users\ajarr\AppData\Local\Temp\ccEMnW47.o
TC_Status_Data      0x4               C:\Users\ajarr\AppData\Local\Temp\ccZ3M43h.o
Storage             0x3e800           C:\Users\ajarr\AppData\Local\Temp\ccgtKLQ9.o
ST_special          0x2a1             C:\Users\ajarr\AppData\Local\Temp\ccgtKLQ9.o
xmdf                0x8               C:\Users\ajarr\AppData\Local\Temp\ccasxzae.o
Enable_PL_TM_flag   0x4               C:\Users\ajarr\AppData\Local\Temp\cczbQmCd.o
cc3                 0x8               C:\Users\ajarr\AppData\Local\Temp\ccasxzae.o
Rk                  0x48              C:\Users\ajarr\AppData\Local\Temp\ccasxzae.o
TC_Hmax             0x8               C:\Users\ajarr\AppData\Local\Temp\ccasxzae.o
Trwa                0x20              C:\Users\ajarr\AppData\Local\Temp\ccasxzae.o
qzms24              0x8               C:\Users\ajarr\AppData\Local\Temp\ccasxzae.o
TC_SunFixedDescendingFrame
                    0x4               C:\Users\ajarr\AppData\Local\Temp\ccasxzae.o
T_RW                0x20              C:\Users\ajarr\AppData\Local\Temp\ccasxzae.o
w_LPF               0x18              C:\Users\ajarr\AppData\Local\Temp\ccEMnW47.o
GAIN_DATA_SET       0x4e0             C:\Users\ajarr\AppData\Local\Temp\ccgtKLQ9.o
longitude_GPS       0x8               C:\Users\ajarr\AppData\Local\Temp\ccasxzae.o
sini                0x8               C:\Users\ajarr\AppData\Local\Temp\ccasxzae.o
Out_Latch_2         0x2               C:\Users\ajarr\AppData\Local\Temp\ccgtKLQ9.o
xsatz_eci           0x8               C:\Users\ajarr\AppData\Local\Temp\ccasxzae.o
inter_HAL_ADC_Data_Ready
                    0x4               C:\Users\ajarr\AppData\Local\Temp\cclXIhGd.o
DFCGainLow          0x8               C:\Users\ajarr\AppData\Local\Temp\ccasxzae.o
inter_TM_Status_Data
                    0x2               C:\Users\ajarr\AppData\Local\Temp\ccgtKLQ9.o
i_pini              0x4               C:\Users\ajarr\AppData\Local\Temp\ccasxzae.o
SC3ImaxF            0x8               C:\Users\ajarr\AppData\Local\Temp\ccEMnW47.o
DTTCtime_reference  0x4               C:\Users\ajarr\AppData\Local\Temp\ccEMnW47.o
Hk                  0xd8              C:\Users\ajarr\AppData\Local\Temp\ccasxzae.o
MUX_data4           0x2               C:\Users\ajarr\AppData\Local\Temp\ccZ3M43h.o
test_gps_conf1      0x4               C:\Users\ajarr\AppData\Local\Temp\cclUyX1f.o
Delta               0x8               C:\Users\ajarr\AppData\Local\Temp\ccasxzae.o
imu_data_ready_count_1
                    0x4               C:\Users\ajarr\AppData\Local\Temp\ccf1qWep.o
Z_SFDO2ECI_mag      0x8               C:\Users\ajarr\AppData\Local\Temp\ccasxzae.o
u_parl              0x18              C:\Users\ajarr\AppData\Local\Temp\ccasxzae.o
B_AMSC              0x18              C:\Users\ajarr\AppData\Local\Temp\ccEMnW47.o
I_DAD               0x4               C:\Users\ajarr\AppData\Local\Temp\ccasxzae.o
IMU_Diag_Done       0x4               C:\Users\ajarr\AppData\Local\Temp\ccEMnW47.o
i_MatEq             0x4               C:\Users\ajarr\AppData\Local\Temp\ccEMnW47.o
year_TLE_tc         0x4               C:\Users\ajarr\AppData\Local\Temp\ccasxzae.o
TC_data_ptr         0x4               C:\Users\ajarr\AppData\Local\Temp\ccovS4yg.o
MUX_4               0x2               C:\Users\ajarr\AppData\Local\Temp\ccgtKLQ9.o
ecose               0x8               C:\Users\ajarr\AppData\Local\Temp\ccasxzae.o
TC_authentic_pulse_rcvd
                    0x4               C:\Users\ajarr\AppData\Local\Temp\ccZ3M43h.o
Pos_ECEF            0x18              C:\Users\ajarr\AppData\Local\Temp\ccasxzae.o
NRB_mag             0x240             C:\Users\ajarr\AppData\Local\Temp\ccasxzae.o
w_BiasCor           0x18              C:\Users\ajarr\AppData\Local\Temp\ccEMnW47.o
inter_TM_Main_Buffer_Empty
                    0x4               C:\Users\ajarr\AppData\Local\Temp\ccgtKLQ9.o
SunNPP_SAMtransit_counter
                    0x4               C:\Users\ajarr\AppData\Local\Temp\ccEMnW47.o
ecc_temp6           0x8               C:\Users\ajarr\AppData\Local\Temp\ccasxzae.o
j_pini              0x4               C:\Users\ajarr\AppData\Local\Temp\ccasxzae.o
GPS_Data_Read_Status
                    0x4               C:\Users\ajarr\AppData\Local\Temp\cclUyX1f.o
Q_REF_diff          0x20              C:\Users\ajarr\AppData\Local\Temp\ccasxzae.o
ECEFtoECI           0x48              C:\Users\ajarr\AppData\Local\Temp\ccasxzae.o
t5cof               0x8               C:\Users\ajarr\AppData\Local\Temp\ccasxzae.o
ep                  0x8               C:\Users\ajarr\AppData\Local\Temp\ccasxzae.o
NOB_CRC_TC          0x4               C:\Users\ajarr\AppData\Local\Temp\ccovS4yg.o
check_dump_wh       0x10              C:\Users\ajarr\AppData\Local\Temp\ccasxzae.o
TC_DATA             0x8               C:\Users\ajarr\AppData\Local\Temp\ccZ3M43h.o
read_str_ptr        0x4               C:\Users\ajarr\AppData\Local\Temp\ccgtKLQ9.o
pl_mode             0x2               C:\Users\ajarr\AppData\Local\Temp\cczbQmCd.o
epochyr             0x4               C:\Users\ajarr\AppData\Local\Temp\ccasxzae.o
Bpresent            0x18              C:\Users\ajarr\AppData\Local\Temp\ccEMnW47.o
tc_ecv_test         0x190             C:\Users\ajarr\AppData\Local\Temp\ccEMnW47.o
Yaw_MTR_Pol_Reversal
                    0x4               C:\Users\ajarr\AppData\Local\Temp\ccasxzae.o
RW_number           0x2               C:\Users\ajarr\AppData\Local\Temp\ccZ3M43h.o
nodem               0x8               C:\Users\ajarr\AppData\Local\Temp\ccasxzae.o
STATION_ECIn        0x18              C:\Users\ajarr\AppData\Local\Temp\ccasxzae.o
TC_xp               0x8               C:\Users\ajarr\AppData\Local\Temp\ccasxzae.o
argpp               0x8               C:\Users\ajarr\AppData\Local\Temp\ccasxzae.o
pl_data_rx          0x12              C:\Users\ajarr\AppData\Local\Temp\cczbQmCd.o
TC_ARC_Time_Cycle   0x4               C:\Users\ajarr\AppData\Local\Temp\ccasxzae.o
count_arc_w0        0x4               C:\Users\ajarr\AppData\Local\Temp\ccasxzae.o
TC_ARC_RPM_Thres    0x8               C:\Users\ajarr\AppData\Local\Temp\ccasxzae.o
ECItoECEF           0x48              C:\Users\ajarr\AppData\Local\Temp\ccasxzae.o
rw_tc_count_test    0x4               C:\Users\ajarr\AppData\Local\Temp\ccovS4yg.o
Init_ptr            0x4               C:\Users\ajarr\AppData\Local\Temp\ccovS4yg.o
sinip               0x8               C:\Users\ajarr\AppData\Local\Temp\ccasxzae.o
pl_config_addr_ptr  0x4               C:\Users\ajarr\AppData\Local\Temp\cczbQmCd.o
Bt_DAD              0x48              C:\Users\ajarr\AppData\Local\Temp\ccasxzae.o
inclo_tc            0x8               C:\Users\ajarr\AppData\Local\Temp\ccasxzae.o
RW_Wheel_Speed      0x10              C:\Users\ajarr\AppData\Local\Temp\ccovS4yg.o
rot_ang             0x8               C:\Users\ajarr\AppData\Local\Temp\ccasxzae.o
alpha_2RW_temp      0x18              C:\Users\ajarr\AppData\Local\Temp\ccasxzae.o
coslongacnode       0x8               C:\Users\ajarr\AppData\Local\Temp\ccasxzae.o
temp11              0x8               C:\Users\ajarr\AppData\Local\Temp\ccEMnW47.o
ram_scrub_addr      0x4               C:\Users\ajarr\AppData\Local\Temp\ccgtKLQ9.o
TC_str_ptr          0x4               C:\Users\ajarr\AppData\Local\Temp\ccgtKLQ9.o
eThreeAxisControlMode
                    0x4               C:\Users\ajarr\AppData\Local\Temp\ccasxzae.o
f_threeaxis2safe    0x4               C:\Users\ajarr\AppData\Local\Temp\ccasxzae.o
DeltaT_MFC          0x4               C:\Users\ajarr\AppData\Local\Temp\ccasxzae.o
TC_detumbling_rate_gain
                    0x18              C:\Users\ajarr\AppData\Local\Temp\ccasxzae.o
esine               0x8               C:\Users\ajarr\AppData\Local\Temp\ccasxzae.o
gps_obt_count_prev  0x4               C:\Users\ajarr\AppData\Local\Temp\cclUyX1f.o
block_test2         0x1               C:\Users\ajarr\AppData\Local\Temp\ccEMnW47.o
T_RW_spin           0x20              C:\Users\ajarr\AppData\Local\Temp\ccasxzae.o
pl_ack_count        0x2               C:\Users\ajarr\AppData\Local\Temp\cczbQmCd.o
Wk1                 0x48              C:\Users\ajarr\AppData\Local\Temp\ccasxzae.o
wc_qst              0x4               C:\Users\ajarr\AppData\Local\Temp\ccasxzae.o
Cross_Product       0x18              C:\Users\ajarr\AppData\Local\Temp\ccasxzae.o
sd_magad            0x8               C:\Users\ajarr\AppData\Local\Temp\ccasxzae.o
i_QDP               0x4               C:\Users\ajarr\AppData\Local\Temp\ccasxzae.o
Z_SPO2ECI           0x18              C:\Users\ajarr\AppData\Local\Temp\ccasxzae.o
d2                  0x8               C:\Users\ajarr\AppData\Local\Temp\ccasxzae.o
inter_TM_DP_Addr    0x4               C:\Users\ajarr\AppData\Local\Temp\ccgtKLQ9.o
f_Sunlit_Presence   0x4               C:\Users\ajarr\AppData\Local\Temp\ccEMnW47.o
TC_Det_GYRO_Compute_Count
                    0x4               C:\Users\ajarr\AppData\Local\Temp\ccasxzae.o
pl                  0x8               C:\Users\ajarr\AppData\Local\Temp\ccasxzae.o
Norm_out            0x18              C:\Users\ajarr\AppData\Local\Temp\ccasxzae.o
RW_TC               0x10              C:\Users\ajarr\AppData\Local\Temp\ccovS4yg.o
NRSt                0xc0              C:\Users\ajarr\AppData\Local\Temp\ccasxzae.o
wheel_index         0x10              C:\Users\ajarr\AppData\Local\Temp\ccasxzae.o
L_Msun              0x8               C:\Users\ajarr\AppData\Local\Temp\ccasxzae.o
inter_HAL_IMU_Locations
                    0x4               C:\Users\ajarr\AppData\Local\Temp\ccEMnW47.o
vpef                0x18              C:\Users\ajarr\AppData\Local\Temp\ccasxzae.o
inclination         0x8               C:\Users\ajarr\AppData\Local\Temp\ccasxzae.o
temp_data_1         0x2               C:\Users\ajarr\AppData\Local\Temp\cczbQmCd.o
TMTC_gain_select_u  0x8               C:\Users\ajarr\AppData\Local\Temp\ccgtKLQ9.o
FirstSpeed          0x10              C:\Users\ajarr\AppData\Local\Temp\ccasxzae.o
cosio               0x8               C:\Users\ajarr\AppData\Local\Temp\ccasxzae.o
i_kf                0x4               C:\Users\ajarr\AppData\Local\Temp\ccasxzae.o
MTR_Axis            0x4               C:\Users\ajarr\AppData\Local\Temp\ccjmXURG.o
sinlongacnode       0x8               C:\Users\ajarr\AppData\Local\Temp\ccasxzae.o
ram_scrub_cnt       0x4               C:\Users\ajarr\AppData\Local\Temp\ccZ3M43h.o
minute_sel          0x4               C:\Users\ajarr\AppData\Local\Temp\ccasxzae.o
SS_M5               0x8               C:\Users\ajarr\AppData\Local\Temp\ccasxzae.o
inter_at697_var     0x4               C:\Users\ajarr\AppData\Local\Temp\ccgtKLQ9.o
mrt                 0x8               C:\Users\ajarr\AppData\Local\Temp\ccasxzae.o
PL_on_off_sts_flag  0x2               C:\Users\ajarr\AppData\Local\Temp\cczbQmCd.o
SunAcq2ThreeAx_trsit_cnt_thres
                    0x4               C:\Users\ajarr\AppData\Local\Temp\ccasxzae.o
block_test1         0x1               C:\Users\ajarr\AppData\Local\Temp\ccEMnW47.o
MR                  0x8               C:\Users\ajarr\AppData\Local\Temp\ccasxzae.o
Qk                  0x288             C:\Users\ajarr\AppData\Local\Temp\ccasxzae.o
TC_history_table    0x810             C:\Users\ajarr\AppData\Local\Temp\ccgtKLQ9.o
VelY_ECEF_GPS       0x8               C:\Users\ajarr\AppData\Local\Temp\ccasxzae.o
Bprev               0x18              C:\Users\ajarr\AppData\Local\Temp\ccEMnW47.o
inter_sunsensor_j   0x4               C:\Users\ajarr\AppData\Local\Temp\ccEMnW47.o
SC4ImaxF            0x8               C:\Users\ajarr\AppData\Local\Temp\ccEMnW47.o
Matout33            0x48              C:\Users\ajarr\AppData\Local\Temp\ccasxzae.o
mon_TLE_tc          0x4               C:\Users\ajarr\AppData\Local\Temp\ccasxzae.o
TC_GYRO_Det_Min_Thresh
                    0x8               C:\Users\ajarr\AppData\Local\Temp\ccasxzae.o
betal               0x8               C:\Users\ajarr\AppData\Local\Temp\ccasxzae.o
Qquest_update       0x20              C:\Users\ajarr\AppData\Local\Temp\ccasxzae.o
ST_TC_header_Buffer
                    0xc               C:\Users\ajarr\AppData\Local\Temp\ccgtKLQ9.o
i_god               0x4               C:\Users\ajarr\AppData\Local\Temp\ccasxzae.o
mo                  0x8               C:\Users\ajarr\AppData\Local\Temp\ccasxzae.o
TC_magMax_angle     0x8               C:\Users\ajarr\AppData\Local\Temp\ccasxzae.o
heater_manual_tc    0x2               C:\Users\ajarr\AppData\Local\Temp\ccYAcwQn.o
tt                  0x20              C:\Users\ajarr\AppData\Local\Temp\ccasxzae.o
hk                  0x18              C:\Users\ajarr\AppData\Local\Temp\ccasxzae.o
dpsi                0x8               C:\Users\ajarr\AppData\Local\Temp\ccasxzae.o
Spec_ST_Table_Row_No
                    0x4               C:\Users\ajarr\AppData\Local\Temp\ccgtKLQ9.o
RW_Buffer_u_rx      0x200             C:\Users\ajarr\AppData\Local\Temp\ccovS4yg.o
con41               0x8               C:\Users\ajarr\AppData\Local\Temp\ccasxzae.o
CB_Sun_model        0x4               C:\Users\ajarr\AppData\Local\Temp\ccasxzae.o
SunNPP_SAMtransit_count_limit
                    0x4               C:\Users\ajarr\AppData\Local\Temp\ccEMnW47.o
R_SVO2ECI           0x48              C:\Users\ajarr\AppData\Local\Temp\ccasxzae.o
qk_plus_temp        0x20              C:\Users\ajarr\AppData\Local\Temp\ccasxzae.o
delta_hmag          0x8               C:\Users\ajarr\AppData\Local\Temp\ccasxzae.o
Roll_pos_ND         0x8               C:\Users\ajarr\AppData\Local\Temp\ccEMnW47.o
Q_REF_conj          0x20              C:\Users\ajarr\AppData\Local\Temp\ccasxzae.o
RW_ARC_Logic        0x4               C:\Users\ajarr\AppData\Local\Temp\ccasxzae.o
MP                  0x8               C:\Users\ajarr\AppData\Local\Temp\ccasxzae.o
ltp12               0x4               C:\Users\ajarr\AppData\Local\Temp\ccYAcwQn.o
GPS_obc_checkum     0x1               C:\Users\ajarr\AppData\Local\Temp\cclUyX1f.o
Remote_minotoring_addr
                    0x4               C:\Users\ajarr\AppData\Local\Temp\ccZ3M43h.o
Matout31            0x18              C:\Users\ajarr\AppData\Local\Temp\ccasxzae.o
DelThta_cat_x       0x4               C:\Users\ajarr\AppData\Local\Temp\ccasxzae.o
inclination_temp    0x8               C:\Users\ajarr\AppData\Local\Temp\ccasxzae.o
Xk_plus             0x48              C:\Users\ajarr\AppData\Local\Temp\ccasxzae.o
tempdata2           0x1               C:\Users\ajarr\AppData\Local\Temp\ccEMnW47.o
IMU2_Corr           0x144             C:\Users\ajarr\AppData\Local\Temp\ccgtKLQ9.o
eol                 0x8               C:\Users\ajarr\AppData\Local\Temp\ccasxzae.o
spin_up_avg_count_2
                    0x4               C:\Users\ajarr\AppData\Local\Temp\ccasxzae.o
tc_cnt_test         0x4               C:\Users\ajarr\AppData\Local\Temp\ccEMnW47.o
tsi                 0x8               C:\Users\ajarr\AppData\Local\Temp\ccasxzae.o
phi_11              0x48              C:\Users\ajarr\AppData\Local\Temp\ccasxzae.o
BDOT                0x18              C:\Users\ajarr\AppData\Local\Temp\ccEMnW47.o
TC_data_command_Table
                    0x6c              C:\Users\ajarr\AppData\Local\Temp\ccgtKLQ9.o
pl_test12           0x4               C:\Users\ajarr\AppData\Local\Temp\cczbQmCd.o
GPS_pulse_rcvd      0x4               C:\Users\ajarr\AppData\Local\Temp\cclUyX1f.o
tempta              0x8               C:\Users\ajarr\AppData\Local\Temp\ccasxzae.o
Cond1               0x8               C:\Users\ajarr\AppData\Local\Temp\ccasxzae.o
RW_Write_ptr        0x4               C:\Users\ajarr\AppData\Local\Temp\ccovS4yg.o
phi_12_temp1        0x48              C:\Users\ajarr\AppData\Local\Temp\ccasxzae.o
GPS2_ptr            0x4               C:\Users\ajarr\AppData\Local\Temp\cclUyX1f.o
Yaw_MTREnable       0x4               C:\Users\ajarr\AppData\Local\Temp\ccasxzae.o
J_DAD               0x4               C:\Users\ajarr\AppData\Local\Temp\ccasxzae.o
CB_RefVectorGeneration
                    0x4               C:\Users\ajarr\AppData\Local\Temp\ccasxzae.o
magrsun             0x8               C:\Users\ajarr\AppData\Local\Temp\ccasxzae.o
inter_HAL_IMU_Buffer_Addr
                    0x4               C:\Users\ajarr\AppData\Local\Temp\ccEMnW47.o
ao_temp             0x8               C:\Users\ajarr\AppData\Local\Temp\ccasxzae.o
bbbb                0x4               C:\Users\ajarr\AppData\Local\Temp\ccgtKLQ9.o
TachoHyst           0x10              C:\Users\ajarr\AppData\Local\Temp\ccasxzae.o
TC_wp_QDP           0x4               C:\Users\ajarr\AppData\Local\Temp\ccasxzae.o
pl_HLT_en           0x1               C:\Users\ajarr\AppData\Local\Temp\cczbQmCd.o
pk_plus_one         0x288             C:\Users\ajarr\AppData\Local\Temp\ccasxzae.o
CB_Wheel_Dynamic_Friction
                    0x4               C:\Users\ajarr\AppData\Local\Temp\ccasxzae.o
B_ECEF              0x18              C:\Users\ajarr\AppData\Local\Temp\ccasxzae.o
Sun_Dis             0x8               C:\Users\ajarr\AppData\Local\Temp\ccasxzae.o
A_R                 0x8               C:\Users\ajarr\AppData\Local\Temp\ccasxzae.o
RW_TM_Raw_Data_ptr  0x4               C:\Users\ajarr\AppData\Local\Temp\ccovS4yg.o
vy                  0x8               C:\Users\ajarr\AppData\Local\Temp\ccasxzae.o
no                  0x8               C:\Users\ajarr\AppData\Local\Temp\ccasxzae.o
beta_DAD            0x8               C:\Users\ajarr\AppData\Local\Temp\ccasxzae.o
mo_GPS              0x8               C:\Users\ajarr\AppData\Local\Temp\ccasxzae.o
alpha_DAD           0x8               C:\Users\ajarr\AppData\Local\Temp\ccasxzae.o
B_ASC               0x18              C:\Users\ajarr\AppData\Local\Temp\ccEMnW47.o
Top_index           0x4               C:\Users\ajarr\AppData\Local\Temp\ccZ3M43h.o
SC3                 0x8               C:\Users\ajarr\AppData\Local\Temp\ccEMnW47.o
DCM2Q_out           0x20              C:\Users\ajarr\AppData\Local\Temp\ccasxzae.o
data                0x4               C:\Users\ajarr\AppData\Local\Temp\cczbQmCd.o
Q_SFAO2ECI          0x20              C:\Users\ajarr\AppData\Local\Temp\ccasxzae.o
SS_prcd_data        0x18              C:\Users\ajarr\AppData\Local\Temp\ccEMnW47.o
Minor_Cycle_Count   0x4               C:\Users\ajarr\AppData\Local\Temp\ccgtKLQ9.o
rk_Qk_rk_T          0x288             C:\Users\ajarr\AppData\Local\Temp\ccasxzae.o
ee_blk_no           0x1               C:\Users\ajarr\AppData\Local\Temp\ccgtKLQ9.o
ao                  0x8               C:\Users\ajarr\AppData\Local\Temp\ccasxzae.o
Numofdays           0x4               C:\Users\ajarr\AppData\Local\Temp\ccasxzae.o
TC_SunMagAD         0x4               C:\Users\ajarr\AppData\Local\Temp\ccasxzae.o
S_ECIn              0x18              C:\Users\ajarr\AppData\Local\Temp\ccasxzae.o
longitude           0x8               C:\Users\ajarr\AppData\Local\Temp\ccasxzae.o
Quest_update_available
                    0x4               C:\Users\ajarr\AppData\Local\Temp\ccasxzae.o
N_ecc               0x8               C:\Users\ajarr\AppData\Local\Temp\ccasxzae.o
ab_test             0x4               C:\Users\ajarr\AppData\Local\Temp\ccEMnW47.o
M_MAGAD             0x4               C:\Users\ajarr\AppData\Local\Temp\ccasxzae.o
minute_TLE_tc       0x4               C:\Users\ajarr\AppData\Local\Temp\ccasxzae.o
cossu               0x8               C:\Users\ajarr\AppData\Local\Temp\ccasxzae.o
sin_of_W_norm_Delta_by2_W_norm_and_big_omega
                    0x80              C:\Users\ajarr\AppData\Local\Temp\ccasxzae.o
cc4                 0x8               C:\Users\ajarr\AppData\Local\Temp\ccasxzae.o
phi_k_pk_plus       0x288             C:\Users\ajarr\AppData\Local\Temp\ccasxzae.o
Manual_flag         0x4               C:\Users\ajarr\AppData\Local\Temp\ccYAcwQn.o
trueanomoly_sel     0x8               C:\Users\ajarr\AppData\Local\Temp\ccasxzae.o
MOI_wh              0x8               C:\Users\ajarr\AppData\Local\Temp\ccasxzae.o
STATION_ECEF        0x18              C:\Users\ajarr\AppData\Local\Temp\ccasxzae.o
ele1                0x8               C:\Users\ajarr\AppData\Local\Temp\ccEMnW47.o
fN_MAGAD            0x4               C:\Users\ajarr\AppData\Local\Temp\ccasxzae.o
DFCGainSL           0x20              C:\Users\ajarr\AppData\Local\Temp\ccasxzae.o
sinmao              0x8               C:\Users\ajarr\AppData\Local\Temp\ccasxzae.o
snod                0x8               C:\Users\ajarr\AppData\Local\Temp\ccasxzae.o
cos_of_W_norm_Delta_by2_with_I
                    0x80              C:\Users\ajarr\AppData\Local\Temp\ccasxzae.o
cl_magad            0x70              C:\Users\ajarr\AppData\Local\Temp\ccasxzae.o
i_gh                0x1               C:\Users\ajarr\AppData\Local\Temp\ccasxzae.o
Tdet                0x18              C:\Users\ajarr\AppData\Local\Temp\ccasxzae.o
prev                0x4               C:\Users\ajarr\AppData\Local\Temp\ccZ3M43h.o
ST_frame_count      0x2               C:\Users\ajarr\AppData\Local\Temp\ccgtKLQ9.o
nm                  0x8               C:\Users\ajarr\AppData\Local\Temp\ccasxzae.o
TTDB3               0x8               C:\Users\ajarr\AppData\Local\Temp\ccasxzae.o
ST_Dest_Addr        0x4               C:\Users\ajarr\AppData\Local\Temp\ccgtKLQ9.o
del_Vw              0x20              C:\Users\ajarr\AppData\Local\Temp\ccasxzae.o
d4                  0x8               C:\Users\ajarr\AppData\Local\Temp\ccasxzae.o
SC6                 0x8               C:\Users\ajarr\AppData\Local\Temp\ccEMnW47.o
alpha_I_DAD         0x48              C:\Users\ajarr\AppData\Local\Temp\ccasxzae.o
sc_qst              0x4               C:\Users\ajarr\AppData\Local\Temp\ccasxzae.o
t2cof               0x8               C:\Users\ajarr\AppData\Local\Temp\ccasxzae.o
rpef                0x18              C:\Users\ajarr\AppData\Local\Temp\ccasxzae.o
CB_LinearController
                    0x4               C:\Users\ajarr\AppData\Local\Temp\ccasxzae.o
Thermistor_Selection
                    0x38              C:\Users\ajarr\AppData\Local\Temp\ccYAcwQn.o
RW_4                0x10              C:\Users\ajarr\AppData\Local\Temp\ccovS4yg.o
TC_Bdot_Gain        0x18              C:\Users\ajarr\AppData\Local\Temp\ccasxzae.o
block_test3         0x1               C:\Users\ajarr\AppData\Local\Temp\ccEMnW47.o
TC_wAD_BODYmaxThPitch
                    0x8               C:\Users\ajarr\AppData\Local\Temp\ccasxzae.o
LPFK2HighSL         0x8               C:\Users\ajarr\AppData\Local\Temp\ccasxzae.o
suu                 0x8               C:\Users\ajarr\AppData\Local\Temp\ccasxzae.o
Pos_ECI_GPS         0x18              C:\Users\ajarr\AppData\Local\Temp\ccasxzae.o
Alti_Mod            0x8               C:\Users\ajarr\AppData\Local\Temp\ccasxzae.o
pl_x_tx_data_off_flag
                    0x4               C:\Users\ajarr\AppData\Local\Temp\cczbQmCd.o
Msun                0x8               C:\Users\ajarr\AppData\Local\Temp\ccasxzae.o
alpha_2RW_tempnorm  0x8               C:\Users\ajarr\AppData\Local\Temp\ccasxzae.o
X_SFAO2ECI          0x18              C:\Users\ajarr\AppData\Local\Temp\ccasxzae.o
ss_main_db_checksum_obc
                    0x4               C:\Users\ajarr\AppData\Local\Temp\ccgtKLQ9.o
Q_REF               0x20              C:\Users\ajarr\AppData\Local\Temp\ccasxzae.o
rp                  0x8               C:\Users\ajarr\AppData\Local\Temp\ccasxzae.o
nodeo_tc            0x8               C:\Users\ajarr\AppData\Local\Temp\ccasxzae.o
DelThta_rawdata     0x18              C:\Users\ajarr\AppData\Local\Temp\ccEMnW47.o
Y_EPO2ECI           0x18              C:\Users\ajarr\AppData\Local\Temp\ccasxzae.o
GPS1_ptr            0x4               C:\Users\ajarr\AppData\Local\Temp\cclUyX1f.o
temp_data_rw        0x2               C:\Users\ajarr\AppData\Local\Temp\ccEMnW47.o
w_BODYnorm          0x8               C:\Users\ajarr\AppData\Local\Temp\ccEMnW47.o
radialdistance_ecef
                    0x8               C:\Users\ajarr\AppData\Local\Temp\ccasxzae.o
CB_QuestDataProcessing
                    0x4               C:\Users\ajarr\AppData\Local\Temp\ccasxzae.o
ST_Out_latch_5      0x2               C:\Users\ajarr\AppData\Local\Temp\ccgtKLQ9.o
year_sel            0x4               C:\Users\ajarr\AppData\Local\Temp\ccasxzae.o
sinio               0x8               C:\Users\ajarr\AppData\Local\Temp\ccasxzae.o
TC_EarthPointingFrame
                    0x4               C:\Users\ajarr\AppData\Local\Temp\ccasxzae.o
Epsilon             0x8               C:\Users\ajarr\AppData\Local\Temp\ccasxzae.o
j_god               0x4               C:\Users\ajarr\AppData\Local\Temp\ccasxzae.o
Qk_temp1            0x8               C:\Users\ajarr\AppData\Local\Temp\ccasxzae.o
TTDB                0x8               C:\Users\ajarr\AppData\Local\Temp\ccasxzae.o
TC_SpeedAngularMomemtumDumping
                    0x4               C:\Users\ajarr\AppData\Local\Temp\ccasxzae.o
pre_temp            0x48              C:\Users\ajarr\AppData\Local\Temp\ccasxzae.o
VelX_ECEF_GPS       0x8               C:\Users\ajarr\AppData\Local\Temp\ccasxzae.o
Z_SFDO2ECI          0x18              C:\Users\ajarr\AppData\Local\Temp\ccasxzae.o
X_SFDO2ECI_mag      0x8               C:\Users\ajarr\AppData\Local\Temp\ccasxzae.o
imu_data_ready_count
                    0x4               C:\Users\ajarr\AppData\Local\Temp\ccf1qWep.o
battery_temp_1      0x4               C:\Users\ajarr\AppData\Local\Temp\cclXIhGd.o
LPFK1LowSL          0x8               C:\Users\ajarr\AppData\Local\Temp\ccasxzae.o
BLK_number          0x1               C:\Users\ajarr\AppData\Local\Temp\ccEMnW47.o
DFCCountLimSL       0x10              C:\Users\ajarr\AppData\Local\Temp\ccasxzae.o
am_temp             0x8               C:\Users\ajarr\AppData\Local\Temp\ccasxzae.o
k_DAD               0x8               C:\Users\ajarr\AppData\Local\Temp\ccasxzae.o
Qk_temp3            0x8               C:\Users\ajarr\AppData\Local\Temp\ccasxzae.o
TCH_read_full_ptr   0x4               C:\Users\ajarr\AppData\Local\Temp\ccgtKLQ9.o
sec_TLE_tc          0x8               C:\Users\ajarr\AppData\Local\Temp\ccasxzae.o
ss_data             0x1e              C:\Users\ajarr\AppData\Local\Temp\cclXIhGd.o
SS_M1               0x8               C:\Users\ajarr\AppData\Local\Temp\ccasxzae.o
GPS_Status2_Msg     0x2               C:\Users\ajarr\AppData\Local\Temp\cclUyX1f.o
HILS_packet         0x40              C:\Users\ajarr\AppData\Local\Temp\ccgtKLQ9.o
inter_at697f_count  0x4               C:\Users\ajarr\AppData\Local\Temp\ccgtKLQ9.o
invangmomentumvecmag
                    0x8               C:\Users\ajarr\AppData\Local\Temp\ccasxzae.o
TMTC_boolean_u      0x8               C:\Users\ajarr\AppData\Local\Temp\ccgtKLQ9.o
rvdotl              0x8               C:\Users\ajarr\AppData\Local\Temp\ccasxzae.o
sa_test             0x4               C:\Users\ajarr\AppData\Local\Temp\ccduqfO0.o
Pos_ECEFn           0x18              C:\Users\ajarr\AppData\Local\Temp\ccasxzae.o
inter_HAL_RW_Status_Register
                    0x4               C:\Users\ajarr\AppData\Local\Temp\ccovS4yg.o
Block_Index         0x100             C:\Users\ajarr\AppData\Local\Temp\ccZ3M43h.o
X_EPO2ECI_mag       0x8               C:\Users\ajarr\AppData\Local\Temp\ccasxzae.o
emsq                0x8               C:\Users\ajarr\AppData\Local\Temp\ccasxzae.o
c_DAD               0x8               C:\Users\ajarr\AppData\Local\Temp\ccasxzae.o
Pitch_pos           0x8               C:\Users\ajarr\AppData\Local\Temp\ccEMnW47.o
ST_TC_history_final_Buffer
                    0xfa00            C:\Users\ajarr\AppData\Local\Temp\ccgtKLQ9.o
NEDtoECEF           0x48              C:\Users\ajarr\AppData\Local\Temp\ccasxzae.o
TM_IMU2             0x18              C:\Users\ajarr\AppData\Local\Temp\ccgtKLQ9.o
sine2               0x8               C:\Users\ajarr\AppData\Local\Temp\ccasxzae.o
TB_sMD              0x18              C:\Users\ajarr\AppData\Local\Temp\ccasxzae.o
DB_MagLPF           0x8               C:\Users\ajarr\AppData\Local\Temp\ccasxzae.o
ss_redundant_db_checksum_obc
                    0x4               C:\Users\ajarr\AppData\Local\Temp\ccgtKLQ9.o
GPSDataReady_NA_count
                    0x4               C:\Users\ajarr\AppData\Local\Temp\ccasxzae.o
ecc                 0x8               C:\Users\ajarr\AppData\Local\Temp\ccasxzae.o
ref_cross           0x48              C:\Users\ajarr\AppData\Local\Temp\ccasxzae.o
cosip               0x8               C:\Users\ajarr\AppData\Local\Temp\ccasxzae.o
CB_ErrorComputation
                    0x4               C:\Users\ajarr\AppData\Local\Temp\ccasxzae.o
rw_tm_count         0x4               C:\Users\ajarr\AppData\Local\Temp\ccovS4yg.o
ecc_r               0x8               C:\Users\ajarr\AppData\Local\Temp\ccasxzae.o
Thta_BODY_IMU1      0x18              C:\Users\ajarr\AppData\Local\Temp\ccEMnW47.o
Norm_ST_Table_Row_No
                    0x4               C:\Users\ajarr\AppData\Local\Temp\ccgtKLQ9.o
TC_long_station     0x8               C:\Users\ajarr\AppData\Local\Temp\ccasxzae.o
manual_on_off       0x4               C:\Users\ajarr\AppData\Local\Temp\ccYAcwQn.o
H_wh                0x20              C:\Users\ajarr\AppData\Local\Temp\ccasxzae.o
SS_Data             0x80              C:\Users\ajarr\AppData\Local\Temp\ccEMnW47.o
wh_sdump_start      0x10              C:\Users\ajarr\AppData\Local\Temp\ccasxzae.o
temp_prop           0x8               C:\Users\ajarr\AppData\Local\Temp\ccasxzae.o
Z_SFAO2ECI_mag      0x8               C:\Users\ajarr\AppData\Local\Temp\ccasxzae.o
Tsince_GPS          0x8               C:\Users\ajarr\AppData\Local\Temp\ccasxzae.o
Pitch_Pol           0x4               C:\Users\ajarr\AppData\Local\Temp\ccjmXURG.o
SC2ImaxF            0x8               C:\Users\ajarr\AppData\Local\Temp\ccEMnW47.o
pres_exp_whsp_ch    0x20              C:\Users\ajarr\AppData\Local\Temp\ccasxzae.o
m_gh                0x1               C:\Users\ajarr\AppData\Local\Temp\ccasxzae.o
B_ECItesla          0x18              C:\Users\ajarr\AppData\Local\Temp\ccasxzae.o
Result_of_sine_Delta_cube
                    0x8               C:\Users\ajarr\AppData\Local\Temp\ccasxzae.o
Pse_Inv_Dist_Mat    0x60              C:\Users\ajarr\AppData\Local\Temp\ccasxzae.o
LPFK2LowSL          0x8               C:\Users\ajarr\AppData\Local\Temp\ccasxzae.o
pl_hlt_flag         0x2               C:\Users\ajarr\AppData\Local\Temp\cczbQmCd.o
ux                  0x8               C:\Users\ajarr\AppData\Local\Temp\ccasxzae.o
TC_KP               0x18              C:\Users\ajarr\AppData\Local\Temp\ccasxzae.o
templ               0x8               C:\Users\ajarr\AppData\Local\Temp\ccasxzae.o
GPS_Data            0x4               C:\Users\ajarr\AppData\Local\Temp\cclUyX1f.o
cos_of_W_norm_and_Delta_by2
                    0x8               C:\Users\ajarr\AppData\Local\Temp\ccasxzae.o
Q_StP2ECI           0x20              C:\Users\ajarr\AppData\Local\Temp\ccasxzae.o
phi_11_temp3        0x48              C:\Users\ajarr\AppData\Local\Temp\ccasxzae.o
phi_11_temp2        0x48              C:\Users\ajarr\AppData\Local\Temp\ccasxzae.o
Normal_st_table_page3
                    0x4               C:\Users\ajarr\AppData\Local\Temp\ccgtKLQ9.o
wo                  0x8               C:\Users\ajarr\AppData\Local\Temp\ccasxzae.o
gamma_DAD           0x8               C:\Users\ajarr\AppData\Local\Temp\ccasxzae.o
epochdays_GPS       0x8               C:\Users\ajarr\AppData\Local\Temp\ccasxzae.o
UTC_min_GPS         0x4               C:\Users\ajarr\AppData\Local\Temp\ccasxzae.o
CB_Detumbling_Mode  0x4               C:\Users\ajarr\AppData\Local\Temp\ccasxzae.o
phi_k_pk_plus_phi_k_T
                    0x288             C:\Users\ajarr\AppData\Local\Temp\ccasxzae.o
comb2               0x8               C:\Users\ajarr\AppData\Local\Temp\ccEMnW47.o
imu2_db_checksum_obc
                    0x4               C:\Users\ajarr\AppData\Local\Temp\ccEMnW47.o
Qerror              0x20              C:\Users\ajarr\AppData\Local\Temp\ccasxzae.o
TC_delUT1           0x8               C:\Users\ajarr\AppData\Local\Temp\ccasxzae.o
OBT_at_TLE_uplink   0x4               C:\Users\ajarr\AppData\Local\Temp\ccasxzae.o
MP_Polarity         0x4               C:\Users\ajarr\AppData\Local\Temp\ccasxzae.o
argpo               0x8               C:\Users\ajarr\AppData\Local\Temp\ccasxzae.o
am_den              0x8               C:\Users\ajarr\AppData\Local\Temp\ccasxzae.o
Nodeptr             0xfa0             C:\Users\ajarr\AppData\Local\Temp\ccZ3M43h.o
mat_mult            0x48              C:\Users\ajarr\AppData\Local\Temp\ccasxzae.o
delm                0x8               C:\Users\ajarr\AppData\Local\Temp\ccasxzae.o
RW_Write_Data       0x14              C:\Users\ajarr\AppData\Local\Temp\ccovS4yg.o
Tdefnorm            0x8               C:\Users\ajarr\AppData\Local\Temp\ccasxzae.o
GPS_RCVD_DATA       0x1a8             C:\Users\ajarr\AppData\Local\Temp\cclUyX1f.o
WhMom0              0x20              C:\Users\ajarr\AppData\Local\Temp\ccasxzae.o
Pos_ECIn            0x18              C:\Users\ajarr\AppData\Local\Temp\ccasxzae.o
cc1sq               0x8               C:\Users\ajarr\AppData\Local\Temp\ccasxzae.o
TC_wAD_BODYmaxThRoll
                    0x8               C:\Users\ajarr\AppData\Local\Temp\ccasxzae.o
TC_wAD_BODYminThPitch
                    0x8               C:\Users\ajarr\AppData\Local\Temp\ccasxzae.o
I_MAGAD             0x4               C:\Users\ajarr\AppData\Local\Temp\ccasxzae.o
ecc_temp5           0x8               C:\Users\ajarr\AppData\Local\Temp\ccasxzae.o
Special_st_table_page2
                    0x4               C:\Users\ajarr\AppData\Local\Temp\ccgtKLQ9.o
jd_time             0x8               C:\Users\ajarr\AppData\Local\Temp\ccasxzae.o
ecco                0x8               C:\Users\ajarr\AppData\Local\Temp\ccasxzae.o
vsaty_eci           0x8               C:\Users\ajarr\AppData\Local\Temp\ccasxzae.o
aaaa                0x4               C:\Users\ajarr\AppData\Local\Temp\ccgtKLQ9.o
eeprom_flag         0x1               C:\Users\ajarr\AppData\Local\Temp\ccgtKLQ9.o
xlcof               0x8               C:\Users\ajarr\AppData\Local\Temp\ccasxzae.o
K_temp              0x48              C:\Users\ajarr\AppData\Local\Temp\ccasxzae.o
inter_Update_TM_With_ADC_offset
                    0x4               C:\Users\ajarr\AppData\Local\Temp\cclXIhGd.o
h                   0x780             C:\Users\ajarr\AppData\Local\Temp\ccasxzae.o
gps_obt_counter     0x4               C:\Users\ajarr\AppData\Local\Temp\cclUyX1f.o
NMS_NRSt            0x48              C:\Users\ajarr\AppData\Local\Temp\ccasxzae.o
IMU_Config_Done     0x4               C:\Users\ajarr\AppData\Local\Temp\ccEMnW47.o
latitude            0x8               C:\Users\ajarr\AppData\Local\Temp\ccasxzae.o
TC_buffer_count     0x4b0             C:\Users\ajarr\AppData\Local\Temp\ccZ3M43h.o
Absolutetime        0x4               C:\Users\ajarr\AppData\Local\Temp\ccZ3M43h.o
addr_pointer_TM     0x4               C:\Users\ajarr\AppData\Local\Temp\ccgtKLQ9.o
TC_Det_Bprev_Count  0x4               C:\Users\ajarr\AppData\Local\Temp\ccasxzae.o
pl_acq_flag         0x4               C:\Users\ajarr\AppData\Local\Temp\cczbQmCd.o
GPS_TM_Buffer_Addr_USC
                    0x4               C:\Users\ajarr\AppData\Local\Temp\cclUyX1f.o
Vel_ECEF_temp       0x18              C:\Users\ajarr\AppData\Local\Temp\ccasxzae.o
count_arc_w2        0x4               C:\Users\ajarr\AppData\Local\Temp\ccasxzae.o
Y_EPO2ECI_mag       0x8               C:\Users\ajarr\AppData\Local\Temp\ccasxzae.o
cd_magad            0x8               C:\Users\ajarr\AppData\Local\Temp\ccasxzae.o
imu1_db_checksum_obc
                    0x4               C:\Users\ajarr\AppData\Local\Temp\ccEMnW47.o
latitude_GPS        0x8               C:\Users\ajarr\AppData\Local\Temp\ccasxzae.o
del_v0              0x20              C:\Users\ajarr\AppData\Local\Temp\ccasxzae.o
RW_ARC_Count        0x4               C:\Users\ajarr\AppData\Local\Temp\ccasxzae.o
RW_TM               0x200             C:\Users\ajarr\AppData\Local\Temp\ccovS4yg.o
TC_AutoTransitAnyMode2Det
                    0x4               C:\Users\ajarr\AppData\Local\Temp\ccasxzae.o
DFCTorq             0x20              C:\Users\ajarr\AppData\Local\Temp\ccasxzae.o
Spec_ST_Table       0x2028            C:\Users\ajarr\AppData\Local\Temp\ccgtKLQ9.o
sinim               0x8               C:\Users\ajarr\AppData\Local\Temp\ccasxzae.o
var                 0x8               C:\Users\ajarr\AppData\Local\Temp\ccasxzae.o
qk_minus            0x20              C:\Users\ajarr\AppData\Local\Temp\ccasxzae.o
Q_REF_prev_conj     0x20              C:\Users\ajarr\AppData\Local\Temp\ccasxzae.o
cosu                0x8               C:\Users\ajarr\AppData\Local\Temp\ccasxzae.o
BDOTNormCount       0x4               C:\Users\ajarr\AppData\Local\Temp\ccasxzae.o
BDOT_Norm_Count     0x4               C:\Users\ajarr\AppData\Local\Temp\ccasxzae.o
Susp_cnt            0x4               C:\Users\ajarr\AppData\Local\Temp\ccasxzae.o
Buffer              0x8b9             C:\Users\ajarr\AppData\Local\Temp\ccgtKLQ9.o
Out_Latch_3         0x2               C:\Users\ajarr\AppData\Local\Temp\ccgtKLQ9.o
SS_Main_DB          0x284             C:\Users\ajarr\AppData\Local\Temp\ccgtKLQ9.o
ao_sfour            0x8               C:\Users\ajarr\AppData\Local\Temp\ccasxzae.o
precession          0x48              C:\Users\ajarr\AppData\Local\Temp\ccasxzae.o
Z_SFAO2ECI          0x18              C:\Users\ajarr\AppData\Local\Temp\ccasxzae.o
S_sqr_DAD           0x48              C:\Users\ajarr\AppData\Local\Temp\ccasxzae.o
nodeo               0x8               C:\Users\ajarr\AppData\Local\Temp\ccasxzae.o
R_StP2ECI           0x48              C:\Users\ajarr\AppData\Local\Temp\ccasxzae.o
inter_HAL_RW_Read_Addr
                    0x4               C:\Users\ajarr\AppData\Local\Temp\ccovS4yg.o
theta1              0x8               C:\Users\ajarr\AppData\Local\Temp\ccasxzae.o
sun_noise           0x8               C:\Users\ajarr\AppData\Local\Temp\ccasxzae.o
TC_Hmin             0x8               C:\Users\ajarr\AppData\Local\Temp\ccasxzae.o
TC_magMin_angle     0x8               C:\Users\ajarr\AppData\Local\Temp\ccasxzae.o
IMU_Data_Available  0x4               C:\Users\ajarr\AppData\Local\Temp\ccEMnW47.o
ecc_sel             0x8               C:\Users\ajarr\AppData\Local\Temp\ccasxzae.o
n_gh                0x1               C:\Users\ajarr\AppData\Local\Temp\ccasxzae.o
ecc_temp7           0x8               C:\Users\ajarr\AppData\Local\Temp\ccasxzae.o
etempe              0x8               C:\Users\ajarr\AppData\Local\Temp\ccasxzae.o
Dest_end_addr       0x4               C:\Users\ajarr\AppData\Local\Temp\ccgtKLQ9.o
A1_magad            0x8               C:\Users\ajarr\AppData\Local\Temp\ccasxzae.o
R_SPO2ECI           0x48              C:\Users\ajarr\AppData\Local\Temp\ccasxzae.o
xsatx_eci           0x8               C:\Users\ajarr\AppData\Local\Temp\ccasxzae.o
no_GPS              0x8               C:\Users\ajarr\AppData\Local\Temp\ccasxzae.o
Yk_minus_hk         0x18              C:\Users\ajarr\AppData\Local\Temp\ccasxzae.o
__bcc_isr_list      0x80              c:/opt/bcc-2.0.2-gcc/bin/../sparc-gaisler-elf/bsp/leon2/leon/mfix-at697f\libbcc.a(isr.c.o)
TDT                 0x8               C:\Users\ajarr\AppData\Local\Temp\ccasxzae.o
test_gps_conf5      0x4               C:\Users\ajarr\AppData\Local\Temp\cclUyX1f.o
w_BODY_IMU1         0x18              C:\Users\ajarr\AppData\Local\Temp\ccEMnW47.o
B_ABC               0x18              C:\Users\ajarr\AppData\Local\Temp\ccEMnW47.o
qk_DCM              0x48              C:\Users\ajarr\AppData\Local\Temp\ccasxzae.o
TMC_ptr             0x4               C:\Users\ajarr\AppData\Local\Temp\ccovS4yg.o
mat_mag_DataCounter
                    0x4               C:\Users\ajarr\AppData\Local\Temp\ccasxzae.o
argpo_sel           0x8               C:\Users\ajarr\AppData\Local\Temp\ccasxzae.o
dak                 0x4               C:\Users\ajarr\AppData\Local\Temp\ccovS4yg.o
SunNPP_SMtransit_counter
                    0x4               C:\Users\ajarr\AppData\Local\Temp\ccEMnW47.o
psetasq             0x8               C:\Users\ajarr\AppData\Local\Temp\ccasxzae.o
f_battery_safemode  0x4               C:\Users\ajarr\AppData\Local\Temp\ccasxzae.o
Pos_ECI             0x18              C:\Users\ajarr\AppData\Local\Temp\ccasxzae.o
e_vecdtr            0x8               C:\Users\ajarr\AppData\Local\Temp\ccasxzae.o
nodeo_TLE_tc        0x8               C:\Users\ajarr\AppData\Local\Temp\ccasxzae.o
inter_HAL_IMU_Status_Data
                    0x4               C:\Users\ajarr\AppData\Local\Temp\ccEMnW47.o
pl_diag_flag        0x4               C:\Users\ajarr\AppData\Local\Temp\cczbQmCd.o
L_Ecliptic          0x8               C:\Users\ajarr\AppData\Local\Temp\ccasxzae.o
trueanomoly_TLE_tc  0x8               C:\Users\ajarr\AppData\Local\Temp\ccasxzae.o
w_q_update_satisfy  0x4               C:\Users\ajarr\AppData\Local\Temp\ccasxzae.o
rteosq              0x8               C:\Users\ajarr\AppData\Local\Temp\ccasxzae.o
lmonth              0x34              C:\Users\ajarr\AppData\Local\Temp\ccasxzae.o
R_SFDO2ECI          0x48              C:\Users\ajarr\AppData\Local\Temp\ccasxzae.o
UTC_sec_GPS         0x8               C:\Users\ajarr\AppData\Local\Temp\ccasxzae.o
M_quad              0x8               C:\Users\ajarr\AppData\Local\Temp\ccasxzae.o
ss2b                0x48              C:\Users\ajarr\AppData\Local\Temp\ccEMnW47.o
GPS_msg_header_LSB  0x4               C:\Users\ajarr\AppData\Local\Temp\cclUyX1f.o
speedDFCch          0x8               C:\Users\ajarr\AppData\Local\Temp\ccasxzae.o
dc_qst              0x4               C:\Users\ajarr\AppData\Local\Temp\ccasxzae.o
IMU_1_DB            0x144             C:\Users\ajarr\AppData\Local\Temp\ccgtKLQ9.o
inter_HAL_RW_Read_Limit
                    0x4               C:\Users\ajarr\AppData\Local\Temp\ccovS4yg.o
cc1                 0x8               C:\Users\ajarr\AppData\Local\Temp\ccasxzae.o
X_SVO2ECI           0x18              C:\Users\ajarr\AppData\Local\Temp\ccasxzae.o
tut1                0x8               C:\Users\ajarr\AppData\Local\Temp\ccasxzae.o
Tdeficit_temp2      0x18              C:\Users\ajarr\AppData\Local\Temp\ccasxzae.o
GPS2                0x40              C:\Users\ajarr\AppData\Local\Temp\ccgtKLQ9.o
Delta_T             0x8               C:\Users\ajarr\AppData\Local\Temp\ccasxzae.o
PL_ACK              0x2               C:\Users\ajarr\AppData\Local\Temp\cczbQmCd.o
GPS_Addr_Count      0x4               C:\Users\ajarr\AppData\Local\Temp\cclUyX1f.o
Kk_Hk_with_minus_one
                    0x288             C:\Users\ajarr\AppData\Local\Temp\ccasxzae.o
commandptr          0x4               C:\Users\ajarr\AppData\Local\Temp\ccZ3M43h.o
Bsq                 0x8               C:\Users\ajarr\AppData\Local\Temp\ccEMnW47.o
BDown               0x8               C:\Users\ajarr\AppData\Local\Temp\ccasxzae.o
dumping_on          0x4               C:\Users\ajarr\AppData\Local\Temp\ccasxzae.o
wAD_updatecount     0x4               C:\Users\ajarr\AppData\Local\Temp\ccasxzae.o
IO_In_Latch_Register_4_Data
                    0x4               C:\Users\ajarr\AppData\Local\Temp\ccgtKLQ9.o
polarmotion         0x48              C:\Users\ajarr\AppData\Local\Temp\ccasxzae.o
IO_Latch_Register_3_Data
                    0x4               C:\Users\ajarr\AppData\Local\Temp\ccgtKLQ9.o
inter_HAL_Antenna_Addr
                    0x4               C:\Users\ajarr\AppData\Local\Temp\ccduqfO0.o
posq                0x8               C:\Users\ajarr\AppData\Local\Temp\ccasxzae.o
X_SFDO2ECI          0x18              C:\Users\ajarr\AppData\Local\Temp\ccasxzae.o
IMU_prcd_data_ptr   0x4               C:\Users\ajarr\AppData\Local\Temp\ccEMnW47.o
TC_AngMomDump_Thrsld
                    0x8               C:\Users\ajarr\AppData\Local\Temp\ccasxzae.o
TM_IMU1             0x18              C:\Users\ajarr\AppData\Local\Temp\ccgtKLQ9.o
t3cof               0x8               C:\Users\ajarr\AppData\Local\Temp\ccasxzae.o
FDI_NMI_Count       0x1               C:\Users\ajarr\AppData\Local\Temp\ccgtKLQ9.o
real_tm_finish      0x4               C:\Users\ajarr\AppData\Local\Temp\ccnGtmfO.o
ThreeAxis2DetMode_counter
                    0x4               C:\Users\ajarr\AppData\Local\Temp\ccasxzae.o
co_dec              0x8               C:\Users\ajarr\AppData\Local\Temp\ccasxzae.o
RW_Buffer_u         0x200             C:\Users\ajarr\AppData\Local\Temp\ccovS4yg.o
IMU_1               0x10              C:\Users\ajarr\AppData\Local\Temp\ccEMnW47.o
Roll_MTREnable      0x4               C:\Users\ajarr\AppData\Local\Temp\ccasxzae.o
k_comr              0x4               C:\Users\ajarr\AppData\Local\Temp\ccasxzae.o
STATION_ECI         0x18              C:\Users\ajarr\AppData\Local\Temp\ccasxzae.o
Normal_st_table_page2
                    0x4               C:\Users\ajarr\AppData\Local\Temp\ccgtKLQ9.o
GPS_OBT_Latch_enable
                    0x2               C:\Users\ajarr\AppData\Local\Temp\cclUyX1f.o
MUX_2               0x2               C:\Users\ajarr\AppData\Local\Temp\ccgtKLQ9.o
eps                 0x8               C:\Users\ajarr\AppData\Local\Temp\ccasxzae.o
Y_SPO2ECI_mag       0x8               C:\Users\ajarr\AppData\Local\Temp\ccasxzae.o
write_str_ptr       0x4               C:\Users\ajarr\AppData\Local\Temp\ccgtKLQ9.o
B_ECIn              0x18              C:\Users\ajarr\AppData\Local\Temp\ccasxzae.o
vsatz_eci           0x8               C:\Users\ajarr\AppData\Local\Temp\ccasxzae.o
mod_of_Wk1_cube     0x8               C:\Users\ajarr\AppData\Local\Temp\ccasxzae.o
Yaw_pos             0x8               C:\Users\ajarr\AppData\Local\Temp\ccEMnW47.o
sin2u               0x8               C:\Users\ajarr\AppData\Local\Temp\ccasxzae.o
RW_Measured         0x10              C:\Users\ajarr\AppData\Local\Temp\ccovS4yg.o
inter_imu_j         0x4               C:\Users\ajarr\AppData\Local\Temp\ccEMnW47.o
data_nc             0x4               C:\Users\ajarr\AppData\Local\Temp\cczbQmCd.o
TC_flag             0x4               C:\Users\ajarr\AppData\Local\Temp\ccZ3M43h.o
pl_sts_chk_flag     0x4               C:\Users\ajarr\AppData\Local\Temp\cczbQmCd.o
TC_boolean_u        0x3f              C:\Users\ajarr\AppData\Local\Temp\ccgtKLQ9.o
velmag              0x8               C:\Users\ajarr\AppData\Local\Temp\ccasxzae.o
A2_magad            0x8               C:\Users\ajarr\AppData\Local\Temp\ccasxzae.o
pl_i                0x4               C:\Users\ajarr\AppData\Local\Temp\cczbQmCd.o
TC_Buffer_Addr      0x4               C:\Users\ajarr\AppData\Local\Temp\ccZ3M43h.o
sl_magad            0x70              C:\Users\ajarr\AppData\Local\Temp\ccasxzae.o
Result_of_sine_Delta
                    0x8               C:\Users\ajarr\AppData\Local\Temp\ccasxzae.o
Dfunc_DAD           0x8               C:\Users\ajarr\AppData\Local\Temp\ccasxzae.o
cosio4              0x8               C:\Users\ajarr\AppData\Local\Temp\ccasxzae.o
flag_mni            0x4               C:\Users\ajarr\AppData\Local\Temp\ccZ3M43h.o
ST_source_Buffer    0x100             C:\Users\ajarr\AppData\Local\Temp\ccgtKLQ9.o
TM_page_count       0x4               C:\Users\ajarr\AppData\Local\Temp\ccgtKLQ9.o
temp_om             0x8               C:\Users\ajarr\AppData\Local\Temp\ccasxzae.o
data_x_tx           0x4               C:\Users\ajarr\AppData\Local\Temp\cczbQmCd.o
Pos_ECEF_GPS        0x18              C:\Users\ajarr\AppData\Local\Temp\ccasxzae.o
min_TW              0x8               C:\Users\ajarr\AppData\Local\Temp\ccasxzae.o
w_ASC               0x18              C:\Users\ajarr\AppData\Local\Temp\ccEMnW47.o
LTP_data            0x2               C:\Users\ajarr\AppData\Local\Temp\ccYAcwQn.o
Zt_S_Z_DAD          0x8               C:\Users\ajarr\AppData\Local\Temp\ccasxzae.o
deps                0x8               C:\Users\ajarr\AppData\Local\Temp\ccasxzae.o
Ndte_vec            0x8               C:\Users\ajarr\AppData\Local\Temp\ccasxzae.o
TC_command_pending  0x2               C:\Users\ajarr\AppData\Local\Temp\ccZ3M43h.o
CB_Wheel_OverSpeed_TorqueCutOff
                    0x4               C:\Users\ajarr\AppData\Local\Temp\ccasxzae.o
test_gps_conf2      0x4               C:\Users\ajarr\AppData\Local\Temp\cclUyX1f.o
W_norm              0x8               C:\Users\ajarr\AppData\Local\Temp\ccasxzae.o
Det_BDOT_MC_Count   0x4               C:\Users\ajarr\AppData\Local\Temp\ccEMnW47.o
TC_KalmanFilter_ENABLE
                    0x4               C:\Users\ajarr\AppData\Local\Temp\ccasxzae.o
xmx                 0x8               C:\Users\ajarr\AppData\Local\Temp\ccasxzae.o
Q_quest_DAD         0x20              C:\Users\ajarr\AppData\Local\Temp\ccasxzae.o
DFCGainHigh         0x8               C:\Users\ajarr\AppData\Local\Temp\ccasxzae.o
Torquer_Shutdown    0x4               C:\Users\ajarr\AppData\Local\Temp\ccasxzae.o
nodeo_sel           0x8               C:\Users\ajarr\AppData\Local\Temp\ccasxzae.o
qk_plus             0x20              C:\Users\ajarr\AppData\Local\Temp\ccasxzae.o
magRoll_angle       0x8               C:\Users\ajarr\AppData\Local\Temp\ccasxzae.o
sigma_v             0x8               C:\Users\ajarr\AppData\Local\Temp\ccasxzae.o
inter_HAL_IMU_Addr_Count
                    0x4               C:\Users\ajarr\AppData\Local\Temp\ccEMnW47.o
f_GPS_Valid_Data    0x4               C:\Users\ajarr\AppData\Local\Temp\cclUyX1f.o
j_comr              0x4               C:\Users\ajarr\AppData\Local\Temp\ccasxzae.o
SS_M2               0x8               C:\Users\ajarr\AppData\Local\Temp\ccasxzae.o
sin_of_W_norm_and_Delta_by2
                    0x8               C:\Users\ajarr\AppData\Local\Temp\ccasxzae.o
ibexp               0x8               C:\Users\ajarr\AppData\Local\Temp\ccasxzae.o
GYRO_Threshold_Count
                    0x4               C:\Users\ajarr\AppData\Local\Temp\ccasxzae.o
inter_PL_TM_Dest_Addr
                    0x4               C:\Users\ajarr\AppData\Local\Temp\cczbQmCd.o
MY_Polarity         0x4               C:\Users\ajarr\AppData\Local\Temp\ccasxzae.o
inclination_TLE_tc  0x8               C:\Users\ajarr\AppData\Local\Temp\ccasxzae.o
PosY_ECEF_GPS       0x8               C:\Users\ajarr\AppData\Local\Temp\ccasxzae.o
heaters_auto        0x4               C:\Users\ajarr\AppData\Local\Temp\ccYAcwQn.o
Roll_ang_err        0x8               C:\Users\ajarr\AppData\Local\Temp\ccEMnW47.o
heaters_manual      0x4               C:\Users\ajarr\AppData\Local\Temp\ccgtKLQ9.o
Yaw_Pol             0x4               C:\Users\ajarr\AppData\Local\Temp\ccjmXURG.o
CB_BDOT_Computation
                    0x4               C:\Users\ajarr\AppData\Local\Temp\ccasxzae.o
Qbody               0x20              C:\Users\ajarr\AppData\Local\Temp\ccasxzae.o
S_BODYn             0x18              C:\Users\ajarr\AppData\Local\Temp\ccEMnW47.o
eSuspendedMode      0x4               C:\Users\ajarr\AppData\Local\Temp\ccasxzae.o
i_lict              0x4               C:\Users\ajarr\AppData\Local\Temp\ccasxzae.o
IMU_prcd_data       0x30              C:\Users\ajarr\AppData\Local\Temp\ccEMnW47.o
delta_DAD           0x8               C:\Users\ajarr\AppData\Local\Temp\ccasxzae.o
temp3               0x8               C:\Users\ajarr\AppData\Local\Temp\ccasxzae.o
B_Tef_ANG           0x8               C:\Users\ajarr\AppData\Local\Temp\ccasxzae.o
X_SPO2ECI           0x18              C:\Users\ajarr\AppData\Local\Temp\ccasxzae.o
sine_of_Wk1_Delta_by_Wk1
                    0x8               C:\Users\ajarr\AppData\Local\Temp\ccasxzae.o
ADC_Addr_Count      0x4               C:\Users\ajarr\AppData\Local\Temp\cclXIhGd.o
PosX_ECEF_GPS       0x8               C:\Users\ajarr\AppData\Local\Temp\ccasxzae.o
TC_hist_write_ptr   0x4               C:\Users\ajarr\AppData\Local\Temp\ccZ3M43h.o
SS_M7               0x8               C:\Users\ajarr\AppData\Local\Temp\ccasxzae.o
i_tc_test           0x4               C:\Users\ajarr\AppData\Local\Temp\ccEMnW47.o
SS_M6               0x8               C:\Users\ajarr\AppData\Local\Temp\ccasxzae.o
temp_data_2         0x2               C:\Users\ajarr\AppData\Local\Temp\cczbQmCd.o
Q_axis              0x18              C:\Users\ajarr\AppData\Local\Temp\ccasxzae.o
Wheel_Config        0x4               C:\Users\ajarr\AppData\Local\Temp\ccasxzae.o
psisq               0x8               C:\Users\ajarr\AppData\Local\Temp\ccasxzae.o
N_MAGAD             0x4               C:\Users\ajarr\AppData\Local\Temp\ccasxzae.o
argpm               0x8               C:\Users\ajarr\AppData\Local\Temp\ccasxzae.o
tm_ds_en_flag       0x4               C:\Users\ajarr\AppData\Local\Temp\cczbQmCd.o
Remote_data_addr    0x4               C:\Users\ajarr\AppData\Local\Temp\ccgtKLQ9.o
mp                  0x8               C:\Users\ajarr\AppData\Local\Temp\ccasxzae.o
am                  0x8               C:\Users\ajarr\AppData\Local\Temp\ccasxzae.o
Remote_data         0x4               C:\Users\ajarr\AppData\Local\Temp\ccZ3M43h.o
UTP_data            0x2               C:\Users\ajarr\AppData\Local\Temp\ccYAcwQn.o
TC_comd_pitch_rate  0x8               C:\Users\ajarr\AppData\Local\Temp\ccasxzae.o
TorquerDutyCycle    0x18              C:\Users\ajarr\AppData\Local\Temp\ccasxzae.o
test_gps_conf3      0x4               C:\Users\ajarr\AppData\Local\Temp\cclUyX1f.o
bbb                 0x2               C:\Users\ajarr\AppData\Local\Temp\ccgtKLQ9.o
All_Deployed        0x4               C:\Users\ajarr\AppData\Local\Temp\ccasxzae.o
Special_st_table_page1
                    0x4               C:\Users\ajarr\AppData\Local\Temp\ccgtKLQ9.o
xl                  0x8               C:\Users\ajarr\AppData\Local\Temp\ccasxzae.o
dayofyr             0x4               C:\Users\ajarr\AppData\Local\Temp\ccasxzae.o
pl_tm_ptr           0x4               C:\Users\ajarr\AppData\Local\Temp\cczbQmCd.o
rw_data             0x2               C:\Users\ajarr\AppData\Local\Temp\ccEMnW47.o
eta                 0x8               C:\Users\ajarr\AppData\Local\Temp\ccasxzae.o
w_BODY              0x18              C:\Users\ajarr\AppData\Local\Temp\ccEMnW47.o
NOB_CRC_TMC         0x4               C:\Users\ajarr\AppData\Local\Temp\ccovS4yg.o
ibexp_tc            0x8               C:\Users\ajarr\AppData\Local\Temp\ccasxzae.o
SunNPP_SMtransit_count_limit
                    0x4               C:\Users\ajarr\AppData\Local\Temp\ccEMnW47.o
tempdata1           0x1               C:\Users\ajarr\AppData\Local\Temp\ccEMnW47.o
TC_BDOT_Norm_Threshold
                    0x8               C:\Users\ajarr\AppData\Local\Temp\ccasxzae.o
CB_IMUDataProcessing
                    0x4               C:\Users\ajarr\AppData\Local\Temp\ccasxzae.o
nodep               0x8               C:\Users\ajarr\AppData\Local\Temp\ccasxzae.o
NMI_fail_count      0x1               C:\Users\ajarr\AppData\Local\Temp\ccgtKLQ9.o
inter_TM_real_Minor_Cycle_Count
                    0x4               C:\Users\ajarr\AppData\Local\Temp\ccgtKLQ9.o
Vel_ECI_temp        0x18              C:\Users\ajarr\AppData\Local\Temp\ccasxzae.o
inter_ST_TM_Minor_Cycle_Count
                    0x4               C:\Users\ajarr\AppData\Local\Temp\ccgtKLQ9.o
GPS_Locations       0x4               C:\Users\ajarr\AppData\Local\Temp\cclUyX1f.o
omeosq              0x8               C:\Users\ajarr\AppData\Local\Temp\ccasxzae.o
Matout431           0x20              C:\Users\ajarr\AppData\Local\Temp\ccasxzae.o
R_EPO2ECI           0x48              C:\Users\ajarr\AppData\Local\Temp\ccasxzae.o
majorcyclecount     0x4               C:\Users\ajarr\AppData\Local\Temp\ccasxzae.o
i_GPS_B_Count       0x4               C:\Users\ajarr\AppData\Local\Temp\cclUyX1f.o
inter_TM_Minor_Cycle_Count
                    0x4               C:\Users\ajarr\AppData\Local\Temp\ccgtKLQ9.o
phi_12              0x48              C:\Users\ajarr\AppData\Local\Temp\ccasxzae.o
Alti                0x8               C:\Users\ajarr\AppData\Local\Temp\ccasxzae.o
MR_Polarity         0x4               C:\Users\ajarr\AppData\Local\Temp\ccasxzae.o
temp_jday           0x8               C:\Users\ajarr\AppData\Local\Temp\ccasxzae.o
NOB_SFC_TMC         0x4               C:\Users\ajarr\AppData\Local\Temp\ccovS4yg.o
Del_Y_theta         0x8               C:\Users\ajarr\AppData\Local\Temp\ccasxzae.o
RWS                 0x10              C:\Users\ajarr\AppData\Local\Temp\ccovS4yg.o
pk                  0x288             C:\Users\ajarr\AppData\Local\Temp\ccasxzae.o
USIF_u              0x4               C:\Users\ajarr\AppData\Local\Temp\ccovS4yg.o
Pitch_neg           0x8               C:\Users\ajarr\AppData\Local\Temp\ccEMnW47.o
longitude_tan_num   0x8               C:\Users\ajarr\AppData\Local\Temp\ccasxzae.o
input_latch_1       0x2               C:\Users\ajarr\AppData\Local\Temp\ccgtKLQ9.o
DFCCount            0x10              C:\Users\ajarr\AppData\Local\Temp\ccasxzae.o
cos_of_Wk1_Delta_by_Wk1_square
                    0x8               C:\Users\ajarr\AppData\Local\Temp\ccasxzae.o
ADC_Data            0x4               C:\Users\ajarr\AppData\Local\Temp\cclXIhGd.o
IMU_2               0x10              C:\Users\ajarr\AppData\Local\Temp\ccEMnW47.o
Julian_day          0x8               C:\Users\ajarr\AppData\Local\Temp\ccasxzae.o
SS_M3               0x8               C:\Users\ajarr\AppData\Local\Temp\ccasxzae.o
GPS_Select          0x4               C:\Users\ajarr\AppData\Local\Temp\ccasxzae.o
Trwa_mt_comp        0x18              C:\Users\ajarr\AppData\Local\Temp\ccasxzae.o
ak_temp             0x8               C:\Users\ajarr\AppData\Local\Temp\ccasxzae.o
BDOT_deltaT         0x8               C:\Users\ajarr\AppData\Local\Temp\ccasxzae.o
sinsu               0x8               C:\Users\ajarr\AppData\Local\Temp\ccasxzae.o
zeta                0x8               C:\Users\ajarr\AppData\Local\Temp\ccasxzae.o
IMU_2_DB            0x144             C:\Users\ajarr\AppData\Local\Temp\ccgtKLQ9.o
velmagsq            0x8               C:\Users\ajarr\AppData\Local\Temp\ccasxzae.o
CB_Sl_Ecl_OnBrd_detection
                    0x4               C:\Users\ajarr\AppData\Local\Temp\ccasxzae.o
nodedot             0x8               C:\Users\ajarr\AppData\Local\Temp\ccasxzae.o
e_vec               0x18              C:\Users\ajarr\AppData\Local\Temp\ccasxzae.o
TM_Table_Row_No     0x4               C:\Users\ajarr\AppData\Local\Temp\ccgtKLQ9.o
wheel_index_ARCsum  0x4               C:\Users\ajarr\AppData\Local\Temp\ccasxzae.o
RWSpeed             0x20              C:\Users\ajarr\AppData\Local\Temp\ccasxzae.o
TCH_cpy_ptr         0x4               C:\Users\ajarr\AppData\Local\Temp\ccgtKLQ9.o
sin_of_W_norm_Delta_by2_and_W_norm
                    0x8               C:\Users\ajarr\AppData\Local\Temp\ccasxzae.o
S_REF               0x18              C:\Users\ajarr\AppData\Local\Temp\ccasxzae.o
Xk                  0x48              C:\Users\ajarr\AppData\Local\Temp\ccasxzae.o
RAAN                0x8               C:\Users\ajarr\AppData\Local\Temp\ccasxzae.o
NegR_Deployed       0x4               C:\Users\ajarr\AppData\Local\Temp\ccasxzae.o
Zt_Z_DAD            0x8               C:\Users\ajarr\AppData\Local\Temp\ccasxzae.o
w_BODY_IMU2         0x18              C:\Users\ajarr\AppData\Local\Temp\ccEMnW47.o
nm_temp             0x8               C:\Users\ajarr\AppData\Local\Temp\ccasxzae.o
Vel_ECEF            0x18              C:\Users\ajarr\AppData\Local\Temp\ccasxzae.o
REF_FRAME_DCM       0x48              C:\Users\ajarr\AppData\Local\Temp\ccasxzae.o
sfour               0x8               C:\Users\ajarr\AppData\Local\Temp\ccasxzae.o
angmomentumvecmag   0x8               C:\Users\ajarr\AppData\Local\Temp\ccasxzae.o
Invmatout33         0x48              C:\Users\ajarr\AppData\Local\Temp\ccasxzae.o
Telecommand_ptr     0x4               C:\Users\ajarr\AppData\Local\Temp\ccZ3M43h.o
Matout441           0x20              C:\Users\ajarr\AppData\Local\Temp\ccasxzae.o
gmst0               0x8               C:\Users\ajarr\AppData\Local\Temp\ccasxzae.o
IO_Latch_Register_2_Data
                    0x4               C:\Users\ajarr\AppData\Local\Temp\ccgtKLQ9.o
atp                 0x4               C:\Users\ajarr\AppData\Local\Temp\ccEMnW47.o
argpdot             0x8               C:\Users\ajarr\AppData\Local\Temp\ccasxzae.o
cose                0x8               C:\Users\ajarr\AppData\Local\Temp\ccasxzae.o
DPM                 0x18              C:\Users\ajarr\AppData\Local\Temp\ccasxzae.o
TC_SpeedDumpLimit   0x8               C:\Users\ajarr\AppData\Local\Temp\ccasxzae.o
d3                  0x8               C:\Users\ajarr\AppData\Local\Temp\ccasxzae.o
SC4                 0x8               C:\Users\ajarr\AppData\Local\Temp\ccEMnW47.o
ccc                 0x2               C:\Users\ajarr\AppData\Local\Temp\ccgtKLQ9.o
t4cof               0x8               C:\Users\ajarr\AppData\Local\Temp\ccasxzae.o
TCH_start_buffer_ready
                    0x1               C:\Users\ajarr\AppData\Local\Temp\ccgtKLQ9.o
rdtv                0x8               C:\Users\ajarr\AppData\Local\Temp\ccasxzae.o
semimajoraxis_GPS   0x8               C:\Users\ajarr\AppData\Local\Temp\ccasxzae.o
JDTDB               0x8               C:\Users\ajarr\AppData\Local\Temp\ccasxzae.o
r1                  0x8               C:\Users\ajarr\AppData\Local\Temp\ccasxzae.o
phi_12_temp2        0x48              C:\Users\ajarr\AppData\Local\Temp\ccasxzae.o
RW_1                0x10              C:\Users\ajarr\AppData\Local\Temp\ccovS4yg.o
SS_Main_2Exe_DB     0x284             C:\Users\ajarr\AppData\Local\Temp\ccgtKLQ9.o
X_SFAO2ECI_mag      0x8               C:\Users\ajarr\AppData\Local\Temp\ccasxzae.o
TC_Rcvd             0x1               C:\Users\ajarr\AppData\Local\Temp\ccZ3M43h.o
UTC_day_GPS         0x4               C:\Users\ajarr\AppData\Local\Temp\ccasxzae.o
i_rfc               0x4               C:\Users\ajarr\AppData\Local\Temp\ccasxzae.o
CB_SunSensorDataProcessing
                    0x4               C:\Users\ajarr\AppData\Local\Temp\ccasxzae.o
TC_cmd_executed_count
                    0x4               C:\Users\ajarr\AppData\Local\Temp\ccZ3M43h.o

Memory Configuration

Name             Origin             Length             Attributes
rom              0x0000000000000000 0x0000000020000000
ram              0x0000000040000000 0x0000000040000000
*default*        0x0000000000000000 0xffffffffffffffff

Linker script and memory map

LOAD c:/opt/bcc-2.0.2-gcc/bin/../sparc-gaisler-elf/bsp/leon2/leon/mfix-at697f/trap_table_mvt.S.o
LOAD c:/opt/bcc-2.0.2-gcc/bin/../sparc-gaisler-elf/bsp/leon2/leon/mfix-at697f/crt0.S.o
LOAD c:/opt/bcc-2.0.2-gcc/bin/../lib/gcc/sparc-gaisler-elf/7.2.0/leon/mfix-at697f/crti.o
LOAD c:/opt/bcc-2.0.2-gcc/bin/../lib/gcc/sparc-gaisler-elf/7.2.0/leon/mfix-at697f/crtbegin.o
LOAD C:\Users\ajarr\AppData\Local\Temp\ccgtKLQ9.o
LOAD C:\Users\ajarr\AppData\Local\Temp\ccZ3M43h.o
LOAD C:\Users\ajarr\AppData\Local\Temp\ccnGtmfO.o
LOAD C:\Users\ajarr\AppData\Local\Temp\ccEMnW47.o
LOAD C:\Users\ajarr\AppData\Local\Temp\cc3Yg1qw.o
LOAD C:\Users\ajarr\AppData\Local\Temp\ccxnFfLM.o
LOAD C:\Users\ajarr\AppData\Local\Temp\cczbQmCd.o
LOAD C:\Users\ajarr\AppData\Local\Temp\ccp71scL.o
LOAD C:\Users\ajarr\AppData\Local\Temp\ccf1qWep.o
LOAD C:\Users\ajarr\AppData\Local\Temp\cclXIhGd.o
LOAD C:\Users\ajarr\AppData\Local\Temp\cclUyX1f.o
LOAD C:\Users\ajarr\AppData\Local\Temp\ccYAcwQn.o
LOAD C:\Users\ajarr\AppData\Local\Temp\ccjmXURG.o
LOAD C:\Users\ajarr\AppData\Local\Temp\ccovS4yg.o
LOAD C:\Users\ajarr\AppData\Local\Temp\ccduqfO0.o
LOAD C:\Users\ajarr\AppData\Local\Temp\ccXhqPVa.o
LOAD C:\Users\ajarr\AppData\Local\Temp\ccNMwkyO.o
LOAD C:\Users\ajarr\AppData\Local\Temp\ccDl90Kv.o
LOAD C:\Users\ajarr\AppData\Local\Temp\ccwbk5Wx.o
LOAD C:\Users\ajarr\AppData\Local\Temp\cc1MBP0N.o
LOAD C:\Users\ajarr\AppData\Local\Temp\cc8WbBCy.o
LOAD C:\Users\ajarr\AppData\Local\Temp\cc8e2yNj.o
LOAD C:\Users\ajarr\AppData\Local\Temp\ccasxzae.o
LOAD C:\Users\ajarr\AppData\Local\Temp\ccjuLCXH.o
LOAD C:\Users\ajarr\AppData\Local\Temp\ccGb5JPl.o
LOAD C:\Users\ajarr\AppData\Local\Temp\cclaJb28.o
LOAD c:/opt/bcc-2.0.2-gcc/bin/../lib/gcc/sparc-gaisler-elf/7.2.0/../../../../sparc-gaisler-elf/lib/leon/mfix-at697f\libm.a
                0x0000000000000000                PROVIDE (__bcc_cfg_skip_clear_bss, 0x0)

.text           0x0000000040000000    0x3f470
 CREATE_OBJECT_SYMBOLS
                0x0000000040000000                __text_start = .
                0x0000000040000000                . = ALIGN (0x1000)
 *(.text.traptable)
 .text.traptable
                0x0000000040000000     0x1000 c:/opt/bcc-2.0.2-gcc/bin/../sparc-gaisler-elf/bsp/leon2/leon/mfix-at697f/trap_table_mvt.S.o
                0x0000000040000000                __bcc_entry_point
                0x0000000040000000                __bcc_trap_table
 *(.text .text.*)
 .text          0x0000000040001000        0x0 c:/opt/bcc-2.0.2-gcc/bin/../sparc-gaisler-elf/bsp/leon2/leon/mfix-at697f/trap_table_mvt.S.o
 .text          0x0000000040001000       0xb8 c:/opt/bcc-2.0.2-gcc/bin/../sparc-gaisler-elf/bsp/leon2/leon/mfix-at697f/crt0.S.o
                0x0000000040001000                __bcc_crt0
 .text          0x00000000400010b8        0x0 c:/opt/bcc-2.0.2-gcc/bin/../lib/gcc/sparc-gaisler-elf/7.2.0/leon/mfix-at697f/crti.o
 .text          0x00000000400010b8      0x180 c:/opt/bcc-2.0.2-gcc/bin/../lib/gcc/sparc-gaisler-elf/7.2.0/leon/mfix-at697f/crtbegin.o
 .text          0x0000000040001238      0x974 C:\Users\ajarr\AppData\Local\Temp\ccgtKLQ9.o
                0x0000000040001238                rMinCycle_Wait
                0x00000000400012d4                OBC_Process
                0x0000000040001b5c                rMinCycle_Flag_Reset
 .text.startup  0x0000000040001bac       0xa0 C:\Users\ajarr\AppData\Local\Temp\ccgtKLQ9.o
                0x0000000040001bac                main
 .text          0x0000000040001c4c      0xa94 C:\Users\ajarr\AppData\Local\Temp\ccZ3M43h.o
                0x0000000040001c6c                Init_Memory
                0x0000000040001ca0                checksum_u32
                0x0000000040001d0c                checksum_u8
                0x0000000040001d5c                rOutput_Latch_Update
                0x0000000040001f38                ST_output_update
                0x0000000040002150                NMI_interrupt_test
                0x000000004000220c                MUX_Output
                0x0000000040002534                EEPROM_RST
                0x0000000040002568                EEPROM_RES
                0x0000000040002598                s_ram_scrub
                0x0000000040002614                prom_chksum
 .text          0x00000000400026e0     0xd88c C:\Users\ajarr\AppData\Local\Temp\ccnGtmfO.o
                0x00000000400028cc                rHAL_TM_Write
                0x0000000040002b30                rHAL_TM_HW_Status_Update
                0x0000000040002c54                Update_TM_With_TMTC
                0x0000000040002c5c                rTM_Address_Table_Init
                0x000000004000c8dc                rTM_Copy_Subframe
                0x000000004000c94c                Sampling_Rate_Select
                0x000000004000c9a8                Frame_Address_Select
                0x000000004000cb14                rTCH_full_dump_cpy_buf
                0x000000004000cc90                rTCH_dump_cpy_buf
                0x000000004000d038                TC_Hist_dumping
                0x000000004000d084                copy_frame
                0x000000004000d13c                ST_Copy_Subframe
                0x000000004000d5d4                StorageTelemetry
                0x000000004000d66c                Storage_Telemetry_Write
                0x000000004000d694                Norm_ST_1_Table_Init
                0x000000004000efe0                TC_ST_Table_init
                0x000000004000efe8                Spec_ST_Table_Init
                0x000000004000fc84                ST_DUMPING
                0x000000004000fde8                rTM_Real_st_write
                0x000000004000ff28                ST_full_dump
 .text          0x000000004000ff6c     0x62a4 C:\Users\ajarr\AppData\Local\Temp\ccEMnW47.o
                0x0000000040010128                TC_IMU1_On
                0x0000000040010168                TC_IMU2_On
                0x00000000400101a8                TC_IMU1_Off
                0x00000000400101e8                TC_IMU2_Off
                0x0000000040010228                TC_NMI_count_reset
                0x000000004001023c                TC_GPS1_ON
                0x000000004001026c                TC_GPS1_OFF
                0x00000000400102a0                TC_GPS2_on
                0x00000000400102d4                TC_GPS2_off
                0x000000004001030c                TC_W1_ON
                0x000000004001033c                TC_W2_ON
                0x0000000040010370                TC_W3_ON
                0x00000000400103a0                TC_W4_ON
                0x00000000400103d0                TC_W1_OFF
                0x0000000040010400                TC_W2_OFF
                0x0000000040010430                TC_W3_OFF
                0x0000000040010460                TC_W4_OFF
                0x0000000040010490                rTC_Detumbling_ModePreprocessing_BDOT
                0x00000000400104a0                rTC_Detumbling_ModePreprocessing_GYRO
                0x00000000400104b0                rTC_SunAcquisition_ModePreprocessing
                0x00000000400104c0                rTC_ThreeAxis_ModePreprocessing
                0x00000000400104d0                rTC_Suspended_ModePreprocessing
                0x00000000400104dc                PL_K_CMD_HLT
                0x000000004001050c                Antenna_mechanism_ON
                0x000000004001053c                Antenna_mechanism_OFF
                0x000000004001056c                EEPROM_CHECK_COMMAND
                0x000000004001059c                S_band_tx_off
                0x00000000400105cc                SA_DEPLOYMENT_MECHANISM_MAIN_OFF
                0x0000000040010600                SA_DEPLOYMENT_MECHANISM_RED_OFF
                0x0000000040010634                sunlit
                0x0000000040010644                eclipse
                0x0000000040010650                Sunlit_eclipse_both
                0x0000000040010660                rSafe_mode_PreProcessing
                0x0000000040010670                eeprom_en
                0x0000000040010680                eeprom_dis
                0x000000004001068c                TC_ATTC_CMD_clear
                0x000000004001074c                imu1_db_execute
                0x0000000040010758                imu2_db_execute
                0x0000000040010764                TC_ACC_Ang_RESET
                0x0000000040010770                TC_GPS1_NMEA_VTG_enable
                0x000000004001079c                TC_GPS1_NMEA_VTG_disable
                0x00000000400107c8                TC_GPS1_NMEA_GGA_enable
                0x00000000400107f4                TC_GPS1_NMEA_GGA_disable
                0x0000000040010820                TC_GPS1_NMEA_GSA_enable
                0x000000004001084c                TC_GPS1_NMEA_GSA_disable
                0x0000000040010878                TC_GPS1_cold_start
                0x00000000400108a4                TC_GPS1_factory_reset
                0x00000000400108d0                TC_GPS2_NMEA_VTG_enable
                0x00000000400108fc                TC_GPS2_NMEA_VTG_disable
                0x0000000040010928                TC_GPS2_NMEA_GGA_enable
                0x0000000040010954                TC_GPS2_NMEA_GGA_disable
                0x0000000040010980                TC_GPS2_NMEA_GSA_enable
                0x00000000400109ac                TC_GPS2_NMEA_GSA_disable
                0x00000000400109d8                TC_GPS2_cold_start
                0x0000000040010a04                TC_GPS2_factory_reset
                0x0000000040010a30                TC_GPS1_NMEA_NMEA_GSV_Enable
                0x0000000040010a5c                TC_GPS1_NMEA_NMEA_GSV_disable
                0x0000000040010a88                TC_GPS2_NMEA_NMEA_GSV_Enable
                0x0000000040010ab4                TC_GPS2_NMEA_NMEA_GSV_disable
                0x0000000040010ae0                TC_MTR_ON
                0x0000000040010aec                TC_MTR_OFF
                0x0000000040010af8                payload_1_on
                0x0000000040010b20                payload_1_off
                0x0000000040010b2c                PL_K_CMD_STS
                0x0000000040010b38                PL_K_CMD_ACQ
                0x0000000040010b44                PL_K_DIAG
                0x0000000040010b50                PL_K_CMD_OFF
                0x0000000040010b5c                PL_K_CMD_ON
                0x0000000040010b68                ss_main_db_execute
                0x0000000040010b74                ss_redundant_db_execute
                0x0000000040010b80                TC_init_RW1
                0x0000000040010bb4                TC_init_RW2
                0x0000000040010be8                TC_init_RW3
                0x0000000040010c1c                TC_init_RW4
                0x0000000040010c50                TC_MTR_Yaw_Positive
                0x0000000040010c64                TC_MTR_Yaw_Negative
                0x0000000040010c78                TC_MTR_Pitch_Positive
                0x0000000040010c8c                TC_MTR_Pitch_Negative
                0x0000000040010ca0                TC_MTR_Roll_Positive
                0x0000000040010cb4                TC_MTR_Roll_Negative
                0x0000000040010cc8                TC_MTR_Roll_No_cuurent
                0x0000000040010cdc                TC_MTR_Pitch_No_cuurent
                0x0000000040010cf0                TC_MTR_Yaw_No_cuurent
                0x0000000040010d04                payload_2_on
                0x0000000040010d2c                payload_2_off
                0x0000000040010d38                X_band_tx_on
                0x0000000040010d60                X_band_tx_off
                0x0000000040010d6c                SA_DEPLOYMENT_MECHANISM_MAIN_ON
                0x0000000040010d78                SA_DEPLOYMENT_MECHANISM_RED_ON
                0x0000000040010d84                Antenna_mechanism_arm
                0x0000000040010d90                Antenna_deploy
                0x0000000040010d9c                Antenna_mechanism_disarm
                0x0000000040010da8                TC_pl_debug
                0x0000000040010db4                TC_TM_DS_EN
                0x0000000040010dc0                Antenna_RESET_command
                0x0000000040010dcc                Antenna_deploy_with_override
                0x0000000040010dd8                Antenna_system_temp
                0x0000000040010de4                Antenna_deploy_status_report
                0x0000000040010df0                Antenna_deploy_activation_count
                0x0000000040010dfc                Antenna_deploy_activation_time
                0x0000000040010f0c                TC_pl_tm
                0x0000000040010f14                imu1_db_checksum
                0x0000000040010f1c                imu2_db_checksum
                0x0000000040010f24                imu_test_sys_sel
                0x0000000040010f2c                TC_Drift_Uplink_Compenstation_Update_IMU1
                0x0000000040010f34                TC_Drift_Uplink_Compenstation_Update_IMU2
                0x0000000040010f3c                TC_Gyro_Misalignment_Update_IMU1
                0x0000000040010f44                TC_Gyro_Misalignment_Update_IMU2
                0x0000000040010f4c                TC_Gyro_Scale_Factor_Update_IMU1
                0x0000000040010f54                TC_Gyro_Scale_Factor_Update_IMU2
                0x0000000040010f5c                TC_MagBias_Uplink_Compenstation_Update_IMU1
                0x0000000040010f64                TC_MagBias_Uplink_Compenstation_Update_IMU2
                0x0000000040010f6c                TC_Mag_Misalignment_Update_IMU1
                0x0000000040010f74                TC_Mag_Misalignment_Update_IMU2
                0x0000000040010f7c                TC_Mag_Scale_Factor_Update_IMU1
                0x0000000040010f84                TC_Mag_Scale_Factor_Update_IMU2
                0x0000000040010f8c                TC_Mag_LPF_Gain_Update_IMU1
                0x0000000040010f94                TC_Mag_LPF_Gain_Update_IMU2
                0x0000000040010f9c                TC_Gyro_LPF_Gain_Update_IMU1
                0x0000000040010fa4                TC_Gyro_LPF_Gain_Update_IMU2
                0x0000000040010fac                TC_Panel2_Deploy
                0x0000000040010fb4                TC_Nominal_wheel_speed_execute
                0x0000000040010fbc                Pitch_Torquer_ON
                0x0000000040010fc4                Yaw_Torquer_ON
                0x0000000040010fcc                Pitch_Torquer_OFF
                0x0000000040010fd4                Yaw_Torquer_OFF
                0x0000000040010fdc                rHeater1_on
                0x0000000040010fe4                rHeater1_off
                0x0000000040010fec                rHeater2_on
                0x0000000040010ff4                rHeater2_off
                0x0000000040010ffc                rHeater3_on
                0x0000000040011004                rHeater3_off
                0x000000004001100c                rHeater4_on
                0x0000000040011014                rHeater4_off
                0x000000004001101c                rHeater5_on
                0x0000000040011024                rHeater5_off
                0x000000004001102c                rHeater6_on
                0x0000000040011034                rHeater6_off
                0x000000004001103c                RX_TX_deployed
                0x0000000040011044                ss_main_db_checksum
                0x000000004001104c                ss_redundant_db_checksum
                0x0000000040011054                TC_Qinit
                0x000000004001105c                OBC_ON
                0x0000000040011064                OBC_OFF
                0x000000004001106c                SA1_DEPLOYMENT_AND_SA2_DEPLOYMENT_REDUNDANT_SPARE_BUS_ON
                0x0000000040011074                SA1_DEPLOYMENT_AND_SA2_DEPLOYMENT_REDUNDANT_SPARE_BUS_OFF
                0x000000004001107c                Test_ON
                0x0000000040011084                Test_OFF
                0x000000004001108c                rTC_write_tC_history
                0x00000000400110b4                TC_status_reset
                0x00000000400110c8                rContingency_TC
                0x00000000400110d0                rData_TC
                0x00000000400116dc                rADCS_Data_TC
                0x0000000040012800                rRemote_base_addr_TC
                0x00000000400128b0                rRemote_data_view
                0x00000000400128b8                rBoolean_TC
                0x0000000040012908                rFuncExecute_TC
                0x000000004001296c                rRemoteProgram_Addr_TC
                0x00000000400129c0                rRemoteProgram_Data_TC
                0x00000000400129ec                rDifferential_TimeTag_TC
                0x0000000040012a48                initNodetable
                0x0000000040012a84                getNode
                0x0000000040012ac0                freeNode
                0x0000000040012af8                rAbsoluteTTC_Update
                0x0000000040012cb0                rAbsolute_TimeTag_TC
                0x0000000040012cbc                rDifferential_TimeTag_Update
                0x0000000040012d18                rDifferential_TimeTag_Execute
                0x0000000040012e70                rDifferentialTTC_Execute
                0x0000000040012e7c                rAbsoluteTTC_Delete
                0x0000000040013000                rAbsoluteTTC_Clear
                0x00000000400130c0                rInit_Block
                0x0000000040013108                Block_update
                0x00000000400132e0                rBlock_TC
                0x00000000400132ec                TMTC_Assignment
                0x0000000040013a3c                invertReverse
                0x0000000040013a64                BCHEncoder
                0x0000000040013c04                rHAL_TC_Read
                0x0000000040013ed0                TC_detumbling_rate_gain_1
                0x0000000040014314                TC_detumbling_bdot_gain_1
                0x0000000040014758                TC_BDOT_Det_Thresh_1
                0x00000000400148ec                TC_GYRO_Det_Min_Thres_1
                0x0000000040014a80                TC_AngMomDump_Thrsld_1
                0x0000000040014c14                TC_SpeedDump_Thrsld_1
                0x0000000040014d40                TC_SpeedDump_TimeSelect_1
                0x0000000040014ed4                TC_comd_pitch_rate_1
                0x0000000040015068                TC_Gyro_LPF_Gain_IMU1_1
                0x00000000400152a0                TC_Gyro_LPF_Gain_IMU2_1
                0x00000000400154d8                TC_Mag_LPF_Gain_IMU1_1
                0x0000000040015710                TC_Mag_LPF_Gain_IMU2_1
                0x0000000040015948                TC_Wheel_Cutoff_Threshold_1
                0x0000000040015adc                adcsgains
                0x0000000040015bc0                rGainSelect_TC
                0x0000000040015c14                rReal_Time_TC
                0x0000000040015e98                rTelecommand
                0x0000000040016010                rAbsoluteTTC_Execute
                0x0000000040016130                rBlockTC_Execute
 .text          0x0000000040016210       0x38 C:\Users\ajarr\AppData\Local\Temp\cc3Yg1qw.o
                0x0000000040016210                fdi_nmi_int_handler
 .text          0x0000000040016248     0x1660 C:\Users\ajarr\AppData\Local\Temp\ccxnFfLM.o
                0x0000000040016248                rPOR_Init
 .text          0x00000000400178a8      0xd78 C:\Users\ajarr\AppData\Local\Temp\cczbQmCd.o
                0x00000000400178d0                rHAL_pl1_ON
                0x0000000040017950                rHAL_pl1_OFF
                0x00000000400179a0                rHAL_pl2_ON
                0x0000000040017a20                rHAL_pl2_OFF
                0x0000000040017a70                rHAL_tm_ds_en
                0x0000000040017aac                rHAL_X_Tx_ON
                0x0000000040017ae0                rHAL_X_Tx_OFF
                0x0000000040017b14                rpl_init
                0x0000000040017b84                rHAL_pl_sts_check
                0x0000000040017bb4                rHAL_pl_cmd_hlt
                0x0000000040017c34                rHAL_pl_debug
                0x0000000040017cf4                rHAL_pl_x_tx_data_on
                0x0000000040017de4                rHAL_pl_cmd_acq
                0x0000000040017ec4                rHAL_pl_x_tx_data_off
                0x0000000040017f04                rHAL_pl_diag
                0x0000000040017f7c                pl_tx_tm
                0x00000000400180a4                pl_tx_tm_2
                0x000000004001817c                rpl_read
                0x0000000040018268                rpl_tm_write
 .text          0x0000000040018620      0x4a8 C:\Users\ajarr\AppData\Local\Temp\ccp71scL.o
                0x0000000040018620                rHAL_EPS_Hardware_Status
                0x0000000040018688                rHAL_Battery_load_shedding
                0x00000000400186e4                rHAL_EPS_shunt_switch
 .text          0x0000000040018ac8      0x1b4 C:\Users\ajarr\AppData\Local\Temp\ccf1qWep.o
                0x0000000040018ac8                rIMU_Init
                0x0000000040018b34                HAL_IMU_Read
 .text          0x0000000040018c7c      0x3b4 C:\Users\ajarr\AppData\Local\Temp\cclXIhGd.o
                0x0000000040018c7c                rHAL_ADC_Read
                0x0000000040018cd8                rHAL_ADC_TM_Copy
                0x0000000040018f04                sun_Sensor_data
                0x0000000040019018                rHAL_ADC_StatusREG_Enable
 .text          0x0000000040019030     0x1010 C:\Users\ajarr\AppData\Local\Temp\cclUyX1f.o
                0x0000000040019030                rGPS_Buffer_Init
                0x0000000040019298                rGPS_pulsecheck
                0x0000000040019334                rHAL_GPS_Read
                0x00000000400195a4                GPS_1_DATA
                0x0000000040019608                rHAL_GPS_Config
                0x0000000040019d08                rGPS_TM_Extract
                0x0000000040019fdc                ST_TM_gps_data
 .text          0x000000004001a040     0x1114 C:\Users\ajarr\AppData\Local\Temp\ccYAcwQn.o
                0x000000004001a040                Thermister_select
                0x000000004001a084                UTP_selection
                0x000000004001a0d8                LTP_selection
                0x000000004001a138                Heater_1_auto_control
                0x000000004001a1a8                Heater_2_auto_control
                0x000000004001a218                Heater_3_auto_control
                0x000000004001a288                Heater_4_auto_control
                0x000000004001a2f8                Heater_5_auto_control
                0x000000004001a368                Heater_6_auto_control
                0x000000004001a3d8                Heater_7_auto_control
                0x000000004001a42c                Heater_8_auto_control
                0x000000004001a480                Heater_9_auto_control
                0x000000004001a4d4                Heater_10_auto_control
                0x000000004001a528                Heater_11_auto_control
                0x000000004001a57c                Heater_12_auto_control
                0x000000004001a5d0                Heater_13_auto_control
                0x000000004001a62c                Heater_14_auto_control
                0x000000004001a688                Heater_1_manual_control
                0x000000004001a6f4                Heater_2_manual_control
                0x000000004001a760                Heater_3_manual_control
                0x000000004001a7cc                Heater_4_manual_control
                0x000000004001a838                Heater_5_manual_control
                0x000000004001a8a4                Heater_6_manual_control
                0x000000004001a910                Heater_control_auto_manual
                0x000000004001afb4                Heater_7_manual_control
                0x000000004001afe4                Heater_8_manual_control
                0x000000004001b014                Heater_9_manual_control
                0x000000004001b044                Heater_10_manual_control
                0x000000004001b074                Heater_11_manual_control
                0x000000004001b0a4                Heater_12_manual_control
                0x000000004001b0d4                Heater_13_manual_control
                0x000000004001b114                Heater_14_manual_control
 .text          0x000000004001b154      0x8dc C:\Users\ajarr\AppData\Local\Temp\ccjmXURG.o
                0x000000004001b154                rHAL_MTR_ON
                0x000000004001b188                rHAL_MTR_OFF
                0x000000004001b1bc                rHAL_MTR
                0x000000004001b7f4                MTR_Monitoring
                0x000000004001b820                rHAL_MTR_TC
 .text          0x000000004001ba30     0x143c C:\Users\ajarr\AppData\Local\Temp\ccovS4yg.o
                0x000000004001ba30                RW_Init
                0x000000004001bbac                HAL_RW_CRC_Check
                0x000000004001bc18                rHAL_RW_TM_Read
                0x000000004001bfe8                rRW_SlipFrame_Check
                0x000000004001c22c                rHAL_RW_TC_Write
                0x000000004001c404                rHAL_RW_TM_Write
                0x000000004001c564                rHAL_RW_ConfigBuffer_Write
                0x000000004001c608                rRW_Data_Write
                0x000000004001c814                rRW_Data_Request
                0x000000004001c950                rRW_Data_Read
                0x000000004001ccfc                rRW_init_cmd
 .text          0x000000004001ce6c      0x6dc C:\Users\ajarr\AppData\Local\Temp\ccduqfO0.o
                0x000000004001ce6c                antennaCommand1
                0x000000004001ceb8                antennaCommand2
                0x000000004001cf04                antennaCommand3
                0x000000004001cf50                antennaCommand4
                0x000000004001cf9c                antennaCommand5
                0x000000004001cfe8                antennaCommand6
                0x000000004001d034                antennaCommand7
                0x000000004001d07c                antennaCommand8
                0x000000004001d0c8                antennaCommand9
                0x000000004001d114                rHAL_Antenna_Read
                0x000000004001d15c                rHAL_SA_MAIN_Deploy_on
                0x000000004001d1d4                rHAL_SA_RED_Deploy_on
                0x000000004001d23c                rHAL_SA1_Deploy_status_check
                0x000000004001d324                rHAL_SA2_Deploy_status_check
                0x000000004001d40c                rHAL_SA_Deploy_Status_new
 .text          0x000000004001d548     0x32f0 C:\Users\ajarr\AppData\Local\Temp\ccXhqPVa.o
                0x000000004001d678                rQ_Propagation
                0x000000004001d6a8                rQuestDataProcessing
                0x000000004001dbf4                rDAD_quest
                0x000000004001eb84                rErrorComputation
                0x000000004001f160                rExtendedKalmanFilter1_p1
                0x000000004001fe9c                rExtendedKalmanFilter1_p2
 .text          0x0000000040020838     0x2bec C:\Users\ajarr\AppData\Local\Temp\ccNMwkyO.o
                0x0000000040020838                rGH_generation
                0x00000000400209fc                rMagFieldComp1
                0x000000004002144c                rMagFieldComp2
                0x0000000040021b64                rSun_Ephemeris
                0x0000000040021da4                rReferenceQuatComputation
                0x0000000040022878                rRefVectorGeneration
                0x0000000040022f74                rRefRate_Computation
                0x0000000040023258                rSl_Ecl_OnBrd_detection
 .text          0x0000000040023424        0x0 C:\Users\ajarr\AppData\Local\Temp\ccDl90Kv.o
 .text          0x0000000040023424     0x2868 C:\Users\ajarr\AppData\Local\Temp\ccwbk5Wx.o
                0x0000000040023560                rLinearController
                0x0000000040023f4c                rDutyCycleGeneration
                0x00000000400240d0                rAngularMomentumDumping
                0x000000004002456c                rTorquer_Polarity_Check
                0x00000000400245a0                rSpeedBasedMomentumDumping
                0x0000000040024cf8                rWheel_Spin_updown
                0x0000000040025088                rWheel_Auto_Reconfiguration
 .text          0x0000000040025c8c     0x10f8 C:\Users\ajarr\AppData\Local\Temp\cc1MBP0N.o
                0x0000000040025ca4                rSuspended_ModePreprocessing
                0x0000000040025d18                rDetumbling_ModePreprocessing_BDOT_Logic
                0x0000000040026188                rDetumbling_ModePreprocessing_GYRO_Logic
                0x00000000400265d0                rSunAcquisition_ModePreprocessing
                0x0000000040026988                rThreeAxis_ModePreprocessing
                0x0000000040026bd4                rRateReductionCheck
                0x0000000040026cd0                rSafeMode_Preprocessing
                0x0000000040026d0c                rScModeSelection
 .text          0x0000000040026d84     0x4a04 C:\Users\ajarr\AppData\Local\Temp\cc8WbBCy.o
                0x0000000040026d84                rADCS_Pon_vars
 .text          0x000000004002b788     0x9494 C:\Users\ajarr\AppData\Local\Temp\cc8e2yNj.o
                0x000000004002b788                rIMUDataCorrection
                0x000000004002cb24                rIMU_1_DB_Copy
                0x000000004002d3c4                rIMU_2_DB_Copy
                0x000000004002dc64                rIMU_1_DB_Init
                0x000000004002e504                rIMU_2_DB_Init
                0x000000004002eda4                rIMU_Angle_Reset
                0x000000004002edec                rIMUDataProcessing
                0x0000000040030080                rTheta_Limit
                0x00000000400300e0                rIMU1_DB_Execute
                0x0000000040030104                rIMU2_DB_Execute
                0x0000000040030128                rBDOT_Computation
                0x0000000040030354                rSunSensorVectorComp
                0x0000000040033444                rSunSensorDataProcessing
                0x0000000040033820                rSS_Read_Data
                0x0000000040033880                rSS_Main_DB_Init
                0x0000000040033898                rSS_Redundant_DB_Init
                0x00000000400338a4                rSS_Main_DB_Copy
                0x00000000400341fc                rSS_Redundant_DB_Copy
                0x0000000040034b54                rSS_Main_DB_Execute
                0x0000000040034bb8                rSS_Redundant_DB_Execute
 .text          0x0000000040034c1c        0x0 C:\Users\ajarr\AppData\Local\Temp\ccasxzae.o
 .text          0x0000000040034c1c     0x4768 C:\Users\ajarr\AppData\Local\Temp\ccjuLCXH.o
                0x00000000400362fc                rOrbit_Initialization
                0x00000000400376cc                rOrbit_Propagation
                0x0000000040038a50                rOrbitalElements_computation
                0x0000000040038a78                rOrbitalElements_TLE
                0x0000000040038ab0                rGPS_data_validity
                0x0000000040038ab8                rJulian_Day
                0x0000000040038af4                rNEDtoECEF
                0x0000000040038be8                rECEFtoECItoECEF
                0x0000000040038c10                rast_args
                0x0000000040038d1c                rnut_iau1980
                0x0000000040038e78                rGPS2OE
                0x00000000400392fc                rGPSDataProcessing
 .text          0x0000000040039384      0xd4c C:\Users\ajarr\AppData\Local\Temp\ccGb5JPl.o
                0x0000000040039384                rxRot
                0x0000000040039414                ryRot
                0x00000000400394a4                rzRot
                0x000000004003952c                rMatInv
                0x00000000400396e4                rCross_Product
                0x000000004003974c                rMatMul3x1
                0x00000000400397c4                rMatMul3x3
                0x000000004003987c                rRM_to_Quat
                0x0000000040039bb0                rQs_Normalization
                0x0000000040039cb8                rQs_Multiplication
                0x0000000040039d94                rVectorNorm
                0x0000000040039e64                rMat_adjoint3
                0x0000000040039f60                rMatMul34x1
                0x0000000040039fdc                rMatMul43x1
                0x000000004003a058                rMatMul44x1
 .text          0x000000004003a0d0      0x284 C:\Users\ajarr\AppData\Local\Temp\cclaJb28.o
                0x000000004003a0d0                rSus_mode_remote_entry_hook
                0x000000004003a0fc                rSus_mode_remote_exit_hook
                0x000000004003a108                rDBDOT_mode_remote_entry_hook
                0x000000004003a114                rDBDOT_mode_remote_exit_hook
                0x000000004003a120                rDGYRO_mode_remote_entry_hook
                0x000000004003a12c                rDGYRO_mode_remote_exit_hook
                0x000000004003a138                rSACQ_mode_remote_entry_hook
                0x000000004003a144                rSACQ_mode_remote_exit_hook
                0x000000004003a150                r3AXIS_mode_remote_entry_hook
                0x000000004003a15c                r3AXIS_mode_remote_exit_hook
                0x000000004003a168                rSAFE_mode_remote_entry_hook
                0x000000004003a174                rSAFE_mode_remote_exit_hook
                0x000000004003a180                rRemote_patch_area_1
                0x000000004003a318                rRemote_patch_area_2
                0x000000004003a324                rRemote_patch_area_3
                0x000000004003a330                rRemote_patch_area_4
                0x000000004003a33c                rRemote_patch_area_5
                0x000000004003a348                rRemote_patch_area_6
 .text          0x000000004003a354      0x2d0 c:/opt/bcc-2.0.2-gcc/bin/../lib/gcc/sparc-gaisler-elf/7.2.0/../../../../sparc-gaisler-elf/lib/leon/mfix-at697f\libm.a(lib_a-s_atan.o)
                0x000000004003a354                atan
 .text          0x000000004003a624       0xe4 c:/opt/bcc-2.0.2-gcc/bin/../lib/gcc/sparc-gaisler-elf/7.2.0/../../../../sparc-gaisler-elf/lib/leon/mfix-at697f\libm.a(lib_a-s_cos.o)
                0x000000004003a624                cos
 .text          0x000000004003a708       0x28 c:/opt/bcc-2.0.2-gcc/bin/../lib/gcc/sparc-gaisler-elf/7.2.0/../../../../sparc-gaisler-elf/lib/leon/mfix-at697f\libm.a(lib_a-s_fabs.o)
                0x000000004003a708                fabs
 .text          0x000000004003a730      0x1f0 c:/opt/bcc-2.0.2-gcc/bin/../lib/gcc/sparc-gaisler-elf/7.2.0/../../../../sparc-gaisler-elf/lib/leon/mfix-at697f\libm.a(lib_a-s_floor.o)
                0x000000004003a730                floor
 .text          0x000000004003a920       0xf4 c:/opt/bcc-2.0.2-gcc/bin/../lib/gcc/sparc-gaisler-elf/7.2.0/../../../../sparc-gaisler-elf/lib/leon/mfix-at697f\libm.a(lib_a-s_round.o)
                0x000000004003a920                round
 .text          0x000000004003aa14       0xe8 c:/opt/bcc-2.0.2-gcc/bin/../lib/gcc/sparc-gaisler-elf/7.2.0/../../../../sparc-gaisler-elf/lib/leon/mfix-at697f\libm.a(lib_a-s_sin.o)
                0x000000004003aa14                sin
 .text          0x000000004003aafc       0x9c c:/opt/bcc-2.0.2-gcc/bin/../lib/gcc/sparc-gaisler-elf/7.2.0/../../../../sparc-gaisler-elf/lib/leon/mfix-at697f\libm.a(lib_a-s_tan.o)
                0x000000004003aafc                tan
 .text          0x000000004003ab98      0x128 c:/opt/bcc-2.0.2-gcc/bin/../lib/gcc/sparc-gaisler-elf/7.2.0/../../../../sparc-gaisler-elf/lib/leon/mfix-at697f\libm.a(lib_a-w_acos.o)
                0x000000004003ab98                acos
 .text          0x000000004003acc0      0x128 c:/opt/bcc-2.0.2-gcc/bin/../lib/gcc/sparc-gaisler-elf/7.2.0/../../../../sparc-gaisler-elf/lib/leon/mfix-at697f\libm.a(lib_a-w_asin.o)
                0x000000004003acc0                asin
 .text          0x000000004003ade8        0xc c:/opt/bcc-2.0.2-gcc/bin/../lib/gcc/sparc-gaisler-elf/7.2.0/../../../../sparc-gaisler-elf/lib/leon/mfix-at697f\libm.a(lib_a-w_atan2.o)
                0x000000004003ade8                atan2
 .text          0x000000004003adf4      0x148 c:/opt/bcc-2.0.2-gcc/bin/../lib/gcc/sparc-gaisler-elf/7.2.0/../../../../sparc-gaisler-elf/lib/leon/mfix-at697f\libm.a(lib_a-w_fmod.o)
                0x000000004003adf4                fmod
 .text          0x000000004003af3c      0x4a8 c:/opt/bcc-2.0.2-gcc/bin/../lib/gcc/sparc-gaisler-elf/7.2.0/../../../../sparc-gaisler-elf/lib/leon/mfix-at697f\libm.a(lib_a-w_pow.o)
                0x000000004003af3c                pow
 .text          0x000000004003b3e4       0xfc c:/opt/bcc-2.0.2-gcc/bin/../lib/gcc/sparc-gaisler-elf/7.2.0/../../../../sparc-gaisler-elf/lib/leon/mfix-at697f\libm.a(lib_a-w_sqrt.o)
                0x000000004003b3e4                sqrt
 .text          0x000000004003b4e0      0x37c c:/opt/bcc-2.0.2-gcc/bin/../lib/gcc/sparc-gaisler-elf/7.2.0/../../../../sparc-gaisler-elf/lib/leon/mfix-at697f\libm.a(lib_a-e_acos.o)
                0x000000004003b4e0                __ieee754_acos
 .text          0x000000004003b85c      0x310 c:/opt/bcc-2.0.2-gcc/bin/../lib/gcc/sparc-gaisler-elf/7.2.0/../../../../sparc-gaisler-elf/lib/leon/mfix-at697f\libm.a(lib_a-e_asin.o)
                0x000000004003b85c                __ieee754_asin
 .text          0x000000004003bb6c      0x2b4 c:/opt/bcc-2.0.2-gcc/bin/../lib/gcc/sparc-gaisler-elf/7.2.0/../../../../sparc-gaisler-elf/lib/leon/mfix-at697f\libm.a(lib_a-e_atan2.o)
                0x000000004003bb6c                __ieee754_atan2
 .text          0x000000004003be20      0x3ac c:/opt/bcc-2.0.2-gcc/bin/../lib/gcc/sparc-gaisler-elf/7.2.0/../../../../sparc-gaisler-elf/lib/leon/mfix-at697f\libm.a(lib_a-e_fmod.o)
                0x000000004003be20                __ieee754_fmod
 .text          0x000000004003c1cc      0x8dc c:/opt/bcc-2.0.2-gcc/bin/../lib/gcc/sparc-gaisler-elf/7.2.0/../../../../sparc-gaisler-elf/lib/leon/mfix-at697f\libm.a(lib_a-e_pow.o)
                0x000000004003c1cc                __ieee754_pow
 .text          0x000000004003caa8      0x39c c:/opt/bcc-2.0.2-gcc/bin/../lib/gcc/sparc-gaisler-elf/7.2.0/../../../../sparc-gaisler-elf/lib/leon/mfix-at697f\libm.a(lib_a-e_rem_pio2.o)
                0x000000004003caa8                __ieee754_rem_pio2
 .text          0x000000004003ce44      0x270 c:/opt/bcc-2.0.2-gcc/bin/../lib/gcc/sparc-gaisler-elf/7.2.0/../../../../sparc-gaisler-elf/lib/leon/mfix-at697f\libm.a(lib_a-e_sqrt.o)
                0x000000004003ce44                __ieee754_sqrt
 .text          0x000000004003d0b4      0x1bc c:/opt/bcc-2.0.2-gcc/bin/../lib/gcc/sparc-gaisler-elf/7.2.0/../../../../sparc-gaisler-elf/lib/leon/mfix-at697f\libm.a(lib_a-k_cos.o)
                0x000000004003d0b4                __kernel_cos
 .text          0x000000004003d270      0xbdc c:/opt/bcc-2.0.2-gcc/bin/../lib/gcc/sparc-gaisler-elf/7.2.0/../../../../sparc-gaisler-elf/lib/leon/mfix-at697f\libm.a(lib_a-k_rem_pio2.o)
                0x000000004003d270                __kernel_rem_pio2
 .text          0x000000004003de4c      0x100 c:/opt/bcc-2.0.2-gcc/bin/../lib/gcc/sparc-gaisler-elf/7.2.0/../../../../sparc-gaisler-elf/lib/leon/mfix-at697f\libm.a(lib_a-k_sin.o)
                0x000000004003de4c                __kernel_sin
 .text          0x000000004003df4c      0x290 c:/opt/bcc-2.0.2-gcc/bin/../lib/gcc/sparc-gaisler-elf/7.2.0/../../../../sparc-gaisler-elf/lib/leon/mfix-at697f\libm.a(lib_a-k_tan.o)
                0x000000004003df4c                __kernel_tan
 .text          0x000000004003e1dc       0x18 c:/opt/bcc-2.0.2-gcc/bin/../lib/gcc/sparc-gaisler-elf/7.2.0/../../../../sparc-gaisler-elf/lib/leon/mfix-at697f\libm.a(lib_a-s_finite.o)
                0x000000004003e1dc                finite
 .text          0x000000004003e1f4        0x0 c:/opt/bcc-2.0.2-gcc/bin/../lib/gcc/sparc-gaisler-elf/7.2.0/../../../../sparc-gaisler-elf/lib/leon/mfix-at697f\libm.a(lib_a-s_lib_ver.o)
 .text          0x000000004003e1f4        0x8 c:/opt/bcc-2.0.2-gcc/bin/../lib/gcc/sparc-gaisler-elf/7.2.0/../../../../sparc-gaisler-elf/lib/leon/mfix-at697f\libm.a(lib_a-s_matherr.o)
                0x000000004003e1f4                matherr
 .text          0x000000004003e1fc        0xc c:/opt/bcc-2.0.2-gcc/bin/../lib/gcc/sparc-gaisler-elf/7.2.0/../../../../sparc-gaisler-elf/lib/leon/mfix-at697f\libm.a(lib_a-s_nan.o)
                0x000000004003e1fc                nan
 .text          0x000000004003e208      0x1ac c:/opt/bcc-2.0.2-gcc/bin/../lib/gcc/sparc-gaisler-elf/7.2.0/../../../../sparc-gaisler-elf/lib/leon/mfix-at697f\libm.a(lib_a-s_rint.o)
                0x000000004003e208                rint
 .text          0x000000004003e3b4      0x14c c:/opt/bcc-2.0.2-gcc/bin/../lib/gcc/sparc-gaisler-elf/7.2.0/../../../../sparc-gaisler-elf/lib/leon/mfix-at697f\libm.a(lib_a-s_scalbn.o)
                0x000000004003e3b4                scalbn
 .text          0x000000004003e500       0x30 c:/opt/bcc-2.0.2-gcc/bin/../lib/gcc/sparc-gaisler-elf/7.2.0/../../../../sparc-gaisler-elf/lib/leon/mfix-at697f\libm.a(lib_a-s_copysign.o)
                0x000000004003e500                copysign
 .text          0x000000004003e530       0x7c c:/opt/bcc-2.0.2-gcc/bin/../sparc-gaisler-elf/bsp/leon2/leon/mfix-at697f\libbcc.a(reset_trap_mvt.S.o)
                0x000000004003e530                __bcc_trap_reset_mvt
 .text          0x000000004003e5ac       0xb0 c:/opt/bcc-2.0.2-gcc/bin/../sparc-gaisler-elf/bsp/leon2/leon/mfix-at697f\libbcc.a(window_trap.S.o)
                0x000000004003e5ac                __bcc_trap_window_overflow
                0x000000004003e5fc                __bcc_trap_window_underflow
 .text          0x000000004003e65c      0x1b4 c:/opt/bcc-2.0.2-gcc/bin/../sparc-gaisler-elf/bsp/leon2/leon/mfix-at697f\libbcc.a(interrupt_trap.S.o)
                0x000000004003e65c                __bcc_trap_interrupt_svt
                0x000000004003e660                __bcc_trap_interrupt
 .text          0x000000004003e810       0x88 c:/opt/bcc-2.0.2-gcc/bin/../sparc-gaisler-elf/bsp/leon2/leon/mfix-at697f\libbcc.a(flush_windows_trap.S.o)
                0x000000004003e810                __bcc_trap_flush_windows
 .text          0x000000004003e898       0x2c c:/opt/bcc-2.0.2-gcc/bin/../sparc-gaisler-elf/bsp/leon2/leon/mfix-at697f\libbcc.a(sw_trap_set_pil.S.o)
                0x000000004003e898                __bcc_trap_sw_set_pil
 .text          0x000000004003e8c4       0xb0 c:/opt/bcc-2.0.2-gcc/bin/../sparc-gaisler-elf/bsp/leon2/leon/mfix-at697f\libbcc.a(trap.c.o)
                0x000000004003e8c4                bcc_set_trap
 .text          0x000000004003e974        0x0 c:/opt/bcc-2.0.2-gcc/bin/../sparc-gaisler-elf/bsp/leon2/leon/mfix-at697f\libbcc.a(isr.c.o)
 .text          0x000000004003e974        0x0 c:/opt/bcc-2.0.2-gcc/bin/../sparc-gaisler-elf/bsp/leon2/leon/mfix-at697f\libbcc.a(int_nest.c.o)
 .text          0x000000004003e974        0x8 c:/opt/bcc-2.0.2-gcc/bin/../sparc-gaisler-elf/bsp/leon2/leon/mfix-at697f\libbcc.a(init.S.o)
                0x000000004003e974                __bcc_init40
                0x000000004003e974                __bcc_init70
                0x000000004003e974                __bcc_init60
                0x000000004003e974                __bcc_init50
 .text          0x000000004003e97c       0x84 c:/opt/bcc-2.0.2-gcc/bin/../sparc-gaisler-elf/bsp/leon2/leon/mfix-at697f\libbcc.a(leon_info.S.o)
                0x000000004003e97c                __bcc_get_leon_info
                0x000000004003e9f0                bcc_get_cpuid
 .text          0x000000004003ea00       0x2c c:/opt/bcc-2.0.2-gcc/bin/../sparc-gaisler-elf/bsp/leon2/leon/mfix-at697f\libbcc.a(dwzero.S.o)
                0x000000004003ea00                bcc_dwzero
 .text          0x000000004003ea2c       0x5c c:/opt/bcc-2.0.2-gcc/bin/../sparc-gaisler-elf/bsp/leon2/leon/mfix-at697f\libbcc.a(copy_data.c.o)
                0x000000004003ea2c                __bcc_copy_data
 *fill*         0x000000004003ea88        0x8 
 .text          0x000000004003ea90       0x90 c:/opt/bcc-2.0.2-gcc/bin/../sparc-gaisler-elf/bsp/leon2/leon/mfix-at697f\libbcc.a(lowlevel.S.o)
                0x000000004003ea90                bcc_loadnocache
                0x000000004003ea9c                bcc_loadnocache16
                0x000000004003eaa8                bcc_loadnocache8
                0x000000004003eac0                bcc_ldstub
                0x000000004003eacc                bcc_set_psr
                0x000000004003eae4                bcc_get_psr
                0x000000004003eaec                bcc_get_pil
                0x000000004003eafc                bcc_set_tbr
                0x000000004003eb14                bcc_get_tbr
 .text          0x000000004003eb20       0x50 c:/opt/bcc-2.0.2-gcc/bin/../sparc-gaisler-elf/bsp/leon2/leon/mfix-at697f\libbcc.a(lowlevel_leon2.S.o)
                0x000000004003eb20                bcc_set_ccr
                0x000000004003eb30                bcc_get_ccr
                0x000000004003eb40                bcc_flush_cache
                0x000000004003eb4c                bcc_flush_icache
                0x000000004003eb54                bcc_flush_dcache
                0x000000004003eb5c                bcc_power_down
 .text          0x000000004003eb70      0x160 c:/opt/bcc-2.0.2-gcc/bin/../sparc-gaisler-elf/bsp/leon2/leon/mfix-at697f\libbcc.a(int_leon2.c.o)
                0x000000004003eb70                bcc_int_mask
                0x000000004003ebc0                bcc_int_unmask
                0x000000004003ec10                bcc_int_clear
                0x000000004003ec48                bcc_int_force
                0x000000004003ec8c                bcc_int_pend
 .text          0x000000004003ecd0        0x8 c:/opt/bcc-2.0.2-gcc/bin/../sparc-gaisler-elf/bsp/leon2/leon/mfix-at697f\libbcc.a(int_leon2_get_source.c.o)
                0x000000004003ecd0                __bcc_int_get_source
 .text          0x000000004003ecd8        0x8 c:/opt/bcc-2.0.2-gcc/bin/../sparc-gaisler-elf/bsp/leon2/leon/mfix-at697f\libbcc.a(int_leon2_init.c.o)
                0x000000004003ecd8                __bcc_int_init
 .text          0x000000004003ece0       0x70 c:/opt/bcc-2.0.2-gcc/bin/../sparc-gaisler-elf/bsp/leon2/leon/mfix-at697f\libbcc.a(con_leon2.c.o)
                0x000000004003ece0                __bcc_con_init
                0x000000004003ece8                __bcc_con_outbyte
                0x000000004003ed1c                __bcc_con_inbyte
 .text          0x000000004003ed50       0x30 c:/opt/bcc-2.0.2-gcc/bin/../sparc-gaisler-elf/bsp/leon2/leon/mfix-at697f\libbcc.a(timer_leon2.c.o)
                0x000000004003ed50                __bcc_timer_init
                0x000000004003ed58                bcc_timer_get_us
 .text          0x000000004003ed80        0xc c:/opt/bcc-2.0.2-gcc/bin/../sparc-gaisler-elf/bsp/leon2/leon/mfix-at697f\libbcc.a(set_pil.S.o)
                0x000000004003ed80                bcc_set_pil
 .text          0x000000004003ed8c        0x0 c:/opt/bcc-2.0.2-gcc/bin/../sparc-gaisler-elf/bsp/leon2/leon/mfix-at697f\libbcc.a(int_leon2_handle.c.o)
 .text          0x000000004003ed8c        0x0 c:/opt/bcc-2.0.2-gcc/bin/../sparc-gaisler-elf/bsp/leon2/leon/mfix-at697f\libbcc.a(con_handle.c.o)
 .text          0x000000004003ed8c        0x0 c:/opt/bcc-2.0.2-gcc/bin/../sparc-gaisler-elf/bsp/leon2/leon/mfix-at697f\libbcc.a(timer_handle.c.o)
 .text          0x000000004003ed8c       0x1c c:/opt/bcc-2.0.2-gcc/bin/../lib/gcc/sparc-gaisler-elf/7.2.0/../../../../sparc-gaisler-elf/lib/leon/mfix-at697f\libc.a(lib_a-atexit.o)
                0x000000004003ed8c                atexit
 .text          0x000000004003eda8        0xc c:/opt/bcc-2.0.2-gcc/bin/../lib/gcc/sparc-gaisler-elf/7.2.0/../../../../sparc-gaisler-elf/lib/leon/mfix-at697f\libc.a(lib_a-errno.o)
                0x000000004003eda8                __errno
 .text          0x000000004003edb4       0x3c c:/opt/bcc-2.0.2-gcc/bin/../lib/gcc/sparc-gaisler-elf/7.2.0/../../../../sparc-gaisler-elf/lib/leon/mfix-at697f\libc.a(lib_a-exit.o)
                0x000000004003edb4                exit
 .text          0x000000004003edf0        0x0 c:/opt/bcc-2.0.2-gcc/bin/../lib/gcc/sparc-gaisler-elf/7.2.0/../../../../sparc-gaisler-elf/lib/leon/mfix-at697f\libc.a(lib_a-impure.o)
 .text          0x000000004003edf0      0x19c c:/opt/bcc-2.0.2-gcc/bin/../lib/gcc/sparc-gaisler-elf/7.2.0/../../../../sparc-gaisler-elf/lib/leon/mfix-at697f\libc.a(lib_a-memcpy.o)
                0x000000004003edf0                memcpy
 .text          0x000000004003ef8c      0x158 c:/opt/bcc-2.0.2-gcc/bin/../lib/gcc/sparc-gaisler-elf/7.2.0/../../../../sparc-gaisler-elf/lib/leon/mfix-at697f\libc.a(lib_a-__atexit.o)
                0x000000004003ef8c                __register_exitproc
 .text          0x000000004003f0e4      0x2b4 c:/opt/bcc-2.0.2-gcc/bin/../lib/gcc/sparc-gaisler-elf/7.2.0/../../../../sparc-gaisler-elf/lib/leon/mfix-at697f\libc.a(lib_a-__call_atexit.o)
                0x000000004003f0e4                __call_exitprocs
 .text          0x000000004003f398       0x18 c:/opt/bcc-2.0.2-gcc/bin/../sparc-gaisler-elf/bsp/leon2/leon/mfix-at697f\libbcc.a(_exit.S.o)
                0x000000004003f398                _exit
 .text          0x000000004003f3b0       0x48 c:/opt/bcc-2.0.2-gcc/bin/../lib/gcc/sparc-gaisler-elf/7.2.0/leon/mfix-at697f/crtend.o
 .text          0x000000004003f3f8        0x0 c:/opt/bcc-2.0.2-gcc/bin/../lib/gcc/sparc-gaisler-elf/7.2.0/leon/mfix-at697f/crtn.o
                0x000000004003f400                . = ALIGN (0x10)
 *fill*         0x000000004003f3f8        0x8 
 *(.eh_frame)
 .eh_frame      0x000000004003f400        0x0 c:/opt/bcc-2.0.2-gcc/bin/../lib/gcc/sparc-gaisler-elf/7.2.0/leon/mfix-at697f/crtbegin.o
 .eh_frame      0x000000004003f400        0x4 c:/opt/bcc-2.0.2-gcc/bin/../lib/gcc/sparc-gaisler-elf/7.2.0/leon/mfix-at697f/crtend.o
                0x000000004003f410                . = ALIGN (0x10)
 *fill*         0x000000004003f404        0xc 
 *(.gnu.linkonce.t*)
                0x000000004003f410                ___CTOR_LIST__ = .
                0x000000004003f410        0x4 LONG 0x2 (((___CTOR_END__ - ___CTOR_LIST__) / 0x4) - 0x2)
 *(SORT(.ctors.*))
 *(.ctors)
 .ctors         0x000000004003f414        0x4 c:/opt/bcc-2.0.2-gcc/bin/../lib/gcc/sparc-gaisler-elf/7.2.0/leon/mfix-at697f/crtbegin.o
 .ctors         0x000000004003f418        0x4 c:/opt/bcc-2.0.2-gcc/bin/../lib/gcc/sparc-gaisler-elf/7.2.0/leon/mfix-at697f/crtend.o
                0x000000004003f41c        0x4 LONG 0x0
                0x000000004003f420                ___CTOR_END__ = .
                0x000000004003f420                ___DTOR_LIST__ = .
                0x000000004003f420        0x4 LONG 0x2 (((___DTOR_END__ - ___DTOR_LIST__) / 0x4) - 0x2)
 *(SORT(.dtors.*))
 *(.dtors)
 .dtors         0x000000004003f424        0x4 c:/opt/bcc-2.0.2-gcc/bin/../lib/gcc/sparc-gaisler-elf/7.2.0/leon/mfix-at697f/crtbegin.o
 .dtors         0x000000004003f428        0x4 c:/opt/bcc-2.0.2-gcc/bin/../lib/gcc/sparc-gaisler-elf/7.2.0/leon/mfix-at697f/crtend.o
                0x000000004003f428                __DTOR_END__
                0x000000004003f42c        0x4 LONG 0x0
                0x000000004003f430                ___DTOR_END__ = .
 *(.gnu.linkonce*)
 *(.init)
 .init          0x000000004003f430        0x4 c:/opt/bcc-2.0.2-gcc/bin/../lib/gcc/sparc-gaisler-elf/7.2.0/leon/mfix-at697f/crti.o
                0x000000004003f430                _init
 .init          0x000000004003f434        0x8 c:/opt/bcc-2.0.2-gcc/bin/../lib/gcc/sparc-gaisler-elf/7.2.0/leon/mfix-at697f/crtbegin.o
 .init          0x000000004003f43c        0x8 c:/opt/bcc-2.0.2-gcc/bin/../lib/gcc/sparc-gaisler-elf/7.2.0/leon/mfix-at697f/crtend.o
 .init          0x000000004003f444        0xc c:/opt/bcc-2.0.2-gcc/bin/../lib/gcc/sparc-gaisler-elf/7.2.0/leon/mfix-at697f/crtn.o
 *(.fini)
 .fini          0x000000004003f450        0x4 c:/opt/bcc-2.0.2-gcc/bin/../lib/gcc/sparc-gaisler-elf/7.2.0/leon/mfix-at697f/crti.o
                0x000000004003f450                _fini
 .fini          0x000000004003f454        0x8 c:/opt/bcc-2.0.2-gcc/bin/../lib/gcc/sparc-gaisler-elf/7.2.0/leon/mfix-at697f/crtbegin.o
 .fini          0x000000004003f45c        0xc c:/opt/bcc-2.0.2-gcc/bin/../lib/gcc/sparc-gaisler-elf/7.2.0/leon/mfix-at697f/crtn.o
 *(.lit)
 *(.shdata)
                0x000000004003f470                . = ALIGN (0x10)
 *fill*         0x000000004003f468        0x8 
                0x000000004003f470                __text_end = .

.gcc_except_table
 *(.gcc_except_table)

.rodata         0x000000004003f470     0x5130
                0x000000004003f470                __rodata_start = .
 *(.rodata*)
 .rodata.cst8   0x000000004003f470       0x38 C:\Users\ajarr\AppData\Local\Temp\ccgtKLQ9.o
 .rodata        0x000000004003f4a8        0x0 C:\Users\ajarr\AppData\Local\Temp\ccZ3M43h.o
 .rodata        0x000000004003f4a8       0x10 C:\Users\ajarr\AppData\Local\Temp\ccnGtmfO.o
 .rodata.cst4   0x000000004003f4b8        0x4 C:\Users\ajarr\AppData\Local\Temp\ccEMnW47.o
 .rodata        0x000000004003f4bc        0x0 C:\Users\ajarr\AppData\Local\Temp\ccEMnW47.o
 .rodata        0x000000004003f4bc        0x0 C:\Users\ajarr\AppData\Local\Temp\cczbQmCd.o
 *fill*         0x000000004003f4bc        0x4 
 .rodata.cst8   0x000000004003f4c0        0x8 C:\Users\ajarr\AppData\Local\Temp\ccovS4yg.o
 .rodata.cst8   0x000000004003f4c8       0x58 C:\Users\ajarr\AppData\Local\Temp\ccXhqPVa.o
                                         0xc8 (size before relaxing)
 .rodata.cst4   0x000000004003f520        0x4 C:\Users\ajarr\AppData\Local\Temp\ccXhqPVa.o
 *fill*         0x000000004003f524        0x4 
 .rodata.cst8   0x000000004003f528       0x18 C:\Users\ajarr\AppData\Local\Temp\ccNMwkyO.o
                                         0x78 (size before relaxing)
 .rodata        0x000000004003f540     0x4724 C:\Users\ajarr\AppData\Local\Temp\ccDl90Kv.o
                0x000000004003f540                c_I_nine_cross_nine
                0x000000004003f7c8                c_I_three_cross_three
                0x000000004003f810                c_Tv_wof_0034
                0x000000004003f858                c_Tv_wof_0204
                0x000000004003f8a0                c_Tv_wof_0230
                0x000000004003f8e8                c_Tv_wof_1004
                0x000000004003f930                c_Tv_wof_1030
                0x000000004003f978                c_Tv_wof_1200
                0x000000004003f9c0                c_B2wh_mat_0034
                0x000000004003fa20                c_B2wh_mat_0204
                0x000000004003fa80                c_B2wh_mat_0230
                0x000000004003fae0                c_B2wh_mat_1004
                0x000000004003fb40                c_B2wh_mat_1030
                0x000000004003fba0                c_B2wh_mat_1200
                0x000000004003fc00                c_B2wh_mat_0234
                0x000000004003fc60                c_B2wh_mat_1034
                0x000000004003fcc0                c_B2wh_mat_1204
                0x000000004003fd20                c_B2wh_mat_1230
                0x000000004003fd80                c_B2wh_mat_4RW
                0x000000004003fde0                c_wh2B_mat_0034
                0x000000004003fe40                c_wh2B_mat_0204
                0x000000004003fea0                c_wh2B_mat_0230
                0x000000004003ff00                c_wh2B_mat_1004
                0x000000004003ff60                c_wh2B_mat_1030
                0x000000004003ffc0                c_wh2B_mat_1200
                0x0000000040040020                c_wh2B_mat_0234
                0x0000000040040080                c_wh2B_mat_1034
                0x00000000400400e0                c_wh2B_mat_1204
                0x0000000040040140                c_wh2B_mat_1230
                0x00000000400401a0                c_wh2B_mat_4RW
                0x0000000040040200                c_MOI_wh
                0x0000000040040208                c_MOI_wh4
                0x0000000040040210                c_MOI_wh3
                0x0000000040040218                c_MOI_wh2
                0x0000000040040220                c_MOI_wh1
                0x0000000040040228                TC_T_RW_MAX
                0x0000000040040230                c_RADps2RPM
                0x0000000040040238                c_RPM2RADpS
                0x0000000040040240                c_DPMMAX
                0x0000000040040248                c_wkm_sunmag
                0x0000000040040250                c_wks_sunmag
                0x0000000040040258                c_wkm_mag
                0x0000000040040260                c_wks_mag
                0x0000000040040268                c_ss2b4156
                0x00000000400402b0                c_ss2b3456
                0x00000000400402f8                c_ss2b2356
                0x0000000040040340                c_ss2b1256
                0x0000000040040388                c_misaln_cor146
                0x00000000400403d0                c_misaln_cor145
                0x0000000040040418                c_misaln_cor346
                0x0000000040040460                c_misaln_cor345
                0x00000000400404a8                c_misaln_cor326
                0x00000000400404f0                c_misaln_cor325
                0x0000000040040538                c_misaln_cor126
                0x0000000040040580                c_misaln_cor125
                0x00000000400405c8                c_AngDev_SAMtransit_thrsld
                0x00000000400405d0                c_AngDev_SMtransit_thrsld
                0x00000000400405d8                c_Sunlit_Thrsld
                0x00000000400405e0                c_SSThrsld
                0x00000000400405e8                c_Imax_YN_Main
                0x00000000400405f0                c_Imax_YP_Main
                0x00000000400405f8                c_Imax_PN_Main
                0x0000000040040600                c_Imax_PP_Main
                0x0000000040040608                c_Imax_RNND_Main
                0x0000000040040610                c_Imax_RPND_Main
                0x0000000040040618                c_Imax_RND_Main
                0x0000000040040620                c_Imax_RPD_Main
                0x0000000040040628                c_Imax_YN_Red
                0x0000000040040630                c_Imax_YP_Red
                0x0000000040040638                c_Imax_PN_Red
                0x0000000040040640                c_Imax_PP_Red
                0x0000000040040648                c_Imax_RNND_Red
                0x0000000040040650                c_Imax_RPND_Red
                0x0000000040040658                c_Imax_RND_Red
                0x0000000040040660                c_Imax_RPD_Red
                0x0000000040040668                c_KDset3
                0x0000000040040670                c_KDset2
                0x0000000040040678                c_KDset1
                0x0000000040040680                c_Epsilon2
                0x0000000040040688                c_Epsilon1
                0x0000000040040690                c_Sun_Dis3
                0x0000000040040698                c_Sun_Dis2
                0x00000000400406a0                c_Sun_Dis1
                0x00000000400406a8                c_L_Ecliptic2
                0x00000000400406b0                c_L_Ecliptic1
                0x00000000400406b8                c_Msun2
                0x00000000400406c0                c_Msun1
                0x00000000400406c8                c_L_Msun2
                0x00000000400406d0                c_L_Msun1
                0x00000000400406d8                c_hsval
                0x0000000040040a18                c_hval
                0x0000000040040d58                c_gsval
                0x0000000040041098                c_gval
                0x00000000400413d8                c_sdmax
                0x00000000400413e0                c_a
                0x00000000400413e8                c_Pibytwo
                0x00000000400413f0                c_Kmax
                0x00000000400413f4                c_Nmax
                0x00000000400413f8                nut
                0x0000000040043518                fc
                0x00000000400435e0                c_rk_T
                0x0000000040043868                c_rk
                0x0000000040043af0                c_I_four_cross_four
                0x0000000040043b30                c_onesecond
                0x0000000040043b38                c_oneminute
                0x0000000040043b40                c_halfhour
                0x0000000040043b48                c_Mmax
                0x0000000040043b50                c_AS2R
                0x0000000040043b58                c_R2D
                0x0000000040043b60                c_D2R
                0x0000000040043b68                c_min_per_day
                0x0000000040043b70                c_temp4
                0x0000000040043b78                c_j4
                0x0000000040043b80                c_j3oj2
                0x0000000040043b88                c_qzms2t
                0x0000000040043b90                c_ss
                0x0000000040043b98                c_xpdotp
                0x0000000040043ba0                c_Pi
                0x0000000040043ba8                c_Day_To_Seconds
                0x0000000040043bb0                c_invmu
                0x0000000040043bb8                c_mu
                0x0000000040043bc0                c_dividebyzerovalue
                0x0000000040043bc8                c_xke
                0x0000000040043bd0                c_x2o3
                0x0000000040043bd8                c_Twopi
                0x0000000040043be0                c_j2
                0x0000000040043be8                c_au
                0x0000000040043bf0                c_auer
                0x0000000040043bf8                c_radiusearthkm
                0x0000000040043c00                c_vkmpersec
                0x0000000040043c08                c_OMEGAE
                0x0000000040043c10                c_tsince_min
                0x0000000040043c18                c_twomu
                0x0000000040043c20                c_MiC
                0x0000000040043c28                c_MaC
                0x0000000040043c30                c_TM_RW_Resol
                0x0000000040043c38                c_TM_Resol_B
                0x0000000040043c40                c_TM_Resol_w
                0x0000000040043c48                c_TM_Resol_DelThta
                0x0000000040043c50                c_Resol_DelThta
                0x0000000040043c58                c_Resol_B
                0x0000000040043c60                c_FFFF
 *fill*         0x0000000040043c64        0x4 
 .rodata.cst8   0x0000000040043c68       0x58 C:\Users\ajarr\AppData\Local\Temp\ccwbk5Wx.o
                                         0xb0 (size before relaxing)
 .rodata.cst8   0x0000000040043cc0       0x30 C:\Users\ajarr\AppData\Local\Temp\cc1MBP0N.o
                                         0x78 (size before relaxing)
 .rodata        0x0000000040043cf0        0x0 C:\Users\ajarr\AppData\Local\Temp\cc1MBP0N.o
 .rodata.cst8   0x0000000040043cf0       0x48 C:\Users\ajarr\AppData\Local\Temp\cc8WbBCy.o
                                         0x68 (size before relaxing)
 .rodata.cst4   0x0000000040043d38        0x8 C:\Users\ajarr\AppData\Local\Temp\cc8WbBCy.o
 .rodata.cst8   0x0000000040043d40       0x38 C:\Users\ajarr\AppData\Local\Temp\cc8e2yNj.o
                                         0xa0 (size before relaxing)
 .rodata.cst4   0x0000000040043d78        0x8 C:\Users\ajarr\AppData\Local\Temp\cc8e2yNj.o
                                          0xc (size before relaxing)
 .rodata.cst8   0x0000000040043d80      0x290 C:\Users\ajarr\AppData\Local\Temp\ccjuLCXH.o
                                        0x3c0 (size before relaxing)
 .rodata.cst8   0x0000000040044010       0x88 C:\Users\ajarr\AppData\Local\Temp\ccGb5JPl.o
 .rodata.cst8   0x0000000040044010       0xa8 c:/opt/bcc-2.0.2-gcc/bin/../lib/gcc/sparc-gaisler-elf/7.2.0/../../../../sparc-gaisler-elf/lib/leon/mfix-at697f\libm.a(lib_a-s_atan.o)
                                         0xd0 (size before relaxing)
 .rodata.cst8   0x00000000400440b8       0x10 c:/opt/bcc-2.0.2-gcc/bin/../lib/gcc/sparc-gaisler-elf/7.2.0/../../../../sparc-gaisler-elf/lib/leon/mfix-at697f\libm.a(lib_a-s_floor.o)
 .rodata.str1.8
                0x00000000400440b8        0x9 c:/opt/bcc-2.0.2-gcc/bin/../lib/gcc/sparc-gaisler-elf/7.2.0/../../../../sparc-gaisler-elf/lib/leon/mfix-at697f\libm.a(lib_a-w_acos.o)
 .rodata.cst8   0x00000000400440c1        0x8 c:/opt/bcc-2.0.2-gcc/bin/../lib/gcc/sparc-gaisler-elf/7.2.0/../../../../sparc-gaisler-elf/lib/leon/mfix-at697f\libm.a(lib_a-w_acos.o)
 *fill*         0x00000000400440c1        0x7 
 .rodata.str1.8
                0x00000000400440c8        0x5 c:/opt/bcc-2.0.2-gcc/bin/../lib/gcc/sparc-gaisler-elf/7.2.0/../../../../sparc-gaisler-elf/lib/leon/mfix-at697f\libm.a(lib_a-w_asin.o)
                                          0x9 (size before relaxing)
 .rodata.cst8   0x00000000400440cd        0x8 c:/opt/bcc-2.0.2-gcc/bin/../lib/gcc/sparc-gaisler-elf/7.2.0/../../../../sparc-gaisler-elf/lib/leon/mfix-at697f\libm.a(lib_a-w_asin.o)
 *fill*         0x00000000400440cd        0x3 
 .rodata.str1.8
                0x00000000400440d0        0x5 c:/opt/bcc-2.0.2-gcc/bin/../lib/gcc/sparc-gaisler-elf/7.2.0/../../../../sparc-gaisler-elf/lib/leon/mfix-at697f\libm.a(lib_a-w_fmod.o)
 .rodata.cst8   0x00000000400440d5        0x8 c:/opt/bcc-2.0.2-gcc/bin/../lib/gcc/sparc-gaisler-elf/7.2.0/../../../../sparc-gaisler-elf/lib/leon/mfix-at697f\libm.a(lib_a-w_fmod.o)
 *fill*         0x00000000400440d5        0x3 
 .rodata.str1.8
                0x00000000400440d8        0x4 c:/opt/bcc-2.0.2-gcc/bin/../lib/gcc/sparc-gaisler-elf/7.2.0/../../../../sparc-gaisler-elf/lib/leon/mfix-at697f\libm.a(lib_a-w_pow.o)
 *fill*         0x00000000400440dc        0x4 
 .rodata.cst8   0x00000000400440e0       0x20 c:/opt/bcc-2.0.2-gcc/bin/../lib/gcc/sparc-gaisler-elf/7.2.0/../../../../sparc-gaisler-elf/lib/leon/mfix-at697f\libm.a(lib_a-w_pow.o)
                                         0x38 (size before relaxing)
 .rodata.str1.8
                0x0000000040044100        0x8 c:/opt/bcc-2.0.2-gcc/bin/../lib/gcc/sparc-gaisler-elf/7.2.0/../../../../sparc-gaisler-elf/lib/leon/mfix-at697f\libm.a(lib_a-w_sqrt.o)
                                          0x5 (size before relaxing)
 .rodata.cst8   0x0000000040044108        0x8 c:/opt/bcc-2.0.2-gcc/bin/../lib/gcc/sparc-gaisler-elf/7.2.0/../../../../sparc-gaisler-elf/lib/leon/mfix-at697f\libm.a(lib_a-w_sqrt.o)
 .rodata.cst8   0x0000000040044108       0x58 c:/opt/bcc-2.0.2-gcc/bin/../lib/gcc/sparc-gaisler-elf/7.2.0/../../../../sparc-gaisler-elf/lib/leon/mfix-at697f\libm.a(lib_a-e_acos.o)
                                         0x80 (size before relaxing)
 .rodata.cst8   0x0000000040044160       0x80 c:/opt/bcc-2.0.2-gcc/bin/../lib/gcc/sparc-gaisler-elf/7.2.0/../../../../sparc-gaisler-elf/lib/leon/mfix-at697f\libm.a(lib_a-e_asin.o)
 .rodata.cst8   0x0000000040044160       0x28 c:/opt/bcc-2.0.2-gcc/bin/../lib/gcc/sparc-gaisler-elf/7.2.0/../../../../sparc-gaisler-elf/lib/leon/mfix-at697f\libm.a(lib_a-e_atan2.o)
                                         0x58 (size before relaxing)
 .rodata        0x0000000040044188       0x10 c:/opt/bcc-2.0.2-gcc/bin/../lib/gcc/sparc-gaisler-elf/7.2.0/../../../../sparc-gaisler-elf/lib/leon/mfix-at697f\libm.a(lib_a-e_fmod.o)
 .rodata.str1.8
                0x0000000040044198        0x1 c:/opt/bcc-2.0.2-gcc/bin/../lib/gcc/sparc-gaisler-elf/7.2.0/../../../../sparc-gaisler-elf/lib/leon/mfix-at697f\libm.a(lib_a-e_pow.o)
 .rodata.cst8   0x0000000040044198       0xc8 c:/opt/bcc-2.0.2-gcc/bin/../lib/gcc/sparc-gaisler-elf/7.2.0/../../../../sparc-gaisler-elf/lib/leon/mfix-at697f\libm.a(lib_a-e_pow.o)
                                        0x120 (size before relaxing)
 .rodata.cst8   0x0000000040044260       0x40 c:/opt/bcc-2.0.2-gcc/bin/../lib/gcc/sparc-gaisler-elf/7.2.0/../../../../sparc-gaisler-elf/lib/leon/mfix-at697f\libm.a(lib_a-e_rem_pio2.o)
                                         0x50 (size before relaxing)
 .rodata        0x00000000400442a0      0x188 c:/opt/bcc-2.0.2-gcc/bin/../lib/gcc/sparc-gaisler-elf/7.2.0/../../../../sparc-gaisler-elf/lib/leon/mfix-at697f\libm.a(lib_a-e_rem_pio2.o)
 .rodata.cst8   0x0000000040044428       0x40 c:/opt/bcc-2.0.2-gcc/bin/../lib/gcc/sparc-gaisler-elf/7.2.0/../../../../sparc-gaisler-elf/lib/leon/mfix-at697f\libm.a(lib_a-k_cos.o)
                                         0x50 (size before relaxing)
 .rodata.cst8   0x0000000040044468       0x50 c:/opt/bcc-2.0.2-gcc/bin/../lib/gcc/sparc-gaisler-elf/7.2.0/../../../../sparc-gaisler-elf/lib/leon/mfix-at697f\libm.a(lib_a-k_rem_pio2.o)
                                         0x78 (size before relaxing)
 .rodata        0x00000000400444b8       0x10 c:/opt/bcc-2.0.2-gcc/bin/../lib/gcc/sparc-gaisler-elf/7.2.0/../../../../sparc-gaisler-elf/lib/leon/mfix-at697f\libm.a(lib_a-k_rem_pio2.o)
 .rodata.cst8   0x00000000400444c8       0x30 c:/opt/bcc-2.0.2-gcc/bin/../lib/gcc/sparc-gaisler-elf/7.2.0/../../../../sparc-gaisler-elf/lib/leon/mfix-at697f\libm.a(lib_a-k_sin.o)
                                         0x38 (size before relaxing)
 .rodata.cst8   0x00000000400444f8       0x68 c:/opt/bcc-2.0.2-gcc/bin/../lib/gcc/sparc-gaisler-elf/7.2.0/../../../../sparc-gaisler-elf/lib/leon/mfix-at697f\libm.a(lib_a-k_tan.o)
                                         0x90 (size before relaxing)
 .rodata.cst8   0x0000000040044560        0x8 c:/opt/bcc-2.0.2-gcc/bin/../lib/gcc/sparc-gaisler-elf/7.2.0/../../../../sparc-gaisler-elf/lib/leon/mfix-at697f\libm.a(lib_a-s_nan.o)
 .rodata        0x0000000040044568       0x10 c:/opt/bcc-2.0.2-gcc/bin/../lib/gcc/sparc-gaisler-elf/7.2.0/../../../../sparc-gaisler-elf/lib/leon/mfix-at697f\libm.a(lib_a-s_rint.o)
 .rodata.cst8   0x0000000040044578       0x18 c:/opt/bcc-2.0.2-gcc/bin/../lib/gcc/sparc-gaisler-elf/7.2.0/../../../../sparc-gaisler-elf/lib/leon/mfix-at697f\libm.a(lib_a-s_scalbn.o)
                                         0x20 (size before relaxing)
 .rodata        0x0000000040044590        0x4 c:/opt/bcc-2.0.2-gcc/bin/../lib/gcc/sparc-gaisler-elf/7.2.0/../../../../sparc-gaisler-elf/lib/leon/mfix-at697f\libc.a(lib_a-impure.o)
                0x0000000040044590                _global_impure_ptr
 *(.gnu.linkonce.r*)
                0x00000000400445a0                . = ALIGN (0x10)
 *fill*         0x0000000040044594        0xc 
                0x00000000400445a0                __rodata_end = .

.rela.dyn       0x00000000400445a0        0x0
 .rela.iplt     0x00000000400445a0        0x0 c:/opt/bcc-2.0.2-gcc/bin/../sparc-gaisler-elf/bsp/leon2/leon/mfix-at697f/trap_table_mvt.S.o
 .rela.text.traptable
                0x00000000400445a0        0x0 c:/opt/bcc-2.0.2-gcc/bin/../sparc-gaisler-elf/bsp/leon2/leon/mfix-at697f/trap_table_mvt.S.o
 .rela.text     0x00000000400445a0        0x0 c:/opt/bcc-2.0.2-gcc/bin/../sparc-gaisler-elf/bsp/leon2/leon/mfix-at697f/trap_table_mvt.S.o
 .rela.text.startup
                0x00000000400445a0        0x0 c:/opt/bcc-2.0.2-gcc/bin/../sparc-gaisler-elf/bsp/leon2/leon/mfix-at697f/trap_table_mvt.S.o
 .rela.data     0x00000000400445a0        0x0 c:/opt/bcc-2.0.2-gcc/bin/../sparc-gaisler-elf/bsp/leon2/leon/mfix-at697f/trap_table_mvt.S.o

.ext.data       0x00000000400445a0        0x0
                0x00000000400445a0                . = ALIGN (0x8)
                0x00000000400445a0                __extdata_start = .
 *(.data.ext)
                0x00000000400445a0                . = ALIGN (0x8)
                0x00000000400445a0                __extdata_end = .
                0x00000000400445a0                __extdata_start_lma = LOADADDR (.ext.data)
                0x0000000000000000                __extdata_size = SIZEOF (.ext.data)

.data           0x00000000400445a0      0x540
                0x00000000400445a0                . = ALIGN (0x8)
                0x00000000400445a0                __data_start = .
 *(.data .data.*)
 .data          0x00000000400445a0        0x0 c:/opt/bcc-2.0.2-gcc/bin/../sparc-gaisler-elf/bsp/leon2/leon/mfix-at697f/trap_table_mvt.S.o
 .data          0x00000000400445a0        0x0 c:/opt/bcc-2.0.2-gcc/bin/../sparc-gaisler-elf/bsp/leon2/leon/mfix-at697f/crt0.S.o
 .data          0x00000000400445a0        0x0 c:/opt/bcc-2.0.2-gcc/bin/../lib/gcc/sparc-gaisler-elf/7.2.0/leon/mfix-at697f/crti.o
 .data          0x00000000400445a0        0x4 c:/opt/bcc-2.0.2-gcc/bin/../lib/gcc/sparc-gaisler-elf/7.2.0/leon/mfix-at697f/crtbegin.o
                0x00000000400445a0                __dso_handle
 .data          0x00000000400445a4        0x0 C:\Users\ajarr\AppData\Local\Temp\ccgtKLQ9.o
 .data          0x00000000400445a4        0x0 C:\Users\ajarr\AppData\Local\Temp\ccZ3M43h.o
 .data          0x00000000400445a4       0x24 C:\Users\ajarr\AppData\Local\Temp\ccnGtmfO.o
                0x00000000400445b8                test_st_sp_d
                0x00000000400445bc                test_st_sp_c
                0x00000000400445c0                test_st_sp_b
                0x00000000400445c1                test_st_b
                0x00000000400445c2                test_st
                0x00000000400445c4                real_tm_wait
 .data          0x00000000400445c8      0x390 C:\Users\ajarr\AppData\Local\Temp\ccEMnW47.o
                0x00000000400445c8                Resol_Table_Adcs
                0x0000000040044690                BlkExe_Status
                0x0000000040044694                FuncExecute_Table
                0x00000000400448ec                Resol_Table
 .data          0x0000000040044958        0x0 C:\Users\ajarr\AppData\Local\Temp\cc3Yg1qw.o
 .data          0x0000000040044958        0x0 C:\Users\ajarr\AppData\Local\Temp\ccxnFfLM.o
 .data          0x0000000040044958        0x8 C:\Users\ajarr\AppData\Local\Temp\cczbQmCd.o
                0x0000000040044958                PL_Debug_Data
 .data          0x0000000040044960       0x20 C:\Users\ajarr\AppData\Local\Temp\ccp71scL.o
                0x0000000040044960                inter_HAL_EPS_Hardware_Status_SEL
 .data          0x0000000040044980        0x0 C:\Users\ajarr\AppData\Local\Temp\ccf1qWep.o
 .data          0x0000000040044980        0x0 C:\Users\ajarr\AppData\Local\Temp\cclXIhGd.o
 .data          0x0000000040044980        0x0 C:\Users\ajarr\AppData\Local\Temp\cclUyX1f.o
 .data          0x0000000040044980       0xbc C:\Users\ajarr\AppData\Local\Temp\ccYAcwQn.o
                0x0000000040044980                Auto_manual
                0x0000000040044984                UTP
                0x00000000400449c4                LTP
                0x0000000040044a04                Thermister_index_select
 .data          0x0000000040044a3c        0x0 C:\Users\ajarr\AppData\Local\Temp\ccjmXURG.o
 *fill*         0x0000000040044a3c        0x4 
 .data          0x0000000040044a40        0x4 C:\Users\ajarr\AppData\Local\Temp\ccovS4yg.o
                0x0000000040044a40                NSP_addr_table
 .data          0x0000000040044a44        0x0 C:\Users\ajarr\AppData\Local\Temp\ccduqfO0.o
 .data          0x0000000040044a44        0x0 C:\Users\ajarr\AppData\Local\Temp\ccXhqPVa.o
 .data          0x0000000040044a44        0x0 C:\Users\ajarr\AppData\Local\Temp\ccNMwkyO.o
 .data          0x0000000040044a44        0x0 C:\Users\ajarr\AppData\Local\Temp\ccDl90Kv.o
 .data          0x0000000040044a44        0x0 C:\Users\ajarr\AppData\Local\Temp\ccwbk5Wx.o
 .data          0x0000000040044a44        0x0 C:\Users\ajarr\AppData\Local\Temp\cc1MBP0N.o
 .data          0x0000000040044a44        0x0 C:\Users\ajarr\AppData\Local\Temp\cc8WbBCy.o
 .data          0x0000000040044a44        0x0 C:\Users\ajarr\AppData\Local\Temp\cc8e2yNj.o
 .data          0x0000000040044a44        0x0 C:\Users\ajarr\AppData\Local\Temp\ccasxzae.o
 .data          0x0000000040044a44        0x0 C:\Users\ajarr\AppData\Local\Temp\ccjuLCXH.o
 .data          0x0000000040044a44        0x0 C:\Users\ajarr\AppData\Local\Temp\ccGb5JPl.o
 .data          0x0000000040044a44        0x0 C:\Users\ajarr\AppData\Local\Temp\cclaJb28.o
 .data          0x0000000040044a44        0x0 c:/opt/bcc-2.0.2-gcc/bin/../lib/gcc/sparc-gaisler-elf/7.2.0/../../../../sparc-gaisler-elf/lib/leon/mfix-at697f\libm.a(lib_a-s_atan.o)
 .data          0x0000000040044a44        0x0 c:/opt/bcc-2.0.2-gcc/bin/../lib/gcc/sparc-gaisler-elf/7.2.0/../../../../sparc-gaisler-elf/lib/leon/mfix-at697f\libm.a(lib_a-s_cos.o)
 .data          0x0000000040044a44        0x0 c:/opt/bcc-2.0.2-gcc/bin/../lib/gcc/sparc-gaisler-elf/7.2.0/../../../../sparc-gaisler-elf/lib/leon/mfix-at697f\libm.a(lib_a-s_fabs.o)
 .data          0x0000000040044a44        0x0 c:/opt/bcc-2.0.2-gcc/bin/../lib/gcc/sparc-gaisler-elf/7.2.0/../../../../sparc-gaisler-elf/lib/leon/mfix-at697f\libm.a(lib_a-s_floor.o)
 .data          0x0000000040044a44        0x0 c:/opt/bcc-2.0.2-gcc/bin/../lib/gcc/sparc-gaisler-elf/7.2.0/../../../../sparc-gaisler-elf/lib/leon/mfix-at697f\libm.a(lib_a-s_round.o)
 .data          0x0000000040044a44        0x0 c:/opt/bcc-2.0.2-gcc/bin/../lib/gcc/sparc-gaisler-elf/7.2.0/../../../../sparc-gaisler-elf/lib/leon/mfix-at697f\libm.a(lib_a-s_sin.o)
 .data          0x0000000040044a44        0x0 c:/opt/bcc-2.0.2-gcc/bin/../lib/gcc/sparc-gaisler-elf/7.2.0/../../../../sparc-gaisler-elf/lib/leon/mfix-at697f\libm.a(lib_a-s_tan.o)
 .data          0x0000000040044a44        0x0 c:/opt/bcc-2.0.2-gcc/bin/../lib/gcc/sparc-gaisler-elf/7.2.0/../../../../sparc-gaisler-elf/lib/leon/mfix-at697f\libm.a(lib_a-w_acos.o)
 .data          0x0000000040044a44        0x0 c:/opt/bcc-2.0.2-gcc/bin/../lib/gcc/sparc-gaisler-elf/7.2.0/../../../../sparc-gaisler-elf/lib/leon/mfix-at697f\libm.a(lib_a-w_asin.o)
 .data          0x0000000040044a44        0x0 c:/opt/bcc-2.0.2-gcc/bin/../lib/gcc/sparc-gaisler-elf/7.2.0/../../../../sparc-gaisler-elf/lib/leon/mfix-at697f\libm.a(lib_a-w_atan2.o)
 .data          0x0000000040044a44        0x0 c:/opt/bcc-2.0.2-gcc/bin/../lib/gcc/sparc-gaisler-elf/7.2.0/../../../../sparc-gaisler-elf/lib/leon/mfix-at697f\libm.a(lib_a-w_fmod.o)
 .data          0x0000000040044a44        0x0 c:/opt/bcc-2.0.2-gcc/bin/../lib/gcc/sparc-gaisler-elf/7.2.0/../../../../sparc-gaisler-elf/lib/leon/mfix-at697f\libm.a(lib_a-w_pow.o)
 .data          0x0000000040044a44        0x0 c:/opt/bcc-2.0.2-gcc/bin/../lib/gcc/sparc-gaisler-elf/7.2.0/../../../../sparc-gaisler-elf/lib/leon/mfix-at697f\libm.a(lib_a-w_sqrt.o)
 .data          0x0000000040044a44        0x0 c:/opt/bcc-2.0.2-gcc/bin/../lib/gcc/sparc-gaisler-elf/7.2.0/../../../../sparc-gaisler-elf/lib/leon/mfix-at697f\libm.a(lib_a-e_acos.o)
 .data          0x0000000040044a44        0x0 c:/opt/bcc-2.0.2-gcc/bin/../lib/gcc/sparc-gaisler-elf/7.2.0/../../../../sparc-gaisler-elf/lib/leon/mfix-at697f\libm.a(lib_a-e_asin.o)
 .data          0x0000000040044a44        0x0 c:/opt/bcc-2.0.2-gcc/bin/../lib/gcc/sparc-gaisler-elf/7.2.0/../../../../sparc-gaisler-elf/lib/leon/mfix-at697f\libm.a(lib_a-e_atan2.o)
 .data          0x0000000040044a44        0x0 c:/opt/bcc-2.0.2-gcc/bin/../lib/gcc/sparc-gaisler-elf/7.2.0/../../../../sparc-gaisler-elf/lib/leon/mfix-at697f\libm.a(lib_a-e_fmod.o)
 .data          0x0000000040044a44        0x0 c:/opt/bcc-2.0.2-gcc/bin/../lib/gcc/sparc-gaisler-elf/7.2.0/../../../../sparc-gaisler-elf/lib/leon/mfix-at697f\libm.a(lib_a-e_pow.o)
 .data          0x0000000040044a44        0x0 c:/opt/bcc-2.0.2-gcc/bin/../lib/gcc/sparc-gaisler-elf/7.2.0/../../../../sparc-gaisler-elf/lib/leon/mfix-at697f\libm.a(lib_a-e_rem_pio2.o)
 .data          0x0000000040044a44        0x0 c:/opt/bcc-2.0.2-gcc/bin/../lib/gcc/sparc-gaisler-elf/7.2.0/../../../../sparc-gaisler-elf/lib/leon/mfix-at697f\libm.a(lib_a-e_sqrt.o)
 .data          0x0000000040044a44        0x0 c:/opt/bcc-2.0.2-gcc/bin/../lib/gcc/sparc-gaisler-elf/7.2.0/../../../../sparc-gaisler-elf/lib/leon/mfix-at697f\libm.a(lib_a-k_cos.o)
 .data          0x0000000040044a44        0x0 c:/opt/bcc-2.0.2-gcc/bin/../lib/gcc/sparc-gaisler-elf/7.2.0/../../../../sparc-gaisler-elf/lib/leon/mfix-at697f\libm.a(lib_a-k_rem_pio2.o)
 .data          0x0000000040044a44        0x0 c:/opt/bcc-2.0.2-gcc/bin/../lib/gcc/sparc-gaisler-elf/7.2.0/../../../../sparc-gaisler-elf/lib/leon/mfix-at697f\libm.a(lib_a-k_sin.o)
 .data          0x0000000040044a44        0x0 c:/opt/bcc-2.0.2-gcc/bin/../lib/gcc/sparc-gaisler-elf/7.2.0/../../../../sparc-gaisler-elf/lib/leon/mfix-at697f\libm.a(lib_a-k_tan.o)
 .data          0x0000000040044a44        0x0 c:/opt/bcc-2.0.2-gcc/bin/../lib/gcc/sparc-gaisler-elf/7.2.0/../../../../sparc-gaisler-elf/lib/leon/mfix-at697f\libm.a(lib_a-s_finite.o)
 .data          0x0000000040044a44        0x4 c:/opt/bcc-2.0.2-gcc/bin/../lib/gcc/sparc-gaisler-elf/7.2.0/../../../../sparc-gaisler-elf/lib/leon/mfix-at697f\libm.a(lib_a-s_lib_ver.o)
                0x0000000040044a44                __fdlib_version
 .data          0x0000000040044a48        0x0 c:/opt/bcc-2.0.2-gcc/bin/../lib/gcc/sparc-gaisler-elf/7.2.0/../../../../sparc-gaisler-elf/lib/leon/mfix-at697f\libm.a(lib_a-s_matherr.o)
 .data          0x0000000040044a48        0x0 c:/opt/bcc-2.0.2-gcc/bin/../lib/gcc/sparc-gaisler-elf/7.2.0/../../../../sparc-gaisler-elf/lib/leon/mfix-at697f\libm.a(lib_a-s_nan.o)
 .data          0x0000000040044a48        0x0 c:/opt/bcc-2.0.2-gcc/bin/../lib/gcc/sparc-gaisler-elf/7.2.0/../../../../sparc-gaisler-elf/lib/leon/mfix-at697f\libm.a(lib_a-s_rint.o)
 .data          0x0000000040044a48        0x0 c:/opt/bcc-2.0.2-gcc/bin/../lib/gcc/sparc-gaisler-elf/7.2.0/../../../../sparc-gaisler-elf/lib/leon/mfix-at697f\libm.a(lib_a-s_scalbn.o)
 .data          0x0000000040044a48        0x0 c:/opt/bcc-2.0.2-gcc/bin/../lib/gcc/sparc-gaisler-elf/7.2.0/../../../../sparc-gaisler-elf/lib/leon/mfix-at697f\libm.a(lib_a-s_copysign.o)
 .data          0x0000000040044a48        0x0 c:/opt/bcc-2.0.2-gcc/bin/../sparc-gaisler-elf/bsp/leon2/leon/mfix-at697f\libbcc.a(reset_trap_mvt.S.o)
 .data          0x0000000040044a48        0x0 c:/opt/bcc-2.0.2-gcc/bin/../sparc-gaisler-elf/bsp/leon2/leon/mfix-at697f\libbcc.a(window_trap.S.o)
 .data          0x0000000040044a48        0x0 c:/opt/bcc-2.0.2-gcc/bin/../sparc-gaisler-elf/bsp/leon2/leon/mfix-at697f\libbcc.a(interrupt_trap.S.o)
 .data          0x0000000040044a48        0x0 c:/opt/bcc-2.0.2-gcc/bin/../sparc-gaisler-elf/bsp/leon2/leon/mfix-at697f\libbcc.a(flush_windows_trap.S.o)
 .data          0x0000000040044a48        0x0 c:/opt/bcc-2.0.2-gcc/bin/../sparc-gaisler-elf/bsp/leon2/leon/mfix-at697f\libbcc.a(sw_trap_set_pil.S.o)
 .data          0x0000000040044a48        0x0 c:/opt/bcc-2.0.2-gcc/bin/../sparc-gaisler-elf/bsp/leon2/leon/mfix-at697f\libbcc.a(trap.c.o)
 .data          0x0000000040044a48        0x0 c:/opt/bcc-2.0.2-gcc/bin/../sparc-gaisler-elf/bsp/leon2/leon/mfix-at697f\libbcc.a(isr.c.o)
 .data          0x0000000040044a48       0x10 c:/opt/bcc-2.0.2-gcc/bin/../sparc-gaisler-elf/bsp/leon2/leon/mfix-at697f\libbcc.a(int_nest.c.o)
                0x0000000040044a48                __bcc_int_nest
 .data          0x0000000040044a58        0x0 c:/opt/bcc-2.0.2-gcc/bin/../sparc-gaisler-elf/bsp/leon2/leon/mfix-at697f\libbcc.a(init.S.o)
 .data          0x0000000040044a58       0x10 c:/opt/bcc-2.0.2-gcc/bin/../sparc-gaisler-elf/bsp/leon2/leon/mfix-at697f\libbcc.a(leon_info.S.o)
                0x0000000040044a58                __bcc_leon_version
                0x0000000040044a5c                __bcc_nwindows_min1
                0x0000000040044a60                __bcc_nwindows
                0x0000000040044a64                __bcc_cpuid
 .data          0x0000000040044a68        0x0 c:/opt/bcc-2.0.2-gcc/bin/../sparc-gaisler-elf/bsp/leon2/leon/mfix-at697f\libbcc.a(dwzero.S.o)
 .data          0x0000000040044a68        0x0 c:/opt/bcc-2.0.2-gcc/bin/../sparc-gaisler-elf/bsp/leon2/leon/mfix-at697f\libbcc.a(copy_data.c.o)
 .data          0x0000000040044a68        0x0 c:/opt/bcc-2.0.2-gcc/bin/../sparc-gaisler-elf/bsp/leon2/leon/mfix-at697f\libbcc.a(lowlevel.S.o)
 .data          0x0000000040044a68        0x0 c:/opt/bcc-2.0.2-gcc/bin/../sparc-gaisler-elf/bsp/leon2/leon/mfix-at697f\libbcc.a(lowlevel_leon2.S.o)
 .data          0x0000000040044a68        0x0 c:/opt/bcc-2.0.2-gcc/bin/../sparc-gaisler-elf/bsp/leon2/leon/mfix-at697f\libbcc.a(int_leon2.c.o)
 .data          0x0000000040044a68        0x0 c:/opt/bcc-2.0.2-gcc/bin/../sparc-gaisler-elf/bsp/leon2/leon/mfix-at697f\libbcc.a(int_leon2_get_source.c.o)
 .data          0x0000000040044a68        0x0 c:/opt/bcc-2.0.2-gcc/bin/../sparc-gaisler-elf/bsp/leon2/leon/mfix-at697f\libbcc.a(int_leon2_init.c.o)
 .data          0x0000000040044a68        0x0 c:/opt/bcc-2.0.2-gcc/bin/../sparc-gaisler-elf/bsp/leon2/leon/mfix-at697f\libbcc.a(con_leon2.c.o)
 .data          0x0000000040044a68        0x0 c:/opt/bcc-2.0.2-gcc/bin/../sparc-gaisler-elf/bsp/leon2/leon/mfix-at697f\libbcc.a(timer_leon2.c.o)
 .data          0x0000000040044a68        0x0 c:/opt/bcc-2.0.2-gcc/bin/../sparc-gaisler-elf/bsp/leon2/leon/mfix-at697f\libbcc.a(set_pil.S.o)
 .data          0x0000000040044a68        0x4 c:/opt/bcc-2.0.2-gcc/bin/../sparc-gaisler-elf/bsp/leon2/leon/mfix-at697f\libbcc.a(int_leon2_handle.c.o)
                0x0000000040044a68                __bcc_int_handle
 .data          0x0000000040044a6c        0x4 c:/opt/bcc-2.0.2-gcc/bin/../sparc-gaisler-elf/bsp/leon2/leon/mfix-at697f\libbcc.a(con_handle.c.o)
                0x0000000040044a6c                __bcc_con_handle
 .data          0x0000000040044a70        0x8 c:/opt/bcc-2.0.2-gcc/bin/../sparc-gaisler-elf/bsp/leon2/leon/mfix-at697f\libbcc.a(timer_handle.c.o)
                0x0000000040044a70                __bcc_timer_interrupt
                0x0000000040044a74                __bcc_timer_handle
 .data          0x0000000040044a78        0x0 c:/opt/bcc-2.0.2-gcc/bin/../lib/gcc/sparc-gaisler-elf/7.2.0/../../../../sparc-gaisler-elf/lib/leon/mfix-at697f\libc.a(lib_a-atexit.o)
 .data          0x0000000040044a78        0x0 c:/opt/bcc-2.0.2-gcc/bin/../lib/gcc/sparc-gaisler-elf/7.2.0/../../../../sparc-gaisler-elf/lib/leon/mfix-at697f\libc.a(lib_a-errno.o)
 .data          0x0000000040044a78        0x0 c:/opt/bcc-2.0.2-gcc/bin/../lib/gcc/sparc-gaisler-elf/7.2.0/../../../../sparc-gaisler-elf/lib/leon/mfix-at697f\libc.a(lib_a-exit.o)
 .data          0x0000000040044a78       0x64 c:/opt/bcc-2.0.2-gcc/bin/../lib/gcc/sparc-gaisler-elf/7.2.0/../../../../sparc-gaisler-elf/lib/leon/mfix-at697f\libc.a(lib_a-impure.o)
                0x0000000040044a78                _impure_ptr
 .data          0x0000000040044adc        0x0 c:/opt/bcc-2.0.2-gcc/bin/../lib/gcc/sparc-gaisler-elf/7.2.0/../../../../sparc-gaisler-elf/lib/leon/mfix-at697f\libc.a(lib_a-memcpy.o)
 .data          0x0000000040044adc        0x0 c:/opt/bcc-2.0.2-gcc/bin/../lib/gcc/sparc-gaisler-elf/7.2.0/../../../../sparc-gaisler-elf/lib/leon/mfix-at697f\libc.a(lib_a-__atexit.o)
 .data          0x0000000040044adc        0x0 c:/opt/bcc-2.0.2-gcc/bin/../lib/gcc/sparc-gaisler-elf/7.2.0/../../../../sparc-gaisler-elf/lib/leon/mfix-at697f\libc.a(lib_a-__call_atexit.o)
 .data          0x0000000040044adc        0x0 c:/opt/bcc-2.0.2-gcc/bin/../sparc-gaisler-elf/bsp/leon2/leon/mfix-at697f\libbcc.a(_exit.S.o)
 .data          0x0000000040044adc        0x0 c:/opt/bcc-2.0.2-gcc/bin/../lib/gcc/sparc-gaisler-elf/7.2.0/leon/mfix-at697f/crtend.o
 .data          0x0000000040044adc        0x0 c:/opt/bcc-2.0.2-gcc/bin/../lib/gcc/sparc-gaisler-elf/7.2.0/leon/mfix-at697f/crtn.o
                0x0000000040044ae0                . = ALIGN (0x8)
 *fill*         0x0000000040044adc        0x4 
                0x0000000040044ae0                __data_end = .
                0x00000000400445a0                __data_start_lma = LOADADDR (.data)
                0x0000000000000540                __data_size = SIZEOF (.data)

.iplt           0x0000000040044ae0        0x0
 .iplt          0x0000000040044ae0        0x0 c:/opt/bcc-2.0.2-gcc/bin/../sparc-gaisler-elf/bsp/leon2/leon/mfix-at697f/trap_table_mvt.S.o

.tm_clone_table
                0x0000000040044ae0        0x0
 .tm_clone_table
                0x0000000040044ae0        0x0 c:/opt/bcc-2.0.2-gcc/bin/../lib/gcc/sparc-gaisler-elf/7.2.0/leon/mfix-at697f/crtbegin.o
 .tm_clone_table
                0x0000000040044ae0        0x0 c:/opt/bcc-2.0.2-gcc/bin/../lib/gcc/sparc-gaisler-elf/7.2.0/leon/mfix-at697f/crtend.o

.bss            0x0000000040044ae0    0x8e9b8
                0x0000000040044ae0                . = ALIGN (0x8)
                0x0000000040044ae0                __bss_start = .
 *(.bss .bss.*)
 .bss           0x0000000040044ae0        0x0 c:/opt/bcc-2.0.2-gcc/bin/../sparc-gaisler-elf/bsp/leon2/leon/mfix-at697f/trap_table_mvt.S.o
 .bss           0x0000000040044ae0        0x4 c:/opt/bcc-2.0.2-gcc/bin/../sparc-gaisler-elf/bsp/leon2/leon/mfix-at697f/crt0.S.o
                0x0000000040044ae0                __bcc_sp_at_entry
 .bss           0x0000000040044ae4        0x0 c:/opt/bcc-2.0.2-gcc/bin/../lib/gcc/sparc-gaisler-elf/7.2.0/leon/mfix-at697f/crti.o
 .bss           0x0000000040044ae4       0x20 c:/opt/bcc-2.0.2-gcc/bin/../lib/gcc/sparc-gaisler-elf/7.2.0/leon/mfix-at697f/crtbegin.o
 .bss           0x0000000040044b04        0x0 C:\Users\ajarr\AppData\Local\Temp\ccgtKLQ9.o
 .bss           0x0000000040044b04        0x1 C:\Users\ajarr\AppData\Local\Temp\ccZ3M43h.o
 *fill*         0x0000000040044b05        0x3 
 .bss           0x0000000040044b08        0x8 C:\Users\ajarr\AppData\Local\Temp\ccnGtmfO.o
                0x0000000040044b08                test_st_sp
                0x0000000040044b09                filler_byte3
                0x0000000040044b0a                filler_byte2
                0x0000000040044b0b                filler_byte1
                0x0000000040044b0c                repeat_count
 .bss           0x0000000040044b10       0x22 C:\Users\ajarr\AppData\Local\Temp\ccEMnW47.o
                0x0000000040044b10                Diff_stop_srl_num
                0x0000000040044b14                Diff_start_srl_num
                0x0000000040044b18                DTTC_count
                0x0000000040044b1c                head
                0x0000000040044b20                ATTC_count
                0x0000000040044b24                ATTC_exe_en
                0x0000000040044b28                ATTC_Master_en
                0x0000000040044b2c                Nodeptrempty_flag
                0x0000000040044b30                ComputedParity
                0x0000000040044b31                RcvdParity
 .bss           0x0000000040044b32        0x0 C:\Users\ajarr\AppData\Local\Temp\cc3Yg1qw.o
 .bss           0x0000000040044b32        0x0 C:\Users\ajarr\AppData\Local\Temp\ccxnFfLM.o
 .bss           0x0000000040044b32        0x0 C:\Users\ajarr\AppData\Local\Temp\cczbQmCd.o
 *fill*         0x0000000040044b32        0x2 
 .bss           0x0000000040044b34        0x8 C:\Users\ajarr\AppData\Local\Temp\ccp71scL.o
                0x0000000040044b34                load_shedding_flag
                0x0000000040044b35                low_battery_voltage
                0x0000000040044b38                inter_HAL_EPS_Hardware_Status_count
 .bss           0x0000000040044b3c        0x4 C:\Users\ajarr\AppData\Local\Temp\ccf1qWep.o
                0x0000000040044b3c                imu_count
 .bss           0x0000000040044b40        0x0 C:\Users\ajarr\AppData\Local\Temp\cclXIhGd.o
 .bss           0x0000000040044b40        0xc C:\Users\ajarr\AppData\Local\Temp\cclUyX1f.o
                0x0000000040044b40                gpstest
                0x0000000040044b44                gps_ready_bit
                0x0000000040044b48                gps_count
 .bss           0x0000000040044b4c        0x0 C:\Users\ajarr\AppData\Local\Temp\ccYAcwQn.o
 .bss           0x0000000040044b4c        0x4 C:\Users\ajarr\AppData\Local\Temp\ccjmXURG.o
                0x0000000040044b4c                MTR_Reset_Flag
 .bss           0x0000000040044b50        0xe C:\Users\ajarr\AppData\Local\Temp\ccovS4yg.o
                0x0000000040044b5c                crc_test
 *fill*         0x0000000040044b5e        0x2 
 .bss           0x0000000040044b60       0x18 C:\Users\ajarr\AppData\Local\Temp\ccduqfO0.o
                0x0000000040044b60                SA2_status
                0x0000000040044b64                SA1_status
                0x0000000040044b68                TC_HAL_SA_Deploy
                0x0000000040044b6c                SA_Command_Type
                0x0000000040044b70                SA2_Deploy_cmd_rcvd_time
                0x0000000040044b74                SA1_Deploy_cmd_rcvd_time
 .bss           0x0000000040044b78        0x0 C:\Users\ajarr\AppData\Local\Temp\ccXhqPVa.o
 .bss           0x0000000040044b78        0x0 C:\Users\ajarr\AppData\Local\Temp\ccNMwkyO.o
 .bss           0x0000000040044b78        0x0 C:\Users\ajarr\AppData\Local\Temp\ccDl90Kv.o
 .bss           0x0000000040044b78        0x0 C:\Users\ajarr\AppData\Local\Temp\ccwbk5Wx.o
 .bss           0x0000000040044b78        0x0 C:\Users\ajarr\AppData\Local\Temp\cc1MBP0N.o
 .bss           0x0000000040044b78        0x0 C:\Users\ajarr\AppData\Local\Temp\cc8WbBCy.o
 .bss           0x0000000040044b78        0x0 C:\Users\ajarr\AppData\Local\Temp\cc8e2yNj.o
 .bss           0x0000000040044b78       0x30 C:\Users\ajarr\AppData\Local\Temp\ccasxzae.o
                0x0000000040044b78                tmin
                0x0000000040044b80                distsqrd
                0x0000000040044b88                adotb
                0x0000000040044b90                asqrd
                0x0000000040044b98                bsqrd
                0x0000000040044ba0                tempse
 .bss           0x0000000040044ba8        0x0 C:\Users\ajarr\AppData\Local\Temp\ccjuLCXH.o
 .bss           0x0000000040044ba8        0x0 C:\Users\ajarr\AppData\Local\Temp\ccGb5JPl.o
 .bss           0x0000000040044ba8        0x0 C:\Users\ajarr\AppData\Local\Temp\cclaJb28.o
 .bss           0x0000000040044ba8        0x0 c:/opt/bcc-2.0.2-gcc/bin/../lib/gcc/sparc-gaisler-elf/7.2.0/../../../../sparc-gaisler-elf/lib/leon/mfix-at697f\libm.a(lib_a-s_atan.o)
 .bss           0x0000000040044ba8        0x0 c:/opt/bcc-2.0.2-gcc/bin/../lib/gcc/sparc-gaisler-elf/7.2.0/../../../../sparc-gaisler-elf/lib/leon/mfix-at697f\libm.a(lib_a-s_cos.o)
 .bss           0x0000000040044ba8        0x0 c:/opt/bcc-2.0.2-gcc/bin/../lib/gcc/sparc-gaisler-elf/7.2.0/../../../../sparc-gaisler-elf/lib/leon/mfix-at697f\libm.a(lib_a-s_fabs.o)
 .bss           0x0000000040044ba8        0x0 c:/opt/bcc-2.0.2-gcc/bin/../lib/gcc/sparc-gaisler-elf/7.2.0/../../../../sparc-gaisler-elf/lib/leon/mfix-at697f\libm.a(lib_a-s_floor.o)
 .bss           0x0000000040044ba8        0x0 c:/opt/bcc-2.0.2-gcc/bin/../lib/gcc/sparc-gaisler-elf/7.2.0/../../../../sparc-gaisler-elf/lib/leon/mfix-at697f\libm.a(lib_a-s_round.o)
 .bss           0x0000000040044ba8        0x0 c:/opt/bcc-2.0.2-gcc/bin/../lib/gcc/sparc-gaisler-elf/7.2.0/../../../../sparc-gaisler-elf/lib/leon/mfix-at697f\libm.a(lib_a-s_sin.o)
 .bss           0x0000000040044ba8        0x0 c:/opt/bcc-2.0.2-gcc/bin/../lib/gcc/sparc-gaisler-elf/7.2.0/../../../../sparc-gaisler-elf/lib/leon/mfix-at697f\libm.a(lib_a-s_tan.o)
 .bss           0x0000000040044ba8        0x0 c:/opt/bcc-2.0.2-gcc/bin/../lib/gcc/sparc-gaisler-elf/7.2.0/../../../../sparc-gaisler-elf/lib/leon/mfix-at697f\libm.a(lib_a-w_acos.o)
 .bss           0x0000000040044ba8        0x0 c:/opt/bcc-2.0.2-gcc/bin/../lib/gcc/sparc-gaisler-elf/7.2.0/../../../../sparc-gaisler-elf/lib/leon/mfix-at697f\libm.a(lib_a-w_asin.o)
 .bss           0x0000000040044ba8        0x0 c:/opt/bcc-2.0.2-gcc/bin/../lib/gcc/sparc-gaisler-elf/7.2.0/../../../../sparc-gaisler-elf/lib/leon/mfix-at697f\libm.a(lib_a-w_atan2.o)
 .bss           0x0000000040044ba8        0x0 c:/opt/bcc-2.0.2-gcc/bin/../lib/gcc/sparc-gaisler-elf/7.2.0/../../../../sparc-gaisler-elf/lib/leon/mfix-at697f\libm.a(lib_a-w_fmod.o)
 .bss           0x0000000040044ba8        0x0 c:/opt/bcc-2.0.2-gcc/bin/../lib/gcc/sparc-gaisler-elf/7.2.0/../../../../sparc-gaisler-elf/lib/leon/mfix-at697f\libm.a(lib_a-w_pow.o)
 .bss           0x0000000040044ba8        0x0 c:/opt/bcc-2.0.2-gcc/bin/../lib/gcc/sparc-gaisler-elf/7.2.0/../../../../sparc-gaisler-elf/lib/leon/mfix-at697f\libm.a(lib_a-w_sqrt.o)
 .bss           0x0000000040044ba8        0x0 c:/opt/bcc-2.0.2-gcc/bin/../lib/gcc/sparc-gaisler-elf/7.2.0/../../../../sparc-gaisler-elf/lib/leon/mfix-at697f\libm.a(lib_a-e_acos.o)
 .bss           0x0000000040044ba8        0x0 c:/opt/bcc-2.0.2-gcc/bin/../lib/gcc/sparc-gaisler-elf/7.2.0/../../../../sparc-gaisler-elf/lib/leon/mfix-at697f\libm.a(lib_a-e_asin.o)
 .bss           0x0000000040044ba8        0x0 c:/opt/bcc-2.0.2-gcc/bin/../lib/gcc/sparc-gaisler-elf/7.2.0/../../../../sparc-gaisler-elf/lib/leon/mfix-at697f\libm.a(lib_a-e_atan2.o)
 .bss           0x0000000040044ba8        0x0 c:/opt/bcc-2.0.2-gcc/bin/../lib/gcc/sparc-gaisler-elf/7.2.0/../../../../sparc-gaisler-elf/lib/leon/mfix-at697f\libm.a(lib_a-e_fmod.o)
 .bss           0x0000000040044ba8        0x0 c:/opt/bcc-2.0.2-gcc/bin/../lib/gcc/sparc-gaisler-elf/7.2.0/../../../../sparc-gaisler-elf/lib/leon/mfix-at697f\libm.a(lib_a-e_pow.o)
 .bss           0x0000000040044ba8        0x0 c:/opt/bcc-2.0.2-gcc/bin/../lib/gcc/sparc-gaisler-elf/7.2.0/../../../../sparc-gaisler-elf/lib/leon/mfix-at697f\libm.a(lib_a-e_rem_pio2.o)
 .bss           0x0000000040044ba8        0x0 c:/opt/bcc-2.0.2-gcc/bin/../lib/gcc/sparc-gaisler-elf/7.2.0/../../../../sparc-gaisler-elf/lib/leon/mfix-at697f\libm.a(lib_a-e_sqrt.o)
 .bss           0x0000000040044ba8        0x0 c:/opt/bcc-2.0.2-gcc/bin/../lib/gcc/sparc-gaisler-elf/7.2.0/../../../../sparc-gaisler-elf/lib/leon/mfix-at697f\libm.a(lib_a-k_cos.o)
 .bss           0x0000000040044ba8        0x0 c:/opt/bcc-2.0.2-gcc/bin/../lib/gcc/sparc-gaisler-elf/7.2.0/../../../../sparc-gaisler-elf/lib/leon/mfix-at697f\libm.a(lib_a-k_rem_pio2.o)
 .bss           0x0000000040044ba8        0x0 c:/opt/bcc-2.0.2-gcc/bin/../lib/gcc/sparc-gaisler-elf/7.2.0/../../../../sparc-gaisler-elf/lib/leon/mfix-at697f\libm.a(lib_a-k_sin.o)
 .bss           0x0000000040044ba8        0x0 c:/opt/bcc-2.0.2-gcc/bin/../lib/gcc/sparc-gaisler-elf/7.2.0/../../../../sparc-gaisler-elf/lib/leon/mfix-at697f\libm.a(lib_a-k_tan.o)
 .bss           0x0000000040044ba8        0x0 c:/opt/bcc-2.0.2-gcc/bin/../lib/gcc/sparc-gaisler-elf/7.2.0/../../../../sparc-gaisler-elf/lib/leon/mfix-at697f\libm.a(lib_a-s_finite.o)
 .bss           0x0000000040044ba8        0x0 c:/opt/bcc-2.0.2-gcc/bin/../lib/gcc/sparc-gaisler-elf/7.2.0/../../../../sparc-gaisler-elf/lib/leon/mfix-at697f\libm.a(lib_a-s_lib_ver.o)
 .bss           0x0000000040044ba8        0x0 c:/opt/bcc-2.0.2-gcc/bin/../lib/gcc/sparc-gaisler-elf/7.2.0/../../../../sparc-gaisler-elf/lib/leon/mfix-at697f\libm.a(lib_a-s_matherr.o)
 .bss           0x0000000040044ba8        0x0 c:/opt/bcc-2.0.2-gcc/bin/../lib/gcc/sparc-gaisler-elf/7.2.0/../../../../sparc-gaisler-elf/lib/leon/mfix-at697f\libm.a(lib_a-s_nan.o)
 .bss           0x0000000040044ba8        0x0 c:/opt/bcc-2.0.2-gcc/bin/../lib/gcc/sparc-gaisler-elf/7.2.0/../../../../sparc-gaisler-elf/lib/leon/mfix-at697f\libm.a(lib_a-s_rint.o)
 .bss           0x0000000040044ba8        0x0 c:/opt/bcc-2.0.2-gcc/bin/../lib/gcc/sparc-gaisler-elf/7.2.0/../../../../sparc-gaisler-elf/lib/leon/mfix-at697f\libm.a(lib_a-s_scalbn.o)
 .bss           0x0000000040044ba8        0x0 c:/opt/bcc-2.0.2-gcc/bin/../lib/gcc/sparc-gaisler-elf/7.2.0/../../../../sparc-gaisler-elf/lib/leon/mfix-at697f\libm.a(lib_a-s_copysign.o)
 .bss           0x0000000040044ba8        0x0 c:/opt/bcc-2.0.2-gcc/bin/../sparc-gaisler-elf/bsp/leon2/leon/mfix-at697f\libbcc.a(reset_trap_mvt.S.o)
 .bss           0x0000000040044ba8        0x0 c:/opt/bcc-2.0.2-gcc/bin/../sparc-gaisler-elf/bsp/leon2/leon/mfix-at697f\libbcc.a(window_trap.S.o)
 .bss           0x0000000040044ba8        0x0 c:/opt/bcc-2.0.2-gcc/bin/../sparc-gaisler-elf/bsp/leon2/leon/mfix-at697f\libbcc.a(interrupt_trap.S.o)
 .bss           0x0000000040044ba8       0x14 c:/opt/bcc-2.0.2-gcc/bin/../sparc-gaisler-elf/bsp/leon2/leon/mfix-at697f\libbcc.a(flush_windows_trap.S.o)
 .bss           0x0000000040044bbc        0x0 c:/opt/bcc-2.0.2-gcc/bin/../sparc-gaisler-elf/bsp/leon2/leon/mfix-at697f\libbcc.a(sw_trap_set_pil.S.o)
 .bss           0x0000000040044bbc        0x0 c:/opt/bcc-2.0.2-gcc/bin/../sparc-gaisler-elf/bsp/leon2/leon/mfix-at697f\libbcc.a(trap.c.o)
 .bss           0x0000000040044bbc        0x0 c:/opt/bcc-2.0.2-gcc/bin/../sparc-gaisler-elf/bsp/leon2/leon/mfix-at697f\libbcc.a(isr.c.o)
 .bss           0x0000000040044bbc        0x0 c:/opt/bcc-2.0.2-gcc/bin/../sparc-gaisler-elf/bsp/leon2/leon/mfix-at697f\libbcc.a(int_nest.c.o)
 .bss           0x0000000040044bbc        0x0 c:/opt/bcc-2.0.2-gcc/bin/../sparc-gaisler-elf/bsp/leon2/leon/mfix-at697f\libbcc.a(init.S.o)
 .bss           0x0000000040044bbc        0x0 c:/opt/bcc-2.0.2-gcc/bin/../sparc-gaisler-elf/bsp/leon2/leon/mfix-at697f\libbcc.a(leon_info.S.o)
 .bss           0x0000000040044bbc        0x0 c:/opt/bcc-2.0.2-gcc/bin/../sparc-gaisler-elf/bsp/leon2/leon/mfix-at697f\libbcc.a(dwzero.S.o)
 .bss           0x0000000040044bbc        0x0 c:/opt/bcc-2.0.2-gcc/bin/../sparc-gaisler-elf/bsp/leon2/leon/mfix-at697f\libbcc.a(copy_data.c.o)
 .bss           0x0000000040044bbc        0x0 c:/opt/bcc-2.0.2-gcc/bin/../sparc-gaisler-elf/bsp/leon2/leon/mfix-at697f\libbcc.a(lowlevel.S.o)
 .bss           0x0000000040044bbc        0x0 c:/opt/bcc-2.0.2-gcc/bin/../sparc-gaisler-elf/bsp/leon2/leon/mfix-at697f\libbcc.a(lowlevel_leon2.S.o)
 .bss           0x0000000040044bbc        0x0 c:/opt/bcc-2.0.2-gcc/bin/../sparc-gaisler-elf/bsp/leon2/leon/mfix-at697f\libbcc.a(int_leon2.c.o)
 .bss           0x0000000040044bbc        0x0 c:/opt/bcc-2.0.2-gcc/bin/../sparc-gaisler-elf/bsp/leon2/leon/mfix-at697f\libbcc.a(int_leon2_get_source.c.o)
 .bss           0x0000000040044bbc        0x0 c:/opt/bcc-2.0.2-gcc/bin/../sparc-gaisler-elf/bsp/leon2/leon/mfix-at697f\libbcc.a(int_leon2_init.c.o)
 .bss           0x0000000040044bbc        0x0 c:/opt/bcc-2.0.2-gcc/bin/../sparc-gaisler-elf/bsp/leon2/leon/mfix-at697f\libbcc.a(con_leon2.c.o)
 .bss           0x0000000040044bbc        0x0 c:/opt/bcc-2.0.2-gcc/bin/../sparc-gaisler-elf/bsp/leon2/leon/mfix-at697f\libbcc.a(timer_leon2.c.o)
 .bss           0x0000000040044bbc        0x0 c:/opt/bcc-2.0.2-gcc/bin/../sparc-gaisler-elf/bsp/leon2/leon/mfix-at697f\libbcc.a(set_pil.S.o)
 .bss           0x0000000040044bbc        0x0 c:/opt/bcc-2.0.2-gcc/bin/../sparc-gaisler-elf/bsp/leon2/leon/mfix-at697f\libbcc.a(int_leon2_handle.c.o)
 .bss           0x0000000040044bbc        0x0 c:/opt/bcc-2.0.2-gcc/bin/../sparc-gaisler-elf/bsp/leon2/leon/mfix-at697f\libbcc.a(con_handle.c.o)
 .bss           0x0000000040044bbc        0x0 c:/opt/bcc-2.0.2-gcc/bin/../sparc-gaisler-elf/bsp/leon2/leon/mfix-at697f\libbcc.a(timer_handle.c.o)
 .bss           0x0000000040044bbc        0x0 c:/opt/bcc-2.0.2-gcc/bin/../lib/gcc/sparc-gaisler-elf/7.2.0/../../../../sparc-gaisler-elf/lib/leon/mfix-at697f\libc.a(lib_a-atexit.o)
 .bss           0x0000000040044bbc        0x0 c:/opt/bcc-2.0.2-gcc/bin/../lib/gcc/sparc-gaisler-elf/7.2.0/../../../../sparc-gaisler-elf/lib/leon/mfix-at697f\libc.a(lib_a-errno.o)
 .bss           0x0000000040044bbc        0x0 c:/opt/bcc-2.0.2-gcc/bin/../lib/gcc/sparc-gaisler-elf/7.2.0/../../../../sparc-gaisler-elf/lib/leon/mfix-at697f\libc.a(lib_a-exit.o)
 .bss           0x0000000040044bbc        0x0 c:/opt/bcc-2.0.2-gcc/bin/../lib/gcc/sparc-gaisler-elf/7.2.0/../../../../sparc-gaisler-elf/lib/leon/mfix-at697f\libc.a(lib_a-impure.o)
 .bss           0x0000000040044bbc        0x0 c:/opt/bcc-2.0.2-gcc/bin/../lib/gcc/sparc-gaisler-elf/7.2.0/../../../../sparc-gaisler-elf/lib/leon/mfix-at697f\libc.a(lib_a-memcpy.o)
 .bss           0x0000000040044bbc       0x8c c:/opt/bcc-2.0.2-gcc/bin/../lib/gcc/sparc-gaisler-elf/7.2.0/../../../../sparc-gaisler-elf/lib/leon/mfix-at697f\libc.a(lib_a-__atexit.o)
 .bss           0x0000000040044c48        0x4 c:/opt/bcc-2.0.2-gcc/bin/../lib/gcc/sparc-gaisler-elf/7.2.0/../../../../sparc-gaisler-elf/lib/leon/mfix-at697f\libc.a(lib_a-__call_atexit.o)
                0x0000000040044c48                _global_atexit
 .bss           0x0000000040044c4c        0x0 c:/opt/bcc-2.0.2-gcc/bin/../sparc-gaisler-elf/bsp/leon2/leon/mfix-at697f\libbcc.a(_exit.S.o)
 .bss           0x0000000040044c4c        0x0 c:/opt/bcc-2.0.2-gcc/bin/../lib/gcc/sparc-gaisler-elf/7.2.0/leon/mfix-at697f/crtend.o
 .bss           0x0000000040044c4c        0x0 c:/opt/bcc-2.0.2-gcc/bin/../lib/gcc/sparc-gaisler-elf/7.2.0/leon/mfix-at697f/crtn.o
 *(COMMON)
 *fill*         0x0000000040044c4c        0x4 
 COMMON         0x0000000040044c50    0x6e707 C:\Users\ajarr\AppData\Local\Temp\ccgtKLQ9.o
                0x0000000040044c50                Out_Latch_1
                0x0000000040044c54                IO_Latch_Register_5_Data
                0x0000000040044c58                inter_HAL_TM_Write_Word_Count
                0x0000000040044c5c                TC_gain_select_u
                0x0000000040044c78                ST_TC_history_Buffer
                0x0000000040044d78                rt_tm_frame_finish
                0x0000000040044d7c                minor_cycle_counter_test
                0x0000000040044d80                eeprom_cur_addr
                0x0000000040044d84                Normal_st_table_page1
                0x0000000040044d88                count_tc_hist
                0x0000000040044d8c                MUX_1
                0x0000000040044d90                GPS1
                0x0000000040044dd0                Special_st_table_page3
                0x0000000040044dd4                Norm_ST_Table
                0x0000000040046dfc                eeprom_chksum
                0x0000000040046e00                Pl_tm_data
                0x0000000040046f00                TM
                0x00000000400477b9                SWHW_STATUS
                0x00000000400477be                ST_TCH_frame_count
                0x00000000400477c0                TCH_dump_finish
                0x00000000400477c4                Major_Cycle_Count
                0x00000000400477c8                inter_TM_Pl_Buffer
                0x00000000400477cc                inter_ST_TC_TM_Minor_Cycle_Count
                0x00000000400477d0                ST_normal
                0x0000000040047918                TC_input_cmd
                0x0000000040047920                ST_end_read
                0x0000000040047924                ST_start_read
                0x0000000040047928                ADC_Buffer
                0x00000000400479e4                TC_ST_Table_Row_No
                0x00000000400479e8                IMU1_DATA
                0x0000000040047a18                ST_Out_Latch_3
                0x0000000040047a20                Special_source
                0x0000000040047b20                IMU2_DATA
                0x0000000040047b50                Spacecraft_Mode
                0x0000000040047b54                eeprom_blk_end_addr
                0x0000000040047b58                ADCS_TC_data_command_Table
                0x0000000040047c40                GPIO_pins
                0x0000000040047c44                tor_counter
                0x0000000040047c48                Normal_source
                0x0000000040047d48                Dest_TC_final_end_addr
                0x0000000040047d4c                MUX_3
                0x0000000040047d4e                ST_NM_Buffer
                0x0000000040047e96                input_latch_2
                0x0000000040047e98                TCH_full_dump_finish
                0x0000000040047ea0                TC_hist_data
                0x00000000400578a0                Out_latch_4
                0x00000000400578a4                inter_at697f_checksum
                0x00000000400578a8                inter_TM_Byte_Count
                0x00000000400578b0                TM_Buffer
                0x00000000400579b0                ST_SP_Buffer
                0x0000000040057c54                TCH_read_ptr
                0x0000000040057c58                inter_TM_Source_Addr
                0x0000000040057c5c                nml_output_latch_data
                0x0000000040057c5f                TM_Table
                0x000000004005fce7                SS_Redundant_DB
                0x000000004005ff6b                IMU1_Corr
                0x00000000400600b0                gain_set
                0x0000000040060a10                pl_data_command
                0x0000000040060a1c                inter_TM_ST_TC_NS_Write_Source_Addr
                0x0000000040060a20                ST_Out_Latch_2
                0x0000000040060a24                inter_TM_Dest_Addr
                0x0000000040060a28                Out_latch_6
                0x0000000040060a2a                heaters
                0x0000000040060a2c                chksum_arr
                0x0000000040060a4c                IO_Latch_Register_4_Data
                0x0000000040060a50                storage_page_count
                0x0000000040060a54                ST_output_latch
                0x0000000040060a58                SS_Redundant_2Exe_DB
                0x0000000040060cdc                Out_latch_5
                0x0000000040060ce0                Storage
                0x000000004009f4e0                ST_special
                0x000000004009f781                GAIN_DATA_SET
                0x000000004009fc61                Out_Latch_2
                0x000000004009fc64                inter_TM_Status_Data
                0x000000004009fc66                MUX_4
                0x000000004009fc68                inter_TM_Main_Buffer_Empty
                0x000000004009fc6c                read_str_ptr
                0x000000004009fc70                ram_scrub_addr
                0x000000004009fc74                TC_str_ptr
                0x000000004009fc78                inter_TM_DP_Addr
                0x000000004009fc7c                TMTC_gain_select_u
                0x000000004009fc84                inter_at697_var
                0x000000004009fc88                TC_history_table
                0x00000000400a0498                ST_TC_header_Buffer
                0x00000000400a04a4                Spec_ST_Table_Row_No
                0x00000000400a04a8                IMU2_Corr
                0x00000000400a05ec                TC_data_command_Table
                0x00000000400a0658                bbbb
                0x00000000400a065c                Minor_Cycle_Count
                0x00000000400a0660                ee_blk_no
                0x00000000400a0662                ST_frame_count
                0x00000000400a0664                ST_Dest_Addr
                0x00000000400a0668                ss_main_db_checksum_obc
                0x00000000400a066c                ST_Out_latch_5
                0x00000000400a0670                TCH_read_full_ptr
                0x00000000400a0674                HILS_packet
                0x00000000400a06b4                inter_at697f_count
                0x00000000400a06b8                TMTC_boolean_u
                0x00000000400a06c0                ST_TC_history_final_Buffer
                0x00000000400b00c0                TM_IMU2
                0x00000000400b00d8                ss_redundant_db_checksum_obc
                0x00000000400b00dc                Norm_ST_Table_Row_No
                0x00000000400b00e0                Normal_st_table_page3
                0x00000000400b00e4                Special_st_table_page2
                0x00000000400b00e8                aaaa
                0x00000000400b00ec                eeprom_flag
                0x00000000400b00f0                addr_pointer_TM
                0x00000000400b00f4                Spec_ST_Table
                0x00000000400b211c                Buffer
                0x00000000400b29d5                Out_Latch_3
                0x00000000400b29d7                SS_Main_DB
                0x00000000400b2c5c                Dest_end_addr
                0x00000000400b2c60                IMU_1_DB
                0x00000000400b2da4                GPS2
                0x00000000400b2de4                IO_In_Latch_Register_4_Data
                0x00000000400b2de8                IO_Latch_Register_3_Data
                0x00000000400b2dec                TM_IMU1
                0x00000000400b2e04                FDI_NMI_Count
                0x00000000400b2e08                Normal_st_table_page2
                0x00000000400b2e0c                MUX_2
                0x00000000400b2e10                write_str_ptr
                0x00000000400b2e14                TC_boolean_u
                0x00000000400b2e58                ST_source_Buffer
                0x00000000400b2f58                TM_page_count
                0x00000000400b2f5c                heaters_manual
                0x00000000400b2f60                Remote_data_addr
                0x00000000400b2f64                bbb
                0x00000000400b2f68                Special_st_table_page1
                0x00000000400b2f6c                NMI_fail_count
                0x00000000400b2f70                inter_TM_real_Minor_Cycle_Count
                0x00000000400b2f74                inter_ST_TM_Minor_Cycle_Count
                0x00000000400b2f78                inter_TM_Minor_Cycle_Count
                0x00000000400b2f7c                input_latch_1
                0x00000000400b2f7e                IMU_2_DB
                0x00000000400b30c4                TM_Table_Row_No
                0x00000000400b30c8                TCH_cpy_ptr
                0x00000000400b30cc                IO_Latch_Register_2_Data
                0x00000000400b30d0                ccc
                0x00000000400b30d2                TCH_start_buffer_ready
                0x00000000400b30d3                SS_Main_2Exe_DB
 *fill*         0x00000000400b3357        0x1 
 COMMON         0x00000000400b3358    0x169ec C:\Users\ajarr\AppData\Local\Temp\ccZ3M43h.o
                0x00000000400b3358                MUX_data2
                0x00000000400b335c                BlkCurrent_Cmd
                0x00000000400b3360                TC_count
                0x00000000400b3362                Nodearray
                0x00000000400b6244                TC_TLE_data
                0x00000000400b6288                new_data
                0x00000000400b6290                abc
                0x00000000400b6298                TC_exe
                0x00000000400b62a0                block_test_array
                0x00000000400b6430                MUX_data3
                0x00000000400b6434                temp
                0x00000000400b6438                TC_storing_buffer
                0x00000000400b6838                TC_cmd_executed
                0x00000000400b683a                test_data_3
                0x00000000400b683c                MUX_data1
                0x00000000400b6840                TC_hist_read_ptr
                0x00000000400b6844                u_DTTC
                0x00000000400b684c                u_TC
                0x00000000400b6854                Remote_Addr
                0x00000000400b6858                new_node
                0x00000000400b6860                Block_array
                0x00000000400c6860                DTTCarray
                0x00000000400c87a0                TC_Status_Data
                0x00000000400c87a4                MUX_data4
                0x00000000400c87a8                TC_authentic_pulse_rcvd
                0x00000000400c87ac                TC_DATA
                0x00000000400c87b4                RW_number
                0x00000000400c87b8                ram_scrub_cnt
                0x00000000400c87bc                Remote_minotoring_addr
                0x00000000400c87c0                Top_index
                0x00000000400c87c4                prev
                0x00000000400c87c8                Block_Index
                0x00000000400c88c8                Nodeptr
                0x00000000400c9868                TC_buffer_count
                0x00000000400c9d18                Absolutetime
                0x00000000400c9d1c                commandptr
                0x00000000400c9d20                TC_flag
                0x00000000400c9d24                TC_Buffer_Addr
                0x00000000400c9d28                flag_mni
                0x00000000400c9d2c                TC_command_pending
                0x00000000400c9d30                TC_hist_write_ptr
                0x00000000400c9d34                Remote_data
                0x00000000400c9d38                Telecommand_ptr
                0x00000000400c9d3c                TC_Rcvd
                0x00000000400c9d40                TC_cmd_executed_count
 COMMON         0x00000000400c9d44       0x28 C:\Users\ajarr\AppData\Local\Temp\ccnGtmfO.o
                0x00000000400c9d44                sampling_rate_count
                0x00000000400c9d48                cp_cnt1
                0x00000000400c9d4c                TC_OBT_Start
                0x00000000400c9d50                flag_for_test
                0x00000000400c9d54                count_plus
                0x00000000400c9d58                normal_count1
                0x00000000400c9d5c                copy_frame_count
                0x00000000400c9d60                cp_cnt
                0x00000000400c9d64                real_storage
                0x00000000400c9d68                real_tm_finish
 *fill*         0x00000000400c9d6c        0x4 
 COMMON         0x00000000400c9d70      0x8e0 C:\Users\ajarr\AppData\Local\Temp\ccEMnW47.o
                0x00000000400c9d70                inter_HAL_IMU_Data
                0x00000000400c9d74                sun_quadrant
                0x00000000400c9d78                B_rawdata
                0x00000000400c9d84                IMU_On
                0x00000000400c9d88                TC_ptr_count
                0x00000000400c9d8c                BDOT_Counter
                0x00000000400c9d90                Roll_pos_D
                0x00000000400c9d98                az1
                0x00000000400c9da0                inter_HAL_IMU_Configure_Address
                0x00000000400c9da4                block_test
                0x00000000400c9da8                tos
                0x00000000400c9db0                gyrodet_B
                0x00000000400c9dc8                SS_prcd_data_ptr
                0x00000000400c9dd0                SB_RED
                0x00000000400c9de8                inter_sunsensor_i
                0x00000000400c9df0                SC6ImaxF
                0x00000000400c9df8                GYRO_Counter
                0x00000000400c9e00                B_LPF
                0x00000000400c9e18                SC5
                0x00000000400c9e20                inter_imu_i
                0x00000000400c9e28                B_RPY
                0x00000000400c9e40                SC5ImaxF
                0x00000000400c9e48                test_3
                0x00000000400c9e50                TC_SS_Main_Cells_Sel
                0x00000000400c9e54                Sunlit_presence_timer
                0x00000000400c9e58                S_BODY
                0x00000000400c9e70                AngDev_SAMtransit_thrsld
                0x00000000400c9e78                inter_HAL_IMU_Control_Data
                0x00000000400c9e80                Roll_neg_D
                0x00000000400c9e88                temp12
                0x00000000400c9e90                Panel_Deployment
                0x00000000400c9e98                w_ABC
                0x00000000400c9eb0                test_attc
                0x00000000400c9eb8                B_IMU
                0x00000000400c9ed0                ab_test1
                0x00000000400c9ed8                sun_sf
                0x00000000400c9ef0                AngDev_SMtransit_thrsld
                0x00000000400c9ef8                w_RPY
                0x00000000400c9f10                Ang_Deviation
                0x00000000400c9f18                inter_HAL_IMU_Status_Data_2
                0x00000000400c9f20                B_BODY_IMU2
                0x00000000400c9f38                tempat
                0x00000000400c9f40                Roll_neg_ND
                0x00000000400c9f48                SunNPP_SAMtransit
                0x00000000400c9f4c                BLK_opn
                0x00000000400c9f50                B_BODYn
                0x00000000400c9f68                SB_MAIN
                0x00000000400c9f80                SC7
                0x00000000400c9f88                SC2
                0x00000000400c9f90                B_BODY
                0x00000000400c9fa8                Thta_BODY_IMU2
                0x00000000400c9fc0                w_AMSC
                0x00000000400c9fd8                Yaw_ang_err
                0x00000000400c9fe0                B_BODY_IMU1
                0x00000000400c9ff8                Yaw_neg
                0x00000000400ca000                SC1
                0x00000000400ca008                comb1
                0x00000000400ca010                B_BODYtesla
                0x00000000400ca028                gyrodet_w
                0x00000000400ca040                SunNPP_SMtransit
                0x00000000400ca048                Thta_rawdata
                0x00000000400ca060                SC8
                0x00000000400ca068                w_BODYdeg
                0x00000000400ca080                ele2
                0x00000000400ca088                B_BiasCor
                0x00000000400ca0a0                SC1ImaxF
                0x00000000400ca0a8                IMU_Sen2Bdy
                0x00000000400ca0f0                j_MatEq
                0x00000000400ca0f8                w_LPF
                0x00000000400ca110                SC3ImaxF
                0x00000000400ca118                DTTCtime_reference
                0x00000000400ca120                B_AMSC
                0x00000000400ca138                IMU_Diag_Done
                0x00000000400ca13c                i_MatEq
                0x00000000400ca140                w_BiasCor
                0x00000000400ca158                SunNPP_SAMtransit_counter
                0x00000000400ca160                Bpresent
                0x00000000400ca178                tc_ecv_test
                0x00000000400ca308                temp11
                0x00000000400ca310                block_test2
                0x00000000400ca314                f_Sunlit_Presence
                0x00000000400ca318                inter_HAL_IMU_Locations
                0x00000000400ca31c                block_test1
                0x00000000400ca320                Bprev
                0x00000000400ca338                inter_sunsensor_j
                0x00000000400ca340                SC4ImaxF
                0x00000000400ca348                SunNPP_SAMtransit_count_limit
                0x00000000400ca350                Roll_pos_ND
                0x00000000400ca358                tempdata2
                0x00000000400ca35c                tc_cnt_test
                0x00000000400ca360                BDOT
                0x00000000400ca378                inter_HAL_IMU_Buffer_Addr
                0x00000000400ca380                B_ASC
                0x00000000400ca398                SC3
                0x00000000400ca3a0                SS_prcd_data
                0x00000000400ca3b8                ab_test
                0x00000000400ca3c0                ele1
                0x00000000400ca3c8                SC6
                0x00000000400ca3d0                block_test3
                0x00000000400ca3d8                DelThta_rawdata
                0x00000000400ca3f0                temp_data_rw
                0x00000000400ca3f8                w_BODYnorm
                0x00000000400ca400                BLK_number
                0x00000000400ca408                Pitch_pos
                0x00000000400ca410                Thta_BODY_IMU1
                0x00000000400ca428                SS_Data
                0x00000000400ca4a8                SC2ImaxF
                0x00000000400ca4b0                comb2
                0x00000000400ca4b8                imu2_db_checksum_obc
                0x00000000400ca4bc                IMU_Config_Done
                0x00000000400ca4c0                imu1_db_checksum_obc
                0x00000000400ca4c4                IMU_Data_Available
                0x00000000400ca4c8                w_BODY_IMU1
                0x00000000400ca4e0                B_ABC
                0x00000000400ca4f8                SunNPP_SMtransit_counter
                0x00000000400ca4fc                inter_HAL_IMU_Status_Data
                0x00000000400ca500                ss2b
                0x00000000400ca548                Bsq
                0x00000000400ca550                IMU_prcd_data_ptr
                0x00000000400ca554                IMU_1
                0x00000000400ca568                Yaw_pos
                0x00000000400ca570                inter_imu_j
                0x00000000400ca578                w_ASC
                0x00000000400ca590                Det_BDOT_MC_Count
                0x00000000400ca594                inter_HAL_IMU_Addr_Count
                0x00000000400ca598                Roll_ang_err
                0x00000000400ca5a0                S_BODYn
                0x00000000400ca5b8                IMU_prcd_data
                0x00000000400ca5e8                i_tc_test
                0x00000000400ca5ec                rw_data
                0x00000000400ca5f0                w_BODY
                0x00000000400ca608                SunNPP_SMtransit_count_limit
                0x00000000400ca60c                tempdata1
                0x00000000400ca610                Pitch_neg
                0x00000000400ca618                IMU_2
                0x00000000400ca628                w_BODY_IMU2
                0x00000000400ca640                atp
                0x00000000400ca648                SC4
 COMMON         0x00000000400ca650       0xb8 C:\Users\ajarr\AppData\Local\Temp\cczbQmCd.o
                0x00000000400ca650                PL_Exe_Flag
                0x00000000400ca654                hils_ptr_sh
                0x00000000400ca658                pl_configure_data
                0x00000000400ca65c                PL_TM_write_Flag
                0x00000000400ca660                Hils_ptr
                0x00000000400ca664                PL_2_on_off_flag
                0x00000000400ca668                pl_cmd_id
                0x00000000400ca66c                pl_data_rcvd
                0x00000000400ca670                pl_command_data
                0x00000000400ca674                PL_TM_Status_flag
                0x00000000400ca678                length
                0x00000000400ca67c                rHAL_pl_sts_check_mj_flag
                0x00000000400ca680                pl_x_tx_data_on_flag
                0x00000000400ca684                pl_buffer_len
                0x00000000400ca688                PL_TX_TM_2_EN
                0x00000000400ca68c                TC_command
                0x00000000400ca690                inter_PL_TM_Source_Addr
                0x00000000400ca694                pl_buffer_addr
                0x00000000400ca698                pl_test10
                0x00000000400ca69c                pl_tx_tm_flag
                0x00000000400ca6a0                PL_1_on_off_flag
                0x00000000400ca6a4                Enable_PL_TM_flag
                0x00000000400ca6a8                pl_mode
                0x00000000400ca6aa                pl_data_rx
                0x00000000400ca6bc                pl_config_addr_ptr
                0x00000000400ca6c0                pl_ack_count
                0x00000000400ca6c2                temp_data_1
                0x00000000400ca6c4                PL_on_off_sts_flag
                0x00000000400ca6c8                pl_test12
                0x00000000400ca6cc                pl_HLT_en
                0x00000000400ca6d0                data
                0x00000000400ca6d4                pl_x_tx_data_off_flag
                0x00000000400ca6d8                pl_hlt_flag
                0x00000000400ca6dc                pl_acq_flag
                0x00000000400ca6e0                pl_diag_flag
                0x00000000400ca6e4                PL_ACK
                0x00000000400ca6e8                data_nc
                0x00000000400ca6ec                pl_sts_chk_flag
                0x00000000400ca6f0                pl_i
                0x00000000400ca6f4                data_x_tx
                0x00000000400ca6f8                inter_PL_TM_Dest_Addr
                0x00000000400ca6fc                temp_data_2
                0x00000000400ca700                tm_ds_en_flag
                0x00000000400ca704                pl_tm_ptr
 COMMON         0x00000000400ca708        0x8 C:\Users\ajarr\AppData\Local\Temp\ccf1qWep.o
                0x00000000400ca708                imu_data_ready_count_1
                0x00000000400ca70c                imu_data_ready_count
 COMMON         0x00000000400ca710       0x8c C:\Users\ajarr\AppData\Local\Temp\cclXIhGd.o
                0x00000000400ca710                agc_test
                0x00000000400ca714                ADC_Buffer_Addr
                0x00000000400ca718                ADC_Status_Data
                0x00000000400ca720                ss_data_2
                0x00000000400ca730                thermistor_15
                0x00000000400ca734                inter_Update_TM_With_ADC_byte_offset
                0x00000000400ca738                SA_thermistor1
                0x00000000400ca73c                battery_temp_2
                0x00000000400ca740                SA_thermistor2
                0x00000000400ca744                thermistor_lsb
                0x00000000400ca75c                test_agc
                0x00000000400ca760                ADC_Locations
                0x00000000400ca764                agc_test1
                0x00000000400ca766                test_thermistor_1
                0x00000000400ca768                inter_HAL_ADC_Data_Ready
                0x00000000400ca76c                battery_temp_1
                0x00000000400ca770                ss_data
                0x00000000400ca790                inter_Update_TM_With_ADC_offset
                0x00000000400ca794                ADC_Addr_Count
                0x00000000400ca798                ADC_Data
 COMMON         0x00000000400ca79c      0x5cc C:\Users\ajarr\AppData\Local\Temp\cclUyX1f.o
                0x00000000400ca79c                GPS_Status_Data
                0x00000000400ca7a0                GPS_OBT_Read_2
                0x00000000400ca7a4                gpstestbuff
                0x00000000400ca7e8                GPS_Config_ptr
                0x00000000400ca7ec                gps_test_counter
                0x00000000400ca7f0                GPS_msg_header_MSB
                0x00000000400ca7f4                GPS_Config_Status
                0x00000000400ca7f8                GPS_Config_Msg
                0x00000000400ca804                gps_pulse_mic_cnt
                0x00000000400ca808                gps_data_length
                0x00000000400ca80c                GPS_OBT_Read_1
                0x00000000400ca810                GPS_Buffer_Data
                0x00000000400ca9b8                test_gps_conf4
                0x00000000400ca9bc                GPS_Buffer_Addr
                0x00000000400ca9c0                gps_data_test
                0x00000000400cab68                GPS_msg_header
                0x00000000400cab6c                test_gps_conf6
                0x00000000400cab70                test_gps_conf1
                0x00000000400cab74                GPS_Data_Read_Status
                0x00000000400cab78                gps_obt_count_prev
                0x00000000400cab7c                GPS_obc_checkum
                0x00000000400cab80                GPS_pulse_rcvd
                0x00000000400cab84                GPS2_ptr
                0x00000000400cab88                GPS1_ptr
                0x00000000400cab8c                GPS_Status2_Msg
                0x00000000400cab90                GPS_Data
                0x00000000400cab94                GPS_RCVD_DATA
                0x00000000400cad3c                gps_obt_counter
                0x00000000400cad40                GPS_TM_Buffer_Addr_USC
                0x00000000400cad44                test_gps_conf5
                0x00000000400cad48                GPS_msg_header_LSB
                0x00000000400cad4c                GPS_Addr_Count
                0x00000000400cad50                GPS_OBT_Latch_enable
                0x00000000400cad54                test_gps_conf2
                0x00000000400cad58                f_GPS_Valid_Data
                0x00000000400cad5c                test_gps_conf3
                0x00000000400cad60                GPS_Locations
                0x00000000400cad64                i_GPS_B_Count
 COMMON         0x00000000400cad68       0x96 C:\Users\ajarr\AppData\Local\Temp\ccYAcwQn.o
                0x00000000400cad68                heater_update_buffer
                0x00000000400cada8                IMU_temperature
                0x00000000400cadac                heater_manual_tc
                0x00000000400cadb0                ltp12
                0x00000000400cadb4                Manual_flag
                0x00000000400cadb8                Thermistor_Selection
                0x00000000400cadf0                manual_on_off
                0x00000000400cadf4                LTP_data
                0x00000000400cadf8                heaters_auto
                0x00000000400cadfc                UTP_data
 *fill*         0x00000000400cadfe        0x2 
 COMMON         0x00000000400cae00       0x14 C:\Users\ajarr\AppData\Local\Temp\ccjmXURG.o
                0x00000000400cae00                Roll_Pol
                0x00000000400cae04                MTR_Polarity
                0x00000000400cae08                MTR_Axis
                0x00000000400cae0c                Pitch_Pol
                0x00000000400cae10                Yaw_Pol
 *fill*         0x00000000400cae14        0x4 
 COMMON         0x00000000400cae18      0x960 C:\Users\ajarr\AppData\Local\Temp\ccovS4yg.o
                0x00000000400cae18                rw_count_test
                0x00000000400cae20                RW_Data_SlipFrame_TC
                0x00000000400cae38                RW_Data_SlipFrame_Init
                0x00000000400cae4c                RW_TM_ptr
                0x00000000400cae50                NOB_SFC_Init
                0x00000000400cae54                rw_init
                0x00000000400cae60                TC_ptr
                0x00000000400cae64                rw_tc_count
                0x00000000400cae68                rw_test_array
                0x00000000400cb068                temp_short
                0x00000000400cb06c                NOB_CRC_Init
                0x00000000400cb070                RW_TMC
                0x00000000400cb078                NOB_SFC_TC
                0x00000000400cb07c                RW_3
                0x00000000400cb08c                RW_2
                0x00000000400cb09c                aa
                0x00000000400cb0a0                RW_Data_SlipFrame_TMC
                0x00000000400cb0b4                rw_tmtc_count
                0x00000000400cb0b8                Init_data_ptr
                0x00000000400cb0bc                RW_TM_ptr_init
                0x00000000400cb0c0                TMC_data_ptr
                0x00000000400cb0c4                TC_data_ptr
                0x00000000400cb0c8                NOB_CRC_TC
                0x00000000400cb0cc                rw_tc_count_test
                0x00000000400cb0d0                Init_ptr
                0x00000000400cb0d4                RW_Wheel_Speed
                0x00000000400cb0e4                RW_TC
                0x00000000400cb0f4                RW_Buffer_u_rx
                0x00000000400cb2f4                RW_Write_ptr
                0x00000000400cb2f8                RW_TM_Raw_Data_ptr
                0x00000000400cb2fc                RW_4
                0x00000000400cb30c                inter_HAL_RW_Status_Register
                0x00000000400cb310                rw_tm_count
                0x00000000400cb318                RW_Write_Data
                0x00000000400cb32c                RW_TM
                0x00000000400cb52c                inter_HAL_RW_Read_Addr
                0x00000000400cb530                TMC_ptr
                0x00000000400cb534                dak
                0x00000000400cb538                inter_HAL_RW_Read_Limit
                0x00000000400cb53c                RW_Buffer_u
                0x00000000400cb73c                RW_Measured
                0x00000000400cb74c                NOB_CRC_TMC
                0x00000000400cb750                NOB_SFC_TMC
                0x00000000400cb754                RWS
                0x00000000400cb764                USIF_u
                0x00000000400cb768                RW_1
 COMMON         0x00000000400cb778       0x10 C:\Users\ajarr\AppData\Local\Temp\ccduqfO0.o
                0x00000000400cb778                TC_HAL_SA_Heater_Timer
                0x00000000400cb77c                Antenna_ACK
                0x00000000400cb77e                sa_data
                0x00000000400cb780                sa_test
                0x00000000400cb784                inter_HAL_Antenna_Addr
 COMMON         0x00000000400cb788        0x4 C:\Users\ajarr\AppData\Local\Temp\cc1MBP0N.o
                0x00000000400cb788                qerror
 *fill*         0x00000000400cb78c        0x4 
 COMMON         0x00000000400cb790     0x7c84 C:\Users\ajarr\AppData\Local\Temp\ccasxzae.o
                0x00000000400cb790                inclo
                0x00000000400cb798                rk_Qk
                0x00000000400cba20                DPM_Polarity
                0x00000000400cba30                rl
                0x00000000400cba38                CB_Q_propagation
                0x00000000400cba40                TC_lat_station
                0x00000000400cba48                BDOT_Reduction_Count
                0x00000000400cba50                vz
                0x00000000400cba58                i_jday
                0x00000000400cba60                Rho
                0x00000000400cba68                OrbitModel_Start
                0x00000000400cba70                delmo
                0x00000000400cba78                d_DAD
                0x00000000400cba80                q_prop_out
                0x00000000400cbaa0                ActWhMom
                0x00000000400cbac0                JDTDT
                0x00000000400cbac8                Z_EPO2ECI
                0x00000000400cbae0                DeltaT_Updated
                0x00000000400cbae4                J_MAGAD
                0x00000000400cbae8                TC_wh_speed_thres
                0x00000000400cbaf0                trueanomoly_GPS
                0x00000000400cbaf8                latitude_temp
                0x00000000400cbb00                wcreci
                0x00000000400cbb18                xlm
                0x00000000400cbb20                Qk_temp4
                0x00000000400cbb28                tut
                0x00000000400cbb30                del
                0x00000000400cbb38                epochdays_sel
                0x00000000400cbb40                Orbit_Period_Comp
                0x00000000400cbb48                t3
                0x00000000400cbb50                HB
                0x00000000400cbb68                Tdes
                0x00000000400cbb80                wkm
                0x00000000400cbb88                func_prev_DAD
                0x00000000400cbb90                pk_plus
                0x00000000400cbe18                PosR_Deployed
                0x00000000400cbe20                one_by_2
                0x00000000400cbe28                nodedf
                0x00000000400cbe30                BNorth
                0x00000000400cbe38                NRB_sunmag
                0x00000000400cbef8                Del_Q
                0x00000000400cbf18                longitude_tan_den
                0x00000000400cbf20                pow_psisq
                0x00000000400cbf28                wcrecef
                0x00000000400cbf40                argpdf
                0x00000000400cbf48                rvdot
                0x00000000400cbf50                q_by_two
                0x00000000400cbfb0                SS_M8
                0x00000000400cbfb8                TC_StationTracking
                0x00000000400cbfc0                mag_noise
                0x00000000400cbfc8                Y_SVO2ECI
                0x00000000400cbfe0                cc2
                0x00000000400cbfe8                TC_delAT
                0x00000000400cbff0                mat_sm_DataCounter
                0x00000000400cbff8                delomg
                0x00000000400cc000                root_DAD
                0x00000000400cc008                func_DAD
                0x00000000400cc010                cosi
                0x00000000400cc018                xhdot1
                0x00000000400cc020                ibexp_TLE_tc
                0x00000000400cc028                omgcof
                0x00000000400cc030                phi_11_temp4
                0x00000000400cc078                w_REF
                0x00000000400cc090                tempe
                0x00000000400cc098                mu_m
                0x00000000400cc0b0                el2
                0x00000000400cc0b8                Q_angle
                0x00000000400cc0c0                a_DAD
                0x00000000400cc0c8                Orbit_Period
                0x00000000400cc0d0                hk_xk_minus
                0x00000000400cc0e8                nutation
                0x00000000400cc130                bstar_sel
                0x00000000400cc138                Y_SFDO2ECI
                0x00000000400cc150                TC_max_whspeed
                0x00000000400cc158                Zt_DAD
                0x00000000400cc170                sine_of_Wk1_Delta
                0x00000000400cc178                delmo_temp
                0x00000000400cc180                temp_or_init
                0x00000000400cc188                vsatx_eci
                0x00000000400cc190                TTDT
                0x00000000400cc198                mm
                0x00000000400cc1a0                ecc_temp1
                0x00000000400cc1a8                bstar_tc
                0x00000000400cc1b0                intermediate
                0x00000000400cc1b8                gN_MAGAD
                0x00000000400cc1bc                Delta_TLE
                0x00000000400cc1c0                rtom
                0x00000000400cc1c8                sinu
                0x00000000400cc1d0                CB_OrbitModel
                0x00000000400cc1d4                j
                0x00000000400cc1d8                Ry
                0x00000000400cc220                ch_obs_whsp
                0x00000000400cc240                k_kf
                0x00000000400cc248                u_perp
                0x00000000400cc260                Ton
                0x00000000400cc270                determinant
                0x00000000400cc278                Pitch_MTREnable
                0x00000000400cc27c                SunAcq3ThreeAx_trsit_cnt
                0x00000000400cc280                TTDB2
                0x00000000400cc288                eccsq
                0x00000000400cc290                eccanomaly
                0x00000000400cc298                spin_up_avg_count
                0x00000000400cc29c                TC_GPS2TLE_Switch
                0x00000000400cc2a0                ecc_GPS
                0x00000000400cc2a8                radialdistance
                0x00000000400cc2b0                BNorth_old
                0x00000000400cc2b8                uy
                0x00000000400cc2c0                DFCcountHigh
                0x00000000400cc2c4                hr_TLE_tc
                0x00000000400cc2c8                eSpaceCraftMode
                0x00000000400cc2d0                q_magad
                0x00000000400cc620                aynl
                0x00000000400cc628                perigee
                0x00000000400cc630                K_DAD
                0x00000000400cc638                Day_Of_Year_DeltaT
                0x00000000400cc640                Del_R_theta
                0x00000000400cc648                Z_SVO2ECI
                0x00000000400cc660                UT1
                0x00000000400cc668                nut_temp
                0x00000000400cc6b0                ActuationCycle
                0x00000000400cc6b8                T_RWBn
                0x00000000400cc6d0                Roll_MTR_Pol_Reversal
                0x00000000400cc6d8                trueanomoly
                0x00000000400cc6e0                temp2
                0x00000000400cc6e8                TC_TLE_Elements_select
                0x00000000400cc6ec                TLE_Select
                0x00000000400cc6f0                cos_and_sin
                0x00000000400cc770                SunAcq2DetMode_counter
                0x00000000400cc778                TC_min_whspeed
                0x00000000400cc780                f
                0x00000000400cc7a8                TC_MDk
                0x00000000400cc7b0                Vel_ECIn
                0x00000000400cc7c8                UTC_mon_GPS
                0x00000000400cc7d0                B2wh_mat
                0x00000000400cc830                Delta_by2
                0x00000000400cc838                Q_EPO2ECI
                0x00000000400cc858                old_cos
                0x00000000400cc860                Not_Deployed
                0x00000000400cc868                eccanomaly_GPS
                0x00000000400cc870                angmomentumvec
                0x00000000400cc888                out_Quat_norm
                0x00000000400cc8a8                cc5
                0x00000000400cc8b0                gast
                0x00000000400cc8b8                temp_magad
                0x00000000400cc8c0                nut_sid_temp
                0x00000000400cc908                sec_sel
                0x00000000400cc910                K_MAGAD
                0x00000000400cc918                B_REF
                0x00000000400cc930                omecc
                0x00000000400cc938                del_v0a
                0x00000000400cc940                argofperigee
                0x00000000400cc948                phi_k_T
                0x00000000400ccbd0                argpo_tc
                0x00000000400ccbd8                eSafeMode
                0x00000000400ccbe0                Alti_GPS
                0x00000000400ccbe8                TC_wAD_BODYmaxThYaw
                0x00000000400ccbf0                T_RWB
                0x00000000400ccc08                s_magad
                0x00000000400ccc10                Toff
                0x00000000400ccc20                rdotrst
                0x00000000400ccc28                B_NED
                0x00000000400ccc40                alpha_2RW
                0x00000000400ccc48                temp1_or_init
                0x00000000400ccc50                prev_obs_whsp_ch
                0x00000000400ccc70                Wk1_one
                0x00000000400cccb8                d1
                0x00000000400cccc0                coskp
                0x00000000400cccc8                TDB
                0x00000000400cccd0                SunAcquisition2ThreeAxis_autotransit
                0x00000000400cccd8                Zt_Ssqr_Z_DAD
                0x00000000400ccce0                f_DataSort_SUNMAG
                0x00000000400ccce8                sine1
                0x00000000400cccf0                wheel_spin_logic
                0x00000000400cccf8                con42
                0x00000000400ccd00                Epochyear_GPS
                0x00000000400ccd04                CB_DutyCycleGeneration
                0x00000000400ccd08                inclination_GPS
                0x00000000400ccd10                Matout341
                0x00000000400ccd28                wh2B_mat
                0x00000000400ccd88                xmy
                0x00000000400ccd90                uuu
                0x00000000400ccd98                TAI
                0x00000000400ccda0                NMB_sunmag
                0x00000000400cce60                nodeo_GPS
                0x00000000400cce68                TC_GPSvalidity_Threshold
                0x00000000400cce6c                CB_Torquer_Polarity_Check
                0x00000000400cce70                x7thm1
                0x00000000400cce78                ak
                0x00000000400cce80                ecc_TLE_tc
                0x00000000400cce88                Tv_wof
                0x00000000400cced0                CB_AngularMomentumDumping
                0x00000000400cced8                LossWhMomFilt
                0x00000000400ccef8                v0_rad_sec
                0x00000000400ccf18                TC_RW_ARC_Count_thres
                0x00000000400ccf20                del_temp
                0x00000000400ccf28                f_Sunlit_Presence_OBC
                0x00000000400ccf30                g
                0x00000000400cd6b0                TC_eesqrd
                0x00000000400cd6b8                eeta
                0x00000000400cd6c0                xnode
                0x00000000400cd6c8                B_Rho
                0x00000000400cd6d0                rdotl
                0x00000000400cd6d8                QRD_vect_norm
                0x00000000400cd6e0                Z_DAD
                0x00000000400cd6f8                semimajoraxis
                0x00000000400cd700                gmm
                0x00000000400cd708                S_REFn
                0x00000000400cd720                mat_adj
                0x00000000400cd768                TorquerPolaritySetFlag
                0x00000000400cd76c                CB_RefRate_Computation
                0x00000000400cd770                GPS_Elements_Available
                0x00000000400cd778                NRBt_mag
                0x00000000400cd9b8                Kk_Hk
                0x00000000400cdc40                X_EPO2ECI
                0x00000000400cdc58                cosim
                0x00000000400cdc60                CB_SpeedBasedMomentumDumping
                0x00000000400cdc68                mo_tc
                0x00000000400cdc70                i_comr
                0x00000000400cdc74                hr_sel
                0x00000000400cdc78                inclm
                0x00000000400cdc80                TC_BDOT_Compute_Count
                0x00000000400cdc88                mod_of_Wk1
                0x00000000400cdc90                qzms24_temp
                0x00000000400cdc98                DFriction_Compensation
                0x00000000400cdca0                S_DAD
                0x00000000400cdce8                mm_temp
                0x00000000400cdcf0                temp_temp
                0x00000000400cdcf8                pk_HkT_Hk_Rk
                0x00000000400cdd40                u_temp
                0x00000000400cdd48                TC_BDOT_Det_Thresh
                0x00000000400cdd50                NMB_NRBt
                0x00000000400cdd98                A3_magad
                0x00000000400cdda0                ecc_temp2
                0x00000000400cdda8                year_GPS
                0x00000000400cddb0                Y_SPO2ECI
                0x00000000400cddc8                sigma_m
                0x00000000400cddd0                CB_ReferenceQuatComputation
                0x00000000400cddd8                sinkp
                0x00000000400cdde0                adj_S_DAD
                0x00000000400cde28                p_magad
                0x00000000400ce178                GYRO_max_threshold_count
                0x00000000400ce17c                day_TLE_tc
                0x00000000400ce180                TC_SpeedDumpTime
                0x00000000400ce188                H_retn
                0x00000000400ce190                Epochyear_TLE_tc
                0x00000000400ce198                MY
                0x00000000400ce1a0                bstar
                0x00000000400ce1a8                argpo_GPS
                0x00000000400ce1b0                Q_SFDO2ECI
                0x00000000400ce1d0                X_DAD
                0x00000000400ce1e8                TC_wAD_updateTimeThresh
                0x00000000400ce1f0                ecc_temp4
                0x00000000400ce1f8                Vel_ECEF_GPS
                0x00000000400ce210                nodecf
                0x00000000400ce218                Tdeficit
                0x00000000400ce230                vecnorm_mag
                0x00000000400ce238                Vel_ECI_GPS
                0x00000000400ce250                Q_REF_pres
                0x00000000400ce270                phi_12_temp3
                0x00000000400ce2b8                epochdays
                0x00000000400ce2c0                adel
                0x00000000400ce2c8                xmcof
                0x00000000400ce2d0                k
                0x00000000400ce2d8                TC_momentum_dumping_gain
                0x00000000400ce2e0                cosio2
                0x00000000400ce2e8                Yk_minus_hk_Kk
                0x00000000400ce330                mvt
                0x00000000400ce338                Rz
                0x00000000400ce380                St_DAD
                0x00000000400ce3c8                x1mth2
                0x00000000400ce3d0                t2
                0x00000000400ce3d8                speed_based_torquer_control
                0x00000000400ce3e0                B_REFn
                0x00000000400ce3f8                Tsince
                0x00000000400ce400                r_delta
                0x00000000400ce408                var1
                0x00000000400ce410                epochyr_sel
                0x00000000400ce414                entrytime2eclipse
                0x00000000400ce418                em
                0x00000000400ce420                Qk_temp2
                0x00000000400ce428                Xk_plus_temp
                0x00000000400ce440                Q_SPO2ECI
                0x00000000400ce460                W_cross
                0x00000000400ce4a8                Vel_ECI
                0x00000000400ce4c0                pk_HkT_Hk
                0x00000000400ce508                Tcv_temp
                0x00000000400ce520                NRS
                0x00000000400ce5e0                Tdeficit_temp1
                0x00000000400ce5f8                theta2
                0x00000000400ce600                gmst_
                0x00000000400ce608                psi_sl_ecl
                0x00000000400ce610                Pitch_MTR_Pol_Reversal
                0x00000000400ce618                rsun
                0x00000000400ce630                Yk
                0x00000000400ce648                CB_Wheel_Spin_updown
                0x00000000400ce650                vx
                0x00000000400ce658                inttemp
                0x00000000400ce65c                TLE_Data_Available
                0x00000000400ce660                Q_REF_prev
                0x00000000400ce680                BEast
                0x00000000400ce688                SunAcq_Ang_Thres
                0x00000000400ce690                DutyCycleGenEnable
                0x00000000400ce698                Tmm_actual
                0x00000000400ce6b0                CB_MagFieldComp
                0x00000000400ce6b4                eDetumblingMode
                0x00000000400ce6b8                tempa
                0x00000000400ce6c0                xsaty_eci
                0x00000000400ce6c8                pinvsq
                0x00000000400ce6d0                mod_of_Wk1_square
                0x00000000400ce6d8                ecc_temp3
                0x00000000400ce6e0                count_arc_w3
                0x00000000400ce6e4                DFCcountLow
                0x00000000400ce6e8                CB_ExtendedKalmanFilter
                0x00000000400ce6f0                no_TLE_tc
                0x00000000400ce6f8                TC_elapsed_orbitTimer
                0x00000000400ce700                semi_den
                0x00000000400ce708                STATION_vector
                0x00000000400ce720                wks
                0x00000000400ce728                TC_enQuest_update
                0x00000000400ce72c                days_sel
                0x00000000400ce730                TC_SunEarthVaryingFrame
                0x00000000400ce738                big_omega
                0x00000000400ce7b8                tempdays
                0x00000000400ce7bc                Present_OBT
                0x00000000400ce7c0                Tsince_TLE_tc
                0x00000000400ce7c8                X_SPO2ECI_mag
                0x00000000400ce7d0                temparg
                0x00000000400ce7d8                ibexp_sel
                0x00000000400ce7e0                VelZ_ECEF_GPS
                0x00000000400ce7e8                TC_detumbling_bdot_gain
                0x00000000400ce800                LPFK1HighSL
                0x00000000400ce808                xinc
                0x00000000400ce810                Twof_veh
                0x00000000400ce858                mdot
                0x00000000400ce860                DB_GyroLPF
                0x00000000400ce868                LossWhMom
                0x00000000400ce888                b_DAD
                0x00000000400ce890                NMS
                0x00000000400ce950                TC_GPS_pulse_duration
                0x00000000400ce958                phi_k
                0x00000000400cebe0                xin_temp
                0x00000000400cebe8                UTC_hr_GPS
                0x00000000400cebf0                one_by_3
                0x00000000400cebf8                axnl
                0x00000000400cec00                X_SVO2ECI_mag
                0x00000000400cec08                LPFK1SL
                0x00000000400cec28                bstar_TLE_tc
                0x00000000400cec30                coef1
                0x00000000400cec38                B_DAD
                0x00000000400cec80                ang
                0x00000000400cec88                rsat
                0x00000000400ceca0                R_SFAO2ECI
                0x00000000400cece8                magPitch_angle
                0x00000000400cecf0                beta_S_DAD
                0x00000000400ced38                inclination_sel
                0x00000000400ced40                SS_M4
                0x00000000400ced48                exp_whsp_ch
                0x00000000400ced68                Q_SVO2ECI
                0x00000000400ced88                DelThta_cat_z
                0x00000000400ced90                Y_SFAO2ECI
                0x00000000400ceda8                mo_TLE_tc
                0x00000000400cedb0                TC_SunFixedAscendingFrame
                0x00000000400cedb8                delta_HB
                0x00000000400cedd0                cos_of_Wk1_Delta
                0x00000000400cedd8                PosZ_ECEF_GPS
                0x00000000400cede0                Tsince_TLE
                0x00000000400cede8                pk_HkT
                0x00000000400ceec0                sumX_DAD
                0x00000000400cef08                phi_11_temp1
                0x00000000400cef50                TC_wAD_BODYminThYaw
                0x00000000400cef58                j_lict
                0x00000000400cef60                pps_deltaT
                0x00000000400cef68                Kk_matrix
                0x00000000400cf1f0                TC_wAD_BODYminThRoll
                0x00000000400cf1f8                theta
                0x00000000400cf200                f_Momentum_Dumping
                0x00000000400cf208                SUN_ECI_mag
                0x00000000400cf210                Tcv
                0x00000000400cf228                t4
                0x00000000400cf230                cnod
                0x00000000400cf238                mon_sel
                0x00000000400cf240                sidereal
                0x00000000400cf288                tau_ms
                0x00000000400cf290                j_kf
                0x00000000400cf298                sine
                0x00000000400cf2a0                Z_SVO2ECI_mag
                0x00000000400cf2a8                Qprop_prev
                0x00000000400cf2c8                uz
                0x00000000400cf2d0                TC_KR
                0x00000000400cf2e8                ExWhMom
                0x00000000400cf308                T_MT_2RW
                0x00000000400cf320                one_magad
                0x00000000400cf328                S_ECI
                0x00000000400cf340                minorcyclecount
                0x00000000400cf348                Q_quest_DAD_den
                0x00000000400cf350                two_magad
                0x00000000400cf358                Hk_temp
                0x00000000400cf430                xincp
                0x00000000400cf438                Rx
                0x00000000400cf480                z
                0x00000000400cf488                MTR_ActuationCycle
                0x00000000400cf490                BDOTnorm
                0x00000000400cf498                B_ECI
                0x00000000400cf4b0                SAT_ANGLE_STAT
                0x00000000400cf4b8                sigma_DAD
                0x00000000400cf4c0                f_DataSort_MAG
                0x00000000400cf4c8                aycof
                0x00000000400cf4d0                argpo_TLE_tc
                0x00000000400cf4d8                count_arc_w1
                0x00000000400cf4dc                j_gh
                0x00000000400cf4e0                orbit_time
                0x00000000400cf4e8                temp1
                0x00000000400cf4f0                coef
                0x00000000400cf4f8                eSunAcquisitionMode
                0x00000000400cf500                sigma_u
                0x00000000400cf508                etasq
                0x00000000400cf510                T_SD_RW
                0x00000000400cf530                cos2u
                0x00000000400cf538                st_magad
                0x00000000400cf540                Tc
                0x00000000400cf558                UTC
                0x00000000400cf560                out_Quat_mult
                0x00000000400cf580                CB_Wheel_Auto_Reconfiguration
                0x00000000400cf588                Del_P_theta
                0x00000000400cf590                diff_obs_exp_ch
                0x00000000400cf5b0                GPSDataReady
                0x00000000400cf5b8                mo_sel
                0x00000000400cf5c0                NRBt_sunmag
                0x00000000400cf680                trace_S_DAD
                0x00000000400cf688                ct_magad
                0x00000000400cf690                BDOT_Threshold_Count
                0x00000000400cf694                i
                0x00000000400cf698                mu_m_temp
                0x00000000400cf6b0                TC_yp
                0x00000000400cf6b8                CB_Two_RW_control
                0x00000000400cf6bc                j_rfc
                0x00000000400cf6c0                LPFK2SL
                0x00000000400cf6e0                ktr
                0x00000000400cf6e4                I_MFC
                0x00000000400cf6e8                DelThta_cat_y
                0x00000000400cf6f0                magYaw_angle
                0x00000000400cf6f8                epochdays_TLE_tc
                0x00000000400cf700                v0c
                0x00000000400cf720                CB_DAD_quest
                0x00000000400cf728                T_RW_sdump
                0x00000000400cf748                no_sel
                0x00000000400cf750                po
                0x00000000400cf758                NMB_mag
                0x00000000400cf998                Vel_ECEFn
                0x00000000400cf9b0                xmdf
                0x00000000400cf9b8                cc3
                0x00000000400cf9c0                Rk
                0x00000000400cfa08                TC_Hmax
                0x00000000400cfa10                Trwa
                0x00000000400cfa30                qzms24
                0x00000000400cfa38                TC_SunFixedDescendingFrame
                0x00000000400cfa40                T_RW
                0x00000000400cfa60                longitude_GPS
                0x00000000400cfa68                sini
                0x00000000400cfa70                xsatz_eci
                0x00000000400cfa78                DFCGainLow
                0x00000000400cfa80                i_pini
                0x00000000400cfa88                Hk
                0x00000000400cfb60                Delta
                0x00000000400cfb68                Z_SFDO2ECI_mag
                0x00000000400cfb70                u_parl
                0x00000000400cfb88                I_DAD
                0x00000000400cfb8c                year_TLE_tc
                0x00000000400cfb90                ecose
                0x00000000400cfb98                Pos_ECEF
                0x00000000400cfbb0                NRB_mag
                0x00000000400cfdf0                ecc_temp6
                0x00000000400cfdf8                j_pini
                0x00000000400cfe00                Q_REF_diff
                0x00000000400cfe20                ECEFtoECI
                0x00000000400cfe68                t5cof
                0x00000000400cfe70                ep
                0x00000000400cfe78                check_dump_wh
                0x00000000400cfe88                epochyr
                0x00000000400cfe8c                Yaw_MTR_Pol_Reversal
                0x00000000400cfe90                nodem
                0x00000000400cfe98                STATION_ECIn
                0x00000000400cfeb0                TC_xp
                0x00000000400cfeb8                argpp
                0x00000000400cfec0                TC_ARC_Time_Cycle
                0x00000000400cfec4                count_arc_w0
                0x00000000400cfec8                TC_ARC_RPM_Thres
                0x00000000400cfed0                ECItoECEF
                0x00000000400cff18                sinip
                0x00000000400cff20                Bt_DAD
                0x00000000400cff68                inclo_tc
                0x00000000400cff70                rot_ang
                0x00000000400cff78                alpha_2RW_temp
                0x00000000400cff90                coslongacnode
                0x00000000400cff98                eThreeAxisControlMode
                0x00000000400cff9c                f_threeaxis2safe
                0x00000000400cffa0                DeltaT_MFC
                0x00000000400cffa8                TC_detumbling_rate_gain
                0x00000000400cffc0                esine
                0x00000000400cffc8                T_RW_spin
                0x00000000400cffe8                Wk1
                0x00000000400d0030                wc_qst
                0x00000000400d0038                Cross_Product
                0x00000000400d0050                sd_magad
                0x00000000400d0058                i_QDP
                0x00000000400d0060                Z_SPO2ECI
                0x00000000400d0078                d2
                0x00000000400d0080                TC_Det_GYRO_Compute_Count
                0x00000000400d0088                pl
                0x00000000400d0090                Norm_out
                0x00000000400d00a8                NRSt
                0x00000000400d0168                wheel_index
                0x00000000400d0178                L_Msun
                0x00000000400d0180                vpef
                0x00000000400d0198                inclination
                0x00000000400d01a0                FirstSpeed
                0x00000000400d01b0                cosio
                0x00000000400d01b8                i_kf
                0x00000000400d01c0                sinlongacnode
                0x00000000400d01c8                minute_sel
                0x00000000400d01d0                SS_M5
                0x00000000400d01d8                mrt
                0x00000000400d01e0                SunAcq2ThreeAx_trsit_cnt_thres
                0x00000000400d01e8                MR
                0x00000000400d01f0                Qk
                0x00000000400d0478                VelY_ECEF_GPS
                0x00000000400d0480                Matout33
                0x00000000400d04c8                mon_TLE_tc
                0x00000000400d04d0                TC_GYRO_Det_Min_Thresh
                0x00000000400d04d8                betal
                0x00000000400d04e0                Qquest_update
                0x00000000400d0500                i_god
                0x00000000400d0508                mo
                0x00000000400d0510                TC_magMax_angle
                0x00000000400d0518                tt
                0x00000000400d0538                hk
                0x00000000400d0550                dpsi
                0x00000000400d0558                con41
                0x00000000400d0560                CB_Sun_model
                0x00000000400d0568                R_SVO2ECI
                0x00000000400d05b0                qk_plus_temp
                0x00000000400d05d0                delta_hmag
                0x00000000400d05d8                Q_REF_conj
                0x00000000400d05f8                RW_ARC_Logic
                0x00000000400d0600                MP
                0x00000000400d0608                Matout31
                0x00000000400d0620                DelThta_cat_x
                0x00000000400d0628                inclination_temp
                0x00000000400d0630                Xk_plus
                0x00000000400d0678                eol
                0x00000000400d0680                spin_up_avg_count_2
                0x00000000400d0688                tsi
                0x00000000400d0690                phi_11
                0x00000000400d06d8                tempta
                0x00000000400d06e0                Cond1
                0x00000000400d06e8                phi_12_temp1
                0x00000000400d0730                Yaw_MTREnable
                0x00000000400d0734                J_DAD
                0x00000000400d0738                CB_RefVectorGeneration
                0x00000000400d0740                magrsun
                0x00000000400d0748                ao_temp
                0x00000000400d0750                TachoHyst
                0x00000000400d0760                TC_wp_QDP
                0x00000000400d0768                pk_plus_one
                0x00000000400d09f0                CB_Wheel_Dynamic_Friction
                0x00000000400d09f8                B_ECEF
                0x00000000400d0a10                Sun_Dis
                0x00000000400d0a18                A_R
                0x00000000400d0a20                vy
                0x00000000400d0a28                no
                0x00000000400d0a30                beta_DAD
                0x00000000400d0a38                mo_GPS
                0x00000000400d0a40                alpha_DAD
                0x00000000400d0a48                DCM2Q_out
                0x00000000400d0a68                Q_SFAO2ECI
                0x00000000400d0a88                rk_Qk_rk_T
                0x00000000400d0d10                ao
                0x00000000400d0d18                Numofdays
                0x00000000400d0d1c                TC_SunMagAD
                0x00000000400d0d20                S_ECIn
                0x00000000400d0d38                longitude
                0x00000000400d0d40                Quest_update_available
                0x00000000400d0d48                N_ecc
                0x00000000400d0d50                M_MAGAD
                0x00000000400d0d54                minute_TLE_tc
                0x00000000400d0d58                cossu
                0x00000000400d0d60                sin_of_W_norm_Delta_by2_W_norm_and_big_omega
                0x00000000400d0de0                cc4
                0x00000000400d0de8                phi_k_pk_plus
                0x00000000400d1070                trueanomoly_sel
                0x00000000400d1078                MOI_wh
                0x00000000400d1080                STATION_ECEF
                0x00000000400d1098                fN_MAGAD
                0x00000000400d10a0                DFCGainSL
                0x00000000400d10c0                sinmao
                0x00000000400d10c8                snod
                0x00000000400d10d0                cos_of_W_norm_Delta_by2_with_I
                0x00000000400d1150                cl_magad
                0x00000000400d11c0                i_gh
                0x00000000400d11c8                Tdet
                0x00000000400d11e0                nm
                0x00000000400d11e8                TTDB3
                0x00000000400d11f0                del_Vw
                0x00000000400d1210                d4
                0x00000000400d1218                alpha_I_DAD
                0x00000000400d1260                sc_qst
                0x00000000400d1268                t2cof
                0x00000000400d1270                rpef
                0x00000000400d1288                CB_LinearController
                0x00000000400d1290                TC_Bdot_Gain
                0x00000000400d12a8                TC_wAD_BODYmaxThPitch
                0x00000000400d12b0                LPFK2HighSL
                0x00000000400d12b8                suu
                0x00000000400d12c0                Pos_ECI_GPS
                0x00000000400d12d8                Alti_Mod
                0x00000000400d12e0                Msun
                0x00000000400d12e8                alpha_2RW_tempnorm
                0x00000000400d12f0                X_SFAO2ECI
                0x00000000400d1308                Q_REF
                0x00000000400d1328                rp
                0x00000000400d1330                nodeo_tc
                0x00000000400d1338                Y_EPO2ECI
                0x00000000400d1350                radialdistance_ecef
                0x00000000400d1358                CB_QuestDataProcessing
                0x00000000400d135c                year_sel
                0x00000000400d1360                sinio
                0x00000000400d1368                TC_EarthPointingFrame
                0x00000000400d1370                Epsilon
                0x00000000400d1378                j_god
                0x00000000400d1380                Qk_temp1
                0x00000000400d1388                TTDB
                0x00000000400d1390                TC_SpeedAngularMomemtumDumping
                0x00000000400d1398                pre_temp
                0x00000000400d13e0                VelX_ECEF_GPS
                0x00000000400d13e8                Z_SFDO2ECI
                0x00000000400d1400                X_SFDO2ECI_mag
                0x00000000400d1408                LPFK1LowSL
                0x00000000400d1410                DFCCountLimSL
                0x00000000400d1420                am_temp
                0x00000000400d1428                k_DAD
                0x00000000400d1430                Qk_temp3
                0x00000000400d1438                sec_TLE_tc
                0x00000000400d1440                SS_M1
                0x00000000400d1448                invangmomentumvecmag
                0x00000000400d1450                rvdotl
                0x00000000400d1458                Pos_ECEFn
                0x00000000400d1470                X_EPO2ECI_mag
                0x00000000400d1478                emsq
                0x00000000400d1480                c_DAD
                0x00000000400d1488                NEDtoECEF
                0x00000000400d14d0                sine2
                0x00000000400d14d8                TB_sMD
                0x00000000400d14f0                DB_MagLPF
                0x00000000400d14f8                GPSDataReady_NA_count
                0x00000000400d1500                ecc
                0x00000000400d1508                ref_cross
                0x00000000400d1550                cosip
                0x00000000400d1558                CB_ErrorComputation
                0x00000000400d1560                ecc_r
                0x00000000400d1568                TC_long_station
                0x00000000400d1570                H_wh
                0x00000000400d1590                wh_sdump_start
                0x00000000400d15a0                temp_prop
                0x00000000400d15a8                Z_SFAO2ECI_mag
                0x00000000400d15b0                Tsince_GPS
                0x00000000400d15b8                pres_exp_whsp_ch
                0x00000000400d15d8                m_gh
                0x00000000400d15e0                B_ECItesla
                0x00000000400d15f8                Result_of_sine_Delta_cube
                0x00000000400d1600                Pse_Inv_Dist_Mat
                0x00000000400d1660                LPFK2LowSL
                0x00000000400d1668                ux
                0x00000000400d1670                TC_KP
                0x00000000400d1688                templ
                0x00000000400d1690                cos_of_W_norm_and_Delta_by2
                0x00000000400d1698                Q_StP2ECI
                0x00000000400d16b8                phi_11_temp3
                0x00000000400d1700                phi_11_temp2
                0x00000000400d1748                wo
                0x00000000400d1750                gamma_DAD
                0x00000000400d1758                epochdays_GPS
                0x00000000400d1760                UTC_min_GPS
                0x00000000400d1764                CB_Detumbling_Mode
                0x00000000400d1768                phi_k_pk_plus_phi_k_T
                0x00000000400d19f0                Qerror
                0x00000000400d1a10                TC_delUT1
                0x00000000400d1a18                OBT_at_TLE_uplink
                0x00000000400d1a1c                MP_Polarity
                0x00000000400d1a20                argpo
                0x00000000400d1a28                am_den
                0x00000000400d1a30                mat_mult
                0x00000000400d1a78                delm
                0x00000000400d1a80                Tdefnorm
                0x00000000400d1a88                WhMom0
                0x00000000400d1aa8                Pos_ECIn
                0x00000000400d1ac0                cc1sq
                0x00000000400d1ac8                TC_wAD_BODYmaxThRoll
                0x00000000400d1ad0                TC_wAD_BODYminThPitch
                0x00000000400d1ad8                I_MAGAD
                0x00000000400d1ae0                ecc_temp5
                0x00000000400d1ae8                jd_time
                0x00000000400d1af0                ecco
                0x00000000400d1af8                vsaty_eci
                0x00000000400d1b00                xlcof
                0x00000000400d1b08                K_temp
                0x00000000400d1b50                h
                0x00000000400d22d0                NMS_NRSt
                0x00000000400d2318                latitude
                0x00000000400d2320                TC_Det_Bprev_Count
                0x00000000400d2328                Vel_ECEF_temp
                0x00000000400d2340                count_arc_w2
                0x00000000400d2348                Y_EPO2ECI_mag
                0x00000000400d2350                cd_magad
                0x00000000400d2358                latitude_GPS
                0x00000000400d2360                del_v0
                0x00000000400d2380                RW_ARC_Count
                0x00000000400d2384                TC_AutoTransitAnyMode2Det
                0x00000000400d2388                DFCTorq
                0x00000000400d23a8                sinim
                0x00000000400d23b0                var
                0x00000000400d23b8                qk_minus
                0x00000000400d23d8                Q_REF_prev_conj
                0x00000000400d23f8                cosu
                0x00000000400d2400                BDOTNormCount
                0x00000000400d2404                BDOT_Norm_Count
                0x00000000400d2408                Susp_cnt
                0x00000000400d2410                ao_sfour
                0x00000000400d2418                precession
                0x00000000400d2460                Z_SFAO2ECI
                0x00000000400d2478                S_sqr_DAD
                0x00000000400d24c0                nodeo
                0x00000000400d24c8                R_StP2ECI
                0x00000000400d2510                theta1
                0x00000000400d2518                sun_noise
                0x00000000400d2520                TC_Hmin
                0x00000000400d2528                TC_magMin_angle
                0x00000000400d2530                ecc_sel
                0x00000000400d2538                n_gh
                0x00000000400d2540                ecc_temp7
                0x00000000400d2548                etempe
                0x00000000400d2550                A1_magad
                0x00000000400d2558                R_SPO2ECI
                0x00000000400d25a0                xsatx_eci
                0x00000000400d25a8                no_GPS
                0x00000000400d25b0                Yk_minus_hk
                0x00000000400d25c8                TDT
                0x00000000400d25d0                qk_DCM
                0x00000000400d2618                mat_mag_DataCounter
                0x00000000400d2620                argpo_sel
                0x00000000400d2628                psetasq
                0x00000000400d2630                f_battery_safemode
                0x00000000400d2638                Pos_ECI
                0x00000000400d2650                e_vecdtr
                0x00000000400d2658                nodeo_TLE_tc
                0x00000000400d2660                L_Ecliptic
                0x00000000400d2668                trueanomoly_TLE_tc
                0x00000000400d2670                w_q_update_satisfy
                0x00000000400d2678                rteosq
                0x00000000400d2680                lmonth
                0x00000000400d26b8                R_SFDO2ECI
                0x00000000400d2700                UTC_sec_GPS
                0x00000000400d2708                M_quad
                0x00000000400d2710                speedDFCch
                0x00000000400d2718                dc_qst
                0x00000000400d2720                cc1
                0x00000000400d2728                X_SVO2ECI
                0x00000000400d2740                tut1
                0x00000000400d2748                Tdeficit_temp2
                0x00000000400d2760                Delta_T
                0x00000000400d2768                Kk_Hk_with_minus_one
                0x00000000400d29f0                BDown
                0x00000000400d29f8                dumping_on
                0x00000000400d29fc                wAD_updatecount
                0x00000000400d2a00                polarmotion
                0x00000000400d2a48                posq
                0x00000000400d2a50                X_SFDO2ECI
                0x00000000400d2a68                TC_AngMomDump_Thrsld
                0x00000000400d2a70                t3cof
                0x00000000400d2a78                ThreeAxis2DetMode_counter
                0x00000000400d2a80                co_dec
                0x00000000400d2a88                Roll_MTREnable
                0x00000000400d2a8c                k_comr
                0x00000000400d2a90                STATION_ECI
                0x00000000400d2aa8                eps
                0x00000000400d2ab0                Y_SPO2ECI_mag
                0x00000000400d2ab8                B_ECIn
                0x00000000400d2ad0                vsatz_eci
                0x00000000400d2ad8                mod_of_Wk1_cube
                0x00000000400d2ae0                sin2u
                0x00000000400d2ae8                velmag
                0x00000000400d2af0                A2_magad
                0x00000000400d2af8                sl_magad
                0x00000000400d2b68                Result_of_sine_Delta
                0x00000000400d2b70                Dfunc_DAD
                0x00000000400d2b78                cosio4
                0x00000000400d2b80                temp_om
                0x00000000400d2b88                Pos_ECEF_GPS
                0x00000000400d2ba0                min_TW
                0x00000000400d2ba8                Zt_S_Z_DAD
                0x00000000400d2bb0                deps
                0x00000000400d2bb8                Ndte_vec
                0x00000000400d2bc0                CB_Wheel_OverSpeed_TorqueCutOff
                0x00000000400d2bc8                W_norm
                0x00000000400d2bd0                TC_KalmanFilter_ENABLE
                0x00000000400d2bd8                xmx
                0x00000000400d2be0                Q_quest_DAD
                0x00000000400d2c00                DFCGainHigh
                0x00000000400d2c08                Torquer_Shutdown
                0x00000000400d2c10                nodeo_sel
                0x00000000400d2c18                qk_plus
                0x00000000400d2c38                magRoll_angle
                0x00000000400d2c40                sigma_v
                0x00000000400d2c48                j_comr
                0x00000000400d2c50                SS_M2
                0x00000000400d2c58                sin_of_W_norm_and_Delta_by2
                0x00000000400d2c60                ibexp
                0x00000000400d2c68                GYRO_Threshold_Count
                0x00000000400d2c6c                MY_Polarity
                0x00000000400d2c70                inclination_TLE_tc
                0x00000000400d2c78                PosY_ECEF_GPS
                0x00000000400d2c80                CB_BDOT_Computation
                0x00000000400d2c88                Qbody
                0x00000000400d2ca8                eSuspendedMode
                0x00000000400d2cac                i_lict
                0x00000000400d2cb0                delta_DAD
                0x00000000400d2cb8                temp3
                0x00000000400d2cc0                B_Tef_ANG
                0x00000000400d2cc8                X_SPO2ECI
                0x00000000400d2ce0                sine_of_Wk1_Delta_by_Wk1
                0x00000000400d2ce8                PosX_ECEF_GPS
                0x00000000400d2cf0                SS_M7
                0x00000000400d2cf8                SS_M6
                0x00000000400d2d00                Q_axis
                0x00000000400d2d18                Wheel_Config
                0x00000000400d2d20                psisq
                0x00000000400d2d28                N_MAGAD
                0x00000000400d2d30                argpm
                0x00000000400d2d38                mp
                0x00000000400d2d40                am
                0x00000000400d2d48                TC_comd_pitch_rate
                0x00000000400d2d50                TorquerDutyCycle
                0x00000000400d2d68                All_Deployed
                0x00000000400d2d70                xl
                0x00000000400d2d78                dayofyr
                0x00000000400d2d80                eta
                0x00000000400d2d88                ibexp_tc
                0x00000000400d2d90                TC_BDOT_Norm_Threshold
                0x00000000400d2d98                CB_IMUDataProcessing
                0x00000000400d2da0                nodep
                0x00000000400d2da8                Vel_ECI_temp
                0x00000000400d2dc0                omeosq
                0x00000000400d2dc8                Matout431
                0x00000000400d2de8                R_EPO2ECI
                0x00000000400d2e30                majorcyclecount
                0x00000000400d2e38                phi_12
                0x00000000400d2e80                Alti
                0x00000000400d2e88                MR_Polarity
                0x00000000400d2e90                temp_jday
                0x00000000400d2e98                Del_Y_theta
                0x00000000400d2ea0                pk
                0x00000000400d3128                longitude_tan_num
                0x00000000400d3130                DFCCount
                0x00000000400d3140                cos_of_Wk1_Delta_by_Wk1_square
                0x00000000400d3148                Julian_day
                0x00000000400d3150                SS_M3
                0x00000000400d3158                GPS_Select
                0x00000000400d3160                Trwa_mt_comp
                0x00000000400d3178                ak_temp
                0x00000000400d3180                BDOT_deltaT
                0x00000000400d3188                sinsu
                0x00000000400d3190                zeta
                0x00000000400d3198                velmagsq
                0x00000000400d31a0                CB_Sl_Ecl_OnBrd_detection
                0x00000000400d31a8                nodedot
                0x00000000400d31b0                e_vec
                0x00000000400d31c8                wheel_index_ARCsum
                0x00000000400d31d0                RWSpeed
                0x00000000400d31f0                sin_of_W_norm_Delta_by2_and_W_norm
                0x00000000400d31f8                S_REF
                0x00000000400d3210                Xk
                0x00000000400d3258                RAAN
                0x00000000400d3260                NegR_Deployed
                0x00000000400d3268                Zt_Z_DAD
                0x00000000400d3270                nm_temp
                0x00000000400d3278                Vel_ECEF
                0x00000000400d3290                REF_FRAME_DCM
                0x00000000400d32d8                sfour
                0x00000000400d32e0                angmomentumvecmag
                0x00000000400d32e8                Invmatout33
                0x00000000400d3330                Matout441
                0x00000000400d3350                gmst0
                0x00000000400d3358                argpdot
                0x00000000400d3360                cose
                0x00000000400d3368                DPM
                0x00000000400d3380                TC_SpeedDumpLimit
                0x00000000400d3388                d3
                0x00000000400d3390                t4cof
                0x00000000400d3398                rdtv
                0x00000000400d33a0                semimajoraxis_GPS
                0x00000000400d33a8                JDTDB
                0x00000000400d33b0                r1
                0x00000000400d33b8                phi_12_temp2
                0x00000000400d3400                X_SFAO2ECI_mag
                0x00000000400d3408                UTC_day_GPS
                0x00000000400d340c                i_rfc
                0x00000000400d3410                CB_SunSensorDataProcessing
 COMMON         0x00000000400d3414       0x80 c:/opt/bcc-2.0.2-gcc/bin/../sparc-gaisler-elf/bsp/leon2/leon/mfix-at697f\libbcc.a(isr.c.o)
                0x00000000400d3414                __bcc_isr_list
                0x00000000400d3498                . = ALIGN (0x8)
 *fill*         0x00000000400d3494        0x4 
                0x00000000400d3498                __bss_end = .
                0x00000000400d3498                __heap_min = .
                0x00000000400d3498                . = ALIGN (0x8)

.jcr
 *(.jcr)

.stab
 *(.stab)

.stabstr
 *(.stabstr)

.debug
 *(.debug)

.line
 *(.line)

.debug_srcinfo
 *(.debug_srcinfo)

.debug_sfnames
 *(.debug_sfnames)

.debug_aranges  0x0000000000000000      0xb00
 *(.debug_aranges)
 .debug_aranges
                0x0000000000000000       0x20 c:/opt/bcc-2.0.2-gcc/bin/../sparc-gaisler-elf/bsp/leon2/leon/mfix-at697f/trap_table_mvt.S.o
 .debug_aranges
                0x0000000000000020       0x20 c:/opt/bcc-2.0.2-gcc/bin/../sparc-gaisler-elf/bsp/leon2/leon/mfix-at697f/crt0.S.o
 .debug_aranges
                0x0000000000000040       0x28 C:\Users\ajarr\AppData\Local\Temp\ccgtKLQ9.o
 .debug_aranges
                0x0000000000000068       0x20 C:\Users\ajarr\AppData\Local\Temp\ccZ3M43h.o
 .debug_aranges
                0x0000000000000088       0x20 C:\Users\ajarr\AppData\Local\Temp\ccnGtmfO.o
 .debug_aranges
                0x00000000000000a8       0x20 C:\Users\ajarr\AppData\Local\Temp\ccEMnW47.o
 .debug_aranges
                0x00000000000000c8       0x20 C:\Users\ajarr\AppData\Local\Temp\cc3Yg1qw.o
 .debug_aranges
                0x00000000000000e8       0x20 C:\Users\ajarr\AppData\Local\Temp\ccxnFfLM.o
 .debug_aranges
                0x0000000000000108       0x20 C:\Users\ajarr\AppData\Local\Temp\cczbQmCd.o
 .debug_aranges
                0x0000000000000128       0x20 C:\Users\ajarr\AppData\Local\Temp\ccp71scL.o
 .debug_aranges
                0x0000000000000148       0x20 C:\Users\ajarr\AppData\Local\Temp\ccf1qWep.o
 .debug_aranges
                0x0000000000000168       0x20 C:\Users\ajarr\AppData\Local\Temp\cclXIhGd.o
 .debug_aranges
                0x0000000000000188       0x20 C:\Users\ajarr\AppData\Local\Temp\cclUyX1f.o
 .debug_aranges
                0x00000000000001a8       0x20 C:\Users\ajarr\AppData\Local\Temp\ccYAcwQn.o
 .debug_aranges
                0x00000000000001c8       0x20 C:\Users\ajarr\AppData\Local\Temp\ccjmXURG.o
 .debug_aranges
                0x00000000000001e8       0x20 C:\Users\ajarr\AppData\Local\Temp\ccovS4yg.o
 .debug_aranges
                0x0000000000000208       0x20 C:\Users\ajarr\AppData\Local\Temp\ccduqfO0.o
 .debug_aranges
                0x0000000000000228       0x20 C:\Users\ajarr\AppData\Local\Temp\ccXhqPVa.o
 .debug_aranges
                0x0000000000000248       0x20 C:\Users\ajarr\AppData\Local\Temp\ccNMwkyO.o
 .debug_aranges
                0x0000000000000268       0x18 C:\Users\ajarr\AppData\Local\Temp\ccDl90Kv.o
 .debug_aranges
                0x0000000000000280       0x20 C:\Users\ajarr\AppData\Local\Temp\ccwbk5Wx.o
 .debug_aranges
                0x00000000000002a0       0x20 C:\Users\ajarr\AppData\Local\Temp\cc1MBP0N.o
 .debug_aranges
                0x00000000000002c0       0x20 C:\Users\ajarr\AppData\Local\Temp\cc8WbBCy.o
 .debug_aranges
                0x00000000000002e0       0x20 C:\Users\ajarr\AppData\Local\Temp\cc8e2yNj.o
 .debug_aranges
                0x0000000000000300       0x18 C:\Users\ajarr\AppData\Local\Temp\ccasxzae.o
 .debug_aranges
                0x0000000000000318       0x20 C:\Users\ajarr\AppData\Local\Temp\ccjuLCXH.o
 .debug_aranges
                0x0000000000000338       0x20 C:\Users\ajarr\AppData\Local\Temp\ccGb5JPl.o
 .debug_aranges
                0x0000000000000358       0x20 C:\Users\ajarr\AppData\Local\Temp\cclaJb28.o
 .debug_aranges
                0x0000000000000378       0x20 c:/opt/bcc-2.0.2-gcc/bin/../lib/gcc/sparc-gaisler-elf/7.2.0/../../../../sparc-gaisler-elf/lib/leon/mfix-at697f\libm.a(lib_a-s_atan.o)
 .debug_aranges
                0x0000000000000398       0x20 c:/opt/bcc-2.0.2-gcc/bin/../lib/gcc/sparc-gaisler-elf/7.2.0/../../../../sparc-gaisler-elf/lib/leon/mfix-at697f\libm.a(lib_a-s_cos.o)
 .debug_aranges
                0x00000000000003b8       0x20 c:/opt/bcc-2.0.2-gcc/bin/../lib/gcc/sparc-gaisler-elf/7.2.0/../../../../sparc-gaisler-elf/lib/leon/mfix-at697f\libm.a(lib_a-s_fabs.o)
 .debug_aranges
                0x00000000000003d8       0x20 c:/opt/bcc-2.0.2-gcc/bin/../lib/gcc/sparc-gaisler-elf/7.2.0/../../../../sparc-gaisler-elf/lib/leon/mfix-at697f\libm.a(lib_a-s_floor.o)
 .debug_aranges
                0x00000000000003f8       0x20 c:/opt/bcc-2.0.2-gcc/bin/../lib/gcc/sparc-gaisler-elf/7.2.0/../../../../sparc-gaisler-elf/lib/leon/mfix-at697f\libm.a(lib_a-s_round.o)
 .debug_aranges
                0x0000000000000418       0x20 c:/opt/bcc-2.0.2-gcc/bin/../lib/gcc/sparc-gaisler-elf/7.2.0/../../../../sparc-gaisler-elf/lib/leon/mfix-at697f\libm.a(lib_a-s_sin.o)
 .debug_aranges
                0x0000000000000438       0x20 c:/opt/bcc-2.0.2-gcc/bin/../lib/gcc/sparc-gaisler-elf/7.2.0/../../../../sparc-gaisler-elf/lib/leon/mfix-at697f\libm.a(lib_a-s_tan.o)
 .debug_aranges
                0x0000000000000458       0x20 c:/opt/bcc-2.0.2-gcc/bin/../lib/gcc/sparc-gaisler-elf/7.2.0/../../../../sparc-gaisler-elf/lib/leon/mfix-at697f\libm.a(lib_a-w_acos.o)
 .debug_aranges
                0x0000000000000478       0x20 c:/opt/bcc-2.0.2-gcc/bin/../lib/gcc/sparc-gaisler-elf/7.2.0/../../../../sparc-gaisler-elf/lib/leon/mfix-at697f\libm.a(lib_a-w_asin.o)
 .debug_aranges
                0x0000000000000498       0x20 c:/opt/bcc-2.0.2-gcc/bin/../lib/gcc/sparc-gaisler-elf/7.2.0/../../../../sparc-gaisler-elf/lib/leon/mfix-at697f\libm.a(lib_a-w_atan2.o)
 .debug_aranges
                0x00000000000004b8       0x20 c:/opt/bcc-2.0.2-gcc/bin/../lib/gcc/sparc-gaisler-elf/7.2.0/../../../../sparc-gaisler-elf/lib/leon/mfix-at697f\libm.a(lib_a-w_fmod.o)
 .debug_aranges
                0x00000000000004d8       0x20 c:/opt/bcc-2.0.2-gcc/bin/../lib/gcc/sparc-gaisler-elf/7.2.0/../../../../sparc-gaisler-elf/lib/leon/mfix-at697f\libm.a(lib_a-w_pow.o)
 .debug_aranges
                0x00000000000004f8       0x20 c:/opt/bcc-2.0.2-gcc/bin/../lib/gcc/sparc-gaisler-elf/7.2.0/../../../../sparc-gaisler-elf/lib/leon/mfix-at697f\libm.a(lib_a-w_sqrt.o)
 .debug_aranges
                0x0000000000000518       0x20 c:/opt/bcc-2.0.2-gcc/bin/../lib/gcc/sparc-gaisler-elf/7.2.0/../../../../sparc-gaisler-elf/lib/leon/mfix-at697f\libm.a(lib_a-e_acos.o)
 .debug_aranges
                0x0000000000000538       0x20 c:/opt/bcc-2.0.2-gcc/bin/../lib/gcc/sparc-gaisler-elf/7.2.0/../../../../sparc-gaisler-elf/lib/leon/mfix-at697f\libm.a(lib_a-e_asin.o)
 .debug_aranges
                0x0000000000000558       0x20 c:/opt/bcc-2.0.2-gcc/bin/../lib/gcc/sparc-gaisler-elf/7.2.0/../../../../sparc-gaisler-elf/lib/leon/mfix-at697f\libm.a(lib_a-e_atan2.o)
 .debug_aranges
                0x0000000000000578       0x20 c:/opt/bcc-2.0.2-gcc/bin/../lib/gcc/sparc-gaisler-elf/7.2.0/../../../../sparc-gaisler-elf/lib/leon/mfix-at697f\libm.a(lib_a-e_fmod.o)
 .debug_aranges
                0x0000000000000598       0x20 c:/opt/bcc-2.0.2-gcc/bin/../lib/gcc/sparc-gaisler-elf/7.2.0/../../../../sparc-gaisler-elf/lib/leon/mfix-at697f\libm.a(lib_a-e_pow.o)
 .debug_aranges
                0x00000000000005b8       0x20 c:/opt/bcc-2.0.2-gcc/bin/../lib/gcc/sparc-gaisler-elf/7.2.0/../../../../sparc-gaisler-elf/lib/leon/mfix-at697f\libm.a(lib_a-e_rem_pio2.o)
 .debug_aranges
                0x00000000000005d8       0x20 c:/opt/bcc-2.0.2-gcc/bin/../lib/gcc/sparc-gaisler-elf/7.2.0/../../../../sparc-gaisler-elf/lib/leon/mfix-at697f\libm.a(lib_a-e_sqrt.o)
 .debug_aranges
                0x00000000000005f8       0x20 c:/opt/bcc-2.0.2-gcc/bin/../lib/gcc/sparc-gaisler-elf/7.2.0/../../../../sparc-gaisler-elf/lib/leon/mfix-at697f\libm.a(lib_a-k_cos.o)
 .debug_aranges
                0x0000000000000618       0x20 c:/opt/bcc-2.0.2-gcc/bin/../lib/gcc/sparc-gaisler-elf/7.2.0/../../../../sparc-gaisler-elf/lib/leon/mfix-at697f\libm.a(lib_a-k_rem_pio2.o)
 .debug_aranges
                0x0000000000000638       0x20 c:/opt/bcc-2.0.2-gcc/bin/../lib/gcc/sparc-gaisler-elf/7.2.0/../../../../sparc-gaisler-elf/lib/leon/mfix-at697f\libm.a(lib_a-k_sin.o)
 .debug_aranges
                0x0000000000000658       0x20 c:/opt/bcc-2.0.2-gcc/bin/../lib/gcc/sparc-gaisler-elf/7.2.0/../../../../sparc-gaisler-elf/lib/leon/mfix-at697f\libm.a(lib_a-k_tan.o)
 .debug_aranges
                0x0000000000000678       0x20 c:/opt/bcc-2.0.2-gcc/bin/../lib/gcc/sparc-gaisler-elf/7.2.0/../../../../sparc-gaisler-elf/lib/leon/mfix-at697f\libm.a(lib_a-s_finite.o)
 .debug_aranges
                0x0000000000000698       0x18 c:/opt/bcc-2.0.2-gcc/bin/../lib/gcc/sparc-gaisler-elf/7.2.0/../../../../sparc-gaisler-elf/lib/leon/mfix-at697f\libm.a(lib_a-s_lib_ver.o)
 .debug_aranges
                0x00000000000006b0       0x20 c:/opt/bcc-2.0.2-gcc/bin/../lib/gcc/sparc-gaisler-elf/7.2.0/../../../../sparc-gaisler-elf/lib/leon/mfix-at697f\libm.a(lib_a-s_matherr.o)
 .debug_aranges
                0x00000000000006d0       0x20 c:/opt/bcc-2.0.2-gcc/bin/../lib/gcc/sparc-gaisler-elf/7.2.0/../../../../sparc-gaisler-elf/lib/leon/mfix-at697f\libm.a(lib_a-s_nan.o)
 .debug_aranges
                0x00000000000006f0       0x20 c:/opt/bcc-2.0.2-gcc/bin/../lib/gcc/sparc-gaisler-elf/7.2.0/../../../../sparc-gaisler-elf/lib/leon/mfix-at697f\libm.a(lib_a-s_rint.o)
 .debug_aranges
                0x0000000000000710       0x20 c:/opt/bcc-2.0.2-gcc/bin/../lib/gcc/sparc-gaisler-elf/7.2.0/../../../../sparc-gaisler-elf/lib/leon/mfix-at697f\libm.a(lib_a-s_scalbn.o)
 .debug_aranges
                0x0000000000000730       0x20 c:/opt/bcc-2.0.2-gcc/bin/../lib/gcc/sparc-gaisler-elf/7.2.0/../../../../sparc-gaisler-elf/lib/leon/mfix-at697f\libm.a(lib_a-s_copysign.o)
 .debug_aranges
                0x0000000000000750       0x20 c:/opt/bcc-2.0.2-gcc/bin/../sparc-gaisler-elf/bsp/leon2/leon/mfix-at697f\libbcc.a(reset_trap_mvt.S.o)
 .debug_aranges
                0x0000000000000770       0x20 c:/opt/bcc-2.0.2-gcc/bin/../sparc-gaisler-elf/bsp/leon2/leon/mfix-at697f\libbcc.a(window_trap.S.o)
 .debug_aranges
                0x0000000000000790       0x20 c:/opt/bcc-2.0.2-gcc/bin/../sparc-gaisler-elf/bsp/leon2/leon/mfix-at697f\libbcc.a(interrupt_trap.S.o)
 .debug_aranges
                0x00000000000007b0       0x20 c:/opt/bcc-2.0.2-gcc/bin/../sparc-gaisler-elf/bsp/leon2/leon/mfix-at697f\libbcc.a(flush_windows_trap.S.o)
 .debug_aranges
                0x00000000000007d0       0x20 c:/opt/bcc-2.0.2-gcc/bin/../sparc-gaisler-elf/bsp/leon2/leon/mfix-at697f\libbcc.a(sw_trap_set_pil.S.o)
 .debug_aranges
                0x00000000000007f0       0x20 c:/opt/bcc-2.0.2-gcc/bin/../sparc-gaisler-elf/bsp/leon2/leon/mfix-at697f\libbcc.a(trap.c.o)
 .debug_aranges
                0x0000000000000810       0x18 c:/opt/bcc-2.0.2-gcc/bin/../sparc-gaisler-elf/bsp/leon2/leon/mfix-at697f\libbcc.a(isr.c.o)
 .debug_aranges
                0x0000000000000828       0x18 c:/opt/bcc-2.0.2-gcc/bin/../sparc-gaisler-elf/bsp/leon2/leon/mfix-at697f\libbcc.a(int_nest.c.o)
 .debug_aranges
                0x0000000000000840       0x20 c:/opt/bcc-2.0.2-gcc/bin/../sparc-gaisler-elf/bsp/leon2/leon/mfix-at697f\libbcc.a(init.S.o)
 .debug_aranges
                0x0000000000000860       0x20 c:/opt/bcc-2.0.2-gcc/bin/../sparc-gaisler-elf/bsp/leon2/leon/mfix-at697f\libbcc.a(leon_info.S.o)
 .debug_aranges
                0x0000000000000880       0x20 c:/opt/bcc-2.0.2-gcc/bin/../sparc-gaisler-elf/bsp/leon2/leon/mfix-at697f\libbcc.a(dwzero.S.o)
 .debug_aranges
                0x00000000000008a0       0x20 c:/opt/bcc-2.0.2-gcc/bin/../sparc-gaisler-elf/bsp/leon2/leon/mfix-at697f\libbcc.a(copy_data.c.o)
 .debug_aranges
                0x00000000000008c0       0x20 c:/opt/bcc-2.0.2-gcc/bin/../sparc-gaisler-elf/bsp/leon2/leon/mfix-at697f\libbcc.a(lowlevel.S.o)
 .debug_aranges
                0x00000000000008e0       0x20 c:/opt/bcc-2.0.2-gcc/bin/../sparc-gaisler-elf/bsp/leon2/leon/mfix-at697f\libbcc.a(lowlevel_leon2.S.o)
 .debug_aranges
                0x0000000000000900       0x20 c:/opt/bcc-2.0.2-gcc/bin/../sparc-gaisler-elf/bsp/leon2/leon/mfix-at697f\libbcc.a(int_leon2.c.o)
 .debug_aranges
                0x0000000000000920       0x20 c:/opt/bcc-2.0.2-gcc/bin/../sparc-gaisler-elf/bsp/leon2/leon/mfix-at697f\libbcc.a(int_leon2_get_source.c.o)
 .debug_aranges
                0x0000000000000940       0x20 c:/opt/bcc-2.0.2-gcc/bin/../sparc-gaisler-elf/bsp/leon2/leon/mfix-at697f\libbcc.a(int_leon2_init.c.o)
 .debug_aranges
                0x0000000000000960       0x20 c:/opt/bcc-2.0.2-gcc/bin/../sparc-gaisler-elf/bsp/leon2/leon/mfix-at697f\libbcc.a(con_leon2.c.o)
 .debug_aranges
                0x0000000000000980       0x20 c:/opt/bcc-2.0.2-gcc/bin/../sparc-gaisler-elf/bsp/leon2/leon/mfix-at697f\libbcc.a(timer_leon2.c.o)
 .debug_aranges
                0x00000000000009a0       0x20 c:/opt/bcc-2.0.2-gcc/bin/../sparc-gaisler-elf/bsp/leon2/leon/mfix-at697f\libbcc.a(set_pil.S.o)
 .debug_aranges
                0x00000000000009c0       0x18 c:/opt/bcc-2.0.2-gcc/bin/../sparc-gaisler-elf/bsp/leon2/leon/mfix-at697f\libbcc.a(int_leon2_handle.c.o)
 .debug_aranges
                0x00000000000009d8       0x18 c:/opt/bcc-2.0.2-gcc/bin/../sparc-gaisler-elf/bsp/leon2/leon/mfix-at697f\libbcc.a(con_handle.c.o)
 .debug_aranges
                0x00000000000009f0       0x18 c:/opt/bcc-2.0.2-gcc/bin/../sparc-gaisler-elf/bsp/leon2/leon/mfix-at697f\libbcc.a(timer_handle.c.o)
 .debug_aranges
                0x0000000000000a08       0x20 c:/opt/bcc-2.0.2-gcc/bin/../lib/gcc/sparc-gaisler-elf/7.2.0/../../../../sparc-gaisler-elf/lib/leon/mfix-at697f\libc.a(lib_a-atexit.o)
 .debug_aranges
                0x0000000000000a28       0x20 c:/opt/bcc-2.0.2-gcc/bin/../lib/gcc/sparc-gaisler-elf/7.2.0/../../../../sparc-gaisler-elf/lib/leon/mfix-at697f\libc.a(lib_a-errno.o)
 .debug_aranges
                0x0000000000000a48       0x20 c:/opt/bcc-2.0.2-gcc/bin/../lib/gcc/sparc-gaisler-elf/7.2.0/../../../../sparc-gaisler-elf/lib/leon/mfix-at697f\libc.a(lib_a-exit.o)
 .debug_aranges
                0x0000000000000a68       0x18 c:/opt/bcc-2.0.2-gcc/bin/../lib/gcc/sparc-gaisler-elf/7.2.0/../../../../sparc-gaisler-elf/lib/leon/mfix-at697f\libc.a(lib_a-impure.o)
 .debug_aranges
                0x0000000000000a80       0x20 c:/opt/bcc-2.0.2-gcc/bin/../lib/gcc/sparc-gaisler-elf/7.2.0/../../../../sparc-gaisler-elf/lib/leon/mfix-at697f\libc.a(lib_a-memcpy.o)
 .debug_aranges
                0x0000000000000aa0       0x20 c:/opt/bcc-2.0.2-gcc/bin/../lib/gcc/sparc-gaisler-elf/7.2.0/../../../../sparc-gaisler-elf/lib/leon/mfix-at697f\libc.a(lib_a-__atexit.o)
 .debug_aranges
                0x0000000000000ac0       0x20 c:/opt/bcc-2.0.2-gcc/bin/../lib/gcc/sparc-gaisler-elf/7.2.0/../../../../sparc-gaisler-elf/lib/leon/mfix-at697f\libc.a(lib_a-__call_atexit.o)
 .debug_aranges
                0x0000000000000ae0       0x20 c:/opt/bcc-2.0.2-gcc/bin/../sparc-gaisler-elf/bsp/leon2/leon/mfix-at697f\libbcc.a(_exit.S.o)

.debug_pubnames
 *(.debug_pubnames)

.debug_info     0x0000000000000000    0xf1fa5
 *(.debug_info)
 .debug_info    0x0000000000000000       0xd0 c:/opt/bcc-2.0.2-gcc/bin/../sparc-gaisler-elf/bsp/leon2/leon/mfix-at697f/trap_table_mvt.S.o
 .debug_info    0x00000000000000d0       0xc1 c:/opt/bcc-2.0.2-gcc/bin/../sparc-gaisler-elf/bsp/leon2/leon/mfix-at697f/crt0.S.o
 .debug_info    0x0000000000000191     0x9f8e C:\Users\ajarr\AppData\Local\Temp\ccgtKLQ9.o
 .debug_info    0x000000000000a11f     0xa4bd C:\Users\ajarr\AppData\Local\Temp\ccZ3M43h.o
 .debug_info    0x00000000000145dc     0xb4d6 C:\Users\ajarr\AppData\Local\Temp\ccnGtmfO.o
 .debug_info    0x000000000001fab2     0xce17 C:\Users\ajarr\AppData\Local\Temp\ccEMnW47.o
 .debug_info    0x000000000002c8c9       0x63 C:\Users\ajarr\AppData\Local\Temp\cc3Yg1qw.o
 .debug_info    0x000000000002c92c     0xadbd C:\Users\ajarr\AppData\Local\Temp\ccxnFfLM.o
 .debug_info    0x00000000000376e9     0xa971 C:\Users\ajarr\AppData\Local\Temp\cczbQmCd.o
 .debug_info    0x000000000004205a     0x5e4f C:\Users\ajarr\AppData\Local\Temp\ccp71scL.o
 .debug_info    0x0000000000047ea9     0x7c01 C:\Users\ajarr\AppData\Local\Temp\ccf1qWep.o
 .debug_info    0x000000000004faaa     0x7f86 C:\Users\ajarr\AppData\Local\Temp\cclXIhGd.o
 .debug_info    0x0000000000057a30     0x9a96 C:\Users\ajarr\AppData\Local\Temp\cclUyX1f.o
 .debug_info    0x00000000000614c6     0x6af9 C:\Users\ajarr\AppData\Local\Temp\ccYAcwQn.o
 .debug_info    0x0000000000067fbf     0xa3bf C:\Users\ajarr\AppData\Local\Temp\ccjmXURG.o
 .debug_info    0x000000000007237e     0x680f C:\Users\ajarr\AppData\Local\Temp\ccovS4yg.o
 .debug_info    0x0000000000078b8d     0x52fa C:\Users\ajarr\AppData\Local\Temp\ccduqfO0.o
 .debug_info    0x000000000007de87     0xaba2 C:\Users\ajarr\AppData\Local\Temp\ccXhqPVa.o
 .debug_info    0x0000000000088a29     0xa45a C:\Users\ajarr\AppData\Local\Temp\ccNMwkyO.o
 .debug_info    0x0000000000092e83     0x4d60 C:\Users\ajarr\AppData\Local\Temp\ccDl90Kv.o
 .debug_info    0x0000000000097be3     0x94ad C:\Users\ajarr\AppData\Local\Temp\ccwbk5Wx.o
 .debug_info    0x00000000000a1090     0xac56 C:\Users\ajarr\AppData\Local\Temp\cc1MBP0N.o
 .debug_info    0x00000000000abce6     0x7837 C:\Users\ajarr\AppData\Local\Temp\cc8WbBCy.o
 .debug_info    0x00000000000b351d     0xb04c C:\Users\ajarr\AppData\Local\Temp\cc8e2yNj.o
 .debug_info    0x00000000000be569     0x7ae1 C:\Users\ajarr\AppData\Local\Temp\ccasxzae.o
 .debug_info    0x00000000000c604a     0xaee7 C:\Users\ajarr\AppData\Local\Temp\ccjuLCXH.o
 .debug_info    0x00000000000d0f31     0x5230 C:\Users\ajarr\AppData\Local\Temp\ccGb5JPl.o
 .debug_info    0x00000000000d6161       0xcc C:\Users\ajarr\AppData\Local\Temp\cclaJb28.o
 .debug_info    0x00000000000d622d      0xb79 c:/opt/bcc-2.0.2-gcc/bin/../lib/gcc/sparc-gaisler-elf/7.2.0/../../../../sparc-gaisler-elf/lib/leon/mfix-at697f\libm.a(lib_a-s_atan.o)
 .debug_info    0x00000000000d6da6      0xa78 c:/opt/bcc-2.0.2-gcc/bin/../lib/gcc/sparc-gaisler-elf/7.2.0/../../../../sparc-gaisler-elf/lib/leon/mfix-at697f\libm.a(lib_a-s_cos.o)
 .debug_info    0x00000000000d781e      0xa44 c:/opt/bcc-2.0.2-gcc/bin/../lib/gcc/sparc-gaisler-elf/7.2.0/../../../../sparc-gaisler-elf/lib/leon/mfix-at697f\libm.a(lib_a-s_fabs.o)
 .debug_info    0x00000000000d8262      0xaa1 c:/opt/bcc-2.0.2-gcc/bin/../lib/gcc/sparc-gaisler-elf/7.2.0/../../../../sparc-gaisler-elf/lib/leon/mfix-at697f\libm.a(lib_a-s_floor.o)
 .debug_info    0x00000000000d8d03      0xab7 c:/opt/bcc-2.0.2-gcc/bin/../lib/gcc/sparc-gaisler-elf/7.2.0/../../../../sparc-gaisler-elf/lib/leon/mfix-at697f\libm.a(lib_a-s_round.o)
 .debug_info    0x00000000000d97ba      0xa78 c:/opt/bcc-2.0.2-gcc/bin/../lib/gcc/sparc-gaisler-elf/7.2.0/../../../../sparc-gaisler-elf/lib/leon/mfix-at697f\libm.a(lib_a-s_sin.o)
 .debug_info    0x00000000000da232      0xa78 c:/opt/bcc-2.0.2-gcc/bin/../lib/gcc/sparc-gaisler-elf/7.2.0/../../../../sparc-gaisler-elf/lib/leon/mfix-at697f\libm.a(lib_a-s_tan.o)
 .debug_info    0x00000000000dacaa      0xa60 c:/opt/bcc-2.0.2-gcc/bin/../lib/gcc/sparc-gaisler-elf/7.2.0/../../../../sparc-gaisler-elf/lib/leon/mfix-at697f\libm.a(lib_a-w_acos.o)
 .debug_info    0x00000000000db70a      0xa60 c:/opt/bcc-2.0.2-gcc/bin/../lib/gcc/sparc-gaisler-elf/7.2.0/../../../../sparc-gaisler-elf/lib/leon/mfix-at697f\libm.a(lib_a-w_asin.o)
 .debug_info    0x00000000000dc16a      0x9ef c:/opt/bcc-2.0.2-gcc/bin/../lib/gcc/sparc-gaisler-elf/7.2.0/../../../../sparc-gaisler-elf/lib/leon/mfix-at697f\libm.a(lib_a-w_atan2.o)
 .debug_info    0x00000000000dcb59      0xa6d c:/opt/bcc-2.0.2-gcc/bin/../lib/gcc/sparc-gaisler-elf/7.2.0/../../../../sparc-gaisler-elf/lib/leon/mfix-at697f\libm.a(lib_a-w_fmod.o)
 .debug_info    0x00000000000dd5c6      0xa6d c:/opt/bcc-2.0.2-gcc/bin/../lib/gcc/sparc-gaisler-elf/7.2.0/../../../../sparc-gaisler-elf/lib/leon/mfix-at697f\libm.a(lib_a-w_pow.o)
 .debug_info    0x00000000000de033      0xa60 c:/opt/bcc-2.0.2-gcc/bin/../lib/gcc/sparc-gaisler-elf/7.2.0/../../../../sparc-gaisler-elf/lib/leon/mfix-at697f\libm.a(lib_a-w_sqrt.o)
 .debug_info    0x00000000000dea93      0xbfe c:/opt/bcc-2.0.2-gcc/bin/../lib/gcc/sparc-gaisler-elf/7.2.0/../../../../sparc-gaisler-elf/lib/leon/mfix-at697f\libm.a(lib_a-e_acos.o)
 .debug_info    0x00000000000df691      0xc09 c:/opt/bcc-2.0.2-gcc/bin/../lib/gcc/sparc-gaisler-elf/7.2.0/../../../../sparc-gaisler-elf/lib/leon/mfix-at697f\libm.a(lib_a-e_asin.o)
 .debug_info    0x00000000000e029a      0xb76 c:/opt/bcc-2.0.2-gcc/bin/../lib/gcc/sparc-gaisler-elf/7.2.0/../../../../sparc-gaisler-elf/lib/leon/mfix-at697f\libm.a(lib_a-e_atan2.o)
 .debug_info    0x00000000000e0e10      0xb62 c:/opt/bcc-2.0.2-gcc/bin/../lib/gcc/sparc-gaisler-elf/7.2.0/../../../../sparc-gaisler-elf/lib/leon/mfix-at697f\libm.a(lib_a-e_fmod.o)
 .debug_info    0x00000000000e1972      0xfb9 c:/opt/bcc-2.0.2-gcc/bin/../lib/gcc/sparc-gaisler-elf/7.2.0/../../../../sparc-gaisler-elf/lib/leon/mfix-at697f\libm.a(lib_a-e_pow.o)
 .debug_info    0x00000000000e292b      0xc9d c:/opt/bcc-2.0.2-gcc/bin/../lib/gcc/sparc-gaisler-elf/7.2.0/../../../../sparc-gaisler-elf/lib/leon/mfix-at697f\libm.a(lib_a-e_rem_pio2.o)
 .debug_info    0x00000000000e35c8      0xb2d c:/opt/bcc-2.0.2-gcc/bin/../lib/gcc/sparc-gaisler-elf/7.2.0/../../../../sparc-gaisler-elf/lib/leon/mfix-at697f\libm.a(lib_a-e_sqrt.o)
 .debug_info    0x00000000000e40f5      0xb37 c:/opt/bcc-2.0.2-gcc/bin/../lib/gcc/sparc-gaisler-elf/7.2.0/../../../../sparc-gaisler-elf/lib/leon/mfix-at697f\libm.a(lib_a-k_cos.o)
 .debug_info    0x00000000000e4c2c      0xbd5 c:/opt/bcc-2.0.2-gcc/bin/../lib/gcc/sparc-gaisler-elf/7.2.0/../../../../sparc-gaisler-elf/lib/leon/mfix-at697f\libm.a(lib_a-k_rem_pio2.o)
 .debug_info    0x00000000000e5801      0xb0a c:/opt/bcc-2.0.2-gcc/bin/../lib/gcc/sparc-gaisler-elf/7.2.0/../../../../sparc-gaisler-elf/lib/leon/mfix-at697f\libm.a(lib_a-k_sin.o)
 .debug_info    0x00000000000e630b      0xbeb c:/opt/bcc-2.0.2-gcc/bin/../lib/gcc/sparc-gaisler-elf/7.2.0/../../../../sparc-gaisler-elf/lib/leon/mfix-at697f\libm.a(lib_a-k_tan.o)
 .debug_info    0x00000000000e6ef6      0xa30 c:/opt/bcc-2.0.2-gcc/bin/../lib/gcc/sparc-gaisler-elf/7.2.0/../../../../sparc-gaisler-elf/lib/leon/mfix-at697f\libm.a(lib_a-s_finite.o)
 .debug_info    0x00000000000e7926      0x98c c:/opt/bcc-2.0.2-gcc/bin/../lib/gcc/sparc-gaisler-elf/7.2.0/../../../../sparc-gaisler-elf/lib/leon/mfix-at697f\libm.a(lib_a-s_lib_ver.o)
 .debug_info    0x00000000000e82b2      0xa2a c:/opt/bcc-2.0.2-gcc/bin/../lib/gcc/sparc-gaisler-elf/7.2.0/../../../../sparc-gaisler-elf/lib/leon/mfix-at697f\libm.a(lib_a-s_matherr.o)
 .debug_info    0x00000000000e8cdc      0x9c0 c:/opt/bcc-2.0.2-gcc/bin/../lib/gcc/sparc-gaisler-elf/7.2.0/../../../../sparc-gaisler-elf/lib/leon/mfix-at697f\libm.a(lib_a-s_nan.o)
 .debug_info    0x00000000000e969c      0xb1e c:/opt/bcc-2.0.2-gcc/bin/../lib/gcc/sparc-gaisler-elf/7.2.0/../../../../sparc-gaisler-elf/lib/leon/mfix-at697f\libm.a(lib_a-s_rint.o)
 .debug_info    0x00000000000ea1ba      0xb0a c:/opt/bcc-2.0.2-gcc/bin/../lib/gcc/sparc-gaisler-elf/7.2.0/../../../../sparc-gaisler-elf/lib/leon/mfix-at697f\libm.a(lib_a-s_scalbn.o)
 .debug_info    0x00000000000eacc4      0xa6c c:/opt/bcc-2.0.2-gcc/bin/../lib/gcc/sparc-gaisler-elf/7.2.0/../../../../sparc-gaisler-elf/lib/leon/mfix-at697f\libm.a(lib_a-s_copysign.o)
 .debug_info    0x00000000000eb730       0xd0 c:/opt/bcc-2.0.2-gcc/bin/../sparc-gaisler-elf/bsp/leon2/leon/mfix-at697f\libbcc.a(reset_trap_mvt.S.o)
 .debug_info    0x00000000000eb800       0xcd c:/opt/bcc-2.0.2-gcc/bin/../sparc-gaisler-elf/bsp/leon2/leon/mfix-at697f\libbcc.a(window_trap.S.o)
 .debug_info    0x00000000000eb8cd       0xd0 c:/opt/bcc-2.0.2-gcc/bin/../sparc-gaisler-elf/bsp/leon2/leon/mfix-at697f\libbcc.a(interrupt_trap.S.o)
 .debug_info    0x00000000000eb99d       0xd4 c:/opt/bcc-2.0.2-gcc/bin/../sparc-gaisler-elf/bsp/leon2/leon/mfix-at697f\libbcc.a(flush_windows_trap.S.o)
 .debug_info    0x00000000000eba71       0xd1 c:/opt/bcc-2.0.2-gcc/bin/../sparc-gaisler-elf/bsp/leon2/leon/mfix-at697f\libbcc.a(sw_trap_set_pil.S.o)
 .debug_info    0x00000000000ebb42      0x2d1 c:/opt/bcc-2.0.2-gcc/bin/../sparc-gaisler-elf/bsp/leon2/leon/mfix-at697f\libbcc.a(trap.c.o)
 .debug_info    0x00000000000ebe13      0x9e6 c:/opt/bcc-2.0.2-gcc/bin/../sparc-gaisler-elf/bsp/leon2/leon/mfix-at697f\libbcc.a(isr.c.o)
 .debug_info    0x00000000000ec7f9       0xc5 c:/opt/bcc-2.0.2-gcc/bin/../sparc-gaisler-elf/bsp/leon2/leon/mfix-at697f\libbcc.a(int_nest.c.o)
 .debug_info    0x00000000000ec8be       0xc1 c:/opt/bcc-2.0.2-gcc/bin/../sparc-gaisler-elf/bsp/leon2/leon/mfix-at697f\libbcc.a(init.S.o)
 .debug_info    0x00000000000ec97f       0xc6 c:/opt/bcc-2.0.2-gcc/bin/../sparc-gaisler-elf/bsp/leon2/leon/mfix-at697f\libbcc.a(leon_info.S.o)
 .debug_info    0x00000000000eca45       0xc3 c:/opt/bcc-2.0.2-gcc/bin/../sparc-gaisler-elf/bsp/leon2/leon/mfix-at697f\libbcc.a(dwzero.S.o)
 .debug_info    0x00000000000ecb08       0xe9 c:/opt/bcc-2.0.2-gcc/bin/../sparc-gaisler-elf/bsp/leon2/leon/mfix-at697f\libbcc.a(copy_data.c.o)
 .debug_info    0x00000000000ecbf1       0xc5 c:/opt/bcc-2.0.2-gcc/bin/../sparc-gaisler-elf/bsp/leon2/leon/mfix-at697f\libbcc.a(lowlevel.S.o)
 .debug_info    0x00000000000eccb6       0xcb c:/opt/bcc-2.0.2-gcc/bin/../sparc-gaisler-elf/bsp/leon2/leon/mfix-at697f\libbcc.a(lowlevel_leon2.S.o)
 .debug_info    0x00000000000ecd81      0x366 c:/opt/bcc-2.0.2-gcc/bin/../sparc-gaisler-elf/bsp/leon2/leon/mfix-at697f\libbcc.a(int_leon2.c.o)
 .debug_info    0x00000000000ed0e7       0x57 c:/opt/bcc-2.0.2-gcc/bin/../sparc-gaisler-elf/bsp/leon2/leon/mfix-at697f\libbcc.a(int_leon2_get_source.c.o)
 .debug_info    0x00000000000ed13e      0x139 c:/opt/bcc-2.0.2-gcc/bin/../sparc-gaisler-elf/bsp/leon2/leon/mfix-at697f\libbcc.a(int_leon2_init.c.o)
 .debug_info    0x00000000000ed277      0x1fb c:/opt/bcc-2.0.2-gcc/bin/../sparc-gaisler-elf/bsp/leon2/leon/mfix-at697f\libbcc.a(con_leon2.c.o)
 .debug_info    0x00000000000ed472      0x216 c:/opt/bcc-2.0.2-gcc/bin/../sparc-gaisler-elf/bsp/leon2/leon/mfix-at697f\libbcc.a(timer_leon2.c.o)
 .debug_info    0x00000000000ed688       0xc4 c:/opt/bcc-2.0.2-gcc/bin/../sparc-gaisler-elf/bsp/leon2/leon/mfix-at697f\libbcc.a(set_pil.S.o)
 .debug_info    0x00000000000ed74c      0x10b c:/opt/bcc-2.0.2-gcc/bin/../sparc-gaisler-elf/bsp/leon2/leon/mfix-at697f\libbcc.a(int_leon2_handle.c.o)
 .debug_info    0x00000000000ed857      0x10b c:/opt/bcc-2.0.2-gcc/bin/../sparc-gaisler-elf/bsp/leon2/leon/mfix-at697f\libbcc.a(con_handle.c.o)
 .debug_info    0x00000000000ed962      0x118 c:/opt/bcc-2.0.2-gcc/bin/../sparc-gaisler-elf/bsp/leon2/leon/mfix-at697f\libbcc.a(timer_handle.c.o)
 .debug_info    0x00000000000eda7a      0x998 c:/opt/bcc-2.0.2-gcc/bin/../lib/gcc/sparc-gaisler-elf/7.2.0/../../../../sparc-gaisler-elf/lib/leon/mfix-at697f\libc.a(lib_a-atexit.o)
 .debug_info    0x00000000000ee412      0x992 c:/opt/bcc-2.0.2-gcc/bin/../lib/gcc/sparc-gaisler-elf/7.2.0/../../../../sparc-gaisler-elf/lib/leon/mfix-at697f\libc.a(lib_a-errno.o)
 .debug_info    0x00000000000eeda4      0x9cb c:/opt/bcc-2.0.2-gcc/bin/../lib/gcc/sparc-gaisler-elf/7.2.0/../../../../sparc-gaisler-elf/lib/leon/mfix-at697f\libc.a(lib_a-exit.o)
 .debug_info    0x00000000000ef76f      0x964 c:/opt/bcc-2.0.2-gcc/bin/../lib/gcc/sparc-gaisler-elf/7.2.0/../../../../sparc-gaisler-elf/lib/leon/mfix-at697f\libc.a(lib_a-impure.o)
 .debug_info    0x00000000000f00d3      0x9ef c:/opt/bcc-2.0.2-gcc/bin/../lib/gcc/sparc-gaisler-elf/7.2.0/../../../../sparc-gaisler-elf/lib/leon/mfix-at697f\libc.a(lib_a-memcpy.o)
 .debug_info    0x00000000000f0ac2      0xa0d c:/opt/bcc-2.0.2-gcc/bin/../lib/gcc/sparc-gaisler-elf/7.2.0/../../../../sparc-gaisler-elf/lib/leon/mfix-at697f\libc.a(lib_a-__atexit.o)
 .debug_info    0x00000000000f14cf      0xa14 c:/opt/bcc-2.0.2-gcc/bin/../lib/gcc/sparc-gaisler-elf/7.2.0/../../../../sparc-gaisler-elf/lib/leon/mfix-at697f\libc.a(lib_a-__call_atexit.o)
 .debug_info    0x00000000000f1ee3       0xc2 c:/opt/bcc-2.0.2-gcc/bin/../sparc-gaisler-elf/bsp/leon2/leon/mfix-at697f\libbcc.a(_exit.S.o)

.debug_abbrev   0x0000000000000000     0x9aeb
 *(.debug_abbrev)
 .debug_abbrev  0x0000000000000000       0x14 c:/opt/bcc-2.0.2-gcc/bin/../sparc-gaisler-elf/bsp/leon2/leon/mfix-at697f/trap_table_mvt.S.o
 .debug_abbrev  0x0000000000000014       0x14 c:/opt/bcc-2.0.2-gcc/bin/../sparc-gaisler-elf/bsp/leon2/leon/mfix-at697f/crt0.S.o
 .debug_abbrev  0x0000000000000028      0x352 C:\Users\ajarr\AppData\Local\Temp\ccgtKLQ9.o
 .debug_abbrev  0x000000000000037a      0x37f C:\Users\ajarr\AppData\Local\Temp\ccZ3M43h.o
 .debug_abbrev  0x00000000000006f9      0x4d1 C:\Users\ajarr\AppData\Local\Temp\ccnGtmfO.o
 .debug_abbrev  0x0000000000000bca      0x4d7 C:\Users\ajarr\AppData\Local\Temp\ccEMnW47.o
 .debug_abbrev  0x00000000000010a1       0x14 C:\Users\ajarr\AppData\Local\Temp\cc3Yg1qw.o
 .debug_abbrev  0x00000000000010b5      0x2c0 C:\Users\ajarr\AppData\Local\Temp\ccxnFfLM.o
 .debug_abbrev  0x0000000000001375      0x36c C:\Users\ajarr\AppData\Local\Temp\cczbQmCd.o
 .debug_abbrev  0x00000000000016e1      0x29a C:\Users\ajarr\AppData\Local\Temp\ccp71scL.o
 .debug_abbrev  0x000000000000197b      0x298 C:\Users\ajarr\AppData\Local\Temp\ccf1qWep.o
 .debug_abbrev  0x0000000000001c13      0x2eb C:\Users\ajarr\AppData\Local\Temp\cclXIhGd.o
 .debug_abbrev  0x0000000000001efe      0x2ed C:\Users\ajarr\AppData\Local\Temp\cclUyX1f.o
 .debug_abbrev  0x00000000000021eb      0x31f C:\Users\ajarr\AppData\Local\Temp\ccYAcwQn.o
 .debug_abbrev  0x000000000000250a      0x30c C:\Users\ajarr\AppData\Local\Temp\ccjmXURG.o
 .debug_abbrev  0x0000000000002816      0x416 C:\Users\ajarr\AppData\Local\Temp\ccovS4yg.o
 .debug_abbrev  0x0000000000002c2c      0x2d7 C:\Users\ajarr\AppData\Local\Temp\ccduqfO0.o
 .debug_abbrev  0x0000000000002f03      0x356 C:\Users\ajarr\AppData\Local\Temp\ccXhqPVa.o
 .debug_abbrev  0x0000000000003259      0x2ca C:\Users\ajarr\AppData\Local\Temp\ccNMwkyO.o
 .debug_abbrev  0x0000000000003523      0x15b C:\Users\ajarr\AppData\Local\Temp\ccDl90Kv.o
 .debug_abbrev  0x000000000000367e      0x354 C:\Users\ajarr\AppData\Local\Temp\ccwbk5Wx.o
 .debug_abbrev  0x00000000000039d2      0x2f5 C:\Users\ajarr\AppData\Local\Temp\cc1MBP0N.o
 .debug_abbrev  0x0000000000003cc7      0x27a C:\Users\ajarr\AppData\Local\Temp\cc8WbBCy.o
 .debug_abbrev  0x0000000000003f41      0x415 C:\Users\ajarr\AppData\Local\Temp\cc8e2yNj.o
 .debug_abbrev  0x0000000000004356      0x15b C:\Users\ajarr\AppData\Local\Temp\ccasxzae.o
 .debug_abbrev  0x00000000000044b1      0x400 C:\Users\ajarr\AppData\Local\Temp\ccjuLCXH.o
 .debug_abbrev  0x00000000000048b1      0x2b5 C:\Users\ajarr\AppData\Local\Temp\ccGb5JPl.o
 .debug_abbrev  0x0000000000004b66       0x34 C:\Users\ajarr\AppData\Local\Temp\cclaJb28.o
 .debug_abbrev  0x0000000000004b9a      0x216 c:/opt/bcc-2.0.2-gcc/bin/../lib/gcc/sparc-gaisler-elf/7.2.0/../../../../sparc-gaisler-elf/lib/leon/mfix-at697f\libm.a(lib_a-s_atan.o)
 .debug_abbrev  0x0000000000004db0      0x1f3 c:/opt/bcc-2.0.2-gcc/bin/../lib/gcc/sparc-gaisler-elf/7.2.0/../../../../sparc-gaisler-elf/lib/leon/mfix-at697f\libm.a(lib_a-s_cos.o)
 .debug_abbrev  0x0000000000004fa3      0x1d3 c:/opt/bcc-2.0.2-gcc/bin/../lib/gcc/sparc-gaisler-elf/7.2.0/../../../../sparc-gaisler-elf/lib/leon/mfix-at697f\libm.a(lib_a-s_fabs.o)
 .debug_abbrev  0x0000000000005176      0x1f1 c:/opt/bcc-2.0.2-gcc/bin/../lib/gcc/sparc-gaisler-elf/7.2.0/../../../../sparc-gaisler-elf/lib/leon/mfix-at697f\libm.a(lib_a-s_floor.o)
 .debug_abbrev  0x0000000000005367      0x1fa c:/opt/bcc-2.0.2-gcc/bin/../lib/gcc/sparc-gaisler-elf/7.2.0/../../../../sparc-gaisler-elf/lib/leon/mfix-at697f\libm.a(lib_a-s_round.o)
 .debug_abbrev  0x0000000000005561      0x1f3 c:/opt/bcc-2.0.2-gcc/bin/../lib/gcc/sparc-gaisler-elf/7.2.0/../../../../sparc-gaisler-elf/lib/leon/mfix-at697f\libm.a(lib_a-s_sin.o)
 .debug_abbrev  0x0000000000005754      0x1f3 c:/opt/bcc-2.0.2-gcc/bin/../lib/gcc/sparc-gaisler-elf/7.2.0/../../../../sparc-gaisler-elf/lib/leon/mfix-at697f\libm.a(lib_a-s_tan.o)
 .debug_abbrev  0x0000000000005947      0x1b4 c:/opt/bcc-2.0.2-gcc/bin/../lib/gcc/sparc-gaisler-elf/7.2.0/../../../../sparc-gaisler-elf/lib/leon/mfix-at697f\libm.a(lib_a-w_acos.o)
 .debug_abbrev  0x0000000000005afb      0x1b4 c:/opt/bcc-2.0.2-gcc/bin/../lib/gcc/sparc-gaisler-elf/7.2.0/../../../../sparc-gaisler-elf/lib/leon/mfix-at697f\libm.a(lib_a-w_asin.o)
 .debug_abbrev  0x0000000000005caf      0x196 c:/opt/bcc-2.0.2-gcc/bin/../lib/gcc/sparc-gaisler-elf/7.2.0/../../../../sparc-gaisler-elf/lib/leon/mfix-at697f\libm.a(lib_a-w_atan2.o)
 .debug_abbrev  0x0000000000005e45      0x1b4 c:/opt/bcc-2.0.2-gcc/bin/../lib/gcc/sparc-gaisler-elf/7.2.0/../../../../sparc-gaisler-elf/lib/leon/mfix-at697f\libm.a(lib_a-w_fmod.o)
 .debug_abbrev  0x0000000000005ff9      0x1b4 c:/opt/bcc-2.0.2-gcc/bin/../lib/gcc/sparc-gaisler-elf/7.2.0/../../../../sparc-gaisler-elf/lib/leon/mfix-at697f\libm.a(lib_a-w_pow.o)
 .debug_abbrev  0x00000000000061ad      0x1b4 c:/opt/bcc-2.0.2-gcc/bin/../lib/gcc/sparc-gaisler-elf/7.2.0/../../../../sparc-gaisler-elf/lib/leon/mfix-at697f\libm.a(lib_a-w_sqrt.o)
 .debug_abbrev  0x0000000000006361      0x207 c:/opt/bcc-2.0.2-gcc/bin/../lib/gcc/sparc-gaisler-elf/7.2.0/../../../../sparc-gaisler-elf/lib/leon/mfix-at697f\libm.a(lib_a-e_acos.o)
 .debug_abbrev  0x0000000000006568      0x216 c:/opt/bcc-2.0.2-gcc/bin/../lib/gcc/sparc-gaisler-elf/7.2.0/../../../../sparc-gaisler-elf/lib/leon/mfix-at697f\libm.a(lib_a-e_asin.o)
 .debug_abbrev  0x000000000000677e      0x227 c:/opt/bcc-2.0.2-gcc/bin/../lib/gcc/sparc-gaisler-elf/7.2.0/../../../../sparc-gaisler-elf/lib/leon/mfix-at697f\libm.a(lib_a-e_atan2.o)
 .debug_abbrev  0x00000000000069a5      0x211 c:/opt/bcc-2.0.2-gcc/bin/../lib/gcc/sparc-gaisler-elf/7.2.0/../../../../sparc-gaisler-elf/lib/leon/mfix-at697f\libm.a(lib_a-e_fmod.o)
 .debug_abbrev  0x0000000000006bb6      0x234 c:/opt/bcc-2.0.2-gcc/bin/../lib/gcc/sparc-gaisler-elf/7.2.0/../../../../sparc-gaisler-elf/lib/leon/mfix-at697f\libm.a(lib_a-e_pow.o)
 .debug_abbrev  0x0000000000006dea      0x235 c:/opt/bcc-2.0.2-gcc/bin/../lib/gcc/sparc-gaisler-elf/7.2.0/../../../../sparc-gaisler-elf/lib/leon/mfix-at697f\libm.a(lib_a-e_rem_pio2.o)
 .debug_abbrev  0x000000000000701f      0x213 c:/opt/bcc-2.0.2-gcc/bin/../lib/gcc/sparc-gaisler-elf/7.2.0/../../../../sparc-gaisler-elf/lib/leon/mfix-at697f\libm.a(lib_a-e_sqrt.o)
 .debug_abbrev  0x0000000000007232      0x202 c:/opt/bcc-2.0.2-gcc/bin/../lib/gcc/sparc-gaisler-elf/7.2.0/../../../../sparc-gaisler-elf/lib/leon/mfix-at697f\libm.a(lib_a-k_cos.o)
 .debug_abbrev  0x0000000000007434      0x1fd c:/opt/bcc-2.0.2-gcc/bin/../lib/gcc/sparc-gaisler-elf/7.2.0/../../../../sparc-gaisler-elf/lib/leon/mfix-at697f\libm.a(lib_a-k_rem_pio2.o)
 .debug_abbrev  0x0000000000007631      0x1f7 c:/opt/bcc-2.0.2-gcc/bin/../lib/gcc/sparc-gaisler-elf/7.2.0/../../../../sparc-gaisler-elf/lib/leon/mfix-at697f\libm.a(lib_a-k_sin.o)
 .debug_abbrev  0x0000000000007828      0x207 c:/opt/bcc-2.0.2-gcc/bin/../lib/gcc/sparc-gaisler-elf/7.2.0/../../../../sparc-gaisler-elf/lib/leon/mfix-at697f\libm.a(lib_a-k_tan.o)
 .debug_abbrev  0x0000000000007a2f      0x1c6 c:/opt/bcc-2.0.2-gcc/bin/../lib/gcc/sparc-gaisler-elf/7.2.0/../../../../sparc-gaisler-elf/lib/leon/mfix-at697f\libm.a(lib_a-s_finite.o)
 .debug_abbrev  0x0000000000007bf5      0x163 c:/opt/bcc-2.0.2-gcc/bin/../lib/gcc/sparc-gaisler-elf/7.2.0/../../../../sparc-gaisler-elf/lib/leon/mfix-at697f\libm.a(lib_a-s_lib_ver.o)
 .debug_abbrev  0x0000000000007d58      0x191 c:/opt/bcc-2.0.2-gcc/bin/../lib/gcc/sparc-gaisler-elf/7.2.0/../../../../sparc-gaisler-elf/lib/leon/mfix-at697f\libm.a(lib_a-s_matherr.o)
 .debug_abbrev  0x0000000000007ee9      0x18f c:/opt/bcc-2.0.2-gcc/bin/../lib/gcc/sparc-gaisler-elf/7.2.0/../../../../sparc-gaisler-elf/lib/leon/mfix-at697f\libm.a(lib_a-s_nan.o)
 .debug_abbrev  0x0000000000008078      0x212 c:/opt/bcc-2.0.2-gcc/bin/../lib/gcc/sparc-gaisler-elf/7.2.0/../../../../sparc-gaisler-elf/lib/leon/mfix-at697f\libm.a(lib_a-s_rint.o)
 .debug_abbrev  0x000000000000828a      0x202 c:/opt/bcc-2.0.2-gcc/bin/../lib/gcc/sparc-gaisler-elf/7.2.0/../../../../sparc-gaisler-elf/lib/leon/mfix-at697f\libm.a(lib_a-s_scalbn.o)
 .debug_abbrev  0x000000000000848c      0x1e0 c:/opt/bcc-2.0.2-gcc/bin/../lib/gcc/sparc-gaisler-elf/7.2.0/../../../../sparc-gaisler-elf/lib/leon/mfix-at697f\libm.a(lib_a-s_copysign.o)
 .debug_abbrev  0x000000000000866c       0x14 c:/opt/bcc-2.0.2-gcc/bin/../sparc-gaisler-elf/bsp/leon2/leon/mfix-at697f\libbcc.a(reset_trap_mvt.S.o)
 .debug_abbrev  0x0000000000008680       0x14 c:/opt/bcc-2.0.2-gcc/bin/../sparc-gaisler-elf/bsp/leon2/leon/mfix-at697f\libbcc.a(window_trap.S.o)
 .debug_abbrev  0x0000000000008694       0x14 c:/opt/bcc-2.0.2-gcc/bin/../sparc-gaisler-elf/bsp/leon2/leon/mfix-at697f\libbcc.a(interrupt_trap.S.o)
 .debug_abbrev  0x00000000000086a8       0x14 c:/opt/bcc-2.0.2-gcc/bin/../sparc-gaisler-elf/bsp/leon2/leon/mfix-at697f\libbcc.a(flush_windows_trap.S.o)
 .debug_abbrev  0x00000000000086bc       0x14 c:/opt/bcc-2.0.2-gcc/bin/../sparc-gaisler-elf/bsp/leon2/leon/mfix-at697f\libbcc.a(sw_trap_set_pil.S.o)
 .debug_abbrev  0x00000000000086d0      0x17e c:/opt/bcc-2.0.2-gcc/bin/../sparc-gaisler-elf/bsp/leon2/leon/mfix-at697f\libbcc.a(trap.c.o)
 .debug_abbrev  0x000000000000884e      0x153 c:/opt/bcc-2.0.2-gcc/bin/../sparc-gaisler-elf/bsp/leon2/leon/mfix-at697f\libbcc.a(isr.c.o)
 .debug_abbrev  0x00000000000089a1       0x79 c:/opt/bcc-2.0.2-gcc/bin/../sparc-gaisler-elf/bsp/leon2/leon/mfix-at697f\libbcc.a(int_nest.c.o)
 .debug_abbrev  0x0000000000008a1a       0x14 c:/opt/bcc-2.0.2-gcc/bin/../sparc-gaisler-elf/bsp/leon2/leon/mfix-at697f\libbcc.a(init.S.o)
 .debug_abbrev  0x0000000000008a2e       0x14 c:/opt/bcc-2.0.2-gcc/bin/../sparc-gaisler-elf/bsp/leon2/leon/mfix-at697f\libbcc.a(leon_info.S.o)
 .debug_abbrev  0x0000000000008a42       0x14 c:/opt/bcc-2.0.2-gcc/bin/../sparc-gaisler-elf/bsp/leon2/leon/mfix-at697f\libbcc.a(dwzero.S.o)
 .debug_abbrev  0x0000000000008a56       0x7c c:/opt/bcc-2.0.2-gcc/bin/../sparc-gaisler-elf/bsp/leon2/leon/mfix-at697f\libbcc.a(copy_data.c.o)
 .debug_abbrev  0x0000000000008ad2       0x14 c:/opt/bcc-2.0.2-gcc/bin/../sparc-gaisler-elf/bsp/leon2/leon/mfix-at697f\libbcc.a(lowlevel.S.o)
 .debug_abbrev  0x0000000000008ae6       0x14 c:/opt/bcc-2.0.2-gcc/bin/../sparc-gaisler-elf/bsp/leon2/leon/mfix-at697f\libbcc.a(lowlevel_leon2.S.o)
 .debug_abbrev  0x0000000000008afa      0x162 c:/opt/bcc-2.0.2-gcc/bin/../sparc-gaisler-elf/bsp/leon2/leon/mfix-at697f\libbcc.a(int_leon2.c.o)
 .debug_abbrev  0x0000000000008c5c       0x47 c:/opt/bcc-2.0.2-gcc/bin/../sparc-gaisler-elf/bsp/leon2/leon/mfix-at697f\libbcc.a(int_leon2_get_source.c.o)
 .debug_abbrev  0x0000000000008ca3       0x7e c:/opt/bcc-2.0.2-gcc/bin/../sparc-gaisler-elf/bsp/leon2/leon/mfix-at697f\libbcc.a(int_leon2_init.c.o)
 .debug_abbrev  0x0000000000008d21       0xd8 c:/opt/bcc-2.0.2-gcc/bin/../sparc-gaisler-elf/bsp/leon2/leon/mfix-at697f\libbcc.a(con_leon2.c.o)
 .debug_abbrev  0x0000000000008df9       0xec c:/opt/bcc-2.0.2-gcc/bin/../sparc-gaisler-elf/bsp/leon2/leon/mfix-at697f\libbcc.a(timer_leon2.c.o)
 .debug_abbrev  0x0000000000008ee5       0x14 c:/opt/bcc-2.0.2-gcc/bin/../sparc-gaisler-elf/bsp/leon2/leon/mfix-at697f\libbcc.a(set_pil.S.o)
 .debug_abbrev  0x0000000000008ef9       0x5a c:/opt/bcc-2.0.2-gcc/bin/../sparc-gaisler-elf/bsp/leon2/leon/mfix-at697f\libbcc.a(int_leon2_handle.c.o)
 .debug_abbrev  0x0000000000008f53       0x5a c:/opt/bcc-2.0.2-gcc/bin/../sparc-gaisler-elf/bsp/leon2/leon/mfix-at697f\libbcc.a(con_handle.c.o)
 .debug_abbrev  0x0000000000008fad       0x5a c:/opt/bcc-2.0.2-gcc/bin/../sparc-gaisler-elf/bsp/leon2/leon/mfix-at697f\libbcc.a(timer_handle.c.o)
 .debug_abbrev  0x0000000000009007      0x188 c:/opt/bcc-2.0.2-gcc/bin/../lib/gcc/sparc-gaisler-elf/7.2.0/../../../../sparc-gaisler-elf/lib/leon/mfix-at697f\libc.a(lib_a-atexit.o)
 .debug_abbrev  0x000000000000918f      0x166 c:/opt/bcc-2.0.2-gcc/bin/../lib/gcc/sparc-gaisler-elf/7.2.0/../../../../sparc-gaisler-elf/lib/leon/mfix-at697f\libc.a(lib_a-errno.o)
 .debug_abbrev  0x00000000000092f5      0x16e c:/opt/bcc-2.0.2-gcc/bin/../lib/gcc/sparc-gaisler-elf/7.2.0/../../../../sparc-gaisler-elf/lib/leon/mfix-at697f\libc.a(lib_a-exit.o)
 .debug_abbrev  0x0000000000009463      0x14d c:/opt/bcc-2.0.2-gcc/bin/../lib/gcc/sparc-gaisler-elf/7.2.0/../../../../sparc-gaisler-elf/lib/leon/mfix-at697f\libc.a(lib_a-impure.o)
 .debug_abbrev  0x00000000000095b0      0x184 c:/opt/bcc-2.0.2-gcc/bin/../lib/gcc/sparc-gaisler-elf/7.2.0/../../../../sparc-gaisler-elf/lib/leon/mfix-at697f\libc.a(lib_a-memcpy.o)
 .debug_abbrev  0x0000000000009734      0x1cd c:/opt/bcc-2.0.2-gcc/bin/../lib/gcc/sparc-gaisler-elf/7.2.0/../../../../sparc-gaisler-elf/lib/leon/mfix-at697f\libc.a(lib_a-__atexit.o)
 .debug_abbrev  0x0000000000009901      0x1d6 c:/opt/bcc-2.0.2-gcc/bin/../lib/gcc/sparc-gaisler-elf/7.2.0/../../../../sparc-gaisler-elf/lib/leon/mfix-at697f\libc.a(lib_a-__call_atexit.o)
 .debug_abbrev  0x0000000000009ad7       0x14 c:/opt/bcc-2.0.2-gcc/bin/../sparc-gaisler-elf/bsp/leon2/leon/mfix-at697f\libbcc.a(_exit.S.o)

.debug_line     0x0000000000000000    0x12a77
 *(.debug_line)
 .debug_line    0x0000000000000000       0xda c:/opt/bcc-2.0.2-gcc/bin/../sparc-gaisler-elf/bsp/leon2/leon/mfix-at697f/trap_table_mvt.S.o
 .debug_line    0x00000000000000da       0x84 c:/opt/bcc-2.0.2-gcc/bin/../sparc-gaisler-elf/bsp/leon2/leon/mfix-at697f/crt0.S.o
 .debug_line    0x000000000000015e      0x2f6 C:\Users\ajarr\AppData\Local\Temp\ccgtKLQ9.o
 .debug_line    0x0000000000000454      0x2b8 C:\Users\ajarr\AppData\Local\Temp\ccZ3M43h.o
 .debug_line    0x000000000000070c     0x459c C:\Users\ajarr\AppData\Local\Temp\ccnGtmfO.o
 .debug_line    0x0000000000004ca8      0xced C:\Users\ajarr\AppData\Local\Temp\ccEMnW47.o
 .debug_line    0x0000000000005995       0x47 C:\Users\ajarr\AppData\Local\Temp\cc3Yg1qw.o
 .debug_line    0x00000000000059dc      0x547 C:\Users\ajarr\AppData\Local\Temp\ccxnFfLM.o
 .debug_line    0x0000000000005f23      0x2c8 C:\Users\ajarr\AppData\Local\Temp\cczbQmCd.o
 .debug_line    0x00000000000061eb       0xfe C:\Users\ajarr\AppData\Local\Temp\ccp71scL.o
 .debug_line    0x00000000000062e9       0xcf C:\Users\ajarr\AppData\Local\Temp\ccf1qWep.o
 .debug_line    0x00000000000063b8      0x16a C:\Users\ajarr\AppData\Local\Temp\cclXIhGd.o
 .debug_line    0x0000000000006522      0x34e C:\Users\ajarr\AppData\Local\Temp\cclUyX1f.o
 .debug_line    0x0000000000006870      0x3b2 C:\Users\ajarr\AppData\Local\Temp\ccYAcwQn.o
 .debug_line    0x0000000000006c22      0x24d C:\Users\ajarr\AppData\Local\Temp\ccjmXURG.o
 .debug_line    0x0000000000006e6f      0x33c C:\Users\ajarr\AppData\Local\Temp\ccovS4yg.o
 .debug_line    0x00000000000071ab      0x163 C:\Users\ajarr\AppData\Local\Temp\ccduqfO0.o
 .debug_line    0x000000000000730e      0x86b C:\Users\ajarr\AppData\Local\Temp\ccXhqPVa.o
 .debug_line    0x0000000000007b79      0x825 C:\Users\ajarr\AppData\Local\Temp\ccNMwkyO.o
 .debug_line    0x000000000000839e       0x4b C:\Users\ajarr\AppData\Local\Temp\ccDl90Kv.o
 .debug_line    0x00000000000083e9      0x6b6 C:\Users\ajarr\AppData\Local\Temp\ccwbk5Wx.o
 .debug_line    0x0000000000008a9f      0x3f8 C:\Users\ajarr\AppData\Local\Temp\cc1MBP0N.o
 .debug_line    0x0000000000008e97      0xd16 C:\Users\ajarr\AppData\Local\Temp\cc8WbBCy.o
 .debug_line    0x0000000000009bad      0xd05 C:\Users\ajarr\AppData\Local\Temp\cc8e2yNj.o
 .debug_line    0x000000000000a8b2       0x51 C:\Users\ajarr\AppData\Local\Temp\ccasxzae.o
 .debug_line    0x000000000000a903      0xbb2 C:\Users\ajarr\AppData\Local\Temp\ccjuLCXH.o
 .debug_line    0x000000000000b4b5      0x29d C:\Users\ajarr\AppData\Local\Temp\ccGb5JPl.o
 .debug_line    0x000000000000b752       0x50 C:\Users\ajarr\AppData\Local\Temp\cclaJb28.o
 .debug_line    0x000000000000b7a2      0x2b6 c:/opt/bcc-2.0.2-gcc/bin/../lib/gcc/sparc-gaisler-elf/7.2.0/../../../../sparc-gaisler-elf/lib/leon/mfix-at697f\libm.a(lib_a-s_atan.o)
 .debug_line    0x000000000000ba58      0x273 c:/opt/bcc-2.0.2-gcc/bin/../lib/gcc/sparc-gaisler-elf/7.2.0/../../../../sparc-gaisler-elf/lib/leon/mfix-at697f\libm.a(lib_a-s_cos.o)
 .debug_line    0x000000000000bccb      0x260 c:/opt/bcc-2.0.2-gcc/bin/../lib/gcc/sparc-gaisler-elf/7.2.0/../../../../sparc-gaisler-elf/lib/leon/mfix-at697f\libm.a(lib_a-s_fabs.o)
 .debug_line    0x000000000000bf2b      0x295 c:/opt/bcc-2.0.2-gcc/bin/../lib/gcc/sparc-gaisler-elf/7.2.0/../../../../sparc-gaisler-elf/lib/leon/mfix-at697f\libm.a(lib_a-s_floor.o)
 .debug_line    0x000000000000c1c0      0x249 c:/opt/bcc-2.0.2-gcc/bin/../lib/gcc/sparc-gaisler-elf/7.2.0/../../../../sparc-gaisler-elf/lib/leon/mfix-at697f\libm.a(lib_a-s_round.o)
 .debug_line    0x000000000000c409      0x274 c:/opt/bcc-2.0.2-gcc/bin/../lib/gcc/sparc-gaisler-elf/7.2.0/../../../../sparc-gaisler-elf/lib/leon/mfix-at697f\libm.a(lib_a-s_sin.o)
 .debug_line    0x000000000000c67d      0x26e c:/opt/bcc-2.0.2-gcc/bin/../lib/gcc/sparc-gaisler-elf/7.2.0/../../../../sparc-gaisler-elf/lib/leon/mfix-at697f\libm.a(lib_a-s_tan.o)
 .debug_line    0x000000000000c8eb      0x1de c:/opt/bcc-2.0.2-gcc/bin/../lib/gcc/sparc-gaisler-elf/7.2.0/../../../../sparc-gaisler-elf/lib/leon/mfix-at697f\libm.a(lib_a-w_acos.o)
 .debug_line    0x000000000000cac9      0x1de c:/opt/bcc-2.0.2-gcc/bin/../lib/gcc/sparc-gaisler-elf/7.2.0/../../../../sparc-gaisler-elf/lib/leon/mfix-at697f\libm.a(lib_a-w_asin.o)
 .debug_line    0x000000000000cca7      0x1c3 c:/opt/bcc-2.0.2-gcc/bin/../lib/gcc/sparc-gaisler-elf/7.2.0/../../../../sparc-gaisler-elf/lib/leon/mfix-at697f\libm.a(lib_a-w_atan2.o)
 .debug_line    0x000000000000ce6a      0x1df c:/opt/bcc-2.0.2-gcc/bin/../lib/gcc/sparc-gaisler-elf/7.2.0/../../../../sparc-gaisler-elf/lib/leon/mfix-at697f\libm.a(lib_a-w_fmod.o)
 .debug_line    0x000000000000d049      0x257 c:/opt/bcc-2.0.2-gcc/bin/../lib/gcc/sparc-gaisler-elf/7.2.0/../../../../sparc-gaisler-elf/lib/leon/mfix-at697f\libm.a(lib_a-w_pow.o)
 .debug_line    0x000000000000d2a0      0x1d8 c:/opt/bcc-2.0.2-gcc/bin/../lib/gcc/sparc-gaisler-elf/7.2.0/../../../../sparc-gaisler-elf/lib/leon/mfix-at697f\libm.a(lib_a-w_sqrt.o)
 .debug_line    0x000000000000d478      0x2c7 c:/opt/bcc-2.0.2-gcc/bin/../lib/gcc/sparc-gaisler-elf/7.2.0/../../../../sparc-gaisler-elf/lib/leon/mfix-at697f\libm.a(lib_a-e_acos.o)
 .debug_line    0x000000000000d73f      0x2bc c:/opt/bcc-2.0.2-gcc/bin/../lib/gcc/sparc-gaisler-elf/7.2.0/../../../../sparc-gaisler-elf/lib/leon/mfix-at697f\libm.a(lib_a-e_asin.o)
 .debug_line    0x000000000000d9fb      0x2b1 c:/opt/bcc-2.0.2-gcc/bin/../lib/gcc/sparc-gaisler-elf/7.2.0/../../../../sparc-gaisler-elf/lib/leon/mfix-at697f\libm.a(lib_a-e_atan2.o)
 .debug_line    0x000000000000dcac      0x2d1 c:/opt/bcc-2.0.2-gcc/bin/../lib/gcc/sparc-gaisler-elf/7.2.0/../../../../sparc-gaisler-elf/lib/leon/mfix-at697f\libm.a(lib_a-e_fmod.o)
 .debug_line    0x000000000000df7d      0x3c1 c:/opt/bcc-2.0.2-gcc/bin/../lib/gcc/sparc-gaisler-elf/7.2.0/../../../../sparc-gaisler-elf/lib/leon/mfix-at697f\libm.a(lib_a-e_pow.o)
 .debug_line    0x000000000000e33e      0x2e1 c:/opt/bcc-2.0.2-gcc/bin/../lib/gcc/sparc-gaisler-elf/7.2.0/../../../../sparc-gaisler-elf/lib/leon/mfix-at697f\libm.a(lib_a-e_rem_pio2.o)
 .debug_line    0x000000000000e61f      0x2b8 c:/opt/bcc-2.0.2-gcc/bin/../lib/gcc/sparc-gaisler-elf/7.2.0/../../../../sparc-gaisler-elf/lib/leon/mfix-at697f\libm.a(lib_a-e_sqrt.o)
 .debug_line    0x000000000000e8d7      0x280 c:/opt/bcc-2.0.2-gcc/bin/../lib/gcc/sparc-gaisler-elf/7.2.0/../../../../sparc-gaisler-elf/lib/leon/mfix-at697f\libm.a(lib_a-k_cos.o)
 .debug_line    0x000000000000eb57      0x339 c:/opt/bcc-2.0.2-gcc/bin/../lib/gcc/sparc-gaisler-elf/7.2.0/../../../../sparc-gaisler-elf/lib/leon/mfix-at697f\libm.a(lib_a-k_rem_pio2.o)
 .debug_line    0x000000000000ee90      0x270 c:/opt/bcc-2.0.2-gcc/bin/../lib/gcc/sparc-gaisler-elf/7.2.0/../../../../sparc-gaisler-elf/lib/leon/mfix-at697f\libm.a(lib_a-k_sin.o)
 .debug_line    0x000000000000f100      0x2a9 c:/opt/bcc-2.0.2-gcc/bin/../lib/gcc/sparc-gaisler-elf/7.2.0/../../../../sparc-gaisler-elf/lib/leon/mfix-at697f\libm.a(lib_a-k_tan.o)
 .debug_line    0x000000000000f3a9      0x21f c:/opt/bcc-2.0.2-gcc/bin/../lib/gcc/sparc-gaisler-elf/7.2.0/../../../../sparc-gaisler-elf/lib/leon/mfix-at697f\libm.a(lib_a-s_finite.o)
 .debug_line    0x000000000000f5c8      0x1ab c:/opt/bcc-2.0.2-gcc/bin/../lib/gcc/sparc-gaisler-elf/7.2.0/../../../../sparc-gaisler-elf/lib/leon/mfix-at697f\libm.a(lib_a-s_lib_ver.o)
 .debug_line    0x000000000000f773      0x1bc c:/opt/bcc-2.0.2-gcc/bin/../lib/gcc/sparc-gaisler-elf/7.2.0/../../../../sparc-gaisler-elf/lib/leon/mfix-at697f\libm.a(lib_a-s_matherr.o)
 .debug_line    0x000000000000f92f      0x1b8 c:/opt/bcc-2.0.2-gcc/bin/../lib/gcc/sparc-gaisler-elf/7.2.0/../../../../sparc-gaisler-elf/lib/leon/mfix-at697f\libm.a(lib_a-s_nan.o)
 .debug_line    0x000000000000fae7      0x253 c:/opt/bcc-2.0.2-gcc/bin/../lib/gcc/sparc-gaisler-elf/7.2.0/../../../../sparc-gaisler-elf/lib/leon/mfix-at697f\libm.a(lib_a-s_rint.o)
 .debug_line    0x000000000000fd3a      0x241 c:/opt/bcc-2.0.2-gcc/bin/../lib/gcc/sparc-gaisler-elf/7.2.0/../../../../sparc-gaisler-elf/lib/leon/mfix-at697f\libm.a(lib_a-s_scalbn.o)
 .debug_line    0x000000000000ff7b      0x223 c:/opt/bcc-2.0.2-gcc/bin/../lib/gcc/sparc-gaisler-elf/7.2.0/../../../../sparc-gaisler-elf/lib/leon/mfix-at697f\libm.a(lib_a-s_copysign.o)
 .debug_line    0x000000000001019e       0x87 c:/opt/bcc-2.0.2-gcc/bin/../sparc-gaisler-elf/bsp/leon2/leon/mfix-at697f\libbcc.a(reset_trap_mvt.S.o)
 .debug_line    0x0000000000010225       0x90 c:/opt/bcc-2.0.2-gcc/bin/../sparc-gaisler-elf/bsp/leon2/leon/mfix-at697f\libbcc.a(window_trap.S.o)
 .debug_line    0x00000000000102b5       0xd4 c:/opt/bcc-2.0.2-gcc/bin/../sparc-gaisler-elf/bsp/leon2/leon/mfix-at697f\libbcc.a(interrupt_trap.S.o)
 .debug_line    0x0000000000010389       0x8d c:/opt/bcc-2.0.2-gcc/bin/../sparc-gaisler-elf/bsp/leon2/leon/mfix-at697f\libbcc.a(flush_windows_trap.S.o)
 .debug_line    0x0000000000010416       0x75 c:/opt/bcc-2.0.2-gcc/bin/../sparc-gaisler-elf/bsp/leon2/leon/mfix-at697f\libbcc.a(sw_trap_set_pil.S.o)
 .debug_line    0x000000000001048b      0x202 c:/opt/bcc-2.0.2-gcc/bin/../sparc-gaisler-elf/bsp/leon2/leon/mfix-at697f\libbcc.a(trap.c.o)
 .debug_line    0x000000000001068d      0x1ec c:/opt/bcc-2.0.2-gcc/bin/../sparc-gaisler-elf/bsp/leon2/leon/mfix-at697f\libbcc.a(isr.c.o)
 .debug_line    0x0000000000010879      0x1aa c:/opt/bcc-2.0.2-gcc/bin/../sparc-gaisler-elf/bsp/leon2/leon/mfix-at697f\libbcc.a(int_nest.c.o)
 .debug_line    0x0000000000010a23       0x5c c:/opt/bcc-2.0.2-gcc/bin/../sparc-gaisler-elf/bsp/leon2/leon/mfix-at697f\libbcc.a(init.S.o)
 .debug_line    0x0000000000010a7f       0x7f c:/opt/bcc-2.0.2-gcc/bin/../sparc-gaisler-elf/bsp/leon2/leon/mfix-at697f\libbcc.a(leon_info.S.o)
 .debug_line    0x0000000000010afe       0x67 c:/opt/bcc-2.0.2-gcc/bin/../sparc-gaisler-elf/bsp/leon2/leon/mfix-at697f\libbcc.a(dwzero.S.o)
 .debug_line    0x0000000000010b65      0x1ac c:/opt/bcc-2.0.2-gcc/bin/../sparc-gaisler-elf/bsp/leon2/leon/mfix-at697f\libbcc.a(copy_data.c.o)
 .debug_line    0x0000000000010d11       0x7e c:/opt/bcc-2.0.2-gcc/bin/../sparc-gaisler-elf/bsp/leon2/leon/mfix-at697f\libbcc.a(lowlevel.S.o)
 .debug_line    0x0000000000010d8f       0x78 c:/opt/bcc-2.0.2-gcc/bin/../sparc-gaisler-elf/bsp/leon2/leon/mfix-at697f\libbcc.a(lowlevel_leon2.S.o)
 .debug_line    0x0000000000010e07      0x27f c:/opt/bcc-2.0.2-gcc/bin/../sparc-gaisler-elf/bsp/leon2/leon/mfix-at697f\libbcc.a(int_leon2.c.o)
 .debug_line    0x0000000000011086       0x76 c:/opt/bcc-2.0.2-gcc/bin/../sparc-gaisler-elf/bsp/leon2/leon/mfix-at697f\libbcc.a(int_leon2_get_source.c.o)
 .debug_line    0x00000000000110fc      0x200 c:/opt/bcc-2.0.2-gcc/bin/../sparc-gaisler-elf/bsp/leon2/leon/mfix-at697f\libbcc.a(int_leon2_init.c.o)
 .debug_line    0x00000000000112fc      0x246 c:/opt/bcc-2.0.2-gcc/bin/../sparc-gaisler-elf/bsp/leon2/leon/mfix-at697f\libbcc.a(con_leon2.c.o)
 .debug_line    0x0000000000011542      0x243 c:/opt/bcc-2.0.2-gcc/bin/../sparc-gaisler-elf/bsp/leon2/leon/mfix-at697f\libbcc.a(timer_leon2.c.o)
 .debug_line    0x0000000000011785       0x60 c:/opt/bcc-2.0.2-gcc/bin/../sparc-gaisler-elf/bsp/leon2/leon/mfix-at697f\libbcc.a(set_pil.S.o)
 .debug_line    0x00000000000117e5      0x1e9 c:/opt/bcc-2.0.2-gcc/bin/../sparc-gaisler-elf/bsp/leon2/leon/mfix-at697f\libbcc.a(int_leon2_handle.c.o)
 .debug_line    0x00000000000119ce      0x1e1 c:/opt/bcc-2.0.2-gcc/bin/../sparc-gaisler-elf/bsp/leon2/leon/mfix-at697f\libbcc.a(con_handle.c.o)
 .debug_line    0x0000000000011baf      0x1e1 c:/opt/bcc-2.0.2-gcc/bin/../sparc-gaisler-elf/bsp/leon2/leon/mfix-at697f\libbcc.a(timer_handle.c.o)
 .debug_line    0x0000000000011d90      0x1c6 c:/opt/bcc-2.0.2-gcc/bin/../lib/gcc/sparc-gaisler-elf/7.2.0/../../../../sparc-gaisler-elf/lib/leon/mfix-at697f\libc.a(lib_a-atexit.o)
 .debug_line    0x0000000000011f56      0x17c c:/opt/bcc-2.0.2-gcc/bin/../lib/gcc/sparc-gaisler-elf/7.2.0/../../../../sparc-gaisler-elf/lib/leon/mfix-at697f\libc.a(lib_a-errno.o)
 .debug_line    0x00000000000120d2      0x1c7 c:/opt/bcc-2.0.2-gcc/bin/../lib/gcc/sparc-gaisler-elf/7.2.0/../../../../sparc-gaisler-elf/lib/leon/mfix-at697f\libc.a(lib_a-exit.o)
 .debug_line    0x0000000000012299      0x161 c:/opt/bcc-2.0.2-gcc/bin/../lib/gcc/sparc-gaisler-elf/7.2.0/../../../../sparc-gaisler-elf/lib/leon/mfix-at697f\libc.a(lib_a-impure.o)
 .debug_line    0x00000000000123fa      0x1ed c:/opt/bcc-2.0.2-gcc/bin/../lib/gcc/sparc-gaisler-elf/7.2.0/../../../../sparc-gaisler-elf/lib/leon/mfix-at697f\libc.a(lib_a-memcpy.o)
 .debug_line    0x00000000000125e7      0x202 c:/opt/bcc-2.0.2-gcc/bin/../lib/gcc/sparc-gaisler-elf/7.2.0/../../../../sparc-gaisler-elf/lib/leon/mfix-at697f\libc.a(lib_a-__atexit.o)
 .debug_line    0x00000000000127e9      0x22d c:/opt/bcc-2.0.2-gcc/bin/../lib/gcc/sparc-gaisler-elf/7.2.0/../../../../sparc-gaisler-elf/lib/leon/mfix-at697f\libc.a(lib_a-__call_atexit.o)
 .debug_line    0x0000000000012a16       0x61 c:/opt/bcc-2.0.2-gcc/bin/../sparc-gaisler-elf/bsp/leon2/leon/mfix-at697f\libbcc.a(_exit.S.o)

.debug_frame    0x0000000000000000     0x2858
 *(.debug_frame)
 .debug_frame   0x0000000000000000       0x60 C:\Users\ajarr\AppData\Local\Temp\ccgtKLQ9.o
 .debug_frame   0x0000000000000060       0xd4 C:\Users\ajarr\AppData\Local\Temp\ccZ3M43h.o
 .debug_frame   0x0000000000000134      0x200 C:\Users\ajarr\AppData\Local\Temp\ccnGtmfO.o
 .debug_frame   0x0000000000000334      0xdf0 C:\Users\ajarr\AppData\Local\Temp\ccEMnW47.o
 .debug_frame   0x0000000000001124       0x28 C:\Users\ajarr\AppData\Local\Temp\ccxnFfLM.o
 .debug_frame   0x000000000000114c      0x150 C:\Users\ajarr\AppData\Local\Temp\cczbQmCd.o
 .debug_frame   0x000000000000129c       0x50 C:\Users\ajarr\AppData\Local\Temp\ccp71scL.o
 .debug_frame   0x00000000000012ec       0x38 C:\Users\ajarr\AppData\Local\Temp\ccf1qWep.o
 .debug_frame   0x0000000000001324       0x60 C:\Users\ajarr\AppData\Local\Temp\cclXIhGd.o
 .debug_frame   0x0000000000001384       0xa8 C:\Users\ajarr\AppData\Local\Temp\cclUyX1f.o
 .debug_frame   0x000000000000142c      0x218 C:\Users\ajarr\AppData\Local\Temp\ccYAcwQn.o
 .debug_frame   0x0000000000001644       0x68 C:\Users\ajarr\AppData\Local\Temp\ccjmXURG.o
 .debug_frame   0x00000000000016ac      0x108 C:\Users\ajarr\AppData\Local\Temp\ccovS4yg.o
 .debug_frame   0x00000000000017b4      0x108 C:\Users\ajarr\AppData\Local\Temp\ccduqfO0.o
 .debug_frame   0x00000000000018bc       0xb0 C:\Users\ajarr\AppData\Local\Temp\ccXhqPVa.o
 .debug_frame   0x000000000000196c       0xd0 C:\Users\ajarr\AppData\Local\Temp\ccNMwkyO.o
 .debug_frame   0x0000000000001a3c       0xb0 C:\Users\ajarr\AppData\Local\Temp\ccwbk5Wx.o
 .debug_frame   0x0000000000001aec       0xc4 C:\Users\ajarr\AppData\Local\Temp\cc1MBP0N.o
 .debug_frame   0x0000000000001bb0       0x28 C:\Users\ajarr\AppData\Local\Temp\cc8WbBCy.o
 .debug_frame   0x0000000000001bd8      0x1c8 C:\Users\ajarr\AppData\Local\Temp\cc8e2yNj.o
 .debug_frame   0x0000000000001da0      0x170 C:\Users\ajarr\AppData\Local\Temp\ccjuLCXH.o
 .debug_frame   0x0000000000001f10      0x150 C:\Users\ajarr\AppData\Local\Temp\ccGb5JPl.o
 .debug_frame   0x0000000000002060      0x130 C:\Users\ajarr\AppData\Local\Temp\cclaJb28.o
 .debug_frame   0x0000000000002190       0x28 c:/opt/bcc-2.0.2-gcc/bin/../lib/gcc/sparc-gaisler-elf/7.2.0/../../../../sparc-gaisler-elf/lib/leon/mfix-at697f\libm.a(lib_a-s_atan.o)
 .debug_frame   0x00000000000021b8       0x28 c:/opt/bcc-2.0.2-gcc/bin/../lib/gcc/sparc-gaisler-elf/7.2.0/../../../../sparc-gaisler-elf/lib/leon/mfix-at697f\libm.a(lib_a-s_cos.o)
 .debug_frame   0x00000000000021e0       0x24 c:/opt/bcc-2.0.2-gcc/bin/../lib/gcc/sparc-gaisler-elf/7.2.0/../../../../sparc-gaisler-elf/lib/leon/mfix-at697f\libm.a(lib_a-s_fabs.o)
 .debug_frame   0x0000000000002204       0x24 c:/opt/bcc-2.0.2-gcc/bin/../lib/gcc/sparc-gaisler-elf/7.2.0/../../../../sparc-gaisler-elf/lib/leon/mfix-at697f\libm.a(lib_a-s_floor.o)
 .debug_frame   0x0000000000002228       0x24 c:/opt/bcc-2.0.2-gcc/bin/../lib/gcc/sparc-gaisler-elf/7.2.0/../../../../sparc-gaisler-elf/lib/leon/mfix-at697f\libm.a(lib_a-s_round.o)
 .debug_frame   0x000000000000224c       0x28 c:/opt/bcc-2.0.2-gcc/bin/../lib/gcc/sparc-gaisler-elf/7.2.0/../../../../sparc-gaisler-elf/lib/leon/mfix-at697f\libm.a(lib_a-s_sin.o)
 .debug_frame   0x0000000000002274       0x28 c:/opt/bcc-2.0.2-gcc/bin/../lib/gcc/sparc-gaisler-elf/7.2.0/../../../../sparc-gaisler-elf/lib/leon/mfix-at697f\libm.a(lib_a-s_tan.o)
 .debug_frame   0x000000000000229c       0x28 c:/opt/bcc-2.0.2-gcc/bin/../lib/gcc/sparc-gaisler-elf/7.2.0/../../../../sparc-gaisler-elf/lib/leon/mfix-at697f\libm.a(lib_a-w_acos.o)
 .debug_frame   0x00000000000022c4       0x28 c:/opt/bcc-2.0.2-gcc/bin/../lib/gcc/sparc-gaisler-elf/7.2.0/../../../../sparc-gaisler-elf/lib/leon/mfix-at697f\libm.a(lib_a-w_asin.o)
 .debug_frame   0x00000000000022ec       0x20 c:/opt/bcc-2.0.2-gcc/bin/../lib/gcc/sparc-gaisler-elf/7.2.0/../../../../sparc-gaisler-elf/lib/leon/mfix-at697f\libm.a(lib_a-w_atan2.o)
 .debug_frame   0x000000000000230c       0x28 c:/opt/bcc-2.0.2-gcc/bin/../lib/gcc/sparc-gaisler-elf/7.2.0/../../../../sparc-gaisler-elf/lib/leon/mfix-at697f\libm.a(lib_a-w_fmod.o)
 .debug_frame   0x0000000000002334       0x28 c:/opt/bcc-2.0.2-gcc/bin/../lib/gcc/sparc-gaisler-elf/7.2.0/../../../../sparc-gaisler-elf/lib/leon/mfix-at697f\libm.a(lib_a-w_pow.o)
 .debug_frame   0x000000000000235c       0x28 c:/opt/bcc-2.0.2-gcc/bin/../lib/gcc/sparc-gaisler-elf/7.2.0/../../../../sparc-gaisler-elf/lib/leon/mfix-at697f\libm.a(lib_a-w_sqrt.o)
 .debug_frame   0x0000000000002384       0x28 c:/opt/bcc-2.0.2-gcc/bin/../lib/gcc/sparc-gaisler-elf/7.2.0/../../../../sparc-gaisler-elf/lib/leon/mfix-at697f\libm.a(lib_a-e_acos.o)
 .debug_frame   0x00000000000023ac       0x28 c:/opt/bcc-2.0.2-gcc/bin/../lib/gcc/sparc-gaisler-elf/7.2.0/../../../../sparc-gaisler-elf/lib/leon/mfix-at697f\libm.a(lib_a-e_asin.o)
 .debug_frame   0x00000000000023d4       0x28 c:/opt/bcc-2.0.2-gcc/bin/../lib/gcc/sparc-gaisler-elf/7.2.0/../../../../sparc-gaisler-elf/lib/leon/mfix-at697f\libm.a(lib_a-e_atan2.o)
 .debug_frame   0x00000000000023fc       0x24 c:/opt/bcc-2.0.2-gcc/bin/../lib/gcc/sparc-gaisler-elf/7.2.0/../../../../sparc-gaisler-elf/lib/leon/mfix-at697f\libm.a(lib_a-e_fmod.o)
 .debug_frame   0x0000000000002420       0x28 c:/opt/bcc-2.0.2-gcc/bin/../lib/gcc/sparc-gaisler-elf/7.2.0/../../../../sparc-gaisler-elf/lib/leon/mfix-at697f\libm.a(lib_a-e_pow.o)
 .debug_frame   0x0000000000002448       0x28 c:/opt/bcc-2.0.2-gcc/bin/../lib/gcc/sparc-gaisler-elf/7.2.0/../../../../sparc-gaisler-elf/lib/leon/mfix-at697f\libm.a(lib_a-e_rem_pio2.o)
 .debug_frame   0x0000000000002470       0x28 c:/opt/bcc-2.0.2-gcc/bin/../lib/gcc/sparc-gaisler-elf/7.2.0/../../../../sparc-gaisler-elf/lib/leon/mfix-at697f\libm.a(lib_a-e_sqrt.o)
 .debug_frame   0x0000000000002498       0x24 c:/opt/bcc-2.0.2-gcc/bin/../lib/gcc/sparc-gaisler-elf/7.2.0/../../../../sparc-gaisler-elf/lib/leon/mfix-at697f\libm.a(lib_a-k_cos.o)
 .debug_frame   0x00000000000024bc       0x28 c:/opt/bcc-2.0.2-gcc/bin/../lib/gcc/sparc-gaisler-elf/7.2.0/../../../../sparc-gaisler-elf/lib/leon/mfix-at697f\libm.a(lib_a-k_rem_pio2.o)
 .debug_frame   0x00000000000024e4       0x24 c:/opt/bcc-2.0.2-gcc/bin/../lib/gcc/sparc-gaisler-elf/7.2.0/../../../../sparc-gaisler-elf/lib/leon/mfix-at697f\libm.a(lib_a-k_sin.o)
 .debug_frame   0x0000000000002508       0x28 c:/opt/bcc-2.0.2-gcc/bin/../lib/gcc/sparc-gaisler-elf/7.2.0/../../../../sparc-gaisler-elf/lib/leon/mfix-at697f\libm.a(lib_a-k_tan.o)
 .debug_frame   0x0000000000002530       0x20 c:/opt/bcc-2.0.2-gcc/bin/../lib/gcc/sparc-gaisler-elf/7.2.0/../../../../sparc-gaisler-elf/lib/leon/mfix-at697f\libm.a(lib_a-s_finite.o)
 .debug_frame   0x0000000000002550       0x20 c:/opt/bcc-2.0.2-gcc/bin/../lib/gcc/sparc-gaisler-elf/7.2.0/../../../../sparc-gaisler-elf/lib/leon/mfix-at697f\libm.a(lib_a-s_matherr.o)
 .debug_frame   0x0000000000002570       0x20 c:/opt/bcc-2.0.2-gcc/bin/../lib/gcc/sparc-gaisler-elf/7.2.0/../../../../sparc-gaisler-elf/lib/leon/mfix-at697f\libm.a(lib_a-s_nan.o)
 .debug_frame   0x0000000000002590       0x24 c:/opt/bcc-2.0.2-gcc/bin/../lib/gcc/sparc-gaisler-elf/7.2.0/../../../../sparc-gaisler-elf/lib/leon/mfix-at697f\libm.a(lib_a-s_rint.o)
 .debug_frame   0x00000000000025b4       0x28 c:/opt/bcc-2.0.2-gcc/bin/../lib/gcc/sparc-gaisler-elf/7.2.0/../../../../sparc-gaisler-elf/lib/leon/mfix-at697f\libm.a(lib_a-s_scalbn.o)
 .debug_frame   0x00000000000025dc       0x24 c:/opt/bcc-2.0.2-gcc/bin/../lib/gcc/sparc-gaisler-elf/7.2.0/../../../../sparc-gaisler-elf/lib/leon/mfix-at697f\libm.a(lib_a-s_copysign.o)
 .debug_frame   0x0000000000002600       0x28 c:/opt/bcc-2.0.2-gcc/bin/../sparc-gaisler-elf/bsp/leon2/leon/mfix-at697f\libbcc.a(trap.c.o)
 .debug_frame   0x0000000000002628       0x20 c:/opt/bcc-2.0.2-gcc/bin/../sparc-gaisler-elf/bsp/leon2/leon/mfix-at697f\libbcc.a(copy_data.c.o)
 .debug_frame   0x0000000000002648       0x80 c:/opt/bcc-2.0.2-gcc/bin/../sparc-gaisler-elf/bsp/leon2/leon/mfix-at697f\libbcc.a(int_leon2.c.o)
 .debug_frame   0x00000000000026c8       0x20 c:/opt/bcc-2.0.2-gcc/bin/../sparc-gaisler-elf/bsp/leon2/leon/mfix-at697f\libbcc.a(int_leon2_get_source.c.o)
 .debug_frame   0x00000000000026e8       0x20 c:/opt/bcc-2.0.2-gcc/bin/../sparc-gaisler-elf/bsp/leon2/leon/mfix-at697f\libbcc.a(int_leon2_init.c.o)
 .debug_frame   0x0000000000002708       0x40 c:/opt/bcc-2.0.2-gcc/bin/../sparc-gaisler-elf/bsp/leon2/leon/mfix-at697f\libbcc.a(con_leon2.c.o)
 .debug_frame   0x0000000000002748       0x30 c:/opt/bcc-2.0.2-gcc/bin/../sparc-gaisler-elf/bsp/leon2/leon/mfix-at697f\libbcc.a(timer_leon2.c.o)
 .debug_frame   0x0000000000002778       0x20 c:/opt/bcc-2.0.2-gcc/bin/../lib/gcc/sparc-gaisler-elf/7.2.0/../../../../sparc-gaisler-elf/lib/leon/mfix-at697f\libc.a(lib_a-atexit.o)
 .debug_frame   0x0000000000002798       0x20 c:/opt/bcc-2.0.2-gcc/bin/../lib/gcc/sparc-gaisler-elf/7.2.0/../../../../sparc-gaisler-elf/lib/leon/mfix-at697f\libc.a(lib_a-errno.o)
 .debug_frame   0x00000000000027b8       0x28 c:/opt/bcc-2.0.2-gcc/bin/../lib/gcc/sparc-gaisler-elf/7.2.0/../../../../sparc-gaisler-elf/lib/leon/mfix-at697f\libc.a(lib_a-exit.o)
 .debug_frame   0x00000000000027e0       0x28 c:/opt/bcc-2.0.2-gcc/bin/../lib/gcc/sparc-gaisler-elf/7.2.0/../../../../sparc-gaisler-elf/lib/leon/mfix-at697f\libc.a(lib_a-memcpy.o)
 .debug_frame   0x0000000000002808       0x28 c:/opt/bcc-2.0.2-gcc/bin/../lib/gcc/sparc-gaisler-elf/7.2.0/../../../../sparc-gaisler-elf/lib/leon/mfix-at697f\libc.a(lib_a-__atexit.o)
 .debug_frame   0x0000000000002830       0x28 c:/opt/bcc-2.0.2-gcc/bin/../lib/gcc/sparc-gaisler-elf/7.2.0/../../../../sparc-gaisler-elf/lib/leon/mfix-at697f\libc.a(lib_a-__call_atexit.o)

.debug_str      0x0000000000000000     0xc36b
 *(.debug_str)
 .debug_str     0x0000000000000000     0x707b C:\Users\ajarr\AppData\Local\Temp\ccgtKLQ9.o
                                       0x7626 (size before relaxing)
 .debug_str     0x000000000000707b      0x518 C:\Users\ajarr\AppData\Local\Temp\ccZ3M43h.o
                                       0x770e (size before relaxing)
 .debug_str     0x0000000000007593      0x3d9 C:\Users\ajarr\AppData\Local\Temp\ccnGtmfO.o
                                       0x7db7 (size before relaxing)
 .debug_str     0x000000000000796c     0x1259 C:\Users\ajarr\AppData\Local\Temp\ccEMnW47.o
                                       0x8ca2 (size before relaxing)
 .debug_str     0x0000000000008bc5        0xa C:\Users\ajarr\AppData\Local\Temp\ccxnFfLM.o
                                       0x7a12 (size before relaxing)
 .debug_str     0x0000000000008bcf      0x3e2 C:\Users\ajarr\AppData\Local\Temp\cczbQmCd.o
                                       0x7970 (size before relaxing)
 .debug_str     0x0000000000008fb1       0x9a C:\Users\ajarr\AppData\Local\Temp\ccp71scL.o
                                       0x4513 (size before relaxing)
 .debug_str     0x000000000000904b       0x67 C:\Users\ajarr\AppData\Local\Temp\ccf1qWep.o
                                       0x551f (size before relaxing)
 .debug_str     0x00000000000090b2      0x206 C:\Users\ajarr\AppData\Local\Temp\cclXIhGd.o
                                       0x563e (size before relaxing)
 .debug_str     0x00000000000092b8      0x2ec C:\Users\ajarr\AppData\Local\Temp\cclUyX1f.o
                                       0x7473 (size before relaxing)
 .debug_str     0x00000000000095a4      0x3f2 C:\Users\ajarr\AppData\Local\Temp\ccYAcwQn.o
                                       0x487f (size before relaxing)
 .debug_str     0x0000000000009996       0x62 C:\Users\ajarr\AppData\Local\Temp\ccjmXURG.o
                                       0x75cf (size before relaxing)
 .debug_str     0x00000000000099f8      0x558 C:\Users\ajarr\AppData\Local\Temp\ccovS4yg.o
                                       0x4ced (size before relaxing)
 .debug_str     0x0000000000009f50      0x1a3 C:\Users\ajarr\AppData\Local\Temp\ccduqfO0.o
                                       0x420f (size before relaxing)
 .debug_str     0x000000000000a0f3       0x9d C:\Users\ajarr\AppData\Local\Temp\ccXhqPVa.o
                                       0x7a90 (size before relaxing)
 .debug_str     0x000000000000a190       0xa7 C:\Users\ajarr\AppData\Local\Temp\ccNMwkyO.o
                                       0x74a7 (size before relaxing)
 .debug_str     0x000000000000a237       0x11 C:\Users\ajarr\AppData\Local\Temp\ccDl90Kv.o
                                       0x339b (size before relaxing)
 .debug_str     0x000000000000a248       0xb9 C:\Users\ajarr\AppData\Local\Temp\ccwbk5Wx.o
                                       0x6dac (size before relaxing)
 .debug_str     0x000000000000a301      0x106 C:\Users\ajarr\AppData\Local\Temp\cc1MBP0N.o
                                       0x7af9 (size before relaxing)
 .debug_str     0x000000000000a407       0x1c C:\Users\ajarr\AppData\Local\Temp\cc8WbBCy.o
                                       0x5b2f (size before relaxing)
 .debug_str     0x000000000000a423      0x1ce C:\Users\ajarr\AppData\Local\Temp\cc8e2yNj.o
                                       0x7cb9 (size before relaxing)
 .debug_str     0x000000000000a5f1       0x7c C:\Users\ajarr\AppData\Local\Temp\ccasxzae.o
                                       0x3406 (size before relaxing)
 .debug_str     0x000000000000a66d       0xff C:\Users\ajarr\AppData\Local\Temp\ccjuLCXH.o
                                       0x7b03 (size before relaxing)
 .debug_str     0x000000000000a76c      0x169 C:\Users\ajarr\AppData\Local\Temp\ccGb5JPl.o
                                       0x39bf (size before relaxing)
 .debug_str     0x000000000000a8d5      0x1e7 C:\Users\ajarr\AppData\Local\Temp\cclaJb28.o
                                        0x241 (size before relaxing)
 .debug_str     0x000000000000aabc      0x184 c:/opt/bcc-2.0.2-gcc/bin/../lib/gcc/sparc-gaisler-elf/7.2.0/../../../../sparc-gaisler-elf/lib/leon/mfix-at697f\libm.a(lib_a-s_atan.o)
                                        0x682 (size before relaxing)
 .debug_str     0x000000000000ac40       0x41 c:/opt/bcc-2.0.2-gcc/bin/../lib/gcc/sparc-gaisler-elf/7.2.0/../../../../sparc-gaisler-elf/lib/leon/mfix-at697f\libm.a(lib_a-s_cos.o)
                                        0x664 (size before relaxing)
 .debug_str     0x000000000000ac81       0x51 c:/opt/bcc-2.0.2-gcc/bin/../lib/gcc/sparc-gaisler-elf/7.2.0/../../../../sparc-gaisler-elf/lib/leon/mfix-at697f\libm.a(lib_a-s_fabs.o)
                                        0x66a (size before relaxing)
 .debug_str     0x000000000000acd2       0x53 c:/opt/bcc-2.0.2-gcc/bin/../lib/gcc/sparc-gaisler-elf/7.2.0/../../../../sparc-gaisler-elf/lib/leon/mfix-at697f\libm.a(lib_a-s_floor.o)
                                        0x676 (size before relaxing)
 .debug_str     0x000000000000ad25      0x10a c:/opt/bcc-2.0.2-gcc/bin/../lib/gcc/sparc-gaisler-elf/7.2.0/../../../../sparc-gaisler-elf/lib/leon/mfix-at697f\libm.a(lib_a-s_round.o)
                                        0x696 (size before relaxing)
 .debug_str     0x000000000000ae2f       0x41 c:/opt/bcc-2.0.2-gcc/bin/../lib/gcc/sparc-gaisler-elf/7.2.0/../../../../sparc-gaisler-elf/lib/leon/mfix-at697f\libm.a(lib_a-s_sin.o)
                                        0x664 (size before relaxing)
 .debug_str     0x000000000000ae70       0x41 c:/opt/bcc-2.0.2-gcc/bin/../lib/gcc/sparc-gaisler-elf/7.2.0/../../../../sparc-gaisler-elf/lib/leon/mfix-at697f\libm.a(lib_a-s_tan.o)
                                        0x664 (size before relaxing)
 .debug_str     0x000000000000aeb1       0x79 c:/opt/bcc-2.0.2-gcc/bin/../lib/gcc/sparc-gaisler-elf/7.2.0/../../../../sparc-gaisler-elf/lib/leon/mfix-at697f\libm.a(lib_a-w_acos.o)
                                        0x669 (size before relaxing)
 .debug_str     0x000000000000af2a       0x42 c:/opt/bcc-2.0.2-gcc/bin/../lib/gcc/sparc-gaisler-elf/7.2.0/../../../../sparc-gaisler-elf/lib/leon/mfix-at697f\libm.a(lib_a-w_asin.o)
                                        0x669 (size before relaxing)
 .debug_str     0x000000000000af6c       0x43 c:/opt/bcc-2.0.2-gcc/bin/../lib/gcc/sparc-gaisler-elf/7.2.0/../../../../sparc-gaisler-elf/lib/leon/mfix-at697f\libm.a(lib_a-w_atan2.o)
                                        0x646 (size before relaxing)
 .debug_str     0x000000000000afaf       0x42 c:/opt/bcc-2.0.2-gcc/bin/../lib/gcc/sparc-gaisler-elf/7.2.0/../../../../sparc-gaisler-elf/lib/leon/mfix-at697f\libm.a(lib_a-w_fmod.o)
                                        0x669 (size before relaxing)
 .debug_str     0x000000000000aff1       0x41 c:/opt/bcc-2.0.2-gcc/bin/../lib/gcc/sparc-gaisler-elf/7.2.0/../../../../sparc-gaisler-elf/lib/leon/mfix-at697f\libm.a(lib_a-w_pow.o)
                                        0x663 (size before relaxing)
 .debug_str     0x000000000000b032       0x42 c:/opt/bcc-2.0.2-gcc/bin/../lib/gcc/sparc-gaisler-elf/7.2.0/../../../../sparc-gaisler-elf/lib/leon/mfix-at697f\libm.a(lib_a-w_sqrt.o)
                                        0x669 (size before relaxing)
 .debug_str     0x000000000000b074       0x66 c:/opt/bcc-2.0.2-gcc/bin/../lib/gcc/sparc-gaisler-elf/7.2.0/../../../../sparc-gaisler-elf/lib/leon/mfix-at697f\libm.a(lib_a-e_acos.o)
                                        0x68e (size before relaxing)
 .debug_str     0x000000000000b0da       0x59 c:/opt/bcc-2.0.2-gcc/bin/../lib/gcc/sparc-gaisler-elf/7.2.0/../../../../sparc-gaisler-elf/lib/leon/mfix-at697f\libm.a(lib_a-e_asin.o)
                                        0x69b (size before relaxing)
 .debug_str     0x000000000000b133       0x71 c:/opt/bcc-2.0.2-gcc/bin/../lib/gcc/sparc-gaisler-elf/7.2.0/../../../../sparc-gaisler-elf/lib/leon/mfix-at697f\libm.a(lib_a-e_atan2.o)
                                        0x69e (size before relaxing)
 .debug_str     0x000000000000b1a4       0x56 c:/opt/bcc-2.0.2-gcc/bin/../lib/gcc/sparc-gaisler-elf/7.2.0/../../../../sparc-gaisler-elf/lib/leon/mfix-at697f\libm.a(lib_a-e_fmod.o)
                                        0x67e (size before relaxing)
 .debug_str     0x000000000000b1fa       0x92 c:/opt/bcc-2.0.2-gcc/bin/../lib/gcc/sparc-gaisler-elf/7.2.0/../../../../sparc-gaisler-elf/lib/leon/mfix-at697f\libm.a(lib_a-e_pow.o)
                                        0x6d3 (size before relaxing)
 .debug_str     0x000000000000b28c       0xae c:/opt/bcc-2.0.2-gcc/bin/../lib/gcc/sparc-gaisler-elf/7.2.0/../../../../sparc-gaisler-elf/lib/leon/mfix-at697f\libm.a(lib_a-e_rem_pio2.o)
                                        0x6ea (size before relaxing)
 .debug_str     0x000000000000b33a       0x51 c:/opt/bcc-2.0.2-gcc/bin/../lib/gcc/sparc-gaisler-elf/7.2.0/../../../../sparc-gaisler-elf/lib/leon/mfix-at697f\libm.a(lib_a-e_sqrt.o)
                                        0x683 (size before relaxing)
 .debug_str     0x000000000000b38b       0x4e c:/opt/bcc-2.0.2-gcc/bin/../lib/gcc/sparc-gaisler-elf/7.2.0/../../../../sparc-gaisler-elf/lib/leon/mfix-at697f\libm.a(lib_a-k_cos.o)
                                        0x676 (size before relaxing)
 .debug_str     0x000000000000b3d9       0x82 c:/opt/bcc-2.0.2-gcc/bin/../lib/gcc/sparc-gaisler-elf/7.2.0/../../../../sparc-gaisler-elf/lib/leon/mfix-at697f\libm.a(lib_a-k_rem_pio2.o)
                                        0x682 (size before relaxing)
 .debug_str     0x000000000000b45b       0x4e c:/opt/bcc-2.0.2-gcc/bin/../lib/gcc/sparc-gaisler-elf/7.2.0/../../../../sparc-gaisler-elf/lib/leon/mfix-at697f\libm.a(lib_a-k_sin.o)
                                        0x676 (size before relaxing)
 .debug_str     0x000000000000b4a9       0x5a c:/opt/bcc-2.0.2-gcc/bin/../lib/gcc/sparc-gaisler-elf/7.2.0/../../../../sparc-gaisler-elf/lib/leon/mfix-at697f\libm.a(lib_a-k_tan.o)
                                        0x687 (size before relaxing)
 .debug_str     0x000000000000b503       0x4d c:/opt/bcc-2.0.2-gcc/bin/../lib/gcc/sparc-gaisler-elf/7.2.0/../../../../sparc-gaisler-elf/lib/leon/mfix-at697f\libm.a(lib_a-s_finite.o)
                                        0x672 (size before relaxing)
 .debug_str     0x000000000000b550       0x47 c:/opt/bcc-2.0.2-gcc/bin/../lib/gcc/sparc-gaisler-elf/7.2.0/../../../../sparc-gaisler-elf/lib/leon/mfix-at697f\libm.a(lib_a-s_lib_ver.o)
                                        0x62f (size before relaxing)
 .debug_str     0x000000000000b597       0x4f c:/opt/bcc-2.0.2-gcc/bin/../lib/gcc/sparc-gaisler-elf/7.2.0/../../../../sparc-gaisler-elf/lib/leon/mfix-at697f\libm.a(lib_a-s_matherr.o)
                                        0x65c (size before relaxing)
 .debug_str     0x000000000000b5e6       0x4a c:/opt/bcc-2.0.2-gcc/bin/../lib/gcc/sparc-gaisler-elf/7.2.0/../../../../sparc-gaisler-elf/lib/leon/mfix-at697f\libm.a(lib_a-s_nan.o)
                                        0x632 (size before relaxing)
 .debug_str     0x000000000000b630       0x4f c:/opt/bcc-2.0.2-gcc/bin/../lib/gcc/sparc-gaisler-elf/7.2.0/../../../../sparc-gaisler-elf/lib/leon/mfix-at697f\libm.a(lib_a-s_rint.o)
                                        0x683 (size before relaxing)
 .debug_str     0x000000000000b67f       0x5a c:/opt/bcc-2.0.2-gcc/bin/../lib/gcc/sparc-gaisler-elf/7.2.0/../../../../sparc-gaisler-elf/lib/leon/mfix-at697f\libm.a(lib_a-s_scalbn.o)
                                        0x693 (size before relaxing)
 .debug_str     0x000000000000b6d9       0x51 c:/opt/bcc-2.0.2-gcc/bin/../lib/gcc/sparc-gaisler-elf/7.2.0/../../../../sparc-gaisler-elf/lib/leon/mfix-at697f\libm.a(lib_a-s_copysign.o)
                                        0x671 (size before relaxing)
 .debug_str     0x000000000000b72a      0x1e4 c:/opt/bcc-2.0.2-gcc/bin/../sparc-gaisler-elf/bsp/leon2/leon/mfix-at697f\libbcc.a(trap.c.o)
                                        0x293 (size before relaxing)
 .debug_str     0x000000000000b90e       0x51 c:/opt/bcc-2.0.2-gcc/bin/../sparc-gaisler-elf/bsp/leon2/leon/mfix-at697f\libbcc.a(isr.c.o)
                                        0x5b4 (size before relaxing)
 .debug_str     0x000000000000b95f       0x6d c:/opt/bcc-2.0.2-gcc/bin/../sparc-gaisler-elf/bsp/leon2/leon/mfix-at697f\libbcc.a(int_nest.c.o)
                                        0x1b2 (size before relaxing)
 .debug_str     0x000000000000b9cc       0x6a c:/opt/bcc-2.0.2-gcc/bin/../sparc-gaisler-elf/bsp/leon2/leon/mfix-at697f\libbcc.a(copy_data.c.o)
                                        0x1b1 (size before relaxing)
 .debug_str     0x000000000000ba36      0x151 c:/opt/bcc-2.0.2-gcc/bin/../sparc-gaisler-elf/bsp/leon2/leon/mfix-at697f\libbcc.a(int_leon2.c.o)
                                        0x2d8 (size before relaxing)
 .debug_str     0x000000000000bb87       0x5b c:/opt/bcc-2.0.2-gcc/bin/../sparc-gaisler-elf/bsp/leon2/leon/mfix-at697f\libbcc.a(int_leon2_get_source.c.o)
                                        0x10a (size before relaxing)
 .debug_str     0x000000000000bbe2       0x4f c:/opt/bcc-2.0.2-gcc/bin/../sparc-gaisler-elf/bsp/leon2/leon/mfix-at697f\libbcc.a(int_leon2_init.c.o)
                                        0x261 (size before relaxing)
 .debug_str     0x000000000000bc31       0x84 c:/opt/bcc-2.0.2-gcc/bin/../sparc-gaisler-elf/bsp/leon2/leon/mfix-at697f\libbcc.a(con_leon2.c.o)
                                        0x2b2 (size before relaxing)
 .debug_str     0x000000000000bcb5       0xa6 c:/opt/bcc-2.0.2-gcc/bin/../sparc-gaisler-elf/bsp/leon2/leon/mfix-at697f\libbcc.a(timer_leon2.c.o)
                                        0x2d7 (size before relaxing)
 .debug_str     0x000000000000bd5b       0x42 c:/opt/bcc-2.0.2-gcc/bin/../sparc-gaisler-elf/bsp/leon2/leon/mfix-at697f\libbcc.a(int_leon2_handle.c.o)
                                        0x232 (size before relaxing)
 .debug_str     0x000000000000bd9d       0x3a c:/opt/bcc-2.0.2-gcc/bin/../sparc-gaisler-elf/bsp/leon2/leon/mfix-at697f\libbcc.a(con_handle.c.o)
                                        0x22a (size before relaxing)
 .debug_str     0x000000000000bdd7       0x3a c:/opt/bcc-2.0.2-gcc/bin/../sparc-gaisler-elf/bsp/leon2/leon/mfix-at697f\libbcc.a(timer_handle.c.o)
                                        0x22a (size before relaxing)
 .debug_str     0x000000000000be11      0x112 c:/opt/bcc-2.0.2-gcc/bin/../lib/gcc/sparc-gaisler-elf/7.2.0/../../../../sparc-gaisler-elf/lib/leon/mfix-at697f\libc.a(lib_a-atexit.o)
                                        0x605 (size before relaxing)
 .debug_str     0x000000000000bf23       0xe7 c:/opt/bcc-2.0.2-gcc/bin/../lib/gcc/sparc-gaisler-elf/7.2.0/../../../../sparc-gaisler-elf/lib/leon/mfix-at697f\libc.a(lib_a-errno.o)
                                        0x5e0 (size before relaxing)
 .debug_str     0x000000000000c00a       0x6d c:/opt/bcc-2.0.2-gcc/bin/../lib/gcc/sparc-gaisler-elf/7.2.0/../../../../sparc-gaisler-elf/lib/leon/mfix-at697f\libc.a(lib_a-exit.o)
                                        0x603 (size before relaxing)
 .debug_str     0x000000000000c077       0xec c:/opt/bcc-2.0.2-gcc/bin/../lib/gcc/sparc-gaisler-elf/7.2.0/../../../../sparc-gaisler-elf/lib/leon/mfix-at697f\libc.a(lib_a-impure.o)
                                        0x5ce (size before relaxing)
 .debug_str     0x000000000000c163      0x117 c:/opt/bcc-2.0.2-gcc/bin/../lib/gcc/sparc-gaisler-elf/7.2.0/../../../../sparc-gaisler-elf/lib/leon/mfix-at697f\libc.a(lib_a-memcpy.o)
                                        0x5f9 (size before relaxing)
 .debug_str     0x000000000000c27a       0x79 c:/opt/bcc-2.0.2-gcc/bin/../lib/gcc/sparc-gaisler-elf/7.2.0/../../../../sparc-gaisler-elf/lib/leon/mfix-at697f\libc.a(lib_a-__atexit.o)
                                        0x63d (size before relaxing)
 .debug_str     0x000000000000c2f3       0x78 c:/opt/bcc-2.0.2-gcc/bin/../lib/gcc/sparc-gaisler-elf/7.2.0/../../../../sparc-gaisler-elf/lib/leon/mfix-at697f\libc.a(lib_a-__call_atexit.o)
                                        0x60c (size before relaxing)

.debug_loc      0x0000000000000000     0x6cb6
 *(.debug_loc)
 .debug_loc     0x0000000000000000       0xc7 C:\Users\ajarr\AppData\Local\Temp\ccgtKLQ9.o
 .debug_loc     0x00000000000000c7      0x212 C:\Users\ajarr\AppData\Local\Temp\ccZ3M43h.o
 .debug_loc     0x00000000000002d9      0x584 C:\Users\ajarr\AppData\Local\Temp\ccnGtmfO.o
 .debug_loc     0x000000000000085d      0x87b C:\Users\ajarr\AppData\Local\Temp\ccEMnW47.o
 .debug_loc     0x00000000000010d8       0x20 C:\Users\ajarr\AppData\Local\Temp\ccxnFfLM.o
 .debug_loc     0x00000000000010f8      0x27f C:\Users\ajarr\AppData\Local\Temp\cczbQmCd.o
 .debug_loc     0x0000000000001377       0xc4 C:\Users\ajarr\AppData\Local\Temp\ccp71scL.o
 .debug_loc     0x000000000000143b       0x49 C:\Users\ajarr\AppData\Local\Temp\ccf1qWep.o
 .debug_loc     0x0000000000001484      0x107 C:\Users\ajarr\AppData\Local\Temp\cclXIhGd.o
 .debug_loc     0x000000000000158b      0x1af C:\Users\ajarr\AppData\Local\Temp\cclUyX1f.o
 .debug_loc     0x000000000000173a      0x211 C:\Users\ajarr\AppData\Local\Temp\ccYAcwQn.o
 .debug_loc     0x000000000000194b       0x92 C:\Users\ajarr\AppData\Local\Temp\ccjmXURG.o
 .debug_loc     0x00000000000019dd      0x42a C:\Users\ajarr\AppData\Local\Temp\ccovS4yg.o
 .debug_loc     0x0000000000001e07       0xe8 C:\Users\ajarr\AppData\Local\Temp\ccduqfO0.o
 .debug_loc     0x0000000000001eef       0xfc C:\Users\ajarr\AppData\Local\Temp\ccXhqPVa.o
 .debug_loc     0x0000000000001feb      0x100 C:\Users\ajarr\AppData\Local\Temp\ccNMwkyO.o
 .debug_loc     0x00000000000020eb      0x191 C:\Users\ajarr\AppData\Local\Temp\ccwbk5Wx.o
 .debug_loc     0x000000000000227c       0xe1 C:\Users\ajarr\AppData\Local\Temp\cc1MBP0N.o
 .debug_loc     0x000000000000235d       0x20 C:\Users\ajarr\AppData\Local\Temp\cc8WbBCy.o
 .debug_loc     0x000000000000237d      0x486 C:\Users\ajarr\AppData\Local\Temp\cc8e2yNj.o
 .debug_loc     0x0000000000002803      0x409 C:\Users\ajarr\AppData\Local\Temp\ccjuLCXH.o
 .debug_loc     0x0000000000002c0c      0x566 C:\Users\ajarr\AppData\Local\Temp\ccGb5JPl.o
 .debug_loc     0x0000000000003172      0x1a4 c:/opt/bcc-2.0.2-gcc/bin/../lib/gcc/sparc-gaisler-elf/7.2.0/../../../../sparc-gaisler-elf/lib/leon/mfix-at697f\libm.a(lib_a-s_atan.o)
 .debug_loc     0x0000000000003316       0x84 c:/opt/bcc-2.0.2-gcc/bin/../lib/gcc/sparc-gaisler-elf/7.2.0/../../../../sparc-gaisler-elf/lib/leon/mfix-at697f\libm.a(lib_a-s_cos.o)
 .debug_loc     0x000000000000339a       0x61 c:/opt/bcc-2.0.2-gcc/bin/../lib/gcc/sparc-gaisler-elf/7.2.0/../../../../sparc-gaisler-elf/lib/leon/mfix-at697f\libm.a(lib_a-s_fabs.o)
 .debug_loc     0x00000000000033fb      0x1f0 c:/opt/bcc-2.0.2-gcc/bin/../lib/gcc/sparc-gaisler-elf/7.2.0/../../../../sparc-gaisler-elf/lib/leon/mfix-at697f\libm.a(lib_a-s_floor.o)
 .debug_loc     0x00000000000035eb      0x139 c:/opt/bcc-2.0.2-gcc/bin/../lib/gcc/sparc-gaisler-elf/7.2.0/../../../../sparc-gaisler-elf/lib/leon/mfix-at697f\libm.a(lib_a-s_round.o)
 .debug_loc     0x0000000000003724       0x84 c:/opt/bcc-2.0.2-gcc/bin/../lib/gcc/sparc-gaisler-elf/7.2.0/../../../../sparc-gaisler-elf/lib/leon/mfix-at697f\libm.a(lib_a-s_sin.o)
 .debug_loc     0x00000000000037a8       0x84 c:/opt/bcc-2.0.2-gcc/bin/../lib/gcc/sparc-gaisler-elf/7.2.0/../../../../sparc-gaisler-elf/lib/leon/mfix-at697f\libm.a(lib_a-s_tan.o)
 .debug_loc     0x000000000000382c       0x62 c:/opt/bcc-2.0.2-gcc/bin/../lib/gcc/sparc-gaisler-elf/7.2.0/../../../../sparc-gaisler-elf/lib/leon/mfix-at697f\libm.a(lib_a-w_acos.o)
 .debug_loc     0x000000000000388e       0x62 c:/opt/bcc-2.0.2-gcc/bin/../lib/gcc/sparc-gaisler-elf/7.2.0/../../../../sparc-gaisler-elf/lib/leon/mfix-at697f\libm.a(lib_a-w_asin.o)
 .debug_loc     0x00000000000038f0       0x9c c:/opt/bcc-2.0.2-gcc/bin/../lib/gcc/sparc-gaisler-elf/7.2.0/../../../../sparc-gaisler-elf/lib/leon/mfix-at697f\libm.a(lib_a-w_fmod.o)
 .debug_loc     0x000000000000398c      0x128 c:/opt/bcc-2.0.2-gcc/bin/../lib/gcc/sparc-gaisler-elf/7.2.0/../../../../sparc-gaisler-elf/lib/leon/mfix-at697f\libm.a(lib_a-w_pow.o)
 .debug_loc     0x0000000000003ab4       0x74 c:/opt/bcc-2.0.2-gcc/bin/../lib/gcc/sparc-gaisler-elf/7.2.0/../../../../sparc-gaisler-elf/lib/leon/mfix-at697f\libm.a(lib_a-w_sqrt.o)
 .debug_loc     0x0000000000003b28      0x134 c:/opt/bcc-2.0.2-gcc/bin/../lib/gcc/sparc-gaisler-elf/7.2.0/../../../../sparc-gaisler-elf/lib/leon/mfix-at697f\libm.a(lib_a-e_acos.o)
 .debug_loc     0x0000000000003c5c      0x14e c:/opt/bcc-2.0.2-gcc/bin/../lib/gcc/sparc-gaisler-elf/7.2.0/../../../../sparc-gaisler-elf/lib/leon/mfix-at697f\libm.a(lib_a-e_asin.o)
 .debug_loc     0x0000000000003daa      0x1aa c:/opt/bcc-2.0.2-gcc/bin/../lib/gcc/sparc-gaisler-elf/7.2.0/../../../../sparc-gaisler-elf/lib/leon/mfix-at697f\libm.a(lib_a-e_atan2.o)
 .debug_loc     0x0000000000003f54      0x499 c:/opt/bcc-2.0.2-gcc/bin/../lib/gcc/sparc-gaisler-elf/7.2.0/../../../../sparc-gaisler-elf/lib/leon/mfix-at697f\libm.a(lib_a-e_fmod.o)
 .debug_loc     0x00000000000043ed      0xb51 c:/opt/bcc-2.0.2-gcc/bin/../lib/gcc/sparc-gaisler-elf/7.2.0/../../../../sparc-gaisler-elf/lib/leon/mfix-at697f\libm.a(lib_a-e_pow.o)
 .debug_loc     0x0000000000004f3e      0x3b9 c:/opt/bcc-2.0.2-gcc/bin/../lib/gcc/sparc-gaisler-elf/7.2.0/../../../../sparc-gaisler-elf/lib/leon/mfix-at697f\libm.a(lib_a-e_rem_pio2.o)
 .debug_loc     0x00000000000052f7      0x2ed c:/opt/bcc-2.0.2-gcc/bin/../lib/gcc/sparc-gaisler-elf/7.2.0/../../../../sparc-gaisler-elf/lib/leon/mfix-at697f\libm.a(lib_a-e_sqrt.o)
 .debug_loc     0x00000000000055e4      0x122 c:/opt/bcc-2.0.2-gcc/bin/../lib/gcc/sparc-gaisler-elf/7.2.0/../../../../sparc-gaisler-elf/lib/leon/mfix-at697f\libm.a(lib_a-k_cos.o)
 .debug_loc     0x0000000000005706      0x694 c:/opt/bcc-2.0.2-gcc/bin/../lib/gcc/sparc-gaisler-elf/7.2.0/../../../../sparc-gaisler-elf/lib/leon/mfix-at697f\libm.a(lib_a-k_rem_pio2.o)
 .debug_loc     0x0000000000005d9a       0xa5 c:/opt/bcc-2.0.2-gcc/bin/../lib/gcc/sparc-gaisler-elf/7.2.0/../../../../sparc-gaisler-elf/lib/leon/mfix-at697f\libm.a(lib_a-k_sin.o)
 .debug_loc     0x0000000000005e3f      0x2ed c:/opt/bcc-2.0.2-gcc/bin/../lib/gcc/sparc-gaisler-elf/7.2.0/../../../../sparc-gaisler-elf/lib/leon/mfix-at697f\libm.a(lib_a-k_tan.o)
 .debug_loc     0x000000000000612c       0x18 c:/opt/bcc-2.0.2-gcc/bin/../lib/gcc/sparc-gaisler-elf/7.2.0/../../../../sparc-gaisler-elf/lib/leon/mfix-at697f\libm.a(lib_a-s_finite.o)
 .debug_loc     0x0000000000006144       0x13 c:/opt/bcc-2.0.2-gcc/bin/../lib/gcc/sparc-gaisler-elf/7.2.0/../../../../sparc-gaisler-elf/lib/leon/mfix-at697f\libm.a(lib_a-s_matherr.o)
 .debug_loc     0x0000000000006157      0x1e1 c:/opt/bcc-2.0.2-gcc/bin/../lib/gcc/sparc-gaisler-elf/7.2.0/../../../../sparc-gaisler-elf/lib/leon/mfix-at697f\libm.a(lib_a-s_rint.o)
 .debug_loc     0x0000000000006338      0x1b9 c:/opt/bcc-2.0.2-gcc/bin/../lib/gcc/sparc-gaisler-elf/7.2.0/../../../../sparc-gaisler-elf/lib/leon/mfix-at697f\libm.a(lib_a-s_scalbn.o)
 .debug_loc     0x00000000000064f1       0x79 c:/opt/bcc-2.0.2-gcc/bin/../lib/gcc/sparc-gaisler-elf/7.2.0/../../../../sparc-gaisler-elf/lib/leon/mfix-at697f\libm.a(lib_a-s_copysign.o)
 .debug_loc     0x000000000000656a      0x10a c:/opt/bcc-2.0.2-gcc/bin/../sparc-gaisler-elf/bsp/leon2/leon/mfix-at697f\libbcc.a(trap.c.o)
 .debug_loc     0x0000000000006674      0x155 c:/opt/bcc-2.0.2-gcc/bin/../sparc-gaisler-elf/bsp/leon2/leon/mfix-at697f\libbcc.a(int_leon2.c.o)
 .debug_loc     0x00000000000067c9       0x13 c:/opt/bcc-2.0.2-gcc/bin/../sparc-gaisler-elf/bsp/leon2/leon/mfix-at697f\libbcc.a(con_leon2.c.o)
 .debug_loc     0x00000000000067dc       0x13 c:/opt/bcc-2.0.2-gcc/bin/../sparc-gaisler-elf/bsp/leon2/leon/mfix-at697f\libbcc.a(timer_leon2.c.o)
 .debug_loc     0x00000000000067ef       0x1e c:/opt/bcc-2.0.2-gcc/bin/../lib/gcc/sparc-gaisler-elf/7.2.0/../../../../sparc-gaisler-elf/lib/leon/mfix-at697f\libc.a(lib_a-atexit.o)
 .debug_loc     0x000000000000680d       0x3e c:/opt/bcc-2.0.2-gcc/bin/../lib/gcc/sparc-gaisler-elf/7.2.0/../../../../sparc-gaisler-elf/lib/leon/mfix-at697f\libc.a(lib_a-exit.o)
 .debug_loc     0x000000000000684b      0x197 c:/opt/bcc-2.0.2-gcc/bin/../lib/gcc/sparc-gaisler-elf/7.2.0/../../../../sparc-gaisler-elf/lib/leon/mfix-at697f\libc.a(lib_a-memcpy.o)
 .debug_loc     0x00000000000069e2      0x121 c:/opt/bcc-2.0.2-gcc/bin/../lib/gcc/sparc-gaisler-elf/7.2.0/../../../../sparc-gaisler-elf/lib/leon/mfix-at697f\libc.a(lib_a-__atexit.o)
 .debug_loc     0x0000000000006b03      0x1b3 c:/opt/bcc-2.0.2-gcc/bin/../lib/gcc/sparc-gaisler-elf/7.2.0/../../../../sparc-gaisler-elf/lib/leon/mfix-at697f\libc.a(lib_a-__call_atexit.o)

.comment        0x0000000000000000       0x18
 .comment       0x0000000000000000       0x18 c:/opt/bcc-2.0.2-gcc/bin/../lib/gcc/sparc-gaisler-elf/7.2.0/leon/mfix-at697f/crtbegin.o
                                         0x19 (size before relaxing)
 .comment       0x0000000000000018       0x19 C:\Users\ajarr\AppData\Local\Temp\ccgtKLQ9.o
 .comment       0x0000000000000018       0x19 C:\Users\ajarr\AppData\Local\Temp\ccZ3M43h.o
 .comment       0x0000000000000018       0x19 C:\Users\ajarr\AppData\Local\Temp\ccnGtmfO.o
 .comment       0x0000000000000018       0x19 C:\Users\ajarr\AppData\Local\Temp\ccEMnW47.o
 .comment       0x0000000000000018       0x19 C:\Users\ajarr\AppData\Local\Temp\ccxnFfLM.o
 .comment       0x0000000000000018       0x19 C:\Users\ajarr\AppData\Local\Temp\cczbQmCd.o
 .comment       0x0000000000000018       0x19 C:\Users\ajarr\AppData\Local\Temp\ccp71scL.o
 .comment       0x0000000000000018       0x19 C:\Users\ajarr\AppData\Local\Temp\ccf1qWep.o
 .comment       0x0000000000000018       0x19 C:\Users\ajarr\AppData\Local\Temp\cclXIhGd.o
 .comment       0x0000000000000018       0x19 C:\Users\ajarr\AppData\Local\Temp\cclUyX1f.o
 .comment       0x0000000000000018       0x19 C:\Users\ajarr\AppData\Local\Temp\ccYAcwQn.o
 .comment       0x0000000000000018       0x19 C:\Users\ajarr\AppData\Local\Temp\ccjmXURG.o
 .comment       0x0000000000000018       0x19 C:\Users\ajarr\AppData\Local\Temp\ccovS4yg.o
 .comment       0x0000000000000018       0x19 C:\Users\ajarr\AppData\Local\Temp\ccduqfO0.o
 .comment       0x0000000000000018       0x19 C:\Users\ajarr\AppData\Local\Temp\ccXhqPVa.o
 .comment       0x0000000000000018       0x19 C:\Users\ajarr\AppData\Local\Temp\ccNMwkyO.o
 .comment       0x0000000000000018       0x19 C:\Users\ajarr\AppData\Local\Temp\ccDl90Kv.o
 .comment       0x0000000000000018       0x19 C:\Users\ajarr\AppData\Local\Temp\ccwbk5Wx.o
 .comment       0x0000000000000018       0x19 C:\Users\ajarr\AppData\Local\Temp\cc1MBP0N.o
 .comment       0x0000000000000018       0x19 C:\Users\ajarr\AppData\Local\Temp\cc8WbBCy.o
 .comment       0x0000000000000018       0x19 C:\Users\ajarr\AppData\Local\Temp\cc8e2yNj.o
 .comment       0x0000000000000018       0x19 C:\Users\ajarr\AppData\Local\Temp\ccasxzae.o
 .comment       0x0000000000000018       0x19 C:\Users\ajarr\AppData\Local\Temp\ccjuLCXH.o
 .comment       0x0000000000000018       0x19 C:\Users\ajarr\AppData\Local\Temp\ccGb5JPl.o
 .comment       0x0000000000000018       0x19 C:\Users\ajarr\AppData\Local\Temp\cclaJb28.o
 .comment       0x0000000000000018       0x19 c:/opt/bcc-2.0.2-gcc/bin/../lib/gcc/sparc-gaisler-elf/7.2.0/../../../../sparc-gaisler-elf/lib/leon/mfix-at697f\libm.a(lib_a-s_atan.o)
 .comment       0x0000000000000018       0x19 c:/opt/bcc-2.0.2-gcc/bin/../lib/gcc/sparc-gaisler-elf/7.2.0/../../../../sparc-gaisler-elf/lib/leon/mfix-at697f\libm.a(lib_a-s_cos.o)
 .comment       0x0000000000000018       0x19 c:/opt/bcc-2.0.2-gcc/bin/../lib/gcc/sparc-gaisler-elf/7.2.0/../../../../sparc-gaisler-elf/lib/leon/mfix-at697f\libm.a(lib_a-s_fabs.o)
 .comment       0x0000000000000018       0x19 c:/opt/bcc-2.0.2-gcc/bin/../lib/gcc/sparc-gaisler-elf/7.2.0/../../../../sparc-gaisler-elf/lib/leon/mfix-at697f\libm.a(lib_a-s_floor.o)
 .comment       0x0000000000000018       0x19 c:/opt/bcc-2.0.2-gcc/bin/../lib/gcc/sparc-gaisler-elf/7.2.0/../../../../sparc-gaisler-elf/lib/leon/mfix-at697f\libm.a(lib_a-s_round.o)
 .comment       0x0000000000000018       0x19 c:/opt/bcc-2.0.2-gcc/bin/../lib/gcc/sparc-gaisler-elf/7.2.0/../../../../sparc-gaisler-elf/lib/leon/mfix-at697f\libm.a(lib_a-s_sin.o)
 .comment       0x0000000000000018       0x19 c:/opt/bcc-2.0.2-gcc/bin/../lib/gcc/sparc-gaisler-elf/7.2.0/../../../../sparc-gaisler-elf/lib/leon/mfix-at697f\libm.a(lib_a-s_tan.o)
 .comment       0x0000000000000018       0x19 c:/opt/bcc-2.0.2-gcc/bin/../lib/gcc/sparc-gaisler-elf/7.2.0/../../../../sparc-gaisler-elf/lib/leon/mfix-at697f\libm.a(lib_a-w_acos.o)
 .comment       0x0000000000000018       0x19 c:/opt/bcc-2.0.2-gcc/bin/../lib/gcc/sparc-gaisler-elf/7.2.0/../../../../sparc-gaisler-elf/lib/leon/mfix-at697f\libm.a(lib_a-w_asin.o)
 .comment       0x0000000000000018       0x19 c:/opt/bcc-2.0.2-gcc/bin/../lib/gcc/sparc-gaisler-elf/7.2.0/../../../../sparc-gaisler-elf/lib/leon/mfix-at697f\libm.a(lib_a-w_atan2.o)
 .comment       0x0000000000000018       0x19 c:/opt/bcc-2.0.2-gcc/bin/../lib/gcc/sparc-gaisler-elf/7.2.0/../../../../sparc-gaisler-elf/lib/leon/mfix-at697f\libm.a(lib_a-w_fmod.o)
 .comment       0x0000000000000018       0x19 c:/opt/bcc-2.0.2-gcc/bin/../lib/gcc/sparc-gaisler-elf/7.2.0/../../../../sparc-gaisler-elf/lib/leon/mfix-at697f\libm.a(lib_a-w_pow.o)
 .comment       0x0000000000000018       0x19 c:/opt/bcc-2.0.2-gcc/bin/../lib/gcc/sparc-gaisler-elf/7.2.0/../../../../sparc-gaisler-elf/lib/leon/mfix-at697f\libm.a(lib_a-w_sqrt.o)
 .comment       0x0000000000000018       0x19 c:/opt/bcc-2.0.2-gcc/bin/../lib/gcc/sparc-gaisler-elf/7.2.0/../../../../sparc-gaisler-elf/lib/leon/mfix-at697f\libm.a(lib_a-e_acos.o)
 .comment       0x0000000000000018       0x19 c:/opt/bcc-2.0.2-gcc/bin/../lib/gcc/sparc-gaisler-elf/7.2.0/../../../../sparc-gaisler-elf/lib/leon/mfix-at697f\libm.a(lib_a-e_asin.o)
 .comment       0x0000000000000018       0x19 c:/opt/bcc-2.0.2-gcc/bin/../lib/gcc/sparc-gaisler-elf/7.2.0/../../../../sparc-gaisler-elf/lib/leon/mfix-at697f\libm.a(lib_a-e_atan2.o)
 .comment       0x0000000000000018       0x19 c:/opt/bcc-2.0.2-gcc/bin/../lib/gcc/sparc-gaisler-elf/7.2.0/../../../../sparc-gaisler-elf/lib/leon/mfix-at697f\libm.a(lib_a-e_fmod.o)
 .comment       0x0000000000000018       0x19 c:/opt/bcc-2.0.2-gcc/bin/../lib/gcc/sparc-gaisler-elf/7.2.0/../../../../sparc-gaisler-elf/lib/leon/mfix-at697f\libm.a(lib_a-e_pow.o)
 .comment       0x0000000000000018       0x19 c:/opt/bcc-2.0.2-gcc/bin/../lib/gcc/sparc-gaisler-elf/7.2.0/../../../../sparc-gaisler-elf/lib/leon/mfix-at697f\libm.a(lib_a-e_rem_pio2.o)
 .comment       0x0000000000000018       0x19 c:/opt/bcc-2.0.2-gcc/bin/../lib/gcc/sparc-gaisler-elf/7.2.0/../../../../sparc-gaisler-elf/lib/leon/mfix-at697f\libm.a(lib_a-e_sqrt.o)
 .comment       0x0000000000000018       0x19 c:/opt/bcc-2.0.2-gcc/bin/../lib/gcc/sparc-gaisler-elf/7.2.0/../../../../sparc-gaisler-elf/lib/leon/mfix-at697f\libm.a(lib_a-k_cos.o)
 .comment       0x0000000000000018       0x19 c:/opt/bcc-2.0.2-gcc/bin/../lib/gcc/sparc-gaisler-elf/7.2.0/../../../../sparc-gaisler-elf/lib/leon/mfix-at697f\libm.a(lib_a-k_rem_pio2.o)
 .comment       0x0000000000000018       0x19 c:/opt/bcc-2.0.2-gcc/bin/../lib/gcc/sparc-gaisler-elf/7.2.0/../../../../sparc-gaisler-elf/lib/leon/mfix-at697f\libm.a(lib_a-k_sin.o)
 .comment       0x0000000000000018       0x19 c:/opt/bcc-2.0.2-gcc/bin/../lib/gcc/sparc-gaisler-elf/7.2.0/../../../../sparc-gaisler-elf/lib/leon/mfix-at697f\libm.a(lib_a-k_tan.o)
 .comment       0x0000000000000018       0x19 c:/opt/bcc-2.0.2-gcc/bin/../lib/gcc/sparc-gaisler-elf/7.2.0/../../../../sparc-gaisler-elf/lib/leon/mfix-at697f\libm.a(lib_a-s_finite.o)
 .comment       0x0000000000000018       0x19 c:/opt/bcc-2.0.2-gcc/bin/../lib/gcc/sparc-gaisler-elf/7.2.0/../../../../sparc-gaisler-elf/lib/leon/mfix-at697f\libm.a(lib_a-s_lib_ver.o)
 .comment       0x0000000000000018       0x19 c:/opt/bcc-2.0.2-gcc/bin/../lib/gcc/sparc-gaisler-elf/7.2.0/../../../../sparc-gaisler-elf/lib/leon/mfix-at697f\libm.a(lib_a-s_matherr.o)
 .comment       0x0000000000000018       0x19 c:/opt/bcc-2.0.2-gcc/bin/../lib/gcc/sparc-gaisler-elf/7.2.0/../../../../sparc-gaisler-elf/lib/leon/mfix-at697f\libm.a(lib_a-s_nan.o)
 .comment       0x0000000000000018       0x19 c:/opt/bcc-2.0.2-gcc/bin/../lib/gcc/sparc-gaisler-elf/7.2.0/../../../../sparc-gaisler-elf/lib/leon/mfix-at697f\libm.a(lib_a-s_rint.o)
 .comment       0x0000000000000018       0x19 c:/opt/bcc-2.0.2-gcc/bin/../lib/gcc/sparc-gaisler-elf/7.2.0/../../../../sparc-gaisler-elf/lib/leon/mfix-at697f\libm.a(lib_a-s_scalbn.o)
 .comment       0x0000000000000018       0x19 c:/opt/bcc-2.0.2-gcc/bin/../lib/gcc/sparc-gaisler-elf/7.2.0/../../../../sparc-gaisler-elf/lib/leon/mfix-at697f\libm.a(lib_a-s_copysign.o)
 .comment       0x0000000000000018       0x19 c:/opt/bcc-2.0.2-gcc/bin/../sparc-gaisler-elf/bsp/leon2/leon/mfix-at697f\libbcc.a(trap.c.o)
 .comment       0x0000000000000018       0x19 c:/opt/bcc-2.0.2-gcc/bin/../sparc-gaisler-elf/bsp/leon2/leon/mfix-at697f\libbcc.a(isr.c.o)
 .comment       0x0000000000000018       0x19 c:/opt/bcc-2.0.2-gcc/bin/../sparc-gaisler-elf/bsp/leon2/leon/mfix-at697f\libbcc.a(int_nest.c.o)
 .comment       0x0000000000000018       0x19 c:/opt/bcc-2.0.2-gcc/bin/../sparc-gaisler-elf/bsp/leon2/leon/mfix-at697f\libbcc.a(copy_data.c.o)
 .comment       0x0000000000000018       0x19 c:/opt/bcc-2.0.2-gcc/bin/../sparc-gaisler-elf/bsp/leon2/leon/mfix-at697f\libbcc.a(int_leon2.c.o)
 .comment       0x0000000000000018       0x19 c:/opt/bcc-2.0.2-gcc/bin/../sparc-gaisler-elf/bsp/leon2/leon/mfix-at697f\libbcc.a(int_leon2_get_source.c.o)
 .comment       0x0000000000000018       0x19 c:/opt/bcc-2.0.2-gcc/bin/../sparc-gaisler-elf/bsp/leon2/leon/mfix-at697f\libbcc.a(int_leon2_init.c.o)
 .comment       0x0000000000000018       0x19 c:/opt/bcc-2.0.2-gcc/bin/../sparc-gaisler-elf/bsp/leon2/leon/mfix-at697f\libbcc.a(con_leon2.c.o)
 .comment       0x0000000000000018       0x19 c:/opt/bcc-2.0.2-gcc/bin/../sparc-gaisler-elf/bsp/leon2/leon/mfix-at697f\libbcc.a(timer_leon2.c.o)
 .comment       0x0000000000000018       0x19 c:/opt/bcc-2.0.2-gcc/bin/../sparc-gaisler-elf/bsp/leon2/leon/mfix-at697f\libbcc.a(int_leon2_handle.c.o)
 .comment       0x0000000000000018       0x19 c:/opt/bcc-2.0.2-gcc/bin/../sparc-gaisler-elf/bsp/leon2/leon/mfix-at697f\libbcc.a(con_handle.c.o)
 .comment       0x0000000000000018       0x19 c:/opt/bcc-2.0.2-gcc/bin/../sparc-gaisler-elf/bsp/leon2/leon/mfix-at697f\libbcc.a(timer_handle.c.o)
 .comment       0x0000000000000018       0x19 c:/opt/bcc-2.0.2-gcc/bin/../lib/gcc/sparc-gaisler-elf/7.2.0/../../../../sparc-gaisler-elf/lib/leon/mfix-at697f\libc.a(lib_a-atexit.o)
 .comment       0x0000000000000018       0x19 c:/opt/bcc-2.0.2-gcc/bin/../lib/gcc/sparc-gaisler-elf/7.2.0/../../../../sparc-gaisler-elf/lib/leon/mfix-at697f\libc.a(lib_a-errno.o)
 .comment       0x0000000000000018       0x19 c:/opt/bcc-2.0.2-gcc/bin/../lib/gcc/sparc-gaisler-elf/7.2.0/../../../../sparc-gaisler-elf/lib/leon/mfix-at697f\libc.a(lib_a-exit.o)
 .comment       0x0000000000000018       0x19 c:/opt/bcc-2.0.2-gcc/bin/../lib/gcc/sparc-gaisler-elf/7.2.0/../../../../sparc-gaisler-elf/lib/leon/mfix-at697f\libc.a(lib_a-impure.o)
 .comment       0x0000000000000018       0x19 c:/opt/bcc-2.0.2-gcc/bin/../lib/gcc/sparc-gaisler-elf/7.2.0/../../../../sparc-gaisler-elf/lib/leon/mfix-at697f\libc.a(lib_a-memcpy.o)
 .comment       0x0000000000000018       0x19 c:/opt/bcc-2.0.2-gcc/bin/../lib/gcc/sparc-gaisler-elf/7.2.0/../../../../sparc-gaisler-elf/lib/leon/mfix-at697f\libc.a(lib_a-__atexit.o)
 .comment       0x0000000000000018       0x19 c:/opt/bcc-2.0.2-gcc/bin/../lib/gcc/sparc-gaisler-elf/7.2.0/../../../../sparc-gaisler-elf/lib/leon/mfix-at697f\libc.a(lib_a-__call_atexit.o)
 .comment       0x0000000000000018       0x19 c:/opt/bcc-2.0.2-gcc/bin/../lib/gcc/sparc-gaisler-elf/7.2.0/leon/mfix-at697f/crtend.o

.gnu.attributes
                0x0000000000000000       0x10
 .gnu.attributes
                0x0000000000000000       0x10 C:\Users\ajarr\AppData\Local\Temp\ccNMwkyO.o
 .gnu.attributes
                0x0000000000000010       0x10 C:\Users\ajarr\AppData\Local\Temp\ccwbk5Wx.o
 .gnu.attributes
                0x0000000000000020       0x10 C:\Users\ajarr\AppData\Local\Temp\cc8WbBCy.o
 .gnu.attributes
                0x0000000000000030       0x10 C:\Users\ajarr\AppData\Local\Temp\cc8e2yNj.o
 .gnu.attributes
                0x0000000000000040       0x10 C:\Users\ajarr\AppData\Local\Temp\ccGb5JPl.o
 .gnu.attributes
                0x0000000000000050       0x10 c:/opt/bcc-2.0.2-gcc/bin/../lib/gcc/sparc-gaisler-elf/7.2.0/../../../../sparc-gaisler-elf/lib/leon/mfix-at697f\libm.a(lib_a-k_rem_pio2.o)

.debug_macinfo
 *(.debug_macinfo)

.debug_weaknames
 *(.debug_weaknames)

.debug_funcnames
 *(.debug_funcnames)

.debug_typenames
 *(.debug_typenames)

.debug_varnames
 *(.debug_varnames)
LOAD c:/opt/bcc-2.0.2-gcc/bin/../lib/gcc/sparc-gaisler-elf/7.2.0/leon/mfix-at697f\libgcc.a
START GROUP
LOAD c:/opt/bcc-2.0.2-gcc/bin/../sparc-gaisler-elf/bsp/leon2/leon/mfix-at697f\libbcc.a
LOAD c:/opt/bcc-2.0.2-gcc/bin/../lib/gcc/sparc-gaisler-elf/7.2.0/../../../../sparc-gaisler-elf/lib/leon/mfix-at697f\libc.a
END GROUP
LOAD c:/opt/bcc-2.0.2-gcc/bin/../lib/gcc/sparc-gaisler-elf/7.2.0/leon/mfix-at697f\libgcc.a
LOAD c:/opt/bcc-2.0.2-gcc/bin/../lib/gcc/sparc-gaisler-elf/7.2.0/leon/mfix-at697f/crtend.o
LOAD c:/opt/bcc-2.0.2-gcc/bin/../lib/gcc/sparc-gaisler-elf/7.2.0/leon/mfix-at697f/crtn.o
OUTPUT(rsat-obc.elf elf32-sparc)
