Archive member included to satisfy reference by file (symbol)

c:/opt/bcc-2.0.2-gcc/bin/../lib/gcc/sparc-gaisler-elf/7.2.0/../../../../sparc-gaisler-elf/lib/leon/mfix-at697f\libm.a(lib_a-s_atan.o)
                              C:\Users\Bhagawat\AppData\Local\Temp\cc5ogaUY.o (atan)
c:/opt/bcc-2.0.2-gcc/bin/../lib/gcc/sparc-gaisler-elf/7.2.0/../../../../sparc-gaisler-elf/lib/leon/mfix-at697f\libm.a(lib_a-s_cos.o)
                              C:\Users\Bhagawat\AppData\Local\Temp\ccSFvBJa.o (cos)
c:/opt/bcc-2.0.2-gcc/bin/../lib/gcc/sparc-gaisler-elf/7.2.0/../../../../sparc-gaisler-elf/lib/leon/mfix-at697f\libm.a(lib_a-s_fabs.o)
                              c:/opt/bcc-2.0.2-gcc/bin/../lib/gcc/sparc-gaisler-elf/7.2.0/../../../../sparc-gaisler-elf/lib/leon/mfix-at697f\libm.a(lib_a-s_atan.o) (fabs)
c:/opt/bcc-2.0.2-gcc/bin/../lib/gcc/sparc-gaisler-elf/7.2.0/../../../../sparc-gaisler-elf/lib/leon/mfix-at697f\libm.a(lib_a-s_floor.o)
                              C:\Users\Bhagawat\AppData\Local\Temp\ccQjljxZ.o (floor)
c:/opt/bcc-2.0.2-gcc/bin/../lib/gcc/sparc-gaisler-elf/7.2.0/../../../../sparc-gaisler-elf/lib/leon/mfix-at697f\libm.a(lib_a-s_sin.o)
                              C:\Users\Bhagawat\AppData\Local\Temp\ccSFvBJa.o (sin)
c:/opt/bcc-2.0.2-gcc/bin/../lib/gcc/sparc-gaisler-elf/7.2.0/../../../../sparc-gaisler-elf/lib/leon/mfix-at697f\libm.a(lib_a-s_tan.o)
                              C:\Users\Bhagawat\AppData\Local\Temp\cc5ogaUY.o (tan)
c:/opt/bcc-2.0.2-gcc/bin/../lib/gcc/sparc-gaisler-elf/7.2.0/../../../../sparc-gaisler-elf/lib/leon/mfix-at697f\libm.a(lib_a-w_acos.o)
                              C:\Users\Bhagawat\AppData\Local\Temp\ccRqxX1h.o (acos)
c:/opt/bcc-2.0.2-gcc/bin/../lib/gcc/sparc-gaisler-elf/7.2.0/../../../../sparc-gaisler-elf/lib/leon/mfix-at697f\libm.a(lib_a-w_atan2.o)
                              C:\Users\Bhagawat\AppData\Local\Temp\cc5ogaUY.o (atan2)
c:/opt/bcc-2.0.2-gcc/bin/../lib/gcc/sparc-gaisler-elf/7.2.0/../../../../sparc-gaisler-elf/lib/leon/mfix-at697f\libm.a(lib_a-w_fmod.o)
                              C:\Users\Bhagawat\AppData\Local\Temp\ccQjljxZ.o (fmod)
c:/opt/bcc-2.0.2-gcc/bin/../lib/gcc/sparc-gaisler-elf/7.2.0/../../../../sparc-gaisler-elf/lib/leon/mfix-at697f\libm.a(lib_a-w_pow.o)
                              C:\Users\Bhagawat\AppData\Local\Temp\ccRqxX1h.o (pow)
c:/opt/bcc-2.0.2-gcc/bin/../lib/gcc/sparc-gaisler-elf/7.2.0/../../../../sparc-gaisler-elf/lib/leon/mfix-at697f\libm.a(lib_a-w_sqrt.o)
                              C:\Users\Bhagawat\AppData\Local\Temp\ccAFUHm4.o (sqrt)
c:/opt/bcc-2.0.2-gcc/bin/../lib/gcc/sparc-gaisler-elf/7.2.0/../../../../sparc-gaisler-elf/lib/leon/mfix-at697f\libm.a(lib_a-e_acos.o)
                              c:/opt/bcc-2.0.2-gcc/bin/../lib/gcc/sparc-gaisler-elf/7.2.0/../../../../sparc-gaisler-elf/lib/leon/mfix-at697f\libm.a(lib_a-w_acos.o) (__ieee754_acos)
c:/opt/bcc-2.0.2-gcc/bin/../lib/gcc/sparc-gaisler-elf/7.2.0/../../../../sparc-gaisler-elf/lib/leon/mfix-at697f\libm.a(lib_a-e_atan2.o)
                              c:/opt/bcc-2.0.2-gcc/bin/../lib/gcc/sparc-gaisler-elf/7.2.0/../../../../sparc-gaisler-elf/lib/leon/mfix-at697f\libm.a(lib_a-w_atan2.o) (__ieee754_atan2)
c:/opt/bcc-2.0.2-gcc/bin/../lib/gcc/sparc-gaisler-elf/7.2.0/../../../../sparc-gaisler-elf/lib/leon/mfix-at697f\libm.a(lib_a-e_fmod.o)
                              c:/opt/bcc-2.0.2-gcc/bin/../lib/gcc/sparc-gaisler-elf/7.2.0/../../../../sparc-gaisler-elf/lib/leon/mfix-at697f\libm.a(lib_a-w_fmod.o) (__ieee754_fmod)
c:/opt/bcc-2.0.2-gcc/bin/../lib/gcc/sparc-gaisler-elf/7.2.0/../../../../sparc-gaisler-elf/lib/leon/mfix-at697f\libm.a(lib_a-e_pow.o)
                              c:/opt/bcc-2.0.2-gcc/bin/../lib/gcc/sparc-gaisler-elf/7.2.0/../../../../sparc-gaisler-elf/lib/leon/mfix-at697f\libm.a(lib_a-w_pow.o) (__ieee754_pow)
c:/opt/bcc-2.0.2-gcc/bin/../lib/gcc/sparc-gaisler-elf/7.2.0/../../../../sparc-gaisler-elf/lib/leon/mfix-at697f\libm.a(lib_a-e_rem_pio2.o)
                              c:/opt/bcc-2.0.2-gcc/bin/../lib/gcc/sparc-gaisler-elf/7.2.0/../../../../sparc-gaisler-elf/lib/leon/mfix-at697f\libm.a(lib_a-s_cos.o) (__ieee754_rem_pio2)
c:/opt/bcc-2.0.2-gcc/bin/../lib/gcc/sparc-gaisler-elf/7.2.0/../../../../sparc-gaisler-elf/lib/leon/mfix-at697f\libm.a(lib_a-e_sqrt.o)
                              c:/opt/bcc-2.0.2-gcc/bin/../lib/gcc/sparc-gaisler-elf/7.2.0/../../../../sparc-gaisler-elf/lib/leon/mfix-at697f\libm.a(lib_a-w_sqrt.o) (__ieee754_sqrt)
c:/opt/bcc-2.0.2-gcc/bin/../lib/gcc/sparc-gaisler-elf/7.2.0/../../../../sparc-gaisler-elf/lib/leon/mfix-at697f\libm.a(lib_a-k_cos.o)
                              c:/opt/bcc-2.0.2-gcc/bin/../lib/gcc/sparc-gaisler-elf/7.2.0/../../../../sparc-gaisler-elf/lib/leon/mfix-at697f\libm.a(lib_a-s_cos.o) (__kernel_cos)
c:/opt/bcc-2.0.2-gcc/bin/../lib/gcc/sparc-gaisler-elf/7.2.0/../../../../sparc-gaisler-elf/lib/leon/mfix-at697f\libm.a(lib_a-k_rem_pio2.o)
                              c:/opt/bcc-2.0.2-gcc/bin/../lib/gcc/sparc-gaisler-elf/7.2.0/../../../../sparc-gaisler-elf/lib/leon/mfix-at697f\libm.a(lib_a-e_rem_pio2.o) (__kernel_rem_pio2)
c:/opt/bcc-2.0.2-gcc/bin/../lib/gcc/sparc-gaisler-elf/7.2.0/../../../../sparc-gaisler-elf/lib/leon/mfix-at697f\libm.a(lib_a-k_sin.o)
                              c:/opt/bcc-2.0.2-gcc/bin/../lib/gcc/sparc-gaisler-elf/7.2.0/../../../../sparc-gaisler-elf/lib/leon/mfix-at697f\libm.a(lib_a-s_cos.o) (__kernel_sin)
c:/opt/bcc-2.0.2-gcc/bin/../lib/gcc/sparc-gaisler-elf/7.2.0/../../../../sparc-gaisler-elf/lib/leon/mfix-at697f\libm.a(lib_a-k_tan.o)
                              c:/opt/bcc-2.0.2-gcc/bin/../lib/gcc/sparc-gaisler-elf/7.2.0/../../../../sparc-gaisler-elf/lib/leon/mfix-at697f\libm.a(lib_a-s_tan.o) (__kernel_tan)
c:/opt/bcc-2.0.2-gcc/bin/../lib/gcc/sparc-gaisler-elf/7.2.0/../../../../sparc-gaisler-elf/lib/leon/mfix-at697f\libm.a(lib_a-s_finite.o)
                              c:/opt/bcc-2.0.2-gcc/bin/../lib/gcc/sparc-gaisler-elf/7.2.0/../../../../sparc-gaisler-elf/lib/leon/mfix-at697f\libm.a(lib_a-w_pow.o) (finite)
c:/opt/bcc-2.0.2-gcc/bin/../lib/gcc/sparc-gaisler-elf/7.2.0/../../../../sparc-gaisler-elf/lib/leon/mfix-at697f\libm.a(lib_a-s_lib_ver.o)
                              c:/opt/bcc-2.0.2-gcc/bin/../lib/gcc/sparc-gaisler-elf/7.2.0/../../../../sparc-gaisler-elf/lib/leon/mfix-at697f\libm.a(lib_a-w_acos.o) (__fdlib_version)
c:/opt/bcc-2.0.2-gcc/bin/../lib/gcc/sparc-gaisler-elf/7.2.0/../../../../sparc-gaisler-elf/lib/leon/mfix-at697f\libm.a(lib_a-s_matherr.o)
                              c:/opt/bcc-2.0.2-gcc/bin/../lib/gcc/sparc-gaisler-elf/7.2.0/../../../../sparc-gaisler-elf/lib/leon/mfix-at697f\libm.a(lib_a-w_acos.o) (matherr)
c:/opt/bcc-2.0.2-gcc/bin/../lib/gcc/sparc-gaisler-elf/7.2.0/../../../../sparc-gaisler-elf/lib/leon/mfix-at697f\libm.a(lib_a-s_nan.o)
                              c:/opt/bcc-2.0.2-gcc/bin/../lib/gcc/sparc-gaisler-elf/7.2.0/../../../../sparc-gaisler-elf/lib/leon/mfix-at697f\libm.a(lib_a-w_acos.o) (nan)
c:/opt/bcc-2.0.2-gcc/bin/../lib/gcc/sparc-gaisler-elf/7.2.0/../../../../sparc-gaisler-elf/lib/leon/mfix-at697f\libm.a(lib_a-s_rint.o)
                              c:/opt/bcc-2.0.2-gcc/bin/../lib/gcc/sparc-gaisler-elf/7.2.0/../../../../sparc-gaisler-elf/lib/leon/mfix-at697f\libm.a(lib_a-w_pow.o) (rint)
c:/opt/bcc-2.0.2-gcc/bin/../lib/gcc/sparc-gaisler-elf/7.2.0/../../../../sparc-gaisler-elf/lib/leon/mfix-at697f\libm.a(lib_a-s_scalbn.o)
                              c:/opt/bcc-2.0.2-gcc/bin/../lib/gcc/sparc-gaisler-elf/7.2.0/../../../../sparc-gaisler-elf/lib/leon/mfix-at697f\libm.a(lib_a-e_pow.o) (scalbn)
c:/opt/bcc-2.0.2-gcc/bin/../lib/gcc/sparc-gaisler-elf/7.2.0/../../../../sparc-gaisler-elf/lib/leon/mfix-at697f\libm.a(lib_a-s_copysign.o)
                              c:/opt/bcc-2.0.2-gcc/bin/../lib/gcc/sparc-gaisler-elf/7.2.0/../../../../sparc-gaisler-elf/lib/leon/mfix-at697f\libm.a(lib_a-s_scalbn.o) (copysign)
c:/opt/bcc-2.0.2-gcc/bin/../sparc-gaisler-elf/bsp/leon2/leon/mfix-at697f\libbcc.a(reset_trap_mvt.S.o)
                              c:/opt/bcc-2.0.2-gcc/bin/../sparc-gaisler-elf/bsp/leon2/leon/mfix-at697f/trap_table_mvt.S.o (__bcc_trap_reset_mvt)
c:/opt/bcc-2.0.2-gcc/bin/../sparc-gaisler-elf/bsp/leon2/leon/mfix-at697f\libbcc.a(window_trap.S.o)
                              c:/opt/bcc-2.0.2-gcc/bin/../sparc-gaisler-elf/bsp/leon2/leon/mfix-at697f/trap_table_mvt.S.o (__bcc_trap_window_overflow)
c:/opt/bcc-2.0.2-gcc/bin/../sparc-gaisler-elf/bsp/leon2/leon/mfix-at697f\libbcc.a(interrupt_trap.S.o)
                              c:/opt/bcc-2.0.2-gcc/bin/../sparc-gaisler-elf/bsp/leon2/leon/mfix-at697f/trap_table_mvt.S.o (__bcc_trap_interrupt)
c:/opt/bcc-2.0.2-gcc/bin/../sparc-gaisler-elf/bsp/leon2/leon/mfix-at697f\libbcc.a(flush_windows_trap.S.o)
                              c:/opt/bcc-2.0.2-gcc/bin/../sparc-gaisler-elf/bsp/leon2/leon/mfix-at697f/trap_table_mvt.S.o (__bcc_trap_flush_windows)
c:/opt/bcc-2.0.2-gcc/bin/../sparc-gaisler-elf/bsp/leon2/leon/mfix-at697f\libbcc.a(sw_trap_set_pil.S.o)
                              c:/opt/bcc-2.0.2-gcc/bin/../sparc-gaisler-elf/bsp/leon2/leon/mfix-at697f/trap_table_mvt.S.o (__bcc_trap_sw_set_pil)
c:/opt/bcc-2.0.2-gcc/bin/../sparc-gaisler-elf/bsp/leon2/leon/mfix-at697f\libbcc.a(trap.c.o)
                              C:\Users\Bhagawat\AppData\Local\Temp\ccmG331P.o (bcc_set_trap)
c:/opt/bcc-2.0.2-gcc/bin/../sparc-gaisler-elf/bsp/leon2/leon/mfix-at697f\libbcc.a(isr.c.o)
                              c:/opt/bcc-2.0.2-gcc/bin/../sparc-gaisler-elf/bsp/leon2/leon/mfix-at697f\libbcc.a(interrupt_trap.S.o) (__bcc_isr_list)
c:/opt/bcc-2.0.2-gcc/bin/../sparc-gaisler-elf/bsp/leon2/leon/mfix-at697f\libbcc.a(int_nest.c.o)
                              c:/opt/bcc-2.0.2-gcc/bin/../sparc-gaisler-elf/bsp/leon2/leon/mfix-at697f\libbcc.a(interrupt_trap.S.o) (__bcc_int_nest)
c:/opt/bcc-2.0.2-gcc/bin/../sparc-gaisler-elf/bsp/leon2/leon/mfix-at697f\libbcc.a(init.S.o)
                              c:/opt/bcc-2.0.2-gcc/bin/../sparc-gaisler-elf/bsp/leon2/leon/mfix-at697f\libbcc.a(reset_trap_mvt.S.o) (__bcc_init40)
c:/opt/bcc-2.0.2-gcc/bin/../sparc-gaisler-elf/bsp/leon2/leon/mfix-at697f\libbcc.a(leon_info.S.o)
                              c:/opt/bcc-2.0.2-gcc/bin/../sparc-gaisler-elf/bsp/leon2/leon/mfix-at697f/crt0.S.o (__bcc_get_leon_info)
c:/opt/bcc-2.0.2-gcc/bin/../sparc-gaisler-elf/bsp/leon2/leon/mfix-at697f\libbcc.a(dwzero.S.o)
                              c:/opt/bcc-2.0.2-gcc/bin/../sparc-gaisler-elf/bsp/leon2/leon/mfix-at697f/crt0.S.o (bcc_dwzero)
c:/opt/bcc-2.0.2-gcc/bin/../sparc-gaisler-elf/bsp/leon2/leon/mfix-at697f\libbcc.a(copy_data.c.o)
                              c:/opt/bcc-2.0.2-gcc/bin/../sparc-gaisler-elf/bsp/leon2/leon/mfix-at697f/crt0.S.o (__bcc_copy_data)
c:/opt/bcc-2.0.2-gcc/bin/../sparc-gaisler-elf/bsp/leon2/leon/mfix-at697f\libbcc.a(lowlevel.S.o)
                              c:/opt/bcc-2.0.2-gcc/bin/../sparc-gaisler-elf/bsp/leon2/leon/mfix-at697f\libbcc.a(trap.c.o) (bcc_get_tbr)
c:/opt/bcc-2.0.2-gcc/bin/../sparc-gaisler-elf/bsp/leon2/leon/mfix-at697f\libbcc.a(lowlevel_leon2.S.o)
                              C:\Users\Bhagawat\AppData\Local\Temp\ccmG331P.o (bcc_flush_cache)
c:/opt/bcc-2.0.2-gcc/bin/../sparc-gaisler-elf/bsp/leon2/leon/mfix-at697f\libbcc.a(int_leon2.c.o)
                              C:\Users\Bhagawat\AppData\Local\Temp\ccmG331P.o (bcc_int_unmask)
c:/opt/bcc-2.0.2-gcc/bin/../sparc-gaisler-elf/bsp/leon2/leon/mfix-at697f\libbcc.a(int_leon2_get_source.c.o)
                              c:/opt/bcc-2.0.2-gcc/bin/../sparc-gaisler-elf/bsp/leon2/leon/mfix-at697f\libbcc.a(interrupt_trap.S.o) (__bcc_int_get_source)
c:/opt/bcc-2.0.2-gcc/bin/../sparc-gaisler-elf/bsp/leon2/leon/mfix-at697f\libbcc.a(int_leon2_init.c.o)
                              c:/opt/bcc-2.0.2-gcc/bin/../sparc-gaisler-elf/bsp/leon2/leon/mfix-at697f/crt0.S.o (__bcc_int_init)
c:/opt/bcc-2.0.2-gcc/bin/../sparc-gaisler-elf/bsp/leon2/leon/mfix-at697f\libbcc.a(con_leon2.c.o)
                              c:/opt/bcc-2.0.2-gcc/bin/../sparc-gaisler-elf/bsp/leon2/leon/mfix-at697f/crt0.S.o (__bcc_con_init)
c:/opt/bcc-2.0.2-gcc/bin/../sparc-gaisler-elf/bsp/leon2/leon/mfix-at697f\libbcc.a(timer_leon2.c.o)
                              c:/opt/bcc-2.0.2-gcc/bin/../sparc-gaisler-elf/bsp/leon2/leon/mfix-at697f/crt0.S.o (__bcc_timer_init)
c:/opt/bcc-2.0.2-gcc/bin/../sparc-gaisler-elf/bsp/leon2/leon/mfix-at697f\libbcc.a(set_pil.S.o)
                              c:/opt/bcc-2.0.2-gcc/bin/../sparc-gaisler-elf/bsp/leon2/leon/mfix-at697f\libbcc.a(int_leon2.c.o) (bcc_set_pil)
c:/opt/bcc-2.0.2-gcc/bin/../sparc-gaisler-elf/bsp/leon2/leon/mfix-at697f\libbcc.a(int_leon2_handle.c.o)
                              c:/opt/bcc-2.0.2-gcc/bin/../sparc-gaisler-elf/bsp/leon2/leon/mfix-at697f\libbcc.a(int_leon2.c.o) (__bcc_int_handle)
c:/opt/bcc-2.0.2-gcc/bin/../sparc-gaisler-elf/bsp/leon2/leon/mfix-at697f\libbcc.a(con_handle.c.o)
                              c:/opt/bcc-2.0.2-gcc/bin/../sparc-gaisler-elf/bsp/leon2/leon/mfix-at697f\libbcc.a(con_leon2.c.o) (__bcc_con_handle)
c:/opt/bcc-2.0.2-gcc/bin/../sparc-gaisler-elf/bsp/leon2/leon/mfix-at697f\libbcc.a(timer_handle.c.o)
                              c:/opt/bcc-2.0.2-gcc/bin/../sparc-gaisler-elf/bsp/leon2/leon/mfix-at697f\libbcc.a(timer_leon2.c.o) (__bcc_timer_handle)
c:/opt/bcc-2.0.2-gcc/bin/../lib/gcc/sparc-gaisler-elf/7.2.0/../../../../sparc-gaisler-elf/lib/leon/mfix-at697f\libc.a(lib_a-atexit.o)
                              c:/opt/bcc-2.0.2-gcc/bin/../sparc-gaisler-elf/bsp/leon2/leon/mfix-at697f/crt0.S.o (atexit)
c:/opt/bcc-2.0.2-gcc/bin/../lib/gcc/sparc-gaisler-elf/7.2.0/../../../../sparc-gaisler-elf/lib/leon/mfix-at697f\libc.a(lib_a-errno.o)
                              c:/opt/bcc-2.0.2-gcc/bin/../lib/gcc/sparc-gaisler-elf/7.2.0/../../../../sparc-gaisler-elf/lib/leon/mfix-at697f\libm.a(lib_a-w_acos.o) (__errno)
c:/opt/bcc-2.0.2-gcc/bin/../lib/gcc/sparc-gaisler-elf/7.2.0/../../../../sparc-gaisler-elf/lib/leon/mfix-at697f\libc.a(lib_a-exit.o)
                              c:/opt/bcc-2.0.2-gcc/bin/../sparc-gaisler-elf/bsp/leon2/leon/mfix-at697f/crt0.S.o (exit)
c:/opt/bcc-2.0.2-gcc/bin/../lib/gcc/sparc-gaisler-elf/7.2.0/../../../../sparc-gaisler-elf/lib/leon/mfix-at697f\libc.a(lib_a-impure.o)
                              c:/opt/bcc-2.0.2-gcc/bin/../lib/gcc/sparc-gaisler-elf/7.2.0/../../../../sparc-gaisler-elf/lib/leon/mfix-at697f\libc.a(lib_a-exit.o) (_global_impure_ptr)
c:/opt/bcc-2.0.2-gcc/bin/../lib/gcc/sparc-gaisler-elf/7.2.0/../../../../sparc-gaisler-elf/lib/leon/mfix-at697f\libc.a(lib_a-memcpy.o)
                              C:\Users\Bhagawat\AppData\Local\Temp\ccSFvBJa.o (memcpy)
c:/opt/bcc-2.0.2-gcc/bin/../lib/gcc/sparc-gaisler-elf/7.2.0/../../../../sparc-gaisler-elf/lib/leon/mfix-at697f\libc.a(lib_a-__atexit.o)
                              c:/opt/bcc-2.0.2-gcc/bin/../lib/gcc/sparc-gaisler-elf/7.2.0/../../../../sparc-gaisler-elf/lib/leon/mfix-at697f\libc.a(lib_a-atexit.o) (__register_exitproc)
c:/opt/bcc-2.0.2-gcc/bin/../lib/gcc/sparc-gaisler-elf/7.2.0/../../../../sparc-gaisler-elf/lib/leon/mfix-at697f\libc.a(lib_a-__call_atexit.o)
                              c:/opt/bcc-2.0.2-gcc/bin/../lib/gcc/sparc-gaisler-elf/7.2.0/../../../../sparc-gaisler-elf/lib/leon/mfix-at697f\libc.a(lib_a-exit.o) (__call_exitprocs)
c:/opt/bcc-2.0.2-gcc/bin/../sparc-gaisler-elf/bsp/leon2/leon/mfix-at697f\libbcc.a(_exit.S.o)
                              c:/opt/bcc-2.0.2-gcc/bin/../lib/gcc/sparc-gaisler-elf/7.2.0/../../../../sparc-gaisler-elf/lib/leon/mfix-at697f\libc.a(lib_a-exit.o) (_exit)

Allocating common symbols
Common symbol       size              file

inclo               0x8               C:\Users\Bhagawat\AppData\Local\Temp\ccCmOWXC.o
rk_Qk               0x288             C:\Users\Bhagawat\AppData\Local\Temp\ccCmOWXC.o
DPM_Polarity        0xc               C:\Users\Bhagawat\AppData\Local\Temp\ccCmOWXC.o
rl                  0x8               C:\Users\Bhagawat\AppData\Local\Temp\ccCmOWXC.o
X_MDO2ECI           0x18              C:\Users\Bhagawat\AppData\Local\Temp\ccCmOWXC.o
CB_Q_propagation    0x4               C:\Users\Bhagawat\AppData\Local\Temp\ccCmOWXC.o
TC_lat_station      0x8               C:\Users\Bhagawat\AppData\Local\Temp\ccCmOWXC.o
BDOT_Reduction_Count
                    0x4               C:\Users\Bhagawat\AppData\Local\Temp\ccCmOWXC.o
vz                  0x8               C:\Users\Bhagawat\AppData\Local\Temp\ccCmOWXC.o
f_EKF2_prop_en      0x4               C:\Users\Bhagawat\AppData\Local\Temp\ccCmOWXC.o
i_jday              0x4               C:\Users\Bhagawat\AppData\Local\Temp\ccCmOWXC.o
GPS_count_TM        0x4               C:\Users\Bhagawat\AppData\Local\Temp\ccP2pYow.o
Rho                 0x8               C:\Users\Bhagawat\AppData\Local\Temp\ccCmOWXC.o
OrbitModel_Start    0x4               C:\Users\Bhagawat\AppData\Local\Temp\ccCmOWXC.o
delmo               0x8               C:\Users\Bhagawat\AppData\Local\Temp\ccCmOWXC.o
d_DAD               0x8               C:\Users\Bhagawat\AppData\Local\Temp\ccCmOWXC.o
q_prop_out          0x20              C:\Users\Bhagawat\AppData\Local\Temp\ccCmOWXC.o
ActWhMom            0x20              C:\Users\Bhagawat\AppData\Local\Temp\ccCmOWXC.o
JDTDT               0x8               C:\Users\Bhagawat\AppData\Local\Temp\ccCmOWXC.o
Z_EPO2ECI           0x18              C:\Users\Bhagawat\AppData\Local\Temp\ccCmOWXC.o
sampling_rate_count
                    0x4               C:\Users\Bhagawat\AppData\Local\Temp\ccF3JHAe.o
DeltaT_Updated      0x4               C:\Users\Bhagawat\AppData\Local\Temp\ccCmOWXC.o
R_MDO_CB            0x48              C:\Users\Bhagawat\AppData\Local\Temp\ccCmOWXC.o
J_MAGAD             0x4               C:\Users\Bhagawat\AppData\Local\Temp\ccCmOWXC.o
rw_count_test       0x1               C:\Users\Bhagawat\AppData\Local\Temp\ccBLkweo.o
trueanomoly_GPS     0x8               C:\Users\Bhagawat\AppData\Local\Temp\ccCmOWXC.o
latitude_temp       0x8               C:\Users\Bhagawat\AppData\Local\Temp\ccCmOWXC.o
wcreci              0x18              C:\Users\Bhagawat\AppData\Local\Temp\ccCmOWXC.o
xlm                 0x8               C:\Users\Bhagawat\AppData\Local\Temp\ccCmOWXC.o
Qk_temp4            0x8               C:\Users\Bhagawat\AppData\Local\Temp\ccCmOWXC.o
Q_MDO2ECI           0x20              C:\Users\Bhagawat\AppData\Local\Temp\ccCmOWXC.o
inter_HAL_IMU_Data  0x4               C:\Users\Bhagawat\AppData\Local\Temp\ccSFvBJa.o
tut                 0x8               C:\Users\Bhagawat\AppData\Local\Temp\ccCmOWXC.o
TC_HAL_SA_Heater_Timer
                    0x4               C:\Users\Bhagawat\AppData\Local\Temp\ccsgz4so.o
del                 0x8               C:\Users\Bhagawat\AppData\Local\Temp\ccCmOWXC.o
kfv_dot             0x20              C:\Users\Bhagawat\AppData\Local\Temp\ccCmOWXC.o
epochdays_sel       0x8               C:\Users\Bhagawat\AppData\Local\Temp\ccCmOWXC.o
Orbit_Period_Comp   0x8               C:\Users\Bhagawat\AppData\Local\Temp\ccCmOWXC.o
RW_Data_SlipFrame_TC
                    0x14              C:\Users\Bhagawat\AppData\Local\Temp\ccBLkweo.o
t3                  0x8               C:\Users\Bhagawat\AppData\Local\Temp\ccCmOWXC.o
HB                  0x18              C:\Users\Bhagawat\AppData\Local\Temp\ccCmOWXC.o
Out_Latch_1         0x2               C:\Users\Bhagawat\AppData\Local\Temp\ccmG331P.o
Tdes                0x18              C:\Users\Bhagawat\AppData\Local\Temp\ccCmOWXC.o
wkm                 0x8               C:\Users\Bhagawat\AppData\Local\Temp\ccCmOWXC.o
IO_Latch_Register_5_Data
                    0x4               C:\Users\Bhagawat\AppData\Local\Temp\ccmG331P.o
sun_quadrant        0x4               C:\Users\Bhagawat\AppData\Local\Temp\ccCmOWXC.o
func_prev_DAD       0x8               C:\Users\Bhagawat\AppData\Local\Temp\ccCmOWXC.o
pk_plus             0x288             C:\Users\Bhagawat\AppData\Local\Temp\ccCmOWXC.o
pbk                 0x8               C:\Users\Bhagawat\AppData\Local\Temp\ccCmOWXC.o
nodedf              0x8               C:\Users\Bhagawat\AppData\Local\Temp\ccCmOWXC.o
PL_Exe_Flag         0x4               C:\Users\Bhagawat\AppData\Local\Temp\ccbuJliF.o
BNorth              0x8               C:\Users\Bhagawat\AppData\Local\Temp\ccCmOWXC.o
NRB_sunmag          0xc0              C:\Users\Bhagawat\AppData\Local\Temp\ccCmOWXC.o
mod_of_w_k          0x8               C:\Users\Bhagawat\AppData\Local\Temp\ccCmOWXC.o
B_rawdata           0xc               C:\Users\Bhagawat\AppData\Local\Temp\ccCmOWXC.o
GPS_Status_Data     0x4               C:\Users\Bhagawat\AppData\Local\Temp\ccP2pYow.o
Del_Q               0x20              C:\Users\Bhagawat\AppData\Local\Temp\ccCmOWXC.o
longitude_tan_den   0x8               C:\Users\Bhagawat\AppData\Local\Temp\ccCmOWXC.o
pow_psisq           0x8               C:\Users\Bhagawat\AppData\Local\Temp\ccCmOWXC.o
wcrecef             0x18              C:\Users\Bhagawat\AppData\Local\Temp\ccCmOWXC.o
argpdf              0x8               C:\Users\Bhagawat\AppData\Local\Temp\ccCmOWXC.o
GPS_OBT_Read_2      0x4               C:\Users\Bhagawat\AppData\Local\Temp\ccP2pYow.o
inter_HAL_TM_Write_Word_Count
                    0x4               C:\Users\Bhagawat\AppData\Local\Temp\ccmG331P.o
rvdot               0x8               C:\Users\Bhagawat\AppData\Local\Temp\ccCmOWXC.o
RW_Data_SlipFrame_Init
                    0x14              C:\Users\Bhagawat\AppData\Local\Temp\ccBLkweo.o
q_by_two            0x60              C:\Users\Bhagawat\AppData\Local\Temp\ccCmOWXC.o
RW_TM_ptr           0x4               C:\Users\Bhagawat\AppData\Local\Temp\ccBLkweo.o
Auto_manual_speed_sel
                    0x1               C:\Users\Bhagawat\AppData\Local\Temp\ccBLkweo.o
SS_M8               0x8               C:\Users\Bhagawat\AppData\Local\Temp\ccCmOWXC.o
theta_prsn          0x8               C:\Users\Bhagawat\AppData\Local\Temp\ccCmOWXC.o
RW1s                0x2               C:\Users\Bhagawat\AppData\Local\Temp\ccFLNK2X.o
mag_noise           0x8               C:\Users\Bhagawat\AppData\Local\Temp\ccCmOWXC.o
IMU_On              0x4               C:\Users\Bhagawat\AppData\Local\Temp\ccSFvBJa.o
Y_SVO2ECI           0x18              C:\Users\Bhagawat\AppData\Local\Temp\ccCmOWXC.o
b_k                 0x18              C:\Users\Bhagawat\AppData\Local\Temp\ccCmOWXC.o
cc2                 0x8               C:\Users\Bhagawat\AppData\Local\Temp\ccCmOWXC.o
TC_gain_select_u    0x1c              C:\Users\Bhagawat\AppData\Local\Temp\ccmG331P.o
TC_delAT            0x8               C:\Users\Bhagawat\AppData\Local\Temp\ccCmOWXC.o
mat_sm_DataCounter  0x4               C:\Users\Bhagawat\AppData\Local\Temp\ccCmOWXC.o
delomg              0x8               C:\Users\Bhagawat\AppData\Local\Temp\ccCmOWXC.o
root_DAD            0x8               C:\Users\Bhagawat\AppData\Local\Temp\ccCmOWXC.o
ST_TC_history_Buffer
                    0x100             C:\Users\Bhagawat\AppData\Local\Temp\ccmG331P.o
rt_tm_frame_finish  0x1               C:\Users\Bhagawat\AppData\Local\Temp\ccmG331P.o
func_DAD            0x8               C:\Users\Bhagawat\AppData\Local\Temp\ccCmOWXC.o
TC_ptr_count        0x4               C:\Users\Bhagawat\AppData\Local\Temp\ccSFvBJa.o
minor_cycle_counter_test
                    0x4               C:\Users\Bhagawat\AppData\Local\Temp\ccmG331P.o
cosi                0x8               C:\Users\Bhagawat\AppData\Local\Temp\ccCmOWXC.o
xhdot1              0x8               C:\Users\Bhagawat\AppData\Local\Temp\ccCmOWXC.o
ibexp_TLE_tc        0x8               C:\Users\Bhagawat\AppData\Local\Temp\ccCmOWXC.o
omgcof              0x8               C:\Users\Bhagawat\AppData\Local\Temp\ccCmOWXC.o
phi_11_temp4        0x48              C:\Users\Bhagawat\AppData\Local\Temp\ccCmOWXC.o
eeprom_cur_addr     0x4               C:\Users\Bhagawat\AppData\Local\Temp\ccmG331P.o
w_REF               0x18              C:\Users\Bhagawat\AppData\Local\Temp\ccCmOWXC.o
tempe               0x8               C:\Users\Bhagawat\AppData\Local\Temp\ccCmOWXC.o
mu_m                0x18              C:\Users\Bhagawat\AppData\Local\Temp\ccCmOWXC.o
el2                 0x8               C:\Users\Bhagawat\AppData\Local\Temp\ccCmOWXC.o
w_k                 0x18              C:\Users\Bhagawat\AppData\Local\Temp\ccCmOWXC.o
MUX_data2           0x2               C:\Users\Bhagawat\AppData\Local\Temp\ccFLNK2X.o
Q_angle             0x8               C:\Users\Bhagawat\AppData\Local\Temp\ccCmOWXC.o
BDOT_Counter        0x4               C:\Users\Bhagawat\AppData\Local\Temp\ccCmOWXC.o
a_DAD               0x8               C:\Users\Bhagawat\AppData\Local\Temp\ccCmOWXC.o
gpstestbuff         0x44              C:\Users\Bhagawat\AppData\Local\Temp\ccP2pYow.o
Orbit_Period        0x8               C:\Users\Bhagawat\AppData\Local\Temp\ccCmOWXC.o
ADC_Buffer_Addr     0x4               C:\Users\Bhagawat\AppData\Local\Temp\cc4J82Fr.o
Normal_st_table_page1
                    0x4               C:\Users\Bhagawat\AppData\Local\Temp\ccmG331P.o
hk_xk_minus         0x18              C:\Users\Bhagawat\AppData\Local\Temp\ccCmOWXC.o
f_Sunlit_Presence_timer
                    0x4               C:\Users\Bhagawat\AppData\Local\Temp\ccCmOWXC.o
BlkCurrent_Cmd      0x4               C:\Users\Bhagawat\AppData\Local\Temp\ccFLNK2X.o
ADC_Status_Data     0x4               C:\Users\Bhagawat\AppData\Local\Temp\cc4J82Fr.o
count_tc_hist       0x4               C:\Users\Bhagawat\AppData\Local\Temp\ccmG331P.o
MUX_1               0x2               C:\Users\Bhagawat\AppData\Local\Temp\ccmG331P.o
GPS_Config_ptr      0x4               C:\Users\Bhagawat\AppData\Local\Temp\ccP2pYow.o
nutation            0x48              C:\Users\Bhagawat\AppData\Local\Temp\ccCmOWXC.o
GPS1                0x40              C:\Users\Bhagawat\AppData\Local\Temp\ccmG331P.o
bstar_sel           0x8               C:\Users\Bhagawat\AppData\Local\Temp\ccCmOWXC.o
Y_SFDO2ECI          0x18              C:\Users\Bhagawat\AppData\Local\Temp\ccCmOWXC.o
az1                 0x8               C:\Users\Bhagawat\AppData\Local\Temp\ccCmOWXC.o
ss_data_2           0x10              C:\Users\Bhagawat\AppData\Local\Temp\cc4J82Fr.o
inter_HAL_IMU_Configure_Address
                    0x4               C:\Users\Bhagawat\AppData\Local\Temp\ccSFvBJa.o
Zt_DAD              0x18              C:\Users\Bhagawat\AppData\Local\Temp\ccCmOWXC.o
aft_statn_cnt       0x4               C:\Users\Bhagawat\AppData\Local\Temp\ccCmOWXC.o
sine_of_Wk1_Delta   0x8               C:\Users\Bhagawat\AppData\Local\Temp\ccCmOWXC.o
Special_st_table_page3
                    0x4               C:\Users\Bhagawat\AppData\Local\Temp\ccmG331P.o
delmo_temp          0x8               C:\Users\Bhagawat\AppData\Local\Temp\ccCmOWXC.o
temp_or_init        0x8               C:\Users\Bhagawat\AppData\Local\Temp\ccCmOWXC.o
vsatx_eci           0x8               C:\Users\Bhagawat\AppData\Local\Temp\ccCmOWXC.o
TTDT                0x8               C:\Users\Bhagawat\AppData\Local\Temp\ccCmOWXC.o
mm                  0x8               C:\Users\Bhagawat\AppData\Local\Temp\ccCmOWXC.o
Norm_ST_Table       0x2028            C:\Users\Bhagawat\AppData\Local\Temp\ccmG331P.o
ecc_temp1           0x8               C:\Users\Bhagawat\AppData\Local\Temp\ccCmOWXC.o
bstar_tc            0x8               C:\Users\Bhagawat\AppData\Local\Temp\ccCmOWXC.o
intermediate        0x8               C:\Users\Bhagawat\AppData\Local\Temp\ccCmOWXC.o
gN_MAGAD            0x4               C:\Users\Bhagawat\AppData\Local\Temp\ccCmOWXC.o
kfI_MAT_w0          0x18              C:\Users\Bhagawat\AppData\Local\Temp\ccCmOWXC.o
Delta_TLE           0x8               C:\Users\Bhagawat\AppData\Local\Temp\ccCmOWXC.o
tos                 0x4               C:\Users\Bhagawat\AppData\Local\Temp\ccSFvBJa.o
eeprom_chksum       0x4               C:\Users\Bhagawat\AppData\Local\Temp\ccmG331P.o
rtom                0x8               C:\Users\Bhagawat\AppData\Local\Temp\ccCmOWXC.o
sinu                0x8               C:\Users\Bhagawat\AppData\Local\Temp\ccCmOWXC.o
CB_OrbitModel       0x4               C:\Users\Bhagawat\AppData\Local\Temp\ccCmOWXC.o
j                   0x4               C:\Users\Bhagawat\AppData\Local\Temp\ccCmOWXC.o
Ry                  0x48              C:\Users\Bhagawat\AppData\Local\Temp\ccCmOWXC.o
ch_obs_whsp         0x20              C:\Users\Bhagawat\AppData\Local\Temp\ccCmOWXC.o
Pl_tm_data          0x100             C:\Users\Bhagawat\AppData\Local\Temp\ccmG331P.o
TM                  0x801             C:\Users\Bhagawat\AppData\Local\Temp\ccmG331P.o
k_kf                0x4               C:\Users\Bhagawat\AppData\Local\Temp\ccCmOWXC.o
u_perp              0x18              C:\Users\Bhagawat\AppData\Local\Temp\ccCmOWXC.o
SWHW_STATUS         0x4               C:\Users\Bhagawat\AppData\Local\Temp\ccmG331P.o
cp_cnt1             0x4               C:\Users\Bhagawat\AppData\Local\Temp\ccF3JHAe.o
Ton                 0xc               C:\Users\Bhagawat\AppData\Local\Temp\ccCmOWXC.o
determinant         0x8               C:\Users\Bhagawat\AppData\Local\Temp\ccCmOWXC.o
Pitch_MTREnable     0x4               C:\Users\Bhagawat\AppData\Local\Temp\ccCmOWXC.o
hils_ptr_sh         0x4               C:\Users\Bhagawat\AppData\Local\Temp\ccbuJliF.o
TC_OBT_Start        0x4               C:\Users\Bhagawat\AppData\Local\Temp\ccF3JHAe.o
gyrodet_B           0x18              C:\Users\Bhagawat\AppData\Local\Temp\ccCmOWXC.o
SunAcq3ThreeAx_trsit_cnt
                    0x4               C:\Users\Bhagawat\AppData\Local\Temp\ccCmOWXC.o
TTDB2               0x8               C:\Users\Bhagawat\AppData\Local\Temp\ccCmOWXC.o
eccsq               0x8               C:\Users\Bhagawat\AppData\Local\Temp\ccCmOWXC.o
eccanomaly          0x8               C:\Users\Bhagawat\AppData\Local\Temp\ccCmOWXC.o
TC_count            0x2               C:\Users\Bhagawat\AppData\Local\Temp\ccFLNK2X.o
spin_up_avg_count   0x4               C:\Users\Bhagawat\AppData\Local\Temp\ccCmOWXC.o
TC_GPS2TLE_Switch   0x4               C:\Users\Bhagawat\AppData\Local\Temp\ccCmOWXC.o
ecc_GPS             0x8               C:\Users\Bhagawat\AppData\Local\Temp\ccCmOWXC.o
NOB_SFC_Init        0x4               C:\Users\Bhagawat\AppData\Local\Temp\ccBLkweo.o
radialdistance      0x8               C:\Users\Bhagawat\AppData\Local\Temp\ccCmOWXC.o
BNorth_old          0x8               C:\Users\Bhagawat\AppData\Local\Temp\ccCmOWXC.o
uy                  0x8               C:\Users\Bhagawat\AppData\Local\Temp\ccCmOWXC.o
pl_configure_data   0x4               C:\Users\Bhagawat\AppData\Local\Temp\ccbuJliF.o
DFCcountHigh        0x4               C:\Users\Bhagawat\AppData\Local\Temp\ccCmOWXC.o
hr_TLE_tc           0x4               C:\Users\Bhagawat\AppData\Local\Temp\ccCmOWXC.o
Nodearray           0x2ee0            C:\Users\Bhagawat\AppData\Local\Temp\ccFLNK2X.o
q_magad             0x350             C:\Users\Bhagawat\AppData\Local\Temp\ccCmOWXC.o
aynl                0x8               C:\Users\Bhagawat\AppData\Local\Temp\ccCmOWXC.o
perigee             0x8               C:\Users\Bhagawat\AppData\Local\Temp\ccCmOWXC.o
Day_Of_Year_DeltaT  0x8               C:\Users\Bhagawat\AppData\Local\Temp\ccCmOWXC.o
Del_R_theta         0x8               C:\Users\Bhagawat\AppData\Local\Temp\ccCmOWXC.o
Z_SVO2ECI           0x18              C:\Users\Bhagawat\AppData\Local\Temp\ccCmOWXC.o
heater_update_buffer
                    0x40              C:\Users\Bhagawat\AppData\Local\Temp\cc5opyBQ.o
ST_TCH_frame_count  0x2               C:\Users\Bhagawat\AppData\Local\Temp\ccmG331P.o
TCH_dump_finish     0x4               C:\Users\Bhagawat\AppData\Local\Temp\ccmG331P.o
UT1                 0x8               C:\Users\Bhagawat\AppData\Local\Temp\ccCmOWXC.o
nut_temp            0x48              C:\Users\Bhagawat\AppData\Local\Temp\ccCmOWXC.o
SB_RED              0x18              C:\Users\Bhagawat\AppData\Local\Temp\ccCmOWXC.o
Major_Cycle_Count   0x4               C:\Users\Bhagawat\AppData\Local\Temp\ccmG331P.o
GPS_msg_header_MSB  0x4               C:\Users\Bhagawat\AppData\Local\Temp\ccP2pYow.o
Antenna_ACKf        0x1               C:\Users\Bhagawat\AppData\Local\Temp\ccsgz4so.o
inter_TM_Pl_Buffer  0x4               C:\Users\Bhagawat\AppData\Local\Temp\ccmG331P.o
inter_sunsensor_i   0x4               C:\Users\Bhagawat\AppData\Local\Temp\ccCmOWXC.o
T_RWBn              0x18              C:\Users\Bhagawat\AppData\Local\Temp\ccCmOWXC.o
SC6ImaxF            0x8               C:\Users\Bhagawat\AppData\Local\Temp\ccCmOWXC.o
Roll_MTR_Pol_Reversal
                    0x4               C:\Users\Bhagawat\AppData\Local\Temp\ccCmOWXC.o
GYRO_Counter        0x4               C:\Users\Bhagawat\AppData\Local\Temp\ccCmOWXC.o
trueanomoly         0x8               C:\Users\Bhagawat\AppData\Local\Temp\ccCmOWXC.o
inter_ST_TC_TM_Minor_Cycle_Count
                    0x4               C:\Users\Bhagawat\AppData\Local\Temp\ccmG331P.o
ST_normal           0x148             C:\Users\Bhagawat\AppData\Local\Temp\ccmG331P.o
temp2               0x8               C:\Users\Bhagawat\AppData\Local\Temp\ccCmOWXC.o
B_LPF               0x18              C:\Users\Bhagawat\AppData\Local\Temp\ccCmOWXC.o
TC_input_cmd        0x8               C:\Users\Bhagawat\AppData\Local\Temp\ccmG331P.o
TC_TLE_Elements_select
                    0x4               C:\Users\Bhagawat\AppData\Local\Temp\ccCmOWXC.o
TLE_Select          0x4               C:\Users\Bhagawat\AppData\Local\Temp\ccCmOWXC.o
PL_TM_write_Flag    0x4               C:\Users\Bhagawat\AppData\Local\Temp\ccbuJliF.o
cos_and_sin         0x80              C:\Users\Bhagawat\AppData\Local\Temp\ccCmOWXC.o
SunAcq2DetMode_counter
                    0x4               C:\Users\Bhagawat\AppData\Local\Temp\ccCmOWXC.o
TC_w_miscor_IMU2    0x18              C:\Users\Bhagawat\AppData\Local\Temp\ccFLNK2X.o
ST_end_read         0x4               C:\Users\Bhagawat\AppData\Local\Temp\ccmG331P.o
thermistor_15       0x4               C:\Users\Bhagawat\AppData\Local\Temp\cc4J82Fr.o
rw_init             0xb               C:\Users\Bhagawat\AppData\Local\Temp\ccBLkweo.o
Hils_ptr            0x4               C:\Users\Bhagawat\AppData\Local\Temp\ccbuJliF.o
f                   0x28              C:\Users\Bhagawat\AppData\Local\Temp\ccCmOWXC.o
ST_start_read       0x4               C:\Users\Bhagawat\AppData\Local\Temp\ccmG331P.o
TC_MDk              0x8               C:\Users\Bhagawat\AppData\Local\Temp\ccCmOWXC.o
Vel_ECIn            0x18              C:\Users\Bhagawat\AppData\Local\Temp\ccCmOWXC.o
UTC_mon_GPS         0x4               C:\Users\Bhagawat\AppData\Local\Temp\ccCmOWXC.o
Antenna_ACK         0x2               C:\Users\Bhagawat\AppData\Local\Temp\ccsgz4so.o
B2wh_mat            0x60              C:\Users\Bhagawat\AppData\Local\Temp\ccCmOWXC.o
SC5                 0x8               C:\Users\Bhagawat\AppData\Local\Temp\ccCmOWXC.o
Delta_by2           0x8               C:\Users\Bhagawat\AppData\Local\Temp\ccCmOWXC.o
Q_EPO2ECI           0x20              C:\Users\Bhagawat\AppData\Local\Temp\ccCmOWXC.o
inter_imu_i         0x4               C:\Users\Bhagawat\AppData\Local\Temp\ccCmOWXC.o
old_cos             0x8               C:\Users\Bhagawat\AppData\Local\Temp\ccCmOWXC.o
flag_for_test       0x4               C:\Users\Bhagawat\AppData\Local\Temp\ccF3JHAe.o
ADC_Buffer          0xbc              C:\Users\Bhagawat\AppData\Local\Temp\ccmG331P.o
kfk4                0x20              C:\Users\Bhagawat\AppData\Local\Temp\ccCmOWXC.o
eccanomaly_GPS      0x8               C:\Users\Bhagawat\AppData\Local\Temp\ccCmOWXC.o
sa_data             0x2               C:\Users\Bhagawat\AppData\Local\Temp\ccsgz4so.o
angmomentumvec      0x18              C:\Users\Bhagawat\AppData\Local\Temp\ccCmOWXC.o
B_RPY               0x18              C:\Users\Bhagawat\AppData\Local\Temp\ccCmOWXC.o
out_Quat_norm       0x20              C:\Users\Bhagawat\AppData\Local\Temp\ccCmOWXC.o
cc5                 0x8               C:\Users\Bhagawat\AppData\Local\Temp\ccCmOWXC.o
gast                0x8               C:\Users\Bhagawat\AppData\Local\Temp\ccCmOWXC.o
TC_ST_Table_Row_No  0x4               C:\Users\Bhagawat\AppData\Local\Temp\ccmG331P.o
IMU1_DATA           0x30              C:\Users\Bhagawat\AppData\Local\Temp\ccCmOWXC.o
temp_magad          0x8               C:\Users\Bhagawat\AppData\Local\Temp\ccCmOWXC.o
nut_sid_temp        0x48              C:\Users\Bhagawat\AppData\Local\Temp\ccCmOWXC.o
sec_sel             0x8               C:\Users\Bhagawat\AppData\Local\Temp\ccCmOWXC.o
GPS_counter         0x4               C:\Users\Bhagawat\AppData\Local\Temp\ccP2pYow.o
K_MAGAD             0x4               C:\Users\Bhagawat\AppData\Local\Temp\ccCmOWXC.o
B_REF               0x18              C:\Users\Bhagawat\AppData\Local\Temp\ccCmOWXC.o
ST_Out_Latch_3      0x2               C:\Users\Bhagawat\AppData\Local\Temp\ccmG331P.o
RW2s                0x2               C:\Users\Bhagawat\AppData\Local\Temp\ccFLNK2X.o
omecc               0x8               C:\Users\Bhagawat\AppData\Local\Temp\ccCmOWXC.o
del_v0a             0x8               C:\Users\Bhagawat\AppData\Local\Temp\ccCmOWXC.o
argofperigee        0x8               C:\Users\Bhagawat\AppData\Local\Temp\ccCmOWXC.o
phi_k_T             0x288             C:\Users\Bhagawat\AppData\Local\Temp\ccCmOWXC.o
argpo_tc            0x8               C:\Users\Bhagawat\AppData\Local\Temp\ccCmOWXC.o
Special_source      0x100             C:\Users\Bhagawat\AppData\Local\Temp\ccmG331P.o
Alti_GPS            0x8               C:\Users\Bhagawat\AppData\Local\Temp\ccCmOWXC.o
PL_2_on_off_flag    0x4               C:\Users\Bhagawat\AppData\Local\Temp\ccbuJliF.o
SC5ImaxF            0x8               C:\Users\Bhagawat\AppData\Local\Temp\ccCmOWXC.o
bist_data           0x1               C:\Users\Bhagawat\AppData\Local\Temp\ccP2pYow.o
IMU2_DATA           0x30              C:\Users\Bhagawat\AppData\Local\Temp\ccCmOWXC.o
T_RWB               0x18              C:\Users\Bhagawat\AppData\Local\Temp\ccCmOWXC.o
GPS_Config_Status   0x4               C:\Users\Bhagawat\AppData\Local\Temp\ccP2pYow.o
GPS_Config_Msg      0xc               C:\Users\Bhagawat\AppData\Local\Temp\ccP2pYow.o
Y_MDO2ECI           0x18              C:\Users\Bhagawat\AppData\Local\Temp\ccCmOWXC.o
s_magad             0x8               C:\Users\Bhagawat\AppData\Local\Temp\ccCmOWXC.o
TC_SS_Main_Cells_Sel
                    0x4               C:\Users\Bhagawat\AppData\Local\Temp\ccCmOWXC.o
Sunlit_presence_timer
                    0x4               C:\Users\Bhagawat\AppData\Local\Temp\ccCmOWXC.o
Toff                0xc               C:\Users\Bhagawat\AppData\Local\Temp\ccCmOWXC.o
rdotrst             0x8               C:\Users\Bhagawat\AppData\Local\Temp\ccCmOWXC.o
pl_cmd_id           0x4               C:\Users\Bhagawat\AppData\Local\Temp\ccbuJliF.o
Spacecraft_Mode     0x4               C:\Users\Bhagawat\AppData\Local\Temp\ccCmOWXC.o
h_gcgd              0x8               C:\Users\Bhagawat\AppData\Local\Temp\ccCmOWXC.o
TC_w_sf_IMU2        0xc               C:\Users\Bhagawat\AppData\Local\Temp\ccFLNK2X.o
TC_w_sf_IMU1        0xc               C:\Users\Bhagawat\AppData\Local\Temp\ccFLNK2X.o
B_NED               0x18              C:\Users\Bhagawat\AppData\Local\Temp\ccCmOWXC.o
alpha_2RW           0x8               C:\Users\Bhagawat\AppData\Local\Temp\ccCmOWXC.o
temp1_or_init       0x8               C:\Users\Bhagawat\AppData\Local\Temp\ccCmOWXC.o
prev_obs_whsp_ch    0x20              C:\Users\Bhagawat\AppData\Local\Temp\ccCmOWXC.o
Wk1_one             0x48              C:\Users\Bhagawat\AppData\Local\Temp\ccCmOWXC.o
d1                  0x8               C:\Users\Bhagawat\AppData\Local\Temp\ccCmOWXC.o
coskp               0x8               C:\Users\Bhagawat\AppData\Local\Temp\ccCmOWXC.o
TDB                 0x8               C:\Users\Bhagawat\AppData\Local\Temp\ccCmOWXC.o
SunAcquisition2ThreeAxis_autotransit
                    0x4               C:\Users\Bhagawat\AppData\Local\Temp\ccCmOWXC.o
S_BODY              0x18              C:\Users\Bhagawat\AppData\Local\Temp\ccCmOWXC.o
AngDev_SAMtransit_thrsld
                    0x8               C:\Users\Bhagawat\AppData\Local\Temp\ccCmOWXC.o
f_RW_control        0x4               C:\Users\Bhagawat\AppData\Local\Temp\ccCmOWXC.o
Zt_Ssqr_Z_DAD       0x8               C:\Users\Bhagawat\AppData\Local\Temp\ccCmOWXC.o
f_DataSort_SUNMAG   0x4               C:\Users\Bhagawat\AppData\Local\Temp\ccCmOWXC.o
wheel_spin_logic    0x4               C:\Users\Bhagawat\AppData\Local\Temp\ccCmOWXC.o
sine1               0x8               C:\Users\Bhagawat\AppData\Local\Temp\ccCmOWXC.o
con42               0x8               C:\Users\Bhagawat\AppData\Local\Temp\ccCmOWXC.o
inter_HAL_IMU_Control_Data
                    0x4               C:\Users\Bhagawat\AppData\Local\Temp\ccSFvBJa.o
normal_count1       0x4               C:\Users\Bhagawat\AppData\Local\Temp\ccF3JHAe.o
Epochyear_GPS       0x4               C:\Users\Bhagawat\AppData\Local\Temp\ccCmOWXC.o
Z_MDO2ECI           0x18              C:\Users\Bhagawat\AppData\Local\Temp\ccCmOWXC.o
CB_DutyCycleGeneration
                    0x4               C:\Users\Bhagawat\AppData\Local\Temp\ccCmOWXC.o
eeprom_blk_end_addr
                    0x4               C:\Users\Bhagawat\AppData\Local\Temp\ccmG331P.o
inclination_GPS     0x8               C:\Users\Bhagawat\AppData\Local\Temp\ccCmOWXC.o
pl_data_rcvd        0x4               C:\Users\Bhagawat\AppData\Local\Temp\ccbuJliF.o
Matout341           0x18              C:\Users\Bhagawat\AppData\Local\Temp\ccCmOWXC.o
wh2B_mat            0x60              C:\Users\Bhagawat\AppData\Local\Temp\ccCmOWXC.o
kfv03               0x20              C:\Users\Bhagawat\AppData\Local\Temp\ccCmOWXC.o
ADCS_TC_data_command_Table
                    0x100             C:\Users\Bhagawat\AppData\Local\Temp\ccmG331P.o
xmy                 0x8               C:\Users\Bhagawat\AppData\Local\Temp\ccCmOWXC.o
gps_pulse_mic_cnt   0x2               C:\Users\Bhagawat\AppData\Local\Temp\ccP2pYow.o
gps_data_length     0x4               C:\Users\Bhagawat\AppData\Local\Temp\ccP2pYow.o
uuu                 0x8               C:\Users\Bhagawat\AppData\Local\Temp\ccCmOWXC.o
TAI                 0x8               C:\Users\Bhagawat\AppData\Local\Temp\ccCmOWXC.o
NMB_sunmag          0xc0              C:\Users\Bhagawat\AppData\Local\Temp\ccCmOWXC.o
nodeo_GPS           0x8               C:\Users\Bhagawat\AppData\Local\Temp\ccCmOWXC.o
TC_GPSvalidity_Threshold
                    0x4               C:\Users\Bhagawat\AppData\Local\Temp\ccCmOWXC.o
CB_Torquer_Polarity_Check
                    0x4               C:\Users\Bhagawat\AppData\Local\Temp\ccCmOWXC.o
x7thm1              0x8               C:\Users\Bhagawat\AppData\Local\Temp\ccCmOWXC.o
GPIO_pins           0x2               C:\Users\Bhagawat\AppData\Local\Temp\ccmG331P.o
ak                  0x8               C:\Users\Bhagawat\AppData\Local\Temp\ccCmOWXC.o
ecc_TLE_tc          0x8               C:\Users\Bhagawat\AppData\Local\Temp\ccCmOWXC.o
Tv_wof              0x48              C:\Users\Bhagawat\AppData\Local\Temp\ccCmOWXC.o
CB_AngularMomentumDumping
                    0x4               C:\Users\Bhagawat\AppData\Local\Temp\ccCmOWXC.o
LossWhMomFilt       0x20              C:\Users\Bhagawat\AppData\Local\Temp\ccCmOWXC.o
temp12              0x8               C:\Users\Bhagawat\AppData\Local\Temp\ccCmOWXC.o
abc                 0x4               C:\Users\Bhagawat\AppData\Local\Temp\ccFLNK2X.o
Panel_Deployment    0x4               C:\Users\Bhagawat\AppData\Local\Temp\ccCmOWXC.o
del_temp            0x8               C:\Users\Bhagawat\AppData\Local\Temp\ccCmOWXC.o
qqbk                0x8               C:\Users\Bhagawat\AppData\Local\Temp\ccCmOWXC.o
mua_gcgd            0x8               C:\Users\Bhagawat\AppData\Local\Temp\ccCmOWXC.o
inter_Update_TM_With_ADC_byte_offset
                    0x4               C:\Users\Bhagawat\AppData\Local\Temp\cc4J82Fr.o
g                   0x780             C:\Users\Bhagawat\AppData\Local\Temp\ccCmOWXC.o
rw_test_array       0x200             C:\Users\Bhagawat\AppData\Local\Temp\ccBLkweo.o
TC_eesqrd           0x8               C:\Users\Bhagawat\AppData\Local\Temp\ccCmOWXC.o
eeta                0x8               C:\Users\Bhagawat\AppData\Local\Temp\ccCmOWXC.o
w_ABC               0x18              C:\Users\Bhagawat\AppData\Local\Temp\ccCmOWXC.o
OBT_at_TLE_epoch    0x4               C:\Users\Bhagawat\AppData\Local\Temp\ccCmOWXC.o
T_NETk              0x18              C:\Users\Bhagawat\AppData\Local\Temp\ccCmOWXC.o
Station_tracking_mode
                    0x1               C:\Users\Bhagawat\AppData\Local\Temp\ccmG331P.o
xnode               0x8               C:\Users\Bhagawat\AppData\Local\Temp\ccCmOWXC.o
tor_counter         0x4               C:\Users\Bhagawat\AppData\Local\Temp\ccCmOWXC.o
B_Rho               0x8               C:\Users\Bhagawat\AppData\Local\Temp\ccCmOWXC.o
rdotl               0x8               C:\Users\Bhagawat\AppData\Local\Temp\ccCmOWXC.o
QRD_vect_norm       0x8               C:\Users\Bhagawat\AppData\Local\Temp\ccCmOWXC.o
Z_DAD               0x18              C:\Users\Bhagawat\AppData\Local\Temp\ccCmOWXC.o
PL_TM_Status_flag   0x2               C:\Users\Bhagawat\AppData\Local\Temp\ccbuJliF.o
semimajoraxis       0x8               C:\Users\Bhagawat\AppData\Local\Temp\ccCmOWXC.o
gmm                 0x4               C:\Users\Bhagawat\AppData\Local\Temp\ccCmOWXC.o
S_REFn              0x18              C:\Users\Bhagawat\AppData\Local\Temp\ccCmOWXC.o
F_k4_temp2          0x48              C:\Users\Bhagawat\AppData\Local\Temp\ccCmOWXC.o
mat_adj             0x48              C:\Users\Bhagawat\AppData\Local\Temp\ccCmOWXC.o
temp_short          0x2               C:\Users\Bhagawat\AppData\Local\Temp\ccBLkweo.o
TorquerPolaritySetFlag
                    0x4               C:\Users\Bhagawat\AppData\Local\Temp\ccCmOWXC.o
CB_RefRate_Computation
                    0x4               C:\Users\Bhagawat\AppData\Local\Temp\ccCmOWXC.o
B_IMU               0x18              C:\Users\Bhagawat\AppData\Local\Temp\ccCmOWXC.o
GPS_Elements_Available
                    0x4               C:\Users\Bhagawat\AppData\Local\Temp\ccCmOWXC.o
NRBt_mag            0x240             C:\Users\Bhagawat\AppData\Local\Temp\ccCmOWXC.o
Kk_Hk               0x288             C:\Users\Bhagawat\AppData\Local\Temp\ccCmOWXC.o
kfk3                0x20              C:\Users\Bhagawat\AppData\Local\Temp\ccCmOWXC.o
Normal_source       0x100             C:\Users\Bhagawat\AppData\Local\Temp\ccmG331P.o
X_EPO2ECI           0x18              C:\Users\Bhagawat\AppData\Local\Temp\ccCmOWXC.o
GPS_OBT_Read_1      0x4               C:\Users\Bhagawat\AppData\Local\Temp\ccP2pYow.o
tempse              0x8               C:\Users\Bhagawat\AppData\Local\Temp\ccCmOWXC.o
TC_SSredt_ImaxF     0x20              C:\Users\Bhagawat\AppData\Local\Temp\ccFLNK2X.o
cosim               0x8               C:\Users\Bhagawat\AppData\Local\Temp\ccCmOWXC.o
CB_SpeedBasedMomentumDumping
                    0x4               C:\Users\Bhagawat\AppData\Local\Temp\ccCmOWXC.o
i_comr              0x4               C:\Users\Bhagawat\AppData\Local\Temp\ccCmOWXC.o
mo_tc               0x8               C:\Users\Bhagawat\AppData\Local\Temp\ccCmOWXC.o
Dest_TC_final_end_addr
                    0x4               C:\Users\Bhagawat\AppData\Local\Temp\ccmG331P.o
MUX_3               0x2               C:\Users\Bhagawat\AppData\Local\Temp\ccmG331P.o
hr_sel              0x4               C:\Users\Bhagawat\AppData\Local\Temp\ccCmOWXC.o
ab_test1            0x4               C:\Users\Bhagawat\AppData\Local\Temp\ccSFvBJa.o
ST_NM_Buffer        0x148             C:\Users\Bhagawat\AppData\Local\Temp\ccmG331P.o
inclm               0x8               C:\Users\Bhagawat\AppData\Local\Temp\ccCmOWXC.o
TC_BDOT_Compute_Count
                    0x4               C:\Users\Bhagawat\AppData\Local\Temp\ccCmOWXC.o
kfv01               0x20              C:\Users\Bhagawat\AppData\Local\Temp\ccCmOWXC.o
TLE_chksum          0x1               C:\Users\Bhagawat\AppData\Local\Temp\ccSFvBJa.o
copy_frame_count    0x4               C:\Users\Bhagawat\AppData\Local\Temp\ccF3JHAe.o
mod_of_Wk1          0x8               C:\Users\Bhagawat\AppData\Local\Temp\ccCmOWXC.o
qzms24_temp         0x8               C:\Users\Bhagawat\AppData\Local\Temp\ccCmOWXC.o
GPS_READ_OBT        0x4               C:\Users\Bhagawat\AppData\Local\Temp\ccCmOWXC.o
S_DAD               0x48              C:\Users\Bhagawat\AppData\Local\Temp\ccCmOWXC.o
input_latch_2       0x2               C:\Users\Bhagawat\AppData\Local\Temp\ccmG331P.o
TCH_full_dump_finish
                    0x4               C:\Users\Bhagawat\AppData\Local\Temp\ccmG331P.o
mm_temp             0x8               C:\Users\Bhagawat\AppData\Local\Temp\ccCmOWXC.o
GPS_PPS_OBT         0x4               C:\Users\Bhagawat\AppData\Local\Temp\ccCmOWXC.o
chksum_tle          0x1               C:\Users\Bhagawat\AppData\Local\Temp\ccCmOWXC.o
temp_temp           0x8               C:\Users\Bhagawat\AppData\Local\Temp\ccCmOWXC.o
pk_HkT_Hk_Rk        0x48              C:\Users\Bhagawat\AppData\Local\Temp\ccCmOWXC.o
TC_hist_data        0xfa00            C:\Users\Bhagawat\AppData\Local\Temp\ccmG331P.o
u_temp              0x8               C:\Users\Bhagawat\AppData\Local\Temp\ccCmOWXC.o
TC_BDOT_Det_Thresh  0x8               C:\Users\Bhagawat\AppData\Local\Temp\ccCmOWXC.o
NMB_NRBt            0x48              C:\Users\Bhagawat\AppData\Local\Temp\ccCmOWXC.o
A3_magad            0x8               C:\Users\Bhagawat\AppData\Local\Temp\ccCmOWXC.o
ecc_temp2           0x8               C:\Users\Bhagawat\AppData\Local\Temp\ccCmOWXC.o
GPS_Buffer_Data     0x1a8             C:\Users\Bhagawat\AppData\Local\Temp\ccP2pYow.o
NOB_CRC_Init        0x4               C:\Users\Bhagawat\AppData\Local\Temp\ccBLkweo.o
sun_sf              0x18              C:\Users\Bhagawat\AppData\Local\Temp\ccCmOWXC.o
year_GPS            0x4               C:\Users\Bhagawat\AppData\Local\Temp\ccCmOWXC.o
TC_exe              0x8               C:\Users\Bhagawat\AppData\Local\Temp\ccFLNK2X.o
Y_SPO2ECI           0x18              C:\Users\Bhagawat\AppData\Local\Temp\ccCmOWXC.o
length              0x4               C:\Users\Bhagawat\AppData\Local\Temp\ccbuJliF.o
SA_thermistor1      0x4               C:\Users\Bhagawat\AppData\Local\Temp\cc4J82Fr.o
sigma_m             0x8               C:\Users\Bhagawat\AppData\Local\Temp\ccCmOWXC.o
CB_ReferenceQuatComputation
                    0x4               C:\Users\Bhagawat\AppData\Local\Temp\ccCmOWXC.o
rhoa_gcgd           0x8               C:\Users\Bhagawat\AppData\Local\Temp\ccCmOWXC.o
sinkp               0x8               C:\Users\Bhagawat\AppData\Local\Temp\ccCmOWXC.o
adj_S_DAD           0x48              C:\Users\Bhagawat\AppData\Local\Temp\ccCmOWXC.o
p_magad             0x350             C:\Users\Bhagawat\AppData\Local\Temp\ccCmOWXC.o
Roll_Pol            0x4               C:\Users\Bhagawat\AppData\Local\Temp\ccjU9hyn.o
GYRO_max_threshold_count
                    0x4               C:\Users\Bhagawat\AppData\Local\Temp\ccCmOWXC.o
day_TLE_tc          0x4               C:\Users\Bhagawat\AppData\Local\Temp\ccCmOWXC.o
Out_latch_4         0x2               C:\Users\Bhagawat\AppData\Local\Temp\ccmG331P.o
TC_SpeedDumpTime    0x8               C:\Users\Bhagawat\AppData\Local\Temp\ccCmOWXC.o
H_retn              0x8               C:\Users\Bhagawat\AppData\Local\Temp\ccCmOWXC.o
w_RPY               0x18              C:\Users\Bhagawat\AppData\Local\Temp\ccCmOWXC.o
Epochyear_TLE_tc    0x4               C:\Users\Bhagawat\AppData\Local\Temp\ccCmOWXC.o
bstar               0x8               C:\Users\Bhagawat\AppData\Local\Temp\ccCmOWXC.o
argpo_GPS           0x8               C:\Users\Bhagawat\AppData\Local\Temp\ccCmOWXC.o
Ang_Deviation       0x8               C:\Users\Bhagawat\AppData\Local\Temp\ccCmOWXC.o
Q_SFDO2ECI          0x20              C:\Users\Bhagawat\AppData\Local\Temp\ccCmOWXC.o
inter_HAL_IMU_Status_Data_2
                    0x2               C:\Users\Bhagawat\AppData\Local\Temp\ccSFvBJa.o
inter_at697f_checksum
                    0x4               C:\Users\Bhagawat\AppData\Local\Temp\ccmG331P.o
B_BODY_IMU2         0x18              C:\Users\Bhagawat\AppData\Local\Temp\ccCmOWXC.o
X_DAD               0x18              C:\Users\Bhagawat\AppData\Local\Temp\ccCmOWXC.o
tempat              0x4               C:\Users\Bhagawat\AppData\Local\Temp\ccSFvBJa.o
SunNPP_SAMtransit   0x4               C:\Users\Bhagawat\AppData\Local\Temp\ccCmOWXC.o
BLK_opn             0x1               C:\Users\Bhagawat\AppData\Local\Temp\ccSFvBJa.o
ss_temp             0x18              C:\Users\Bhagawat\AppData\Local\Temp\ccCmOWXC.o
ecc_temp4           0x8               C:\Users\Bhagawat\AppData\Local\Temp\ccCmOWXC.o
inter_TM_Byte_Count
                    0x4               C:\Users\Bhagawat\AppData\Local\Temp\ccmG331P.o
Vel_ECEF_GPS        0x18              C:\Users\Bhagawat\AppData\Local\Temp\ccCmOWXC.o
PolCheck_LUT        0x4               C:\Users\Bhagawat\AppData\Local\Temp\ccCmOWXC.o
nodecf              0x8               C:\Users\Bhagawat\AppData\Local\Temp\ccCmOWXC.o
Tdeficit            0x18              C:\Users\Bhagawat\AppData\Local\Temp\ccCmOWXC.o
MUX_data3           0x2               C:\Users\Bhagawat\AppData\Local\Temp\ccFLNK2X.o
vecnorm_mag         0x8               C:\Users\Bhagawat\AppData\Local\Temp\ccCmOWXC.o
Vel_ECI_GPS         0x18              C:\Users\Bhagawat\AppData\Local\Temp\ccCmOWXC.o
Q_REF_pres          0x20              C:\Users\Bhagawat\AppData\Local\Temp\ccCmOWXC.o
phi_12_temp3        0x48              C:\Users\Bhagawat\AppData\Local\Temp\ccCmOWXC.o
epochdays           0x8               C:\Users\Bhagawat\AppData\Local\Temp\ccCmOWXC.o
adel                0x8               C:\Users\Bhagawat\AppData\Local\Temp\ccCmOWXC.o
TM_Buffer           0x100             C:\Users\Bhagawat\AppData\Local\Temp\ccmG331P.o
xmcof               0x8               C:\Users\Bhagawat\AppData\Local\Temp\ccCmOWXC.o
ST_SP_Buffer        0x2fd             C:\Users\Bhagawat\AppData\Local\Temp\ccmG331P.o
k                   0x4               C:\Users\Bhagawat\AppData\Local\Temp\ccCmOWXC.o
TCH_read_ptr        0x4               C:\Users\Bhagawat\AppData\Local\Temp\ccmG331P.o
TC_momentum_dumping_gain
                    0x8               C:\Users\Bhagawat\AppData\Local\Temp\ccCmOWXC.o
RW_TMC              0x8               C:\Users\Bhagawat\AppData\Local\Temp\ccBLkweo.o
cosio2              0x8               C:\Users\Bhagawat\AppData\Local\Temp\ccCmOWXC.o
Yk_minus_hk_Kk      0x48              C:\Users\Bhagawat\AppData\Local\Temp\ccCmOWXC.o
inter_TM_Source_Addr
                    0x4               C:\Users\Bhagawat\AppData\Local\Temp\ccmG331P.o
mvt                 0x8               C:\Users\Bhagawat\AppData\Local\Temp\ccCmOWXC.o
Rz                  0x48              C:\Users\Bhagawat\AppData\Local\Temp\ccCmOWXC.o
St_DAD              0x48              C:\Users\Bhagawat\AppData\Local\Temp\ccCmOWXC.o
x1mth2              0x8               C:\Users\Bhagawat\AppData\Local\Temp\ccCmOWXC.o
t2                  0x8               C:\Users\Bhagawat\AppData\Local\Temp\ccCmOWXC.o
B_REFn              0x18              C:\Users\Bhagawat\AppData\Local\Temp\ccCmOWXC.o
z_prsn              0x8               C:\Users\Bhagawat\AppData\Local\Temp\ccCmOWXC.o
Tsince              0x8               C:\Users\Bhagawat\AppData\Local\Temp\ccCmOWXC.o
B_BODYn             0x18              C:\Users\Bhagawat\AppData\Local\Temp\ccCmOWXC.o
nml_output_latch_data
                    0x3               C:\Users\Bhagawat\AppData\Local\Temp\ccmG331P.o
r_delta             0x8               C:\Users\Bhagawat\AppData\Local\Temp\ccCmOWXC.o
F_k4_temp1          0x48              C:\Users\Bhagawat\AppData\Local\Temp\ccCmOWXC.o
var1                0x8               C:\Users\Bhagawat\AppData\Local\Temp\ccCmOWXC.o
epochyr_sel         0x4               C:\Users\Bhagawat\AppData\Local\Temp\ccCmOWXC.o
IMU_temperature     0x4               C:\Users\Bhagawat\AppData\Local\Temp\cc5opyBQ.o
entrytime2eclipse   0x4               C:\Users\Bhagawat\AppData\Local\Temp\ccCmOWXC.o
em                  0x8               C:\Users\Bhagawat\AppData\Local\Temp\ccCmOWXC.o
TM_Table            0x8088            C:\Users\Bhagawat\AppData\Local\Temp\ccmG331P.o
Qk_temp2            0x8               C:\Users\Bhagawat\AppData\Local\Temp\ccCmOWXC.o
Xk_plus_temp        0x18              C:\Users\Bhagawat\AppData\Local\Temp\ccCmOWXC.o
Q_SPO2ECI           0x20              C:\Users\Bhagawat\AppData\Local\Temp\ccCmOWXC.o
W_cross             0x48              C:\Users\Bhagawat\AppData\Local\Temp\ccCmOWXC.o
Vel_ECI             0x18              C:\Users\Bhagawat\AppData\Local\Temp\ccCmOWXC.o
pk_HkT_Hk           0x48              C:\Users\Bhagawat\AppData\Local\Temp\ccCmOWXC.o
battery_temp_2      0x4               C:\Users\Bhagawat\AppData\Local\Temp\cc4J82Fr.o
Tcv_temp            0x18              C:\Users\Bhagawat\AppData\Local\Temp\ccCmOWXC.o
NRS                 0xc0              C:\Users\Bhagawat\AppData\Local\Temp\ccCmOWXC.o
Tdeficit_temp1      0x18              C:\Users\Bhagawat\AppData\Local\Temp\ccCmOWXC.o
gmst_               0x8               C:\Users\Bhagawat\AppData\Local\Temp\ccCmOWXC.o
TC_storing_buffer   0x400             C:\Users\Bhagawat\AppData\Local\Temp\ccFLNK2X.o
psi_sl_ecl          0x8               C:\Users\Bhagawat\AppData\Local\Temp\ccCmOWXC.o
Pitch_MTR_Pol_Reversal
                    0x4               C:\Users\Bhagawat\AppData\Local\Temp\ccCmOWXC.o
rsun                0x18              C:\Users\Bhagawat\AppData\Local\Temp\ccCmOWXC.o
NOB_SFC_TC          0x4               C:\Users\Bhagawat\AppData\Local\Temp\ccBLkweo.o
Yk                  0x18              C:\Users\Bhagawat\AppData\Local\Temp\ccCmOWXC.o
CB_Wheel_Spin_updown
                    0x4               C:\Users\Bhagawat\AppData\Local\Temp\ccCmOWXC.o
SB_MAIN             0x18              C:\Users\Bhagawat\AppData\Local\Temp\ccCmOWXC.o
TC_pend_data        0x8               C:\Users\Bhagawat\AppData\Local\Temp\ccFLNK2X.o
vx                  0x8               C:\Users\Bhagawat\AppData\Local\Temp\ccCmOWXC.o
inttemp             0x4               C:\Users\Bhagawat\AppData\Local\Temp\ccCmOWXC.o
Q_REF_prev          0x20              C:\Users\Bhagawat\AppData\Local\Temp\ccCmOWXC.o
TLE_Data_Available  0x4               C:\Users\Bhagawat\AppData\Local\Temp\ccCmOWXC.o
BEast               0x8               C:\Users\Bhagawat\AppData\Local\Temp\ccCmOWXC.o
SC7                 0x8               C:\Users\Bhagawat\AppData\Local\Temp\ccCmOWXC.o
SunAcq_Ang_Thres    0x8               C:\Users\Bhagawat\AppData\Local\Temp\ccCmOWXC.o
DutyCycleGenEnable  0x4               C:\Users\Bhagawat\AppData\Local\Temp\ccCmOWXC.o
Tmm_actual          0x18              C:\Users\Bhagawat\AppData\Local\Temp\ccCmOWXC.o
SC2                 0x8               C:\Users\Bhagawat\AppData\Local\Temp\ccCmOWXC.o
CB_MagFieldComp     0x4               C:\Users\Bhagawat\AppData\Local\Temp\ccCmOWXC.o
tempa               0x8               C:\Users\Bhagawat\AppData\Local\Temp\ccCmOWXC.o
kfmeas              0x4               C:\Users\Bhagawat\AppData\Local\Temp\ccCmOWXC.o
IMU1_Corr           0x148             C:\Users\Bhagawat\AppData\Local\Temp\ccCmOWXC.o
xsaty_eci           0x8               C:\Users\Bhagawat\AppData\Local\Temp\ccCmOWXC.o
gain_set            0x960             C:\Users\Bhagawat\AppData\Local\Temp\ccmG331P.o
pinvsq              0x8               C:\Users\Bhagawat\AppData\Local\Temp\ccCmOWXC.o
mod_of_Wk1_square   0x8               C:\Users\Bhagawat\AppData\Local\Temp\ccCmOWXC.o
ecc_temp3           0x8               C:\Users\Bhagawat\AppData\Local\Temp\ccCmOWXC.o
count_arc_w3        0x4               C:\Users\Bhagawat\AppData\Local\Temp\ccCmOWXC.o
TC_cmd_executed     0x2               C:\Users\Bhagawat\AppData\Local\Temp\ccFLNK2X.o
DFCcountLow         0x4               C:\Users\Bhagawat\AppData\Local\Temp\ccCmOWXC.o
CB_ExtendedKalmanFilter
                    0x4               C:\Users\Bhagawat\AppData\Local\Temp\ccCmOWXC.o
B_BODY              0x18              C:\Users\Bhagawat\AppData\Local\Temp\ccCmOWXC.o
RW_3                0x10              C:\Users\Bhagawat\AppData\Local\Temp\ccBLkweo.o
RW_2                0x10              C:\Users\Bhagawat\AppData\Local\Temp\ccBLkweo.o
kfH_wh_ind          0x20              C:\Users\Bhagawat\AppData\Local\Temp\ccCmOWXC.o
no_TLE_tc           0x8               C:\Users\Bhagawat\AppData\Local\Temp\ccCmOWXC.o
semi_den            0x8               C:\Users\Bhagawat\AppData\Local\Temp\ccCmOWXC.o
test_data_3         0x2               C:\Users\Bhagawat\AppData\Local\Temp\ccFLNK2X.o
STATION_vector      0x18              C:\Users\Bhagawat\AppData\Local\Temp\ccCmOWXC.o
wks                 0x8               C:\Users\Bhagawat\AppData\Local\Temp\ccCmOWXC.o
Thta_BODY_IMU2      0x18              C:\Users\Bhagawat\AppData\Local\Temp\ccCmOWXC.o
GPS_Buffer_Addr     0x4               C:\Users\Bhagawat\AppData\Local\Temp\ccP2pYow.o
pl_x_tx_data_on_flag
                    0x4               C:\Users\Bhagawat\AppData\Local\Temp\ccbuJliF.o
days_sel            0x4               C:\Users\Bhagawat\AppData\Local\Temp\ccCmOWXC.o
lpfb_k_prev         0x18              C:\Users\Bhagawat\AppData\Local\Temp\ccCmOWXC.o
big_omega           0x80              C:\Users\Bhagawat\AppData\Local\Temp\ccCmOWXC.o
tempdays            0x4               C:\Users\Bhagawat\AppData\Local\Temp\ccCmOWXC.o
Present_OBT         0x4               C:\Users\Bhagawat\AppData\Local\Temp\ccCmOWXC.o
Tsince_TLE_tc       0x8               C:\Users\Bhagawat\AppData\Local\Temp\ccCmOWXC.o
pl_buffer_len       0x4               C:\Users\Bhagawat\AppData\Local\Temp\ccbuJliF.o
X_SPO2ECI_mag       0x8               C:\Users\Bhagawat\AppData\Local\Temp\ccCmOWXC.o
temparg             0x8               C:\Users\Bhagawat\AppData\Local\Temp\ccCmOWXC.o
ibexp_sel           0x8               C:\Users\Bhagawat\AppData\Local\Temp\ccCmOWXC.o
MUX_data1           0x2               C:\Users\Bhagawat\AppData\Local\Temp\ccFLNK2X.o
VelZ_ECEF_GPS       0x8               C:\Users\Bhagawat\AppData\Local\Temp\ccCmOWXC.o
gps_data_test       0x1a8             C:\Users\Bhagawat\AppData\Local\Temp\ccP2pYow.o
TC_detumbling_bdot_gain
                    0x18              C:\Users\Bhagawat\AppData\Local\Temp\ccCmOWXC.o
LPFK1HighSL         0x8               C:\Users\Bhagawat\AppData\Local\Temp\ccCmOWXC.o
PL_TX_TM_2_EN       0x2               C:\Users\Bhagawat\AppData\Local\Temp\ccbuJliF.o
xinc                0x8               C:\Users\Bhagawat\AppData\Local\Temp\ccCmOWXC.o
Twof_veh            0x48              C:\Users\Bhagawat\AppData\Local\Temp\ccCmOWXC.o
mdot                0x8               C:\Users\Bhagawat\AppData\Local\Temp\ccCmOWXC.o
w_AMSC              0x18              C:\Users\Bhagawat\AppData\Local\Temp\ccCmOWXC.o
kfw02               0x18              C:\Users\Bhagawat\AppData\Local\Temp\ccCmOWXC.o
kfg2                0x18              C:\Users\Bhagawat\AppData\Local\Temp\ccCmOWXC.o
kfT_NET             0x18              C:\Users\Bhagawat\AppData\Local\Temp\ccCmOWXC.o
LossWhMom           0x20              C:\Users\Bhagawat\AppData\Local\Temp\ccCmOWXC.o
pl_data_command     0xc               C:\Users\Bhagawat\AppData\Local\Temp\ccmG331P.o
b_DAD               0x8               C:\Users\Bhagawat\AppData\Local\Temp\ccCmOWXC.o
NMS                 0xc0              C:\Users\Bhagawat\AppData\Local\Temp\ccCmOWXC.o
f_station_tracking_enabled
                    0x4               C:\Users\Bhagawat\AppData\Local\Temp\ccCmOWXC.o
kfom                0x80              C:\Users\Bhagawat\AppData\Local\Temp\ccCmOWXC.o
xa_gcgd             0x8               C:\Users\Bhagawat\AppData\Local\Temp\ccCmOWXC.o
TC_GPS_pulse_duration
                    0x4               C:\Users\Bhagawat\AppData\Local\Temp\ccCmOWXC.o
phi_k               0x288             C:\Users\Bhagawat\AppData\Local\Temp\ccCmOWXC.o
xin_temp            0x8               C:\Users\Bhagawat\AppData\Local\Temp\ccCmOWXC.o
UTC_hr_GPS          0x4               C:\Users\Bhagawat\AppData\Local\Temp\ccCmOWXC.o
Yaw_ang_err         0x8               C:\Users\Bhagawat\AppData\Local\Temp\ccCmOWXC.o
TC_hist_read_ptr    0x4               C:\Users\Bhagawat\AppData\Local\Temp\ccFLNK2X.o
TC_command          0x4               C:\Users\Bhagawat\AppData\Local\Temp\ccbuJliF.o
B_BODY_IMU1         0x18              C:\Users\Bhagawat\AppData\Local\Temp\ccCmOWXC.o
axnl                0x8               C:\Users\Bhagawat\AppData\Local\Temp\ccCmOWXC.o
TC_min_whsp_spdump  0x8               C:\Users\Bhagawat\AppData\Local\Temp\ccCmOWXC.o
X_SVO2ECI_mag       0x8               C:\Users\Bhagawat\AppData\Local\Temp\ccCmOWXC.o
LPFK1SL             0x20              C:\Users\Bhagawat\AppData\Local\Temp\ccCmOWXC.o
coef1               0x8               C:\Users\Bhagawat\AppData\Local\Temp\ccCmOWXC.o
bstar_TLE_tc        0x8               C:\Users\Bhagawat\AppData\Local\Temp\ccCmOWXC.o
ang                 0x8               C:\Users\Bhagawat\AppData\Local\Temp\ccCmOWXC.o
temp_lic            0x8               C:\Users\Bhagawat\AppData\Local\Temp\ccCmOWXC.o
inter_TM_ST_TC_NS_Write_Source_Addr
                    0x4               C:\Users\Bhagawat\AppData\Local\Temp\ccmG331P.o
rsat                0x18              C:\Users\Bhagawat\AppData\Local\Temp\ccCmOWXC.o
SA_thermistor2      0x4               C:\Users\Bhagawat\AppData\Local\Temp\cc4J82Fr.o
R_SFAO2ECI          0x48              C:\Users\Bhagawat\AppData\Local\Temp\ccCmOWXC.o
magPitch_angle      0x8               C:\Users\Bhagawat\AppData\Local\Temp\ccCmOWXC.o
beta_S_DAD          0x48              C:\Users\Bhagawat\AppData\Local\Temp\ccCmOWXC.o
inclination_sel     0x8               C:\Users\Bhagawat\AppData\Local\Temp\ccCmOWXC.o
SS_M4               0x8               C:\Users\Bhagawat\AppData\Local\Temp\ccCmOWXC.o
Eclipse_presence_timer
                    0x4               C:\Users\Bhagawat\AppData\Local\Temp\ccCmOWXC.o
exp_whsp_ch         0x20              C:\Users\Bhagawat\AppData\Local\Temp\ccCmOWXC.o
Q_SVO2ECI           0x20              C:\Users\Bhagawat\AppData\Local\Temp\ccCmOWXC.o
ST_Out_Latch_2      0x2               C:\Users\Bhagawat\AppData\Local\Temp\ccmG331P.o
DelThta_cat_z       0x4               C:\Users\Bhagawat\AppData\Local\Temp\ccCmOWXC.o
Y_SFAO2ECI          0x18              C:\Users\Bhagawat\AppData\Local\Temp\ccCmOWXC.o
thermistor_lsb      0x17              C:\Users\Bhagawat\AppData\Local\Temp\cc4J82Fr.o
mo_TLE_tc           0x8               C:\Users\Bhagawat\AppData\Local\Temp\ccCmOWXC.o
delta_HB            0x18              C:\Users\Bhagawat\AppData\Local\Temp\ccCmOWXC.o
inter_TM_Dest_Addr  0x4               C:\Users\Bhagawat\AppData\Local\Temp\ccmG331P.o
cos_of_Wk1_Delta    0x8               C:\Users\Bhagawat\AppData\Local\Temp\ccCmOWXC.o
f_station_tracking_enabled_pre
                    0x4               C:\Users\Bhagawat\AppData\Local\Temp\ccCmOWXC.o
PosZ_ECEF_GPS       0x8               C:\Users\Bhagawat\AppData\Local\Temp\ccCmOWXC.o
SC1                 0x8               C:\Users\Bhagawat\AppData\Local\Temp\ccCmOWXC.o
cp_cnt              0x4               C:\Users\Bhagawat\AppData\Local\Temp\ccF3JHAe.o
OBC_Quest_update    0x4               C:\Users\Bhagawat\AppData\Local\Temp\ccCmOWXC.o
u_DTTC              0xc               C:\Users\Bhagawat\AppData\Local\Temp\ccZvvD0p.o
Tsince_TLE          0x8               C:\Users\Bhagawat\AppData\Local\Temp\ccCmOWXC.o
pk_HkT              0xd8              C:\Users\Bhagawat\AppData\Local\Temp\ccCmOWXC.o
sumX_DAD            0x48              C:\Users\Bhagawat\AppData\Local\Temp\ccCmOWXC.o
kfq02               0x20              C:\Users\Bhagawat\AppData\Local\Temp\ccCmOWXC.o
phi_11_temp1        0x48              C:\Users\Bhagawat\AppData\Local\Temp\ccCmOWXC.o
u_TC                0xc               C:\Users\Bhagawat\AppData\Local\Temp\ccZvvD0p.o
kfI_MAT_w0_HW2B     0x18              C:\Users\Bhagawat\AppData\Local\Temp\ccCmOWXC.o
j_lict              0x4               C:\Users\Bhagawat\AppData\Local\Temp\ccCmOWXC.o
pps_deltaT          0x8               C:\Users\Bhagawat\AppData\Local\Temp\ccCmOWXC.o
Kk_matrix           0x288             C:\Users\Bhagawat\AppData\Local\Temp\ccCmOWXC.o
comb1               0x8               C:\Users\Bhagawat\AppData\Local\Temp\ccCmOWXC.o
inter_PL_TM_Source_Addr
                    0x4               C:\Users\Bhagawat\AppData\Local\Temp\ccbuJliF.o
f_Momentum_Dumping  0x4               C:\Users\Bhagawat\AppData\Local\Temp\ccCmOWXC.o
SUN_ECI_mag         0x8               C:\Users\Bhagawat\AppData\Local\Temp\ccCmOWXC.o
Tcv                 0x18              C:\Users\Bhagawat\AppData\Local\Temp\ccCmOWXC.o
t4                  0x8               C:\Users\Bhagawat\AppData\Local\Temp\ccCmOWXC.o
cnod                0x8               C:\Users\Bhagawat\AppData\Local\Temp\ccCmOWXC.o
mon_sel             0x4               C:\Users\Bhagawat\AppData\Local\Temp\ccCmOWXC.o
pl_buffer_addr      0x4               C:\Users\Bhagawat\AppData\Local\Temp\ccbuJliF.o
sidereal            0x48              C:\Users\Bhagawat\AppData\Local\Temp\ccCmOWXC.o
tau_ms              0x8               C:\Users\Bhagawat\AppData\Local\Temp\ccCmOWXC.o
inter_theta         0x8               C:\Users\Bhagawat\AppData\Local\Temp\ccCmOWXC.o
j_kf                0x4               C:\Users\Bhagawat\AppData\Local\Temp\ccCmOWXC.o
ADC_Locations       0x4               C:\Users\Bhagawat\AppData\Local\Temp\cc4J82Fr.o
aa                  0x2               C:\Users\Bhagawat\AppData\Local\Temp\ccBLkweo.o
sine                0x8               C:\Users\Bhagawat\AppData\Local\Temp\ccCmOWXC.o
TC_drift_compensation_IMU1
                    0xc               C:\Users\Bhagawat\AppData\Local\Temp\ccFLNK2X.o
Remote_Addr         0x4               C:\Users\Bhagawat\AppData\Local\Temp\ccFLNK2X.o
Z_SVO2ECI_mag       0x8               C:\Users\Bhagawat\AppData\Local\Temp\ccCmOWXC.o
Qprop_prev          0x20              C:\Users\Bhagawat\AppData\Local\Temp\ccCmOWXC.o
pl_test10           0x4               C:\Users\Bhagawat\AppData\Local\Temp\ccbuJliF.o
Out_latch_6         0x2               C:\Users\Bhagawat\AppData\Local\Temp\ccmG331P.o
uz                  0x8               C:\Users\Bhagawat\AppData\Local\Temp\ccCmOWXC.o
TC_KR               0x18              C:\Users\Bhagawat\AppData\Local\Temp\ccCmOWXC.o
ExWhMom             0x20              C:\Users\Bhagawat\AppData\Local\Temp\ccCmOWXC.o
B_BODYtesla         0x18              C:\Users\Bhagawat\AppData\Local\Temp\ccCmOWXC.o
T_MT_2RW            0x18              C:\Users\Bhagawat\AppData\Local\Temp\ccCmOWXC.o
DPM_Pol_prev        0xc               C:\Users\Bhagawat\AppData\Local\Temp\ccCmOWXC.o
one_magad           0x8               C:\Users\Bhagawat\AppData\Local\Temp\ccCmOWXC.o
S_ECI               0x18              C:\Users\Bhagawat\AppData\Local\Temp\ccCmOWXC.o
RW_Data_SlipFrame_TMC
                    0x14              C:\Users\Bhagawat\AppData\Local\Temp\ccBLkweo.o
Q_quest_DAD_den     0x8               C:\Users\Bhagawat\AppData\Local\Temp\ccCmOWXC.o
gyrodet_w           0x18              C:\Users\Bhagawat\AppData\Local\Temp\ccCmOWXC.o
SunNPP_SMtransit    0x4               C:\Users\Bhagawat\AppData\Local\Temp\ccCmOWXC.o
two_magad           0x8               C:\Users\Bhagawat\AppData\Local\Temp\ccCmOWXC.o
Hk_temp             0xd8              C:\Users\Bhagawat\AppData\Local\Temp\ccCmOWXC.o
heaters             0x2               C:\Users\Bhagawat\AppData\Local\Temp\ccmG331P.o
xincp               0x8               C:\Users\Bhagawat\AppData\Local\Temp\ccCmOWXC.o
RWSpeedk            0x20              C:\Users\Bhagawat\AppData\Local\Temp\ccCmOWXC.o
Rx                  0x48              C:\Users\Bhagawat\AppData\Local\Temp\ccCmOWXC.o
chksum_arr          0x20              C:\Users\Bhagawat\AppData\Local\Temp\ccmG331P.o
MTR_ActuationCycle  0x4               C:\Users\Bhagawat\AppData\Local\Temp\ccCmOWXC.o
lpfy_magbk          0x8               C:\Users\Bhagawat\AppData\Local\Temp\ccCmOWXC.o
BDOTnorm            0x8               C:\Users\Bhagawat\AppData\Local\Temp\ccCmOWXC.o
pl_tx_tm_flag       0x4               C:\Users\Bhagawat\AppData\Local\Temp\ccbuJliF.o
B_ECI               0x18              C:\Users\Bhagawat\AppData\Local\Temp\ccCmOWXC.o
TC_SSmain_ImaxF     0x20              C:\Users\Bhagawat\AppData\Local\Temp\ccFLNK2X.o
IO_Latch_Register_4_Data
                    0x4               C:\Users\Bhagawat\AppData\Local\Temp\ccmG331P.o
SAT_ANGLE_STAT      0x8               C:\Users\Bhagawat\AppData\Local\Temp\ccCmOWXC.o
sigma_DAD           0x8               C:\Users\Bhagawat\AppData\Local\Temp\ccCmOWXC.o
f_DataSort_MAG      0x4               C:\Users\Bhagawat\AppData\Local\Temp\ccCmOWXC.o
Thta_rawdata        0x18              C:\Users\Bhagawat\AppData\Local\Temp\ccCmOWXC.o
aycof               0x8               C:\Users\Bhagawat\AppData\Local\Temp\ccCmOWXC.o
kfv3                0x20              C:\Users\Bhagawat\AppData\Local\Temp\ccCmOWXC.o
RW3s                0x2               C:\Users\Bhagawat\AppData\Local\Temp\ccFLNK2X.o
argpo_TLE_tc        0x8               C:\Users\Bhagawat\AppData\Local\Temp\ccCmOWXC.o
count_arc_w1        0x4               C:\Users\Bhagawat\AppData\Local\Temp\ccCmOWXC.o
PL_1_on_off_flag    0x4               C:\Users\Bhagawat\AppData\Local\Temp\ccbuJliF.o
j_gh                0x1               C:\Users\Bhagawat\AppData\Local\Temp\ccCmOWXC.o
SC8                 0x8               C:\Users\Bhagawat\AppData\Local\Temp\ccCmOWXC.o
temp1               0x8               C:\Users\Bhagawat\AppData\Local\Temp\ccCmOWXC.o
coef                0x8               C:\Users\Bhagawat\AppData\Local\Temp\ccCmOWXC.o
w_BODYdeg           0x18              C:\Users\Bhagawat\AppData\Local\Temp\ccCmOWXC.o
storage_page_count  0x4               C:\Users\Bhagawat\AppData\Local\Temp\ccmG331P.o
sigma_u             0x8               C:\Users\Bhagawat\AppData\Local\Temp\ccCmOWXC.o
etasq               0x8               C:\Users\Bhagawat\AppData\Local\Temp\ccCmOWXC.o
T_SD_RW             0x20              C:\Users\Bhagawat\AppData\Local\Temp\ccCmOWXC.o
ele2                0x8               C:\Users\Bhagawat\AppData\Local\Temp\ccCmOWXC.o
cos2u               0x8               C:\Users\Bhagawat\AppData\Local\Temp\ccCmOWXC.o
st_magad            0x8               C:\Users\Bhagawat\AppData\Local\Temp\ccCmOWXC.o
F_k1                0x48              C:\Users\Bhagawat\AppData\Local\Temp\ccCmOWXC.o
Tc                  0x18              C:\Users\Bhagawat\AppData\Local\Temp\ccCmOWXC.o
B_BiasCor           0x18              C:\Users\Bhagawat\AppData\Local\Temp\ccCmOWXC.o
GPS_msg_header      0x4               C:\Users\Bhagawat\AppData\Local\Temp\ccP2pYow.o
out_Quat_mult       0x20              C:\Users\Bhagawat\AppData\Local\Temp\ccCmOWXC.o
Block_array         0x10000           C:\Users\Bhagawat\AppData\Local\Temp\ccFLNK2X.o
CB_Wheel_Auto_Reconfiguration
                    0x4               C:\Users\Bhagawat\AppData\Local\Temp\ccCmOWXC.o
Del_P_theta         0x8               C:\Users\Bhagawat\AppData\Local\Temp\ccCmOWXC.o
diff_obs_exp_ch     0x20              C:\Users\Bhagawat\AppData\Local\Temp\ccCmOWXC.o
DTTCarray           0x2ee0            C:\Users\Bhagawat\AppData\Local\Temp\ccZvvD0p.o
ST_output_latch     0x4               C:\Users\Bhagawat\AppData\Local\Temp\ccmG331P.o
GPSDataReady        0x4               C:\Users\Bhagawat\AppData\Local\Temp\ccCmOWXC.o
mo_sel              0x8               C:\Users\Bhagawat\AppData\Local\Temp\ccCmOWXC.o
NRBt_sunmag         0xc0              C:\Users\Bhagawat\AppData\Local\Temp\ccCmOWXC.o
kfq03               0x20              C:\Users\Bhagawat\AppData\Local\Temp\ccCmOWXC.o
trace_S_DAD         0x8               C:\Users\Bhagawat\AppData\Local\Temp\ccCmOWXC.o
SS_Redundant_2Exe_DB
                    0x288             C:\Users\Bhagawat\AppData\Local\Temp\ccCmOWXC.o
ct_magad            0x8               C:\Users\Bhagawat\AppData\Local\Temp\ccCmOWXC.o
BDOT_Threshold_Count
                    0x4               C:\Users\Bhagawat\AppData\Local\Temp\ccCmOWXC.o
i                   0x4               C:\Users\Bhagawat\AppData\Local\Temp\ccCmOWXC.o
mu_m_temp           0x18              C:\Users\Bhagawat\AppData\Local\Temp\ccCmOWXC.o
TC_w_miscor_IMU1    0x18              C:\Users\Bhagawat\AppData\Local\Temp\ccFLNK2X.o
Bcap_DAD            0x48              C:\Users\Bhagawat\AppData\Local\Temp\ccCmOWXC.o
SC1ImaxF            0x8               C:\Users\Bhagawat\AppData\Local\Temp\ccCmOWXC.o
TC_yp               0x8               C:\Users\Bhagawat\AppData\Local\Temp\ccCmOWXC.o
CB_Two_RW_control   0x4               C:\Users\Bhagawat\AppData\Local\Temp\ccCmOWXC.o
Out_latch_5         0x2               C:\Users\Bhagawat\AppData\Local\Temp\ccmG331P.o
j_rfc               0x4               C:\Users\Bhagawat\AppData\Local\Temp\ccCmOWXC.o
panel_deploy_sts    0x2               C:\Users\Bhagawat\AppData\Local\Temp\ccsgz4so.o
real_storage        0x4               C:\Users\Bhagawat\AppData\Local\Temp\ccF3JHAe.o
rw_tmtc_count       0x4               C:\Users\Bhagawat\AppData\Local\Temp\ccBLkweo.o
IMU_Sen2Bdy         0x48              C:\Users\Bhagawat\AppData\Local\Temp\ccCmOWXC.o
LPFK2SL             0x20              C:\Users\Bhagawat\AppData\Local\Temp\ccCmOWXC.o
ktr                 0x4               C:\Users\Bhagawat\AppData\Local\Temp\ccCmOWXC.o
I_MFC               0x4               C:\Users\Bhagawat\AppData\Local\Temp\ccCmOWXC.o
DelThta_cat_y       0x4               C:\Users\Bhagawat\AppData\Local\Temp\ccCmOWXC.o
magYaw_angle        0x8               C:\Users\Bhagawat\AppData\Local\Temp\ccCmOWXC.o
Init_data_ptr       0x4               C:\Users\Bhagawat\AppData\Local\Temp\ccBLkweo.o
R_MDO2ECI           0x48              C:\Users\Bhagawat\AppData\Local\Temp\ccCmOWXC.o
epochdays_TLE_tc    0x8               C:\Users\Bhagawat\AppData\Local\Temp\ccCmOWXC.o
CB_DAD_quest        0x4               C:\Users\Bhagawat\AppData\Local\Temp\ccCmOWXC.o
kfv4                0x20              C:\Users\Bhagawat\AppData\Local\Temp\ccCmOWXC.o
RW_TM_ptr_init      0x4               C:\Users\Bhagawat\AppData\Local\Temp\ccBLkweo.o
T_RW_sdump          0x20              C:\Users\Bhagawat\AppData\Local\Temp\ccCmOWXC.o
theta1_se           0x8               C:\Users\Bhagawat\AppData\Local\Temp\ccCmOWXC.o
no_sel              0x8               C:\Users\Bhagawat\AppData\Local\Temp\ccCmOWXC.o
po                  0x8               C:\Users\Bhagawat\AppData\Local\Temp\ccCmOWXC.o
NMB_mag             0x240             C:\Users\Bhagawat\AppData\Local\Temp\ccCmOWXC.o
Vel_ECEFn           0x18              C:\Users\Bhagawat\AppData\Local\Temp\ccCmOWXC.o
j_MatEq             0x4               C:\Users\Bhagawat\AppData\Local\Temp\ccCmOWXC.o
TC_Status_Data      0x4               C:\Users\Bhagawat\AppData\Local\Temp\ccFLNK2X.o
Storage             0x3e800           C:\Users\Bhagawat\AppData\Local\Temp\ccmG331P.o
ST_special          0x2fd             C:\Users\Bhagawat\AppData\Local\Temp\ccmG331P.o
xmdf                0x8               C:\Users\Bhagawat\AppData\Local\Temp\ccCmOWXC.o
Enable_PL_TM_flag   0x4               C:\Users\Bhagawat\AppData\Local\Temp\ccbuJliF.o
cc3                 0x8               C:\Users\Bhagawat\AppData\Local\Temp\ccCmOWXC.o
hils_mode_select    0x2               C:\Users\Bhagawat\AppData\Local\Temp\ccCmOWXC.o
Rk                  0x48              C:\Users\Bhagawat\AppData\Local\Temp\ccCmOWXC.o
TC_Hmax             0x8               C:\Users\Bhagawat\AppData\Local\Temp\ccCmOWXC.o
Trwa                0x20              C:\Users\Bhagawat\AppData\Local\Temp\ccCmOWXC.o
qzms24              0x8               C:\Users\Bhagawat\AppData\Local\Temp\ccCmOWXC.o
w_LPF               0x18              C:\Users\Bhagawat\AppData\Local\Temp\ccCmOWXC.o
T_RW                0x20              C:\Users\Bhagawat\AppData\Local\Temp\ccCmOWXC.o
GAIN_DATA_SET       0x510             C:\Users\Bhagawat\AppData\Local\Temp\ccmG331P.o
longitude_GPS       0x8               C:\Users\Bhagawat\AppData\Local\Temp\ccCmOWXC.o
RWSpeed_RAD         0x20              C:\Users\Bhagawat\AppData\Local\Temp\ccCmOWXC.o
F_k4                0x48              C:\Users\Bhagawat\AppData\Local\Temp\ccCmOWXC.o
sini                0x8               C:\Users\Bhagawat\AppData\Local\Temp\ccCmOWXC.o
Out_Latch_2         0x2               C:\Users\Bhagawat\AppData\Local\Temp\ccmG331P.o
xsatz_eci           0x8               C:\Users\Bhagawat\AppData\Local\Temp\ccCmOWXC.o
inter_HAL_ADC_Data_Ready
                    0x4               C:\Users\Bhagawat\AppData\Local\Temp\cc4J82Fr.o
DFCGainLow          0x8               C:\Users\Bhagawat\AppData\Local\Temp\ccCmOWXC.o
inter_TM_Status_Data
                    0x2               C:\Users\Bhagawat\AppData\Local\Temp\ccmG331P.o
i_pini              0x4               C:\Users\Bhagawat\AppData\Local\Temp\ccCmOWXC.o
SC3ImaxF            0x8               C:\Users\Bhagawat\AppData\Local\Temp\ccCmOWXC.o
DTTCtime_reference  0x4               C:\Users\Bhagawat\AppData\Local\Temp\ccSFvBJa.o
Hk                  0xd8              C:\Users\Bhagawat\AppData\Local\Temp\ccCmOWXC.o
MUX_data4           0x2               C:\Users\Bhagawat\AppData\Local\Temp\ccFLNK2X.o
Delta               0x8               C:\Users\Bhagawat\AppData\Local\Temp\ccCmOWXC.o
kfq_dot             0x20              C:\Users\Bhagawat\AppData\Local\Temp\ccCmOWXC.o
Z_SFDO2ECI_mag      0x8               C:\Users\Bhagawat\AppData\Local\Temp\ccCmOWXC.o
u_parl              0x18              C:\Users\Bhagawat\AppData\Local\Temp\ccCmOWXC.o
B_AMSC              0x18              C:\Users\Bhagawat\AppData\Local\Temp\ccCmOWXC.o
I_DAD               0x4               C:\Users\Bhagawat\AppData\Local\Temp\ccCmOWXC.o
IMU_Diag_Done       0x4               C:\Users\Bhagawat\AppData\Local\Temp\ccSFvBJa.o
kfv02               0x20              C:\Users\Bhagawat\AppData\Local\Temp\ccCmOWXC.o
i_MatEq             0x4               C:\Users\Bhagawat\AppData\Local\Temp\ccCmOWXC.o
year_TLE_tc         0x4               C:\Users\Bhagawat\AppData\Local\Temp\ccCmOWXC.o
MUX_4               0x2               C:\Users\Bhagawat\AppData\Local\Temp\ccmG331P.o
ecose               0x8               C:\Users\Bhagawat\AppData\Local\Temp\ccCmOWXC.o
TC_authentic_pulse_rcvd
                    0x4               C:\Users\Bhagawat\AppData\Local\Temp\ccFLNK2X.o
Pos_ECEF            0x18              C:\Users\Bhagawat\AppData\Local\Temp\ccCmOWXC.o
NRB_mag             0x240             C:\Users\Bhagawat\AppData\Local\Temp\ccCmOWXC.o
w_BiasCor           0x18              C:\Users\Bhagawat\AppData\Local\Temp\ccCmOWXC.o
inter_TM_Main_Buffer_Empty
                    0x4               C:\Users\Bhagawat\AppData\Local\Temp\ccmG331P.o
SunNPP_SAMtransit_counter
                    0x4               C:\Users\Bhagawat\AppData\Local\Temp\ccCmOWXC.o
ecc_temp6           0x8               C:\Users\Bhagawat\AppData\Local\Temp\ccCmOWXC.o
j_pini              0x4               C:\Users\Bhagawat\AppData\Local\Temp\ccCmOWXC.o
jw_cross            0x48              C:\Users\Bhagawat\AppData\Local\Temp\ccCmOWXC.o
GPS_Data_Read_Status
                    0x4               C:\Users\Bhagawat\AppData\Local\Temp\ccP2pYow.o
Q_REF_diff          0x20              C:\Users\Bhagawat\AppData\Local\Temp\ccCmOWXC.o
TC_STS_data         0x2               C:\Users\Bhagawat\AppData\Local\Temp\ccFLNK2X.o
ECEFtoECI           0x48              C:\Users\Bhagawat\AppData\Local\Temp\ccCmOWXC.o
t5cof               0x8               C:\Users\Bhagawat\AppData\Local\Temp\ccCmOWXC.o
ep                  0x8               C:\Users\Bhagawat\AppData\Local\Temp\ccCmOWXC.o
NOB_CRC_TC          0x4               C:\Users\Bhagawat\AppData\Local\Temp\ccBLkweo.o
check_dump_wh       0x10              C:\Users\Bhagawat\AppData\Local\Temp\ccCmOWXC.o
TC_DATA             0x8               C:\Users\Bhagawat\AppData\Local\Temp\ccFLNK2X.o
read_str_ptr        0x4               C:\Users\Bhagawat\AppData\Local\Temp\ccmG331P.o
pl_mode             0x2               C:\Users\Bhagawat\AppData\Local\Temp\ccbuJliF.o
epochyr             0x4               C:\Users\Bhagawat\AppData\Local\Temp\ccCmOWXC.o
Bpresent            0x18              C:\Users\Bhagawat\AppData\Local\Temp\ccCmOWXC.o
tc_ecv_test         0x190             C:\Users\Bhagawat\AppData\Local\Temp\ccSFvBJa.o
Q_svn_off           0x20              C:\Users\Bhagawat\AppData\Local\Temp\ccCmOWXC.o
dmu_gcgd            0x8               C:\Users\Bhagawat\AppData\Local\Temp\ccCmOWXC.o
Yaw_MTR_Pol_Reversal
                    0x4               C:\Users\Bhagawat\AppData\Local\Temp\ccCmOWXC.o
Storage_tm_status   0x1               C:\Users\Bhagawat\AppData\Local\Temp\ccmG331P.o
nodem               0x8               C:\Users\Bhagawat\AppData\Local\Temp\ccCmOWXC.o
STATION_ECIn        0x18              C:\Users\Bhagawat\AppData\Local\Temp\ccCmOWXC.o
TC_xp               0x8               C:\Users\Bhagawat\AppData\Local\Temp\ccCmOWXC.o
argpp               0x8               C:\Users\Bhagawat\AppData\Local\Temp\ccCmOWXC.o
pl_data_rx          0x12              C:\Users\Bhagawat\AppData\Local\Temp\ccbuJliF.o
TC_ARC_Time_Cycle   0x4               C:\Users\Bhagawat\AppData\Local\Temp\ccCmOWXC.o
count_arc_w0        0x4               C:\Users\Bhagawat\AppData\Local\Temp\ccCmOWXC.o
TC_ARC_RPM_Thres    0x8               C:\Users\Bhagawat\AppData\Local\Temp\ccCmOWXC.o
ECItoECEF           0x48              C:\Users\Bhagawat\AppData\Local\Temp\ccCmOWXC.o
Init_ptr            0x4               C:\Users\Bhagawat\AppData\Local\Temp\ccBLkweo.o
sinip               0x8               C:\Users\Bhagawat\AppData\Local\Temp\ccCmOWXC.o
pl_config_addr_ptr  0x4               C:\Users\Bhagawat\AppData\Local\Temp\ccbuJliF.o
Bt_DAD              0x48              C:\Users\Bhagawat\AppData\Local\Temp\ccCmOWXC.o
inclo_tc            0x8               C:\Users\Bhagawat\AppData\Local\Temp\ccCmOWXC.o
RW_Wheel_Speed      0x10              C:\Users\Bhagawat\AppData\Local\Temp\ccBLkweo.o
TC_magbias_compensation_IMU2
                    0xc               C:\Users\Bhagawat\AppData\Local\Temp\ccFLNK2X.o
rot_ang             0x8               C:\Users\Bhagawat\AppData\Local\Temp\ccCmOWXC.o
alpha_2RW_temp      0x18              C:\Users\Bhagawat\AppData\Local\Temp\ccCmOWXC.o
coslongacnode       0x8               C:\Users\Bhagawat\AppData\Local\Temp\ccCmOWXC.o
temp11              0x8               C:\Users\Bhagawat\AppData\Local\Temp\ccCmOWXC.o
ram_scrub_addr      0x4               C:\Users\Bhagawat\AppData\Local\Temp\ccmG331P.o
TC_str_ptr          0x4               C:\Users\Bhagawat\AppData\Local\Temp\ccmG331P.o
f_threeaxis2safe    0x4               C:\Users\Bhagawat\AppData\Local\Temp\ccCmOWXC.o
B_BODY_LUT          0x18              C:\Users\Bhagawat\AppData\Local\Temp\ccCmOWXC.o
DeltaT_MFC          0x4               C:\Users\Bhagawat\AppData\Local\Temp\ccCmOWXC.o
TC_detumbling_rate_gain
                    0x18              C:\Users\Bhagawat\AppData\Local\Temp\ccCmOWXC.o
esine               0x8               C:\Users\Bhagawat\AppData\Local\Temp\ccCmOWXC.o
gps_obt_count_prev  0x4               C:\Users\Bhagawat\AppData\Local\Temp\ccP2pYow.o
SSMAIN_ARRAY        0x40              C:\Users\Bhagawat\AppData\Local\Temp\ccCmOWXC.o
T_RW_spin           0x20              C:\Users\Bhagawat\AppData\Local\Temp\ccCmOWXC.o
pl_ack_count        0x2               C:\Users\Bhagawat\AppData\Local\Temp\ccbuJliF.o
Wk1                 0x48              C:\Users\Bhagawat\AppData\Local\Temp\ccCmOWXC.o
wc_qst              0x4               C:\Users\Bhagawat\AppData\Local\Temp\ccCmOWXC.o
Cross_Product       0x18              C:\Users\Bhagawat\AppData\Local\Temp\ccCmOWXC.o
sd_magad            0x8               C:\Users\Bhagawat\AppData\Local\Temp\ccCmOWXC.o
i_QDP               0x4               C:\Users\Bhagawat\AppData\Local\Temp\ccCmOWXC.o
f_aft_statn_wait    0x4               C:\Users\Bhagawat\AppData\Local\Temp\ccCmOWXC.o
Z_SPO2ECI           0x18              C:\Users\Bhagawat\AppData\Local\Temp\ccCmOWXC.o
d2                  0x8               C:\Users\Bhagawat\AppData\Local\Temp\ccCmOWXC.o
inter_TM_DP_Addr    0x4               C:\Users\Bhagawat\AppData\Local\Temp\ccmG331P.o
tor_counterk        0x4               C:\Users\Bhagawat\AppData\Local\Temp\ccCmOWXC.o
f_Sunlit_Presence   0x4               C:\Users\Bhagawat\AppData\Local\Temp\ccCmOWXC.o
pps_delta_utc       0x4               C:\Users\Bhagawat\AppData\Local\Temp\ccCmOWXC.o
pl                  0x8               C:\Users\Bhagawat\AppData\Local\Temp\ccCmOWXC.o
Norm_out            0x18              C:\Users\Bhagawat\AppData\Local\Temp\ccCmOWXC.o
RW_TC               0x10              C:\Users\Bhagawat\AppData\Local\Temp\ccBLkweo.o
NRSt                0xc0              C:\Users\Bhagawat\AppData\Local\Temp\ccCmOWXC.o
wheel_index         0x10              C:\Users\Bhagawat\AppData\Local\Temp\ccCmOWXC.o
L_Msun              0x8               C:\Users\Bhagawat\AppData\Local\Temp\ccCmOWXC.o
inter_HAL_IMU_Locations
                    0x4               C:\Users\Bhagawat\AppData\Local\Temp\ccSFvBJa.o
vpef                0x18              C:\Users\Bhagawat\AppData\Local\Temp\ccCmOWXC.o
inclination         0x8               C:\Users\Bhagawat\AppData\Local\Temp\ccCmOWXC.o
TMTC_gain_select_u  0x7               C:\Users\Bhagawat\AppData\Local\Temp\ccmG331P.o
FirstSpeed          0x10              C:\Users\Bhagawat\AppData\Local\Temp\ccCmOWXC.o
cosio               0x8               C:\Users\Bhagawat\AppData\Local\Temp\ccCmOWXC.o
i_kf                0x4               C:\Users\Bhagawat\AppData\Local\Temp\ccCmOWXC.o
sinlongacnode       0x8               C:\Users\Bhagawat\AppData\Local\Temp\ccCmOWXC.o
f_Sunlit_Presence_sensor
                    0x4               C:\Users\Bhagawat\AppData\Local\Temp\ccCmOWXC.o
ram_scrub_cnt       0x4               C:\Users\Bhagawat\AppData\Local\Temp\ccmG331P.o
minute_sel          0x4               C:\Users\Bhagawat\AppData\Local\Temp\ccCmOWXC.o
SS_M5               0x8               C:\Users\Bhagawat\AppData\Local\Temp\ccCmOWXC.o
inter_at697_var     0x4               C:\Users\Bhagawat\AppData\Local\Temp\ccmG331P.o
f_Sunlit_Presence_orbit
                    0x4               C:\Users\Bhagawat\AppData\Local\Temp\ccCmOWXC.o
temp_data_2_pl      0x2               C:\Users\Bhagawat\AppData\Local\Temp\ccbuJliF.o
mrt                 0x8               C:\Users\Bhagawat\AppData\Local\Temp\ccCmOWXC.o
PL_on_off_sts_flag  0x2               C:\Users\Bhagawat\AppData\Local\Temp\ccbuJliF.o
SunAcq2ThreeAx_trsit_cnt_thres
                    0x4               C:\Users\Bhagawat\AppData\Local\Temp\ccCmOWXC.o
Qk                  0x288             C:\Users\Bhagawat\AppData\Local\Temp\ccCmOWXC.o
TC_history_table    0x810             C:\Users\Bhagawat\AppData\Local\Temp\ccmG331P.o
VelY_ECEF_GPS       0x8               C:\Users\Bhagawat\AppData\Local\Temp\ccCmOWXC.o
Bprev               0x18              C:\Users\Bhagawat\AppData\Local\Temp\ccCmOWXC.o
inter_sunsensor_j   0x4               C:\Users\Bhagawat\AppData\Local\Temp\ccCmOWXC.o
SC4ImaxF            0x8               C:\Users\Bhagawat\AppData\Local\Temp\ccCmOWXC.o
Matout33            0x48              C:\Users\Bhagawat\AppData\Local\Temp\ccCmOWXC.o
mon_TLE_tc          0x4               C:\Users\Bhagawat\AppData\Local\Temp\ccCmOWXC.o
TC_GYRO_Det_Min_Thresh
                    0x8               C:\Users\Bhagawat\AppData\Local\Temp\ccCmOWXC.o
betal               0x8               C:\Users\Bhagawat\AppData\Local\Temp\ccCmOWXC.o
Qquest_update       0x20              C:\Users\Bhagawat\AppData\Local\Temp\ccCmOWXC.o
ST_TC_header_Buffer
                    0xc               C:\Users\Bhagawat\AppData\Local\Temp\ccmG331P.o
i_god               0x4               C:\Users\Bhagawat\AppData\Local\Temp\ccCmOWXC.o
mo                  0x8               C:\Users\Bhagawat\AppData\Local\Temp\ccCmOWXC.o
heater_manual_tc    0x2               C:\Users\Bhagawat\AppData\Local\Temp\cc5opyBQ.o
tt                  0x20              C:\Users\Bhagawat\AppData\Local\Temp\ccCmOWXC.o
RW4s                0x2               C:\Users\Bhagawat\AppData\Local\Temp\ccFLNK2X.o
dpsi                0x8               C:\Users\Bhagawat\AppData\Local\Temp\ccCmOWXC.o
Spec_ST_Table_Row_No
                    0x4               C:\Users\Bhagawat\AppData\Local\Temp\ccmG331P.o
RW_Buffer_u_rx      0x200             C:\Users\Bhagawat\AppData\Local\Temp\ccBLkweo.o
con41               0x8               C:\Users\Bhagawat\AppData\Local\Temp\ccCmOWXC.o
CB_Sun_model        0x4               C:\Users\Bhagawat\AppData\Local\Temp\ccCmOWXC.o
SunNPP_SAMtransit_count_limit
                    0x4               C:\Users\Bhagawat\AppData\Local\Temp\ccCmOWXC.o
R_SVO2ECI           0x48              C:\Users\Bhagawat\AppData\Local\Temp\ccCmOWXC.o
qk_plus_temp        0x20              C:\Users\Bhagawat\AppData\Local\Temp\ccCmOWXC.o
f_Sunlit_Presence_previous
                    0x4               C:\Users\Bhagawat\AppData\Local\Temp\ccCmOWXC.o
delta_hmag          0x8               C:\Users\Bhagawat\AppData\Local\Temp\ccCmOWXC.o
kfg4                0x18              C:\Users\Bhagawat\AppData\Local\Temp\ccCmOWXC.o
kfk1                0x20              C:\Users\Bhagawat\AppData\Local\Temp\ccCmOWXC.o
kfw01               0x18              C:\Users\Bhagawat\AppData\Local\Temp\ccCmOWXC.o
ecl_ekf             0x4               C:\Users\Bhagawat\AppData\Local\Temp\ccCmOWXC.o
Q_REF_conj          0x20              C:\Users\Bhagawat\AppData\Local\Temp\ccCmOWXC.o
RW_ARC_Logic        0x4               C:\Users\Bhagawat\AppData\Local\Temp\ccCmOWXC.o
TC_drift_compensation_IMU2
                    0xc               C:\Users\Bhagawat\AppData\Local\Temp\ccFLNK2X.o
ltp12               0x4               C:\Users\Bhagawat\AppData\Local\Temp\cc5opyBQ.o
GPS_obc_checkum     0x1               C:\Users\Bhagawat\AppData\Local\Temp\ccP2pYow.o
RW_nominal_speed_cnt
                    0x4               C:\Users\Bhagawat\AppData\Local\Temp\ccCmOWXC.o
Remote_minotoring_addr
                    0x4               C:\Users\Bhagawat\AppData\Local\Temp\ccFLNK2X.o
Matout31            0x18              C:\Users\Bhagawat\AppData\Local\Temp\ccCmOWXC.o
DelThta_cat_x       0x4               C:\Users\Bhagawat\AppData\Local\Temp\ccCmOWXC.o
TC_wh_speed_cutoff  0x8               C:\Users\Bhagawat\AppData\Local\Temp\ccCmOWXC.o
inclination_temp    0x8               C:\Users\Bhagawat\AppData\Local\Temp\ccCmOWXC.o
Xk_plus             0x48              C:\Users\Bhagawat\AppData\Local\Temp\ccCmOWXC.o
IMU2_Corr           0x148             C:\Users\Bhagawat\AppData\Local\Temp\ccCmOWXC.o
eol                 0x8               C:\Users\Bhagawat\AppData\Local\Temp\ccCmOWXC.o
spin_up_avg_count_2
                    0x4               C:\Users\Bhagawat\AppData\Local\Temp\ccCmOWXC.o
tc_cnt_test         0x4               C:\Users\Bhagawat\AppData\Local\Temp\ccSFvBJa.o
tsi                 0x8               C:\Users\Bhagawat\AppData\Local\Temp\ccCmOWXC.o
BDOT                0x18              C:\Users\Bhagawat\AppData\Local\Temp\ccCmOWXC.o
phi_11              0x48              C:\Users\Bhagawat\AppData\Local\Temp\ccCmOWXC.o
TC_data_command_Table
                    0x68              C:\Users\Bhagawat\AppData\Local\Temp\ccmG331P.o
pl_test12           0x4               C:\Users\Bhagawat\AppData\Local\Temp\ccbuJliF.o
tempta              0x8               C:\Users\Bhagawat\AppData\Local\Temp\ccCmOWXC.o
Cond1               0x8               C:\Users\Bhagawat\AppData\Local\Temp\ccCmOWXC.o
RW_Write_ptr        0x4               C:\Users\Bhagawat\AppData\Local\Temp\ccBLkweo.o
phi_12_temp1        0x48              C:\Users\Bhagawat\AppData\Local\Temp\ccCmOWXC.o
GPS2_ptr            0x4               C:\Users\Bhagawat\AppData\Local\Temp\ccP2pYow.o
Yaw_MTREnable       0x4               C:\Users\Bhagawat\AppData\Local\Temp\ccCmOWXC.o
J_DAD               0x4               C:\Users\Bhagawat\AppData\Local\Temp\ccCmOWXC.o
CB_RefVectorGeneration
                    0x4               C:\Users\Bhagawat\AppData\Local\Temp\ccCmOWXC.o
magrsun             0x8               C:\Users\Bhagawat\AppData\Local\Temp\ccCmOWXC.o
inter_HAL_IMU_Buffer_Addr
                    0x4               C:\Users\Bhagawat\AppData\Local\Temp\ccSFvBJa.o
w_REF_prev          0x18              C:\Users\Bhagawat\AppData\Local\Temp\ccCmOWXC.o
ao_temp             0x8               C:\Users\Bhagawat\AppData\Local\Temp\ccCmOWXC.o
TachoHyst           0x10              C:\Users\Bhagawat\AppData\Local\Temp\ccCmOWXC.o
lpfb_k              0x18              C:\Users\Bhagawat\AppData\Local\Temp\ccCmOWXC.o
TC_wp_QDP           0x4               C:\Users\Bhagawat\AppData\Local\Temp\ccCmOWXC.o
pl_HLT_en           0x1               C:\Users\Bhagawat\AppData\Local\Temp\ccbuJliF.o
pk_plus_one         0x288             C:\Users\Bhagawat\AppData\Local\Temp\ccCmOWXC.o
CB_Wheel_Dynamic_Friction
                    0x4               C:\Users\Bhagawat\AppData\Local\Temp\ccCmOWXC.o
B_ECEF              0x18              C:\Users\Bhagawat\AppData\Local\Temp\ccCmOWXC.o
Sun_Dis             0x8               C:\Users\Bhagawat\AppData\Local\Temp\ccCmOWXC.o
A_R                 0x8               C:\Users\Bhagawat\AppData\Local\Temp\ccCmOWXC.o
Mk                  0x18              C:\Users\Bhagawat\AppData\Local\Temp\ccCmOWXC.o
RW_TM_Raw_Data_ptr  0x4               C:\Users\Bhagawat\AppData\Local\Temp\ccBLkweo.o
vy                  0x8               C:\Users\Bhagawat\AppData\Local\Temp\ccCmOWXC.o
no                  0x8               C:\Users\Bhagawat\AppData\Local\Temp\ccCmOWXC.o
beta_DAD            0x8               C:\Users\Bhagawat\AppData\Local\Temp\ccCmOWXC.o
mo_GPS              0x8               C:\Users\Bhagawat\AppData\Local\Temp\ccCmOWXC.o
alpha_DAD           0x8               C:\Users\Bhagawat\AppData\Local\Temp\ccCmOWXC.o
B_ASC               0x18              C:\Users\Bhagawat\AppData\Local\Temp\ccCmOWXC.o
Top_index           0x4               C:\Users\Bhagawat\AppData\Local\Temp\ccFLNK2X.o
SC3                 0x8               C:\Users\Bhagawat\AppData\Local\Temp\ccCmOWXC.o
DCM2Q_out           0x20              C:\Users\Bhagawat\AppData\Local\Temp\ccCmOWXC.o
data                0x4               C:\Users\Bhagawat\AppData\Local\Temp\ccbuJliF.o
SS_prcd_data        0x18              C:\Users\Bhagawat\AppData\Local\Temp\ccCmOWXC.o
Q_SFAO2ECI          0x20              C:\Users\Bhagawat\AppData\Local\Temp\ccCmOWXC.o
Minor_Cycle_Count   0x4               C:\Users\Bhagawat\AppData\Local\Temp\ccmG331P.o
rk_Qk_rk_T          0x288             C:\Users\Bhagawat\AppData\Local\Temp\ccCmOWXC.o
ee_blk_no           0x1               C:\Users\Bhagawat\AppData\Local\Temp\ccmG331P.o
ao                  0x8               C:\Users\Bhagawat\AppData\Local\Temp\ccCmOWXC.o
Numofdays           0x4               C:\Users\Bhagawat\AppData\Local\Temp\ccCmOWXC.o
TC_SunMagAD         0x4               C:\Users\Bhagawat\AppData\Local\Temp\ccCmOWXC.o
longitude           0x8               C:\Users\Bhagawat\AppData\Local\Temp\ccCmOWXC.o
Quest_update_available
                    0x4               C:\Users\Bhagawat\AppData\Local\Temp\ccCmOWXC.o
S_ECIn              0x18              C:\Users\Bhagawat\AppData\Local\Temp\ccCmOWXC.o
N_ecc               0x8               C:\Users\Bhagawat\AppData\Local\Temp\ccCmOWXC.o
ab_test             0x4               C:\Users\Bhagawat\AppData\Local\Temp\ccSFvBJa.o
M_MAGAD             0x4               C:\Users\Bhagawat\AppData\Local\Temp\ccCmOWXC.o
minute_TLE_tc       0x4               C:\Users\Bhagawat\AppData\Local\Temp\ccCmOWXC.o
cossu               0x8               C:\Users\Bhagawat\AppData\Local\Temp\ccCmOWXC.o
sin_of_W_norm_Delta_by2_W_norm_and_big_omega
                    0x80              C:\Users\Bhagawat\AppData\Local\Temp\ccCmOWXC.o
cc4                 0x8               C:\Users\Bhagawat\AppData\Local\Temp\ccCmOWXC.o
phi_k_pk_plus       0x288             C:\Users\Bhagawat\AppData\Local\Temp\ccCmOWXC.o
trueanomoly_sel     0x8               C:\Users\Bhagawat\AppData\Local\Temp\ccCmOWXC.o
STATION_ECEF        0x18              C:\Users\Bhagawat\AppData\Local\Temp\ccCmOWXC.o
ele1                0x8               C:\Users\Bhagawat\AppData\Local\Temp\ccCmOWXC.o
fN_MAGAD            0x4               C:\Users\Bhagawat\AppData\Local\Temp\ccCmOWXC.o
DFCGainSL           0x20              C:\Users\Bhagawat\AppData\Local\Temp\ccCmOWXC.o
sinmao              0x8               C:\Users\Bhagawat\AppData\Local\Temp\ccCmOWXC.o
f_EKF2_mag_bias_dis
                    0x4               C:\Users\Bhagawat\AppData\Local\Temp\ccCmOWXC.o
snod                0x8               C:\Users\Bhagawat\AppData\Local\Temp\ccCmOWXC.o
TC_B_ECI            0xc               C:\Users\Bhagawat\AppData\Local\Temp\ccFLNK2X.o
cos_of_W_norm_Delta_by2_with_I
                    0x80              C:\Users\Bhagawat\AppData\Local\Temp\ccCmOWXC.o
cl_magad            0x70              C:\Users\Bhagawat\AppData\Local\Temp\ccCmOWXC.o
i_gh                0x1               C:\Users\Bhagawat\AppData\Local\Temp\ccCmOWXC.o
Tdet                0x18              C:\Users\Bhagawat\AppData\Local\Temp\ccCmOWXC.o
ST_frame_count      0x2               C:\Users\Bhagawat\AppData\Local\Temp\ccmG331P.o
nm                  0x8               C:\Users\Bhagawat\AppData\Local\Temp\ccCmOWXC.o
TTDB3               0x8               C:\Users\Bhagawat\AppData\Local\Temp\ccCmOWXC.o
ST_Dest_Addr        0x4               C:\Users\Bhagawat\AppData\Local\Temp\ccmG331P.o
del_Vw              0x20              C:\Users\Bhagawat\AppData\Local\Temp\ccCmOWXC.o
d4                  0x8               C:\Users\Bhagawat\AppData\Local\Temp\ccCmOWXC.o
SC6                 0x8               C:\Users\Bhagawat\AppData\Local\Temp\ccCmOWXC.o
alpha_I_DAD         0x48              C:\Users\Bhagawat\AppData\Local\Temp\ccCmOWXC.o
sc_qst              0x4               C:\Users\Bhagawat\AppData\Local\Temp\ccCmOWXC.o
t2cof               0x8               C:\Users\Bhagawat\AppData\Local\Temp\ccCmOWXC.o
rpef                0x18              C:\Users\Bhagawat\AppData\Local\Temp\ccCmOWXC.o
kfw03               0x18              C:\Users\Bhagawat\AppData\Local\Temp\ccCmOWXC.o
CB_LinearController
                    0x4               C:\Users\Bhagawat\AppData\Local\Temp\ccCmOWXC.o
Thermistor_Selection
                    0x38              C:\Users\Bhagawat\AppData\Local\Temp\cc5opyBQ.o
f_RW_nominal        0x4               C:\Users\Bhagawat\AppData\Local\Temp\ccCmOWXC.o
RW_4                0x10              C:\Users\Bhagawat\AppData\Local\Temp\ccBLkweo.o
LPFK2HighSL         0x8               C:\Users\Bhagawat\AppData\Local\Temp\ccCmOWXC.o
suu                 0x8               C:\Users\Bhagawat\AppData\Local\Temp\ccCmOWXC.o
Pos_ECI_GPS         0x18              C:\Users\Bhagawat\AppData\Local\Temp\ccCmOWXC.o
Alti_Mod            0x8               C:\Users\Bhagawat\AppData\Local\Temp\ccCmOWXC.o
pl_x_tx_data_off_flag
                    0x4               C:\Users\Bhagawat\AppData\Local\Temp\ccbuJliF.o
Msun                0x8               C:\Users\Bhagawat\AppData\Local\Temp\ccCmOWXC.o
alpha_2RW_tempnorm  0x8               C:\Users\Bhagawat\AppData\Local\Temp\ccCmOWXC.o
X_SFAO2ECI          0x18              C:\Users\Bhagawat\AppData\Local\Temp\ccCmOWXC.o
Q_REF               0x20              C:\Users\Bhagawat\AppData\Local\Temp\ccCmOWXC.o
rp                  0x8               C:\Users\Bhagawat\AppData\Local\Temp\ccCmOWXC.o
nodeo_tc            0x8               C:\Users\Bhagawat\AppData\Local\Temp\ccCmOWXC.o
DelThta_rawdata     0x18              C:\Users\Bhagawat\AppData\Local\Temp\ccCmOWXC.o
Y_EPO2ECI           0x18              C:\Users\Bhagawat\AppData\Local\Temp\ccCmOWXC.o
GPS1_ptr            0x4               C:\Users\Bhagawat\AppData\Local\Temp\ccP2pYow.o
temp_data_rw        0x2               C:\Users\Bhagawat\AppData\Local\Temp\ccSFvBJa.o
w_BODYnorm          0x8               C:\Users\Bhagawat\AppData\Local\Temp\ccCmOWXC.o
radialdistance_ecef
                    0x8               C:\Users\Bhagawat\AppData\Local\Temp\ccCmOWXC.o
CB_QuestDataProcessing
                    0x4               C:\Users\Bhagawat\AppData\Local\Temp\ccCmOWXC.o
Q_stn_off           0x20              C:\Users\Bhagawat\AppData\Local\Temp\ccCmOWXC.o
ST_Out_latch_5      0x2               C:\Users\Bhagawat\AppData\Local\Temp\ccmG331P.o
year_sel            0x4               C:\Users\Bhagawat\AppData\Local\Temp\ccCmOWXC.o
sinio               0x8               C:\Users\Bhagawat\AppData\Local\Temp\ccCmOWXC.o
Epsilon             0x8               C:\Users\Bhagawat\AppData\Local\Temp\ccCmOWXC.o
j_god               0x4               C:\Users\Bhagawat\AppData\Local\Temp\ccCmOWXC.o
Qk_temp1            0x8               C:\Users\Bhagawat\AppData\Local\Temp\ccCmOWXC.o
TTDB                0x8               C:\Users\Bhagawat\AppData\Local\Temp\ccCmOWXC.o
pre_temp            0x48              C:\Users\Bhagawat\AppData\Local\Temp\ccCmOWXC.o
chk_sum_u8          0x1               C:\Users\Bhagawat\AppData\Local\Temp\ccmG331P.o
VelX_ECEF_GPS       0x8               C:\Users\Bhagawat\AppData\Local\Temp\ccCmOWXC.o
Z_SFDO2ECI          0x18              C:\Users\Bhagawat\AppData\Local\Temp\ccCmOWXC.o
X_SFDO2ECI_mag      0x8               C:\Users\Bhagawat\AppData\Local\Temp\ccCmOWXC.o
battery_temp_1      0x4               C:\Users\Bhagawat\AppData\Local\Temp\cc4J82Fr.o
LPFK1LowSL          0x8               C:\Users\Bhagawat\AppData\Local\Temp\ccCmOWXC.o
BLK_number          0x1               C:\Users\Bhagawat\AppData\Local\Temp\ccSFvBJa.o
DFCCountLimSL       0x10              C:\Users\Bhagawat\AppData\Local\Temp\ccCmOWXC.o
distsqrd            0x8               C:\Users\Bhagawat\AppData\Local\Temp\ccCmOWXC.o
am_temp             0x8               C:\Users\Bhagawat\AppData\Local\Temp\ccCmOWXC.o
k_DAD               0x8               C:\Users\Bhagawat\AppData\Local\Temp\ccCmOWXC.o
Qk_temp3            0x8               C:\Users\Bhagawat\AppData\Local\Temp\ccCmOWXC.o
TCH_read_full_ptr   0x4               C:\Users\Bhagawat\AppData\Local\Temp\ccmG331P.o
sec_TLE_tc          0x8               C:\Users\Bhagawat\AppData\Local\Temp\ccCmOWXC.o
ss_data             0x1e              C:\Users\Bhagawat\AppData\Local\Temp\cc4J82Fr.o
SS_M1               0x8               C:\Users\Bhagawat\AppData\Local\Temp\ccCmOWXC.o
GPS_Status2_Msg     0x2               C:\Users\Bhagawat\AppData\Local\Temp\ccP2pYow.o
HILS_packet         0x40              C:\Users\Bhagawat\AppData\Local\Temp\ccmG331P.o
inter_at697f_count  0x4               C:\Users\Bhagawat\AppData\Local\Temp\ccmG331P.o
invangmomentumvecmag
                    0x8               C:\Users\Bhagawat\AppData\Local\Temp\ccCmOWXC.o
TMTC_boolean_u      0xc               C:\Users\Bhagawat\AppData\Local\Temp\ccmG331P.o
rvdotl              0x8               C:\Users\Bhagawat\AppData\Local\Temp\ccCmOWXC.o
qk_plus_conj        0x20              C:\Users\Bhagawat\AppData\Local\Temp\ccCmOWXC.o
Pos_ECEFn           0x18              C:\Users\Bhagawat\AppData\Local\Temp\ccCmOWXC.o
Block_Index         0x100             C:\Users\Bhagawat\AppData\Local\Temp\ccFLNK2X.o
X_EPO2ECI_mag       0x8               C:\Users\Bhagawat\AppData\Local\Temp\ccCmOWXC.o
emsq                0x8               C:\Users\Bhagawat\AppData\Local\Temp\ccCmOWXC.o
c_DAD               0x8               C:\Users\Bhagawat\AppData\Local\Temp\ccCmOWXC.o
ST_TC_history_final_Buffer
                    0xfa00            C:\Users\Bhagawat\AppData\Local\Temp\ccmG331P.o
NEDtoECEF           0x48              C:\Users\Bhagawat\AppData\Local\Temp\ccCmOWXC.o
kfq01               0x20              C:\Users\Bhagawat\AppData\Local\Temp\ccCmOWXC.o
TM_IMU2             0x18              C:\Users\Bhagawat\AppData\Local\Temp\ccmG331P.o
sine2               0x8               C:\Users\Bhagawat\AppData\Local\Temp\ccCmOWXC.o
TB_sMD              0x18              C:\Users\Bhagawat\AppData\Local\Temp\ccCmOWXC.o
GPSDataReady_NA_count
                    0x4               C:\Users\Bhagawat\AppData\Local\Temp\ccCmOWXC.o
ecc                 0x8               C:\Users\Bhagawat\AppData\Local\Temp\ccCmOWXC.o
ref_cross           0x48              C:\Users\Bhagawat\AppData\Local\Temp\ccCmOWXC.o
cosip               0x8               C:\Users\Bhagawat\AppData\Local\Temp\ccCmOWXC.o
CB_ErrorComputation
                    0x4               C:\Users\Bhagawat\AppData\Local\Temp\ccCmOWXC.o
maha                0x2               C:\Users\Bhagawat\AppData\Local\Temp\ccP2pYow.o
SSREDT_ARRAY        0x40              C:\Users\Bhagawat\AppData\Local\Temp\ccCmOWXC.o
l_gcgd              0x8               C:\Users\Bhagawat\AppData\Local\Temp\ccCmOWXC.o
rw_tm_count         0x4               C:\Users\Bhagawat\AppData\Local\Temp\ccBLkweo.o
hils_datas          0xfc              C:\Users\Bhagawat\AppData\Local\Temp\ccbuJliF.o
ecc_r               0x8               C:\Users\Bhagawat\AppData\Local\Temp\ccCmOWXC.o
Thta_BODY_IMU1      0x18              C:\Users\Bhagawat\AppData\Local\Temp\ccCmOWXC.o
Norm_ST_Table_Row_No
                    0x4               C:\Users\Bhagawat\AppData\Local\Temp\ccmG331P.o
TC_long_station     0x8               C:\Users\Bhagawat\AppData\Local\Temp\ccCmOWXC.o
PolChec_LUT_res     0x4               C:\Users\Bhagawat\AppData\Local\Temp\ccCmOWXC.o
manual_on_off       0x4               C:\Users\Bhagawat\AppData\Local\Temp\cc5opyBQ.o
H_wh                0x20              C:\Users\Bhagawat\AppData\Local\Temp\ccCmOWXC.o
SS_Data             0x80              C:\Users\Bhagawat\AppData\Local\Temp\ccCmOWXC.o
wh_sdump_start      0x10              C:\Users\Bhagawat\AppData\Local\Temp\ccCmOWXC.o
temp_prop           0x8               C:\Users\Bhagawat\AppData\Local\Temp\ccCmOWXC.o
Z_SFAO2ECI_mag      0x8               C:\Users\Bhagawat\AppData\Local\Temp\ccCmOWXC.o
Tsince_GPS          0x8               C:\Users\Bhagawat\AppData\Local\Temp\ccCmOWXC.o
Pitch_Pol           0x4               C:\Users\Bhagawat\AppData\Local\Temp\ccjU9hyn.o
SC2ImaxF            0x8               C:\Users\Bhagawat\AppData\Local\Temp\ccCmOWXC.o
pres_exp_whsp_ch    0x20              C:\Users\Bhagawat\AppData\Local\Temp\ccCmOWXC.o
m_gh                0x1               C:\Users\Bhagawat\AppData\Local\Temp\ccCmOWXC.o
B_ECItesla          0x18              C:\Users\Bhagawat\AppData\Local\Temp\ccCmOWXC.o
Result_of_sine_Delta_cube
                    0x8               C:\Users\Bhagawat\AppData\Local\Temp\ccCmOWXC.o
kfT_RW_NET          0x18              C:\Users\Bhagawat\AppData\Local\Temp\ccCmOWXC.o
Pse_Inv_Dist_Mat    0x60              C:\Users\Bhagawat\AppData\Local\Temp\ccCmOWXC.o
LPFK2LowSL          0x8               C:\Users\Bhagawat\AppData\Local\Temp\ccCmOWXC.o
pl_hlt_flag         0x2               C:\Users\Bhagawat\AppData\Local\Temp\ccbuJliF.o
ux                  0x8               C:\Users\Bhagawat\AppData\Local\Temp\ccCmOWXC.o
TC_KP               0x18              C:\Users\Bhagawat\AppData\Local\Temp\ccCmOWXC.o
GPS_Data            0x2               C:\Users\Bhagawat\AppData\Local\Temp\ccP2pYow.o
cos_of_W_norm_and_Delta_by2
                    0x8               C:\Users\Bhagawat\AppData\Local\Temp\ccCmOWXC.o
Q_StP2ECI           0x20              C:\Users\Bhagawat\AppData\Local\Temp\ccCmOWXC.o
phi_11_temp3        0x48              C:\Users\Bhagawat\AppData\Local\Temp\ccCmOWXC.o
phi_11_temp2        0x48              C:\Users\Bhagawat\AppData\Local\Temp\ccCmOWXC.o
Normal_st_table_page3
                    0x4               C:\Users\Bhagawat\AppData\Local\Temp\ccmG331P.o
wo                  0x8               C:\Users\Bhagawat\AppData\Local\Temp\ccCmOWXC.o
kfg1                0x18              C:\Users\Bhagawat\AppData\Local\Temp\ccCmOWXC.o
gamma_DAD           0x8               C:\Users\Bhagawat\AppData\Local\Temp\ccCmOWXC.o
epochdays_GPS       0x8               C:\Users\Bhagawat\AppData\Local\Temp\ccCmOWXC.o
UTC_min_GPS         0x4               C:\Users\Bhagawat\AppData\Local\Temp\ccCmOWXC.o
CB_Detumbling_Mode  0x4               C:\Users\Bhagawat\AppData\Local\Temp\ccCmOWXC.o
K_DADAD             0x4               C:\Users\Bhagawat\AppData\Local\Temp\ccCmOWXC.o
comb2               0x8               C:\Users\Bhagawat\AppData\Local\Temp\ccCmOWXC.o
phi_k_pk_plus_phi_k_T
                    0x288             C:\Users\Bhagawat\AppData\Local\Temp\ccCmOWXC.o
imu2_db_checksum_obc
                    0x4               C:\Users\Bhagawat\AppData\Local\Temp\ccCmOWXC.o
Qerror              0x20              C:\Users\Bhagawat\AppData\Local\Temp\ccCmOWXC.o
TC_delUT1           0x8               C:\Users\Bhagawat\AppData\Local\Temp\ccCmOWXC.o
argpo               0x8               C:\Users\Bhagawat\AppData\Local\Temp\ccCmOWXC.o
dt_ar               0x28              C:\Users\Bhagawat\AppData\Local\Temp\ccmG331P.o
am_den              0x8               C:\Users\Bhagawat\AppData\Local\Temp\ccCmOWXC.o
Nodeptr             0xfa0             C:\Users\Bhagawat\AppData\Local\Temp\ccFLNK2X.o
mat_mult            0x48              C:\Users\Bhagawat\AppData\Local\Temp\ccCmOWXC.o
delm                0x8               C:\Users\Bhagawat\AppData\Local\Temp\ccCmOWXC.o
RW_Write_Data       0x14              C:\Users\Bhagawat\AppData\Local\Temp\ccBLkweo.o
Tdefnorm            0x8               C:\Users\Bhagawat\AppData\Local\Temp\ccCmOWXC.o
GPS_RCVD_DATA       0x200             C:\Users\Bhagawat\AppData\Local\Temp\ccP2pYow.o
WhMom0              0x20              C:\Users\Bhagawat\AppData\Local\Temp\ccCmOWXC.o
Pos_ECIn            0x18              C:\Users\Bhagawat\AppData\Local\Temp\ccCmOWXC.o
cc1sq               0x8               C:\Users\Bhagawat\AppData\Local\Temp\ccCmOWXC.o
I_MAGAD             0x4               C:\Users\Bhagawat\AppData\Local\Temp\ccCmOWXC.o
ecc_temp5           0x8               C:\Users\Bhagawat\AppData\Local\Temp\ccCmOWXC.o
Special_st_table_page2
                    0x4               C:\Users\Bhagawat\AppData\Local\Temp\ccmG331P.o
jd_time             0x8               C:\Users\Bhagawat\AppData\Local\Temp\ccCmOWXC.o
ecco                0x8               C:\Users\Bhagawat\AppData\Local\Temp\ccCmOWXC.o
vsaty_eci           0x8               C:\Users\Bhagawat\AppData\Local\Temp\ccCmOWXC.o
eeprom_flag         0x1               C:\Users\Bhagawat\AppData\Local\Temp\ccmG331P.o
xlcof               0x8               C:\Users\Bhagawat\AppData\Local\Temp\ccCmOWXC.o
K_temp              0x48              C:\Users\Bhagawat\AppData\Local\Temp\ccCmOWXC.o
inter_Update_TM_With_ADC_offset
                    0x4               C:\Users\Bhagawat\AppData\Local\Temp\cc4J82Fr.o
h                   0x780             C:\Users\Bhagawat\AppData\Local\Temp\ccCmOWXC.o
gps_obt_counter     0x4               C:\Users\Bhagawat\AppData\Local\Temp\ccP2pYow.o
NMS_NRSt            0x48              C:\Users\Bhagawat\AppData\Local\Temp\ccCmOWXC.o
IMU_Config_Done     0x4               C:\Users\Bhagawat\AppData\Local\Temp\ccSFvBJa.o
latitude            0x8               C:\Users\Bhagawat\AppData\Local\Temp\ccCmOWXC.o
TC_buffer_count     0x4b0             C:\Users\Bhagawat\AppData\Local\Temp\ccFLNK2X.o
den_gcgd            0x8               C:\Users\Bhagawat\AppData\Local\Temp\ccCmOWXC.o
Absolutetime        0x4               C:\Users\Bhagawat\AppData\Local\Temp\ccFLNK2X.o
addr_pointer_TM     0x4               C:\Users\Bhagawat\AppData\Local\Temp\ccmG331P.o
TC_Det_Bprev_Count  0x4               C:\Users\Bhagawat\AppData\Local\Temp\ccCmOWXC.o
pl_acq_flag         0x4               C:\Users\Bhagawat\AppData\Local\Temp\ccbuJliF.o
GPS_TM_Buffer_Addr_USC
                    0x4               C:\Users\Bhagawat\AppData\Local\Temp\ccP2pYow.o
Vel_ECEF_temp       0x18              C:\Users\Bhagawat\AppData\Local\Temp\ccCmOWXC.o
count_arc_w2        0x4               C:\Users\Bhagawat\AppData\Local\Temp\ccCmOWXC.o
Y_EPO2ECI_mag       0x8               C:\Users\Bhagawat\AppData\Local\Temp\ccCmOWXC.o
cd_magad            0x8               C:\Users\Bhagawat\AppData\Local\Temp\ccCmOWXC.o
imu1_db_checksum_obc
                    0x4               C:\Users\Bhagawat\AppData\Local\Temp\ccCmOWXC.o
latitude_GPS        0x8               C:\Users\Bhagawat\AppData\Local\Temp\ccCmOWXC.o
del_v0              0x20              C:\Users\Bhagawat\AppData\Local\Temp\ccCmOWXC.o
RW_ARC_Count        0x4               C:\Users\Bhagawat\AppData\Local\Temp\ccCmOWXC.o
RW_TM               0x200             C:\Users\Bhagawat\AppData\Local\Temp\ccBLkweo.o
TC_AutoTransitAnyMode2Det
                    0x4               C:\Users\Bhagawat\AppData\Local\Temp\ccCmOWXC.o
DFCTorq             0x20              C:\Users\Bhagawat\AppData\Local\Temp\ccCmOWXC.o
Spec_ST_Table       0x2028            C:\Users\Bhagawat\AppData\Local\Temp\ccmG331P.o
sinim               0x8               C:\Users\Bhagawat\AppData\Local\Temp\ccCmOWXC.o
var                 0x8               C:\Users\Bhagawat\AppData\Local\Temp\ccCmOWXC.o
qk_minus            0x20              C:\Users\Bhagawat\AppData\Local\Temp\ccCmOWXC.o
Q_REF_prev_conj     0x20              C:\Users\Bhagawat\AppData\Local\Temp\ccCmOWXC.o
cosu                0x8               C:\Users\Bhagawat\AppData\Local\Temp\ccCmOWXC.o
BDOT_Norm_Count     0x4               C:\Users\Bhagawat\AppData\Local\Temp\ccCmOWXC.o
Susp_cnt            0x4               C:\Users\Bhagawat\AppData\Local\Temp\ccCmOWXC.o
Buffer              0x801             C:\Users\Bhagawat\AppData\Local\Temp\ccmG331P.o
Out_Latch_3         0x2               C:\Users\Bhagawat\AppData\Local\Temp\ccmG331P.o
ao_sfour            0x8               C:\Users\Bhagawat\AppData\Local\Temp\ccCmOWXC.o
precession          0x48              C:\Users\Bhagawat\AppData\Local\Temp\ccCmOWXC.o
Z_SFAO2ECI          0x18              C:\Users\Bhagawat\AppData\Local\Temp\ccCmOWXC.o
S_sqr_DAD           0x48              C:\Users\Bhagawat\AppData\Local\Temp\ccCmOWXC.o
TLE_data            0x39              C:\Users\Bhagawat\AppData\Local\Temp\ccFLNK2X.o
nodeo               0x8               C:\Users\Bhagawat\AppData\Local\Temp\ccCmOWXC.o
R_StP2ECI           0x48              C:\Users\Bhagawat\AppData\Local\Temp\ccCmOWXC.o
inter_HAL_RW_Read_Addr
                    0x4               C:\Users\Bhagawat\AppData\Local\Temp\ccBLkweo.o
kfv1                0x20              C:\Users\Bhagawat\AppData\Local\Temp\ccCmOWXC.o
sun_noise           0x8               C:\Users\Bhagawat\AppData\Local\Temp\ccCmOWXC.o
IMU_Data_Available  0x4               C:\Users\Bhagawat\AppData\Local\Temp\ccSFvBJa.o
ecc_sel             0x8               C:\Users\Bhagawat\AppData\Local\Temp\ccCmOWXC.o
n_gh                0x1               C:\Users\Bhagawat\AppData\Local\Temp\ccCmOWXC.o
ecc_temp7           0x8               C:\Users\Bhagawat\AppData\Local\Temp\ccCmOWXC.o
asqrd               0x8               C:\Users\Bhagawat\AppData\Local\Temp\ccCmOWXC.o
etempe              0x8               C:\Users\Bhagawat\AppData\Local\Temp\ccCmOWXC.o
kfw_dot_temp        0x18              C:\Users\Bhagawat\AppData\Local\Temp\ccCmOWXC.o
Dest_end_addr       0x4               C:\Users\Bhagawat\AppData\Local\Temp\ccmG331P.o
A1_magad            0x8               C:\Users\Bhagawat\AppData\Local\Temp\ccCmOWXC.o
R_SPO2ECI           0x48              C:\Users\Bhagawat\AppData\Local\Temp\ccCmOWXC.o
xsatx_eci           0x8               C:\Users\Bhagawat\AppData\Local\Temp\ccCmOWXC.o
UTC_EE              0x8               C:\Users\Bhagawat\AppData\Local\Temp\ccCmOWXC.o
no_GPS              0x8               C:\Users\Bhagawat\AppData\Local\Temp\ccCmOWXC.o
Yk_minus_hk         0x18              C:\Users\Bhagawat\AppData\Local\Temp\ccCmOWXC.o
__bcc_isr_list      0x80              c:/opt/bcc-2.0.2-gcc/bin/../sparc-gaisler-elf/bsp/leon2/leon/mfix-at697f\libbcc.a(isr.c.o)
TDT                 0x8               C:\Users\Bhagawat\AppData\Local\Temp\ccCmOWXC.o
w_BODY_IMU1         0x18              C:\Users\Bhagawat\AppData\Local\Temp\ccCmOWXC.o
qk_DCM              0x48              C:\Users\Bhagawat\AppData\Local\Temp\ccCmOWXC.o
mat_mag_DataCounter
                    0x4               C:\Users\Bhagawat\AppData\Local\Temp\ccCmOWXC.o
argpo_sel           0x8               C:\Users\Bhagawat\AppData\Local\Temp\ccCmOWXC.o
dak                 0x4               C:\Users\Bhagawat\AppData\Local\Temp\ccBLkweo.o
SunNPP_SMtransit_counter
                    0x4               C:\Users\Bhagawat\AppData\Local\Temp\ccCmOWXC.o
kfT_RW_NET_temp     0x20              C:\Users\Bhagawat\AppData\Local\Temp\ccCmOWXC.o
psetasq             0x8               C:\Users\Bhagawat\AppData\Local\Temp\ccCmOWXC.o
TC_RW_Nominal       0x10              C:\Users\Bhagawat\AppData\Local\Temp\ccCmOWXC.o
f_battery_safemode  0x4               C:\Users\Bhagawat\AppData\Local\Temp\ccCmOWXC.o
Pos_ECI             0x18              C:\Users\Bhagawat\AppData\Local\Temp\ccCmOWXC.o
e_vecdtr            0x8               C:\Users\Bhagawat\AppData\Local\Temp\ccCmOWXC.o
inter_HAL_IMU_Status_Data
                    0x4               C:\Users\Bhagawat\AppData\Local\Temp\ccSFvBJa.o
nodeo_TLE_tc        0x8               C:\Users\Bhagawat\AppData\Local\Temp\ccCmOWXC.o
pl_diag_flag        0x4               C:\Users\Bhagawat\AppData\Local\Temp\ccbuJliF.o
L_Ecliptic          0x8               C:\Users\Bhagawat\AppData\Local\Temp\ccCmOWXC.o
trueanomoly_TLE_tc  0x8               C:\Users\Bhagawat\AppData\Local\Temp\ccCmOWXC.o
kfv2                0x20              C:\Users\Bhagawat\AppData\Local\Temp\ccCmOWXC.o
w_q_update_satisfy  0x4               C:\Users\Bhagawat\AppData\Local\Temp\ccCmOWXC.o
rteosq              0x8               C:\Users\Bhagawat\AppData\Local\Temp\ccCmOWXC.o
lmonth              0x34              C:\Users\Bhagawat\AppData\Local\Temp\ccCmOWXC.o
R_SFDO2ECI          0x48              C:\Users\Bhagawat\AppData\Local\Temp\ccCmOWXC.o
UTC_sec_GPS         0x8               C:\Users\Bhagawat\AppData\Local\Temp\ccCmOWXC.o
M_quad              0x8               C:\Users\Bhagawat\AppData\Local\Temp\ccCmOWXC.o
ss2b                0x48              C:\Users\Bhagawat\AppData\Local\Temp\ccCmOWXC.o
GPS_msg_header_LSB  0x4               C:\Users\Bhagawat\AppData\Local\Temp\ccP2pYow.o
speedDFCch          0x8               C:\Users\Bhagawat\AppData\Local\Temp\ccCmOWXC.o
dc_qst              0x4               C:\Users\Bhagawat\AppData\Local\Temp\ccCmOWXC.o
theta2_se           0x8               C:\Users\Bhagawat\AppData\Local\Temp\ccCmOWXC.o
inter_HAL_RW_Read_Limit
                    0x4               C:\Users\Bhagawat\AppData\Local\Temp\ccBLkweo.o
cc1                 0x8               C:\Users\Bhagawat\AppData\Local\Temp\ccCmOWXC.o
X_SVO2ECI           0x18              C:\Users\Bhagawat\AppData\Local\Temp\ccCmOWXC.o
tut1                0x8               C:\Users\Bhagawat\AppData\Local\Temp\ccCmOWXC.o
Tdeficit_temp2      0x18              C:\Users\Bhagawat\AppData\Local\Temp\ccCmOWXC.o
GPS2                0x40              C:\Users\Bhagawat\AppData\Local\Temp\ccmG331P.o
Delta_T             0x8               C:\Users\Bhagawat\AppData\Local\Temp\ccCmOWXC.o
TC_S_ECI            0xc               C:\Users\Bhagawat\AppData\Local\Temp\ccFLNK2X.o
PL_ACK              0x2               C:\Users\Bhagawat\AppData\Local\Temp\ccbuJliF.o
GPS_Addr_Count      0x4               C:\Users\Bhagawat\AppData\Local\Temp\ccP2pYow.o
Kk_Hk_with_minus_one
                    0x288             C:\Users\Bhagawat\AppData\Local\Temp\ccCmOWXC.o
commandptr          0x4               C:\Users\Bhagawat\AppData\Local\Temp\ccFLNK2X.o
Bsq                 0x8               C:\Users\Bhagawat\AppData\Local\Temp\ccCmOWXC.o
BDown               0x8               C:\Users\Bhagawat\AppData\Local\Temp\ccCmOWXC.o
dumping_on          0x4               C:\Users\Bhagawat\AppData\Local\Temp\ccCmOWXC.o
wAD_updatecount     0x4               C:\Users\Bhagawat\AppData\Local\Temp\ccCmOWXC.o
IO_In_Latch_Register_4_Data
                    0x4               C:\Users\Bhagawat\AppData\Local\Temp\ccmG331P.o
polarmotion         0x48              C:\Users\Bhagawat\AppData\Local\Temp\ccCmOWXC.o
IO_Latch_Register_3_Data
                    0x4               C:\Users\Bhagawat\AppData\Local\Temp\ccmG331P.o
inter_HAL_Antenna_Addr
                    0x4               C:\Users\Bhagawat\AppData\Local\Temp\ccsgz4so.o
posq                0x8               C:\Users\Bhagawat\AppData\Local\Temp\ccCmOWXC.o
X_SFDO2ECI          0x18              C:\Users\Bhagawat\AppData\Local\Temp\ccCmOWXC.o
SA_STS              0x1               C:\Users\Bhagawat\AppData\Local\Temp\cc4J82Fr.o
TC_AngMomDump_Thrsld
                    0x8               C:\Users\Bhagawat\AppData\Local\Temp\ccCmOWXC.o
TM_IMU1             0x18              C:\Users\Bhagawat\AppData\Local\Temp\ccmG331P.o
t3cof               0x8               C:\Users\Bhagawat\AppData\Local\Temp\ccCmOWXC.o
FDI_NMI_Count       0x1               C:\Users\Bhagawat\AppData\Local\Temp\ccmG331P.o
T_MTk               0x18              C:\Users\Bhagawat\AppData\Local\Temp\ccCmOWXC.o
real_tm_finish      0x4               C:\Users\Bhagawat\AppData\Local\Temp\ccF3JHAe.o
ThreeAxis2DetMode_counter
                    0x4               C:\Users\Bhagawat\AppData\Local\Temp\ccCmOWXC.o
co_dec              0x8               C:\Users\Bhagawat\AppData\Local\Temp\ccCmOWXC.o
RW_Buffer_u         0x200             C:\Users\Bhagawat\AppData\Local\Temp\ccBLkweo.o
IMU_1               0x10              C:\Users\Bhagawat\AppData\Local\Temp\ccSFvBJa.o
Roll_MTREnable      0x4               C:\Users\Bhagawat\AppData\Local\Temp\ccCmOWXC.o
k_comr              0x4               C:\Users\Bhagawat\AppData\Local\Temp\ccCmOWXC.o
STATION_ECI         0x18              C:\Users\Bhagawat\AppData\Local\Temp\ccCmOWXC.o
Normal_st_table_page2
                    0x4               C:\Users\Bhagawat\AppData\Local\Temp\ccmG331P.o
GPS_OBT_Latch_enable
                    0x2               C:\Users\Bhagawat\AppData\Local\Temp\ccP2pYow.o
MUX_2               0x2               C:\Users\Bhagawat\AppData\Local\Temp\ccmG331P.o
eps                 0x8               C:\Users\Bhagawat\AppData\Local\Temp\ccCmOWXC.o
Y_SPO2ECI_mag       0x8               C:\Users\Bhagawat\AppData\Local\Temp\ccCmOWXC.o
lpfx_magbk          0x8               C:\Users\Bhagawat\AppData\Local\Temp\ccCmOWXC.o
gd_gcgd             0x8               C:\Users\Bhagawat\AppData\Local\Temp\ccCmOWXC.o
write_str_ptr       0x4               C:\Users\Bhagawat\AppData\Local\Temp\ccmG331P.o
B_ECIn              0x18              C:\Users\Bhagawat\AppData\Local\Temp\ccCmOWXC.o
vsatz_eci           0x8               C:\Users\Bhagawat\AppData\Local\Temp\ccCmOWXC.o
mod_of_Wk1_cube     0x8               C:\Users\Bhagawat\AppData\Local\Temp\ccCmOWXC.o
F_k                 0x288             C:\Users\Bhagawat\AppData\Local\Temp\ccCmOWXC.o
sin2u               0x8               C:\Users\Bhagawat\AppData\Local\Temp\ccCmOWXC.o
RW_Measured         0x10              C:\Users\Bhagawat\AppData\Local\Temp\ccBLkweo.o
inter_imu_j         0x4               C:\Users\Bhagawat\AppData\Local\Temp\ccCmOWXC.o
data_nc             0x4               C:\Users\Bhagawat\AppData\Local\Temp\ccbuJliF.o
TC_flag             0x4               C:\Users\Bhagawat\AppData\Local\Temp\ccFLNK2X.o
pl_sts_chk_flag     0x4               C:\Users\Bhagawat\AppData\Local\Temp\ccbuJliF.o
TC_boolean_u        0x52              C:\Users\Bhagawat\AppData\Local\Temp\ccmG331P.o
velmag              0x8               C:\Users\Bhagawat\AppData\Local\Temp\ccCmOWXC.o
A2_magad            0x8               C:\Users\Bhagawat\AppData\Local\Temp\ccCmOWXC.o
pl_i                0x4               C:\Users\Bhagawat\AppData\Local\Temp\ccbuJliF.o
TC_Buffer_Addr      0x4               C:\Users\Bhagawat\AppData\Local\Temp\ccFLNK2X.o
sl_magad            0x70              C:\Users\Bhagawat\AppData\Local\Temp\ccCmOWXC.o
Result_of_sine_Delta
                    0x8               C:\Users\Bhagawat\AppData\Local\Temp\ccCmOWXC.o
Dfunc_DAD           0x8               C:\Users\Bhagawat\AppData\Local\Temp\ccCmOWXC.o
cosio4              0x8               C:\Users\Bhagawat\AppData\Local\Temp\ccCmOWXC.o
Next_exe_TC         0x8               C:\Users\Bhagawat\AppData\Local\Temp\ccFLNK2X.o
flag_mni            0x4               C:\Users\Bhagawat\AppData\Local\Temp\ccFLNK2X.o
ST_source_Buffer    0x100             C:\Users\Bhagawat\AppData\Local\Temp\ccmG331P.o
TM_page_count       0x4               C:\Users\Bhagawat\AppData\Local\Temp\ccmG331P.o
temp_om             0x8               C:\Users\Bhagawat\AppData\Local\Temp\ccCmOWXC.o
data_x_tx           0x4               C:\Users\Bhagawat\AppData\Local\Temp\ccbuJliF.o
TC_max_whsp_spdump  0x8               C:\Users\Bhagawat\AppData\Local\Temp\ccCmOWXC.o
templ_op            0x8               C:\Users\Bhagawat\AppData\Local\Temp\ccCmOWXC.o
Pos_ECEF_GPS        0x18              C:\Users\Bhagawat\AppData\Local\Temp\ccCmOWXC.o
w_ASC               0x18              C:\Users\Bhagawat\AppData\Local\Temp\ccCmOWXC.o
min_TW              0x8               C:\Users\Bhagawat\AppData\Local\Temp\ccCmOWXC.o
LTP_data            0x2               C:\Users\Bhagawat\AppData\Local\Temp\cc5opyBQ.o
Zt_S_Z_DAD          0x8               C:\Users\Bhagawat\AppData\Local\Temp\ccCmOWXC.o
deps                0x8               C:\Users\Bhagawat\AppData\Local\Temp\ccCmOWXC.o
Ndte_vec            0x8               C:\Users\Bhagawat\AppData\Local\Temp\ccCmOWXC.o
temp_data_1_pl      0x2               C:\Users\Bhagawat\AppData\Local\Temp\ccbuJliF.o
TC_magbias_compensation_IMU1
                    0xc               C:\Users\Bhagawat\AppData\Local\Temp\ccFLNK2X.o
TC_command_pending  0x2               C:\Users\Bhagawat\AppData\Local\Temp\ccFLNK2X.o
CB_Wheel_OverSpeed_TorqueCutOff
                    0x4               C:\Users\Bhagawat\AppData\Local\Temp\ccCmOWXC.o
W_norm              0x8               C:\Users\Bhagawat\AppData\Local\Temp\ccCmOWXC.o
Det_BDOT_MC_Count   0x4               C:\Users\Bhagawat\AppData\Local\Temp\ccCmOWXC.o
TC_KalmanFilter_ENABLE
                    0x4               C:\Users\Bhagawat\AppData\Local\Temp\ccCmOWXC.o
xmx                 0x8               C:\Users\Bhagawat\AppData\Local\Temp\ccCmOWXC.o
Q_quest_DAD         0x20              C:\Users\Bhagawat\AppData\Local\Temp\ccCmOWXC.o
DFCGainHigh         0x8               C:\Users\Bhagawat\AppData\Local\Temp\ccCmOWXC.o
kfH_wh2body         0x18              C:\Users\Bhagawat\AppData\Local\Temp\ccCmOWXC.o
Torquer_Shutdown    0x4               C:\Users\Bhagawat\AppData\Local\Temp\ccCmOWXC.o
nodeo_sel           0x8               C:\Users\Bhagawat\AppData\Local\Temp\ccCmOWXC.o
qk_plus             0x20              C:\Users\Bhagawat\AppData\Local\Temp\ccCmOWXC.o
magRoll_angle       0x8               C:\Users\Bhagawat\AppData\Local\Temp\ccCmOWXC.o
sigma_v             0x8               C:\Users\Bhagawat\AppData\Local\Temp\ccCmOWXC.o
inter_HAL_IMU_Addr_Count
                    0x4               C:\Users\Bhagawat\AppData\Local\Temp\ccSFvBJa.o
f_GPS_Valid_Data    0x4               C:\Users\Bhagawat\AppData\Local\Temp\ccP2pYow.o
j_comr              0x4               C:\Users\Bhagawat\AppData\Local\Temp\ccCmOWXC.o
SS_M2               0x8               C:\Users\Bhagawat\AppData\Local\Temp\ccCmOWXC.o
sin_of_W_norm_and_Delta_by2
                    0x8               C:\Users\Bhagawat\AppData\Local\Temp\ccCmOWXC.o
ibexp               0x8               C:\Users\Bhagawat\AppData\Local\Temp\ccCmOWXC.o
GYRO_Threshold_Count
                    0x4               C:\Users\Bhagawat\AppData\Local\Temp\ccCmOWXC.o
inter_PL_TM_Dest_Addr
                    0x4               C:\Users\Bhagawat\AppData\Local\Temp\ccbuJliF.o
kfw0crossI_MAT_w0_HW2B
                    0x18              C:\Users\Bhagawat\AppData\Local\Temp\ccCmOWXC.o
inclination_TLE_tc  0x8               C:\Users\Bhagawat\AppData\Local\Temp\ccCmOWXC.o
PosY_ECEF_GPS       0x8               C:\Users\Bhagawat\AppData\Local\Temp\ccCmOWXC.o
heaters_auto        0x4               C:\Users\Bhagawat\AppData\Local\Temp\cc5opyBQ.o
Roll_ang_err        0x8               C:\Users\Bhagawat\AppData\Local\Temp\ccCmOWXC.o
heaters_manual      0x4               C:\Users\Bhagawat\AppData\Local\Temp\ccmG331P.o
Yaw_Pol             0x4               C:\Users\Bhagawat\AppData\Local\Temp\ccjU9hyn.o
CB_BDOT_Computation
                    0x4               C:\Users\Bhagawat\AppData\Local\Temp\ccCmOWXC.o
Qbody               0x20              C:\Users\Bhagawat\AppData\Local\Temp\ccCmOWXC.o
S_BODYn             0x18              C:\Users\Bhagawat\AppData\Local\Temp\ccCmOWXC.o
s_hk                0x18              C:\Users\Bhagawat\AppData\Local\Temp\ccCmOWXC.o
i_lict              0x4               C:\Users\Bhagawat\AppData\Local\Temp\ccCmOWXC.o
elapsed_running_timer
                    0x4               C:\Users\Bhagawat\AppData\Local\Temp\ccCmOWXC.o
IMU_prcd_data       0x30              C:\Users\Bhagawat\AppData\Local\Temp\ccCmOWXC.o
delta_DAD           0x8               C:\Users\Bhagawat\AppData\Local\Temp\ccCmOWXC.o
kfk2                0x20              C:\Users\Bhagawat\AppData\Local\Temp\ccCmOWXC.o
temp3               0x8               C:\Users\Bhagawat\AppData\Local\Temp\ccCmOWXC.o
B_Tef_ANG           0x8               C:\Users\Bhagawat\AppData\Local\Temp\ccCmOWXC.o
X_SPO2ECI           0x18              C:\Users\Bhagawat\AppData\Local\Temp\ccCmOWXC.o
sine_of_Wk1_Delta_by_Wk1
                    0x8               C:\Users\Bhagawat\AppData\Local\Temp\ccCmOWXC.o
ADC_Addr_Count      0x4               C:\Users\Bhagawat\AppData\Local\Temp\cc4J82Fr.o
PosX_ECEF_GPS       0x8               C:\Users\Bhagawat\AppData\Local\Temp\ccCmOWXC.o
TC_hist_write_ptr   0x4               C:\Users\Bhagawat\AppData\Local\Temp\ccFLNK2X.o
RWSpeed_RPM         0x20              C:\Users\Bhagawat\AppData\Local\Temp\ccCmOWXC.o
SS_M7               0x8               C:\Users\Bhagawat\AppData\Local\Temp\ccCmOWXC.o
i_tc_test           0x4               C:\Users\Bhagawat\AppData\Local\Temp\ccSFvBJa.o
SS_M6               0x8               C:\Users\Bhagawat\AppData\Local\Temp\ccCmOWXC.o
Q_axis              0x18              C:\Users\Bhagawat\AppData\Local\Temp\ccCmOWXC.o
Wheel_Config        0x4               C:\Users\Bhagawat\AppData\Local\Temp\ccCmOWXC.o
psisq               0x8               C:\Users\Bhagawat\AppData\Local\Temp\ccCmOWXC.o
N_MAGAD             0x4               C:\Users\Bhagawat\AppData\Local\Temp\ccCmOWXC.o
ra_gcgd             0x8               C:\Users\Bhagawat\AppData\Local\Temp\ccCmOWXC.o
argpm               0x8               C:\Users\Bhagawat\AppData\Local\Temp\ccCmOWXC.o
tm_ds_en_flag       0x4               C:\Users\Bhagawat\AppData\Local\Temp\ccbuJliF.o
Remote_data_addr    0x4               C:\Users\Bhagawat\AppData\Local\Temp\ccmG331P.o
mp                  0x8               C:\Users\Bhagawat\AppData\Local\Temp\ccCmOWXC.o
am                  0x8               C:\Users\Bhagawat\AppData\Local\Temp\ccCmOWXC.o
Remote_data         0x4               C:\Users\Bhagawat\AppData\Local\Temp\ccFLNK2X.o
UTP_data            0x2               C:\Users\Bhagawat\AppData\Local\Temp\cc5opyBQ.o
TC_comd_pitch_rate  0x8               C:\Users\Bhagawat\AppData\Local\Temp\ccCmOWXC.o
TorquerDutyCycle    0xc               C:\Users\Bhagawat\AppData\Local\Temp\ccCmOWXC.o
Special_st_table_page1
                    0x4               C:\Users\Bhagawat\AppData\Local\Temp\ccmG331P.o
xl                  0x8               C:\Users\Bhagawat\AppData\Local\Temp\ccCmOWXC.o
dayofyr             0x4               C:\Users\Bhagawat\AppData\Local\Temp\ccCmOWXC.o
pl_tm_ptr           0x4               C:\Users\Bhagawat\AppData\Local\Temp\ccbuJliF.o
adotb               0x8               C:\Users\Bhagawat\AppData\Local\Temp\ccCmOWXC.o
rw_data             0x2               C:\Users\Bhagawat\AppData\Local\Temp\ccSFvBJa.o
eta                 0x8               C:\Users\Bhagawat\AppData\Local\Temp\ccCmOWXC.o
w_BODY              0x18              C:\Users\Bhagawat\AppData\Local\Temp\ccCmOWXC.o
NOB_CRC_TMC         0x4               C:\Users\Bhagawat\AppData\Local\Temp\ccBLkweo.o
ibexp_tc            0x8               C:\Users\Bhagawat\AppData\Local\Temp\ccCmOWXC.o
SunNPP_SMtransit_count_limit
                    0x4               C:\Users\Bhagawat\AppData\Local\Temp\ccCmOWXC.o
bsqrd               0x8               C:\Users\Bhagawat\AppData\Local\Temp\ccCmOWXC.o
dlambda_gcgd        0x8               C:\Users\Bhagawat\AppData\Local\Temp\ccCmOWXC.o
TC_BDOT_Norm_Threshold
                    0x8               C:\Users\Bhagawat\AppData\Local\Temp\ccCmOWXC.o
CB_IMUDataProcessing
                    0x4               C:\Users\Bhagawat\AppData\Local\Temp\ccCmOWXC.o
nodep               0x8               C:\Users\Bhagawat\AppData\Local\Temp\ccCmOWXC.o
NMI_fail_count      0x1               C:\Users\Bhagawat\AppData\Local\Temp\ccmG331P.o
inter_TM_real_Minor_Cycle_Count
                    0x4               C:\Users\Bhagawat\AppData\Local\Temp\ccmG331P.o
Vel_ECI_temp        0x18              C:\Users\Bhagawat\AppData\Local\Temp\ccCmOWXC.o
inter_ST_TM_Minor_Cycle_Count
                    0x4               C:\Users\Bhagawat\AppData\Local\Temp\ccmG331P.o
GPS_Locations       0x4               C:\Users\Bhagawat\AppData\Local\Temp\ccP2pYow.o
sus_data            0x1               C:\Users\Bhagawat\AppData\Local\Temp\ccSFvBJa.o
T_RW_NETk           0x18              C:\Users\Bhagawat\AppData\Local\Temp\ccCmOWXC.o
omeosq              0x8               C:\Users\Bhagawat\AppData\Local\Temp\ccCmOWXC.o
Matout431           0x20              C:\Users\Bhagawat\AppData\Local\Temp\ccCmOWXC.o
R_EPO2ECI           0x48              C:\Users\Bhagawat\AppData\Local\Temp\ccCmOWXC.o
lpfz_magbk          0x8               C:\Users\Bhagawat\AppData\Local\Temp\ccCmOWXC.o
i_GPS_B_Count       0x4               C:\Users\Bhagawat\AppData\Local\Temp\ccP2pYow.o
inter_TM_Minor_Cycle_Count
                    0x4               C:\Users\Bhagawat\AppData\Local\Temp\ccmG331P.o
phi_12              0x48              C:\Users\Bhagawat\AppData\Local\Temp\ccCmOWXC.o
Alti                0x8               C:\Users\Bhagawat\AppData\Local\Temp\ccCmOWXC.o
kfw_dot             0x18              C:\Users\Bhagawat\AppData\Local\Temp\ccCmOWXC.o
temp_jday           0x8               C:\Users\Bhagawat\AppData\Local\Temp\ccCmOWXC.o
NOB_SFC_TMC         0x4               C:\Users\Bhagawat\AppData\Local\Temp\ccBLkweo.o
Del_Y_theta         0x8               C:\Users\Bhagawat\AppData\Local\Temp\ccCmOWXC.o
RWS                 0x10              C:\Users\Bhagawat\AppData\Local\Temp\ccBLkweo.o
pk                  0x288             C:\Users\Bhagawat\AppData\Local\Temp\ccCmOWXC.o
USIF_u              0x4               C:\Users\Bhagawat\AppData\Local\Temp\ccBLkweo.o
longitude_tan_num   0x8               C:\Users\Bhagawat\AppData\Local\Temp\ccCmOWXC.o
input_latch_1       0x2               C:\Users\Bhagawat\AppData\Local\Temp\ccmG331P.o
DFCCount            0x10              C:\Users\Bhagawat\AppData\Local\Temp\ccCmOWXC.o
cos_of_Wk1_Delta_by_Wk1_square
                    0x8               C:\Users\Bhagawat\AppData\Local\Temp\ccCmOWXC.o
ADC_Data            0x4               C:\Users\Bhagawat\AppData\Local\Temp\cc4J82Fr.o
IMU_2               0x10              C:\Users\Bhagawat\AppData\Local\Temp\ccSFvBJa.o
Julian_day          0x8               C:\Users\Bhagawat\AppData\Local\Temp\ccCmOWXC.o
SS_M3               0x8               C:\Users\Bhagawat\AppData\Local\Temp\ccCmOWXC.o
GPS_Select          0x4               C:\Users\Bhagawat\AppData\Local\Temp\ccCmOWXC.o
Trwa_mt_comp        0x18              C:\Users\Bhagawat\AppData\Local\Temp\ccCmOWXC.o
ak_temp             0x8               C:\Users\Bhagawat\AppData\Local\Temp\ccCmOWXC.o
BDOT_deltaT         0x8               C:\Users\Bhagawat\AppData\Local\Temp\ccCmOWXC.o
db_gps_start_address
                    0x4               C:\Users\Bhagawat\AppData\Local\Temp\ccP2pYow.o
sinsu               0x8               C:\Users\Bhagawat\AppData\Local\Temp\ccCmOWXC.o
zeta                0x8               C:\Users\Bhagawat\AppData\Local\Temp\ccCmOWXC.o
velmagsq            0x8               C:\Users\Bhagawat\AppData\Local\Temp\ccCmOWXC.o
CB_Sl_Ecl_OnBrd_detection
                    0x4               C:\Users\Bhagawat\AppData\Local\Temp\ccCmOWXC.o
nodedot             0x8               C:\Users\Bhagawat\AppData\Local\Temp\ccCmOWXC.o
e_vec               0x18              C:\Users\Bhagawat\AppData\Local\Temp\ccCmOWXC.o
TM_Table_Row_No     0x4               C:\Users\Bhagawat\AppData\Local\Temp\ccmG331P.o
wheel_index_ARCsum  0x4               C:\Users\Bhagawat\AppData\Local\Temp\ccCmOWXC.o
TCH_cpy_ptr         0x4               C:\Users\Bhagawat\AppData\Local\Temp\ccmG331P.o
sin_of_W_norm_Delta_by2_and_W_norm
                    0x8               C:\Users\Bhagawat\AppData\Local\Temp\ccCmOWXC.o
S_REF               0x18              C:\Users\Bhagawat\AppData\Local\Temp\ccCmOWXC.o
Xk                  0x48              C:\Users\Bhagawat\AppData\Local\Temp\ccCmOWXC.o
RAAN                0x8               C:\Users\Bhagawat\AppData\Local\Temp\ccCmOWXC.o
w_BODY_IMU2         0x18              C:\Users\Bhagawat\AppData\Local\Temp\ccCmOWXC.o
Zt_Z_DAD            0x8               C:\Users\Bhagawat\AppData\Local\Temp\ccCmOWXC.o
nm_temp             0x8               C:\Users\Bhagawat\AppData\Local\Temp\ccCmOWXC.o
Vel_ECEF            0x18              C:\Users\Bhagawat\AppData\Local\Temp\ccCmOWXC.o
REF_FRAME_DCM       0x48              C:\Users\Bhagawat\AppData\Local\Temp\ccCmOWXC.o
sfour               0x8               C:\Users\Bhagawat\AppData\Local\Temp\ccCmOWXC.o
angmomentumvecmag   0x8               C:\Users\Bhagawat\AppData\Local\Temp\ccCmOWXC.o
kfg3                0x18              C:\Users\Bhagawat\AppData\Local\Temp\ccCmOWXC.o
Invmatout33         0x48              C:\Users\Bhagawat\AppData\Local\Temp\ccCmOWXC.o
Telecommand_ptr     0x4               C:\Users\Bhagawat\AppData\Local\Temp\ccFLNK2X.o
Matout441           0x20              C:\Users\Bhagawat\AppData\Local\Temp\ccCmOWXC.o
gmst0               0x8               C:\Users\Bhagawat\AppData\Local\Temp\ccCmOWXC.o
IO_Latch_Register_2_Data
                    0x4               C:\Users\Bhagawat\AppData\Local\Temp\ccmG331P.o
Q_REF_GND           0x20              C:\Users\Bhagawat\AppData\Local\Temp\ccCmOWXC.o
atp                 0x4               C:\Users\Bhagawat\AppData\Local\Temp\ccSFvBJa.o
argpdot             0x8               C:\Users\Bhagawat\AppData\Local\Temp\ccCmOWXC.o
cose                0x8               C:\Users\Bhagawat\AppData\Local\Temp\ccCmOWXC.o
DPM                 0x18              C:\Users\Bhagawat\AppData\Local\Temp\ccCmOWXC.o
TC_SpeedDumpLimit   0x8               C:\Users\Bhagawat\AppData\Local\Temp\ccCmOWXC.o
d3                  0x8               C:\Users\Bhagawat\AppData\Local\Temp\ccCmOWXC.o
SC4                 0x8               C:\Users\Bhagawat\AppData\Local\Temp\ccCmOWXC.o
t4cof               0x8               C:\Users\Bhagawat\AppData\Local\Temp\ccCmOWXC.o
Antenna_data_raedy  0x1               C:\Users\Bhagawat\AppData\Local\Temp\ccsgz4so.o
TCH_start_buffer_ready
                    0x1               C:\Users\Bhagawat\AppData\Local\Temp\ccmG331P.o
rdtv                0x8               C:\Users\Bhagawat\AppData\Local\Temp\ccCmOWXC.o
semimajoraxis_GPS   0x8               C:\Users\Bhagawat\AppData\Local\Temp\ccCmOWXC.o
JDTDB               0x8               C:\Users\Bhagawat\AppData\Local\Temp\ccCmOWXC.o
phi_12_temp2        0x48              C:\Users\Bhagawat\AppData\Local\Temp\ccCmOWXC.o
RW_1                0x10              C:\Users\Bhagawat\AppData\Local\Temp\ccBLkweo.o
SS_Main_2Exe_DB     0x288             C:\Users\Bhagawat\AppData\Local\Temp\ccCmOWXC.o
X_SFAO2ECI_mag      0x8               C:\Users\Bhagawat\AppData\Local\Temp\ccCmOWXC.o
tmin                0x8               C:\Users\Bhagawat\AppData\Local\Temp\ccCmOWXC.o
TC_Rcvd             0x1               C:\Users\Bhagawat\AppData\Local\Temp\ccFLNK2X.o
UTC_day_GPS         0x4               C:\Users\Bhagawat\AppData\Local\Temp\ccCmOWXC.o
i_rfc               0x4               C:\Users\Bhagawat\AppData\Local\Temp\ccCmOWXC.o
CB_SunSensorDataProcessing
                    0x4               C:\Users\Bhagawat\AppData\Local\Temp\ccCmOWXC.o
TC_cmd_executed_count
                    0x4               C:\Users\Bhagawat\AppData\Local\Temp\ccFLNK2X.o

Memory Configuration

Name             Origin             Length             Attributes
rom              0x0000000000000000 0x0000000020000000
ram              0x0000000040000000 0x0000000040000000
*default*        0x0000000000000000 0xffffffffffffffff

Linker script and memory map

LOAD c:/opt/bcc-2.0.2-gcc/bin/../sparc-gaisler-elf/bsp/leon2/leon/mfix-at697f/trap_table_mvt.S.o
LOAD c:/opt/bcc-2.0.2-gcc/bin/../sparc-gaisler-elf/bsp/leon2/leon/mfix-at697f/crt0.S.o
LOAD c:/opt/bcc-2.0.2-gcc/bin/../lib/gcc/sparc-gaisler-elf/7.2.0/leon/mfix-at697f/crti.o
LOAD c:/opt/bcc-2.0.2-gcc/bin/../lib/gcc/sparc-gaisler-elf/7.2.0/leon/mfix-at697f/crtbegin.o
LOAD C:\Users\Bhagawat\AppData\Local\Temp\ccmG331P.o
LOAD C:\Users\Bhagawat\AppData\Local\Temp\ccFLNK2X.o
LOAD C:\Users\Bhagawat\AppData\Local\Temp\ccF3JHAe.o
LOAD C:\Users\Bhagawat\AppData\Local\Temp\ccSFvBJa.o
LOAD C:\Users\Bhagawat\AppData\Local\Temp\ccLxi9Ri.o
LOAD C:\Users\Bhagawat\AppData\Local\Temp\cc0Th2ok.o
LOAD C:\Users\Bhagawat\AppData\Local\Temp\ccbuJliF.o
LOAD C:\Users\Bhagawat\AppData\Local\Temp\ccA5VOh9.o
LOAD C:\Users\Bhagawat\AppData\Local\Temp\cclg7QQI.o
LOAD C:\Users\Bhagawat\AppData\Local\Temp\cc4J82Fr.o
LOAD C:\Users\Bhagawat\AppData\Local\Temp\ccP2pYow.o
LOAD C:\Users\Bhagawat\AppData\Local\Temp\cc5opyBQ.o
LOAD C:\Users\Bhagawat\AppData\Local\Temp\ccjU9hyn.o
LOAD C:\Users\Bhagawat\AppData\Local\Temp\ccBLkweo.o
LOAD C:\Users\Bhagawat\AppData\Local\Temp\ccsgz4so.o
LOAD C:\Users\Bhagawat\AppData\Local\Temp\ccAFUHm4.o
LOAD C:\Users\Bhagawat\AppData\Local\Temp\ccRqxX1h.o
LOAD C:\Users\Bhagawat\AppData\Local\Temp\ccyPto1B.o
LOAD C:\Users\Bhagawat\AppData\Local\Temp\ccZvvD0p.o
LOAD C:\Users\Bhagawat\AppData\Local\Temp\cciSMCHz.o
LOAD C:\Users\Bhagawat\AppData\Local\Temp\ccYmJqpt.o
LOAD C:\Users\Bhagawat\AppData\Local\Temp\cc5ogaUY.o
LOAD C:\Users\Bhagawat\AppData\Local\Temp\ccCmOWXC.o
LOAD C:\Users\Bhagawat\AppData\Local\Temp\ccQjljxZ.o
LOAD C:\Users\Bhagawat\AppData\Local\Temp\ccgDYObG.o
LOAD C:\Users\Bhagawat\AppData\Local\Temp\ccyKrZ4y.o
LOAD c:/opt/bcc-2.0.2-gcc/bin/../lib/gcc/sparc-gaisler-elf/7.2.0/../../../../sparc-gaisler-elf/lib/leon/mfix-at697f\libm.a
                0x0000000000000000                PROVIDE (__bcc_cfg_skip_clear_bss, 0x0)

.text           0x0000000040000000    0x40530
 CREATE_OBJECT_SYMBOLS
                0x0000000040000000                __text_start = .
                0x0000000040000000                . = ALIGN (0x1000)
 *(.text.traptable)
 .text.traptable
                0x0000000040000000     0x1000 c:/opt/bcc-2.0.2-gcc/bin/../sparc-gaisler-elf/bsp/leon2/leon/mfix-at697f/trap_table_mvt.S.o
                0x0000000040000000                __bcc_entry_point
                0x0000000040000000                __bcc_trap_table
 *(.text .text.*)
 .text          0x0000000040001000        0x0 c:/opt/bcc-2.0.2-gcc/bin/../sparc-gaisler-elf/bsp/leon2/leon/mfix-at697f/trap_table_mvt.S.o
 .text          0x0000000040001000       0xb8 c:/opt/bcc-2.0.2-gcc/bin/../sparc-gaisler-elf/bsp/leon2/leon/mfix-at697f/crt0.S.o
                0x0000000040001000                __bcc_crt0
 .text          0x00000000400010b8        0x0 c:/opt/bcc-2.0.2-gcc/bin/../lib/gcc/sparc-gaisler-elf/7.2.0/leon/mfix-at697f/crti.o
 .text          0x00000000400010b8      0x180 c:/opt/bcc-2.0.2-gcc/bin/../lib/gcc/sparc-gaisler-elf/7.2.0/leon/mfix-at697f/crtbegin.o
 .text          0x0000000040001238      0x974 C:\Users\Bhagawat\AppData\Local\Temp\ccmG331P.o
                0x0000000040001238                rMinCycle_Wait
                0x00000000400012d4                OBC_Process
                0x0000000040001b5c                rMinCycle_Flag_Reset
 .text.startup  0x0000000040001bac       0xa0 C:\Users\Bhagawat\AppData\Local\Temp\ccmG331P.o
                0x0000000040001bac                main
 .text          0x0000000040001c4c      0xe7c C:\Users\Bhagawat\AppData\Local\Temp\ccFLNK2X.o
                0x0000000040001c6c                Init_Memory
                0x0000000040001ca0                checksum_u32
                0x0000000040001d0c                chksum8
                0x0000000040001d44                rOutput_Latch_Update
                0x0000000040001f00                STS_reg_TM
                0x0000000040002014                ST_output_update
                0x000000004000222c                NMI_interrupt_test
                0x00000000400022e8                MUX_Output
                0x00000000400028a0                EEPROM_RST
                0x00000000400028d4                EEPROM_RES
                0x0000000040002904                s_ram_scrub
                0x00000000400029a4                prom_chksum
 .text          0x0000000040002ac8     0xd988 C:\Users\Bhagawat\AppData\Local\Temp\ccF3JHAe.o
                0x0000000040002cb4                rHAL_TM_Write
                0x0000000040002f14                rHAL_TM_HW_Status_Update
                0x0000000040003038                rTM_Address_Table_Init
                0x000000004000ce48                rTM_Copy_Subframe
                0x000000004000ceb8                Sampling_Rate_Select
                0x000000004000cf14                Frame_Address_Select
                0x000000004000d080                rTCH_full_dump_cpy_buf
                0x000000004000d1f0                rTCH_dump_cpy_buf
                0x000000004000d580                TC_Hist_dumping
                0x000000004000d5cc                copy_frame
                0x000000004000d684                ST_Copy_Subframe
                0x000000004000db48                StorageTelemetry
                0x000000004000dbe0                Storage_Telemetry_Write
                0x000000004000dc08                Norm_ST_1_Table_Init
                0x000000004000f4cc                Spec_ST_Table_Init
                0x0000000040010168                ST_DUMPING
                0x00000000400102cc                rTM_Real_st_write
                0x000000004001040c                ST_full_dump
 .text          0x0000000040010450     0x820c C:\Users\Bhagawat\AppData\Local\Temp\ccSFvBJa.o
                0x0000000040010648                TC_IMU1_On
                0x0000000040010688                TC_IMU2_On
                0x00000000400106c8                TC_IMU1_Off
                0x0000000040010708                TC_IMU2_Off
                0x0000000040010748                TC_Drift_Uplink_Compenstation_Update_IMU1
                0x00000000400107e8                TC_Drift_Uplink_Compenstation_Update_IMU2
                0x0000000040010888                TC_Gyro_Misalignment_Update_IMU1
                0x0000000040010aec                TC_Gyro_Misalignment_Update_IMU2
                0x0000000040010d50                TC_Gyro_Scale_Factor_Update_IMU1
                0x0000000040010ef8                TC_Gyro_Scale_Factor_Update_IMU2
                0x00000000400110a0                TC_MagBias_Uplink_Compenstation_Update_IMU1
                0x0000000040011140                TC_MagBias_Uplink_Compenstation_Update_IMU2
                0x00000000400111e0                rSSmain_ImaxF_update
                0x000000004001147c                rSSredt_ImaxF_update
                0x00000000400116f8                TC_NMI_count_reset
                0x000000004001170c                TC_GPS1_ON
                0x000000004001173c                TC_GPS1_OFF
                0x0000000040011770                TC_GPS2_on
                0x00000000400117a4                TC_GPS2_off
                0x00000000400117dc                TC_W1_ON
                0x000000004001180c                TC_W2_ON
                0x0000000040011840                TC_W3_ON
                0x0000000040011870                TC_W4_ON
                0x00000000400118a0                TC_W1_OFF
                0x00000000400118d0                TC_W2_OFF
                0x0000000040011900                TC_W3_OFF
                0x0000000040011930                TC_W4_OFF
                0x0000000040011960                rTC_Detumbling_ModePreprocessing_BDOT
                0x0000000040011970                rTC_Detumbling_ModePreprocessing_GYRO
                0x0000000040011980                rTC_SunAcquisition_ModePreprocessing
                0x0000000040011990                rTC_ThreeAxis_ModePreprocessing
                0x00000000400119ac                rTC_Suspended_ModePreprocessing
                0x00000000400119b8                PL_K_CMD_HLT
                0x00000000400119e8                rTC_HILS_MODE_IDLE
                0x00000000400119f8                rTC_HILS_MODE_START
                0x0000000040011a08                rTC_HILS_MODE_STOP
                0x0000000040011a18                Antenna_mechanism_ON
                0x0000000040011a48                Antenna_mechanism_OFF
                0x0000000040011a78                S_band_tx_on
                0x0000000040011aa8                S_band_tx_off
                0x0000000040011ad8                SA_DEPLOYMENT_MECHANISM_MAIN_OFF
                0x0000000040011b0c                SA_DEPLOYMENT_MECHANISM_RED_OFF
                0x0000000040011b40                sunlit
                0x0000000040011b50                eclipse
                0x0000000040011b5c                Sunlit_eclipse_both
                0x0000000040011b6c                rTC_Safe_mode_PreProcessing
                0x0000000040011b7c                eeprom_en
                0x0000000040011b8c                eeprom_dis
                0x0000000040011b98                TC_ATTC_CMD_clear
                0x0000000040011c58                rElapsedTimerAssign
                0x0000000040011c94                TC_ACC_Ang_RESET
                0x0000000040011ca0                rMag_Refeci_update
                0x0000000040011d34                rSun_Ephemeris_update
                0x0000000040011da0                TC_GPS1_NMEA_VTG_enable
                0x0000000040011dcc                TC_GPS1_NMEA_VTG_disable
                0x0000000040011df8                TC_GPS1_NMEA_GGA_enable
                0x0000000040011e24                TC_GPS1_NMEA_GGA_disable
                0x0000000040011e50                TC_GPS1_NMEA_GSA_enable
                0x0000000040011e7c                TC_GPS1_NMEA_GSA_disable
                0x0000000040011ea8                TC_GPS1_cold_start
                0x0000000040011ed4                TC_GPS1_factory_reset
                0x0000000040011f00                TC_GPS2_NMEA_VTG_enable
                0x0000000040011f2c                TC_GPS2_NMEA_VTG_disable
                0x0000000040011f58                TC_GPS2_NMEA_GGA_enable
                0x0000000040011f84                TC_GPS2_NMEA_GGA_disable
                0x0000000040011fb0                TC_GPS2_NMEA_GSA_enable
                0x0000000040011fdc                TC_GPS2_NMEA_GSA_disable
                0x0000000040012008                TC_GPS2_cold_start
                0x0000000040012034                TC_GPS2_factory_reset
                0x0000000040012060                TC_GPS1_NMEA_NMEA_GSV_Enable
                0x000000004001208c                TC_GPS1_NMEA_NMEA_GSV_disable
                0x00000000400120b8                TC_GPS2_NMEA_NMEA_GSV_Enable
                0x00000000400120e4                TC_GPS2_NMEA_NMEA_GSV_disable
                0x0000000040012110                TC_MTR_ON
                0x000000004001211c                TC_MTR_OFF
                0x0000000040012128                payload_1_on
                0x0000000040012150                payload_1_off
                0x000000004001215c                PL_K_CMD_STS
                0x0000000040012168                PL_K_CMD_ACQ
                0x0000000040012174                PL_K_DIAG
                0x0000000040012180                PL_K_CMD_OFF
                0x000000004001218c                PL_K_CMD_ON
                0x0000000040012198                rTLE_Update
                0x00000000400124bc                TC_init_RW1
                0x00000000400124f0                TC_init_RW2
                0x0000000040012524                TC_init_RW3
                0x0000000040012558                TC_init_RW4
                0x000000004001258c                TC_MTR_Yaw_Positive
                0x00000000400125a0                TC_MTR_Yaw_Negative
                0x00000000400125b4                TC_MTR_Pitch_Positive
                0x00000000400125c8                TC_MTR_Pitch_Negative
                0x00000000400125dc                TC_MTR_Roll_Positive
                0x00000000400125f0                TC_MTR_Roll_Negative
                0x0000000040012604                TC_MTR_Roll_No_cuurent
                0x0000000040012618                TC_MTR_Pitch_No_cuurent
                0x000000004001262c                TC_MTR_Yaw_No_cuurent
                0x0000000040012640                payload_2_on
                0x0000000040012668                payload_2_off
                0x0000000040012674                X_band_tx_on
                0x000000004001269c                X_band_tx_off
                0x00000000400126a8                SA_DEPLOYMENT_MECHANISM_MAIN_ON
                0x00000000400126b4                SA_DEPLOYMENT_MECHANISM_RED_ON
                0x00000000400126c0                Antenna_mechanism_arm
                0x00000000400126cc                Antenna_deploy
                0x00000000400126d8                Antenna_mechanism_disarm
                0x00000000400126e4                TC_pl_debug
                0x00000000400126f0                TC_TM_DS_EN
                0x00000000400126fc                Antenna_RESET_command
                0x0000000040012708                Antenna_deploy_with_override
                0x0000000040012714                Antenna_system_temp
                0x0000000040012720                Antenna_deploy_status_report
                0x000000004001272c                Antenna_deploy_activation_count
                0x0000000040012738                Antenna_deploy_activation_time
                0x0000000040012744                rTC_ref_snv_bias_q_update
                0x0000000040012814                rTC_ref_stn_bias_q_update
                0x0000000040012940                rTC_ref_q_gnd_update
                0x0000000040012a6c                TC_q_body_init
                0x0000000040012b98                rTC_HILS_ENABLE
                0x0000000040012ba4                rTC_HILS_DISABLE
                0x0000000040012cb4                TC_pl_tm
                0x0000000040012cbc                imu1_db_execute
                0x0000000040012cc4                imu2_db_execute
                0x0000000040012ccc                imu1_db_checksum
                0x0000000040012cd4                imu2_db_checksum
                0x0000000040012cdc                imu_test_sys_sel
                0x0000000040012ce4                TC_Mag_Misalignment_Update_IMU1
                0x0000000040012cec                TC_Mag_Misalignment_Update_IMU2
                0x0000000040012cf4                TC_Mag_Scale_Factor_Update_IMU1
                0x0000000040012cfc                TC_Mag_Scale_Factor_Update_IMU2
                0x0000000040012d04                TC_Gyro_LPF_Gain_Update_IMU1
                0x0000000040012d0c                TC_Gyro_LPF_Gain_Update_IMU2
                0x0000000040012d14                TC_Nominal_wheel_speed_execute
                0x0000000040012d1c                Pitch_Torquer_ON
                0x0000000040012d24                Yaw_Torquer_ON
                0x0000000040012d2c                rHeater1_on
                0x0000000040012d34                rHeater1_off
                0x0000000040012d3c                rHeater2_on
                0x0000000040012d44                rHeater2_off
                0x0000000040012d4c                rHeater3_on
                0x0000000040012d54                rHeater3_off
                0x0000000040012d5c                rHeater4_on
                0x0000000040012d64                rHeater4_off
                0x0000000040012d6c                rHeater5_on
                0x0000000040012d74                rHeater5_off
                0x0000000040012d7c                rHeater6_on
                0x0000000040012d84                rHeater6_off
                0x0000000040012d8c                RX_TX_deployed
                0x0000000040012d94                OBC_ON
                0x0000000040012d9c                OBC_OFF
                0x0000000040012da4                SA1_DEPLOYMENT_AND_SA2_DEPLOYMENT_REDUNDANT_SPARE_BUS_ON
                0x0000000040012dac                SA1_DEPLOYMENT_AND_SA2_DEPLOYMENT_REDUNDANT_SPARE_BUS_OFF
                0x0000000040012db4                Test_ON
                0x0000000040012dbc                Test_OFF
                0x0000000040012dc4                rTC_write_tC_history
                0x0000000040012dec                TC_status_reset
                0x0000000040012e00                rContingency_TC
                0x0000000040012e08                rData_TC
                0x000000004001336c                rADCS_Data_TC
                0x00000000400143ac                rRemote_base_addr_TC
                0x000000004001445c                rRemote_data_view
                0x00000000400144dc                rBoolean_TC
                0x000000004001452c                rFuncExecute_TC
                0x0000000040014590                rRemoteProgram_Addr_TC
                0x00000000400145e4                rRemoteProgram_Data_TC
                0x0000000040014610                rDifferential_TimeTag_TC
                0x000000004001466c                initNodetable
                0x00000000400146a8                getNode
                0x00000000400146e4                freeNode
                0x000000004001471c                rAbsoluteTTC_Update
                0x00000000400148d4                rAbsolute_TimeTag_TC
                0x00000000400148e0                rDifferential_TimeTag_Update
                0x000000004001493c                rDifferential_TimeTag_Execute
                0x0000000040014a94                rDifferentialTTC_Execute
                0x0000000040014aa0                rAbsoluteTTC_Delete
                0x0000000040014ca8                rAbsoluteTTC_Clear
                0x0000000040014d68                rInit_Block
                0x0000000040014db0                Block_update
                0x0000000040014fec                rBlock_TC
                0x0000000040014ff8                TMTC_Assignment
                0x0000000040015934                invertReverse
                0x000000004001595c                BCHEncoder
                0x0000000040015afc                rHAL_TC_Read
                0x0000000040015dc8                Pitch_Torquer_OFF
                0x0000000040015dd0                Yaw_Torquer_OFF
                0x0000000040015dd8                TC_detumbling_rate_gain_1
                0x000000004001621c                TC_detumbling_bdot_gain_1
                0x0000000040016660                TC_BDOT_Det_Thresh_1
                0x00000000400167f4                TC_GYRO_Det_Min_Thres_1
                0x0000000040016988                rTc_nominal_speed_RW1
                0x0000000040016a64                rTc_nominal_speed_RW2
                0x0000000040016b40                rTc_nominal_speed_RW3
                0x0000000040016c1c                rTc_nominal_speed_RW4
                0x0000000040016cf8                TC_AngMomDump_Thrsld_1
                0x0000000040016e8c                TC_SpeedDump_Thrsld_1
                0x0000000040017020                TC_SpeedDump_TimeSelect_1
                0x00000000400171b4                TC_comd_pitch_rate_1
                0x0000000040017348                TC_Gyro_LPF_Gain_IMU1_1
                0x0000000040017580                TC_Gyro_LPF_Gain_IMU2_1
                0x00000000400177b8                TC_Mag_LPF_Gain_IMU1_1
                0x00000000400179f0                TC_Mag_LPF_Gain_IMU2_1
                0x0000000040017c28                TC_Wheel_Cutoff_Threshold_1
                0x0000000040017dbc                adcsgains
                0x0000000040017ed0                rGainSelect_TC
                0x0000000040017f24                rReal_Time_TC
                0x00000000400181a8                rTelecommand
                0x000000004001846c                rAbsoluteTTC_Execute
                0x000000004001858c                rBlockTC_Execute
 .text          0x000000004001865c       0x38 C:\Users\Bhagawat\AppData\Local\Temp\ccLxi9Ri.o
                0x000000004001865c                fdi_nmi_int_handler
 .text          0x0000000040018694     0x1834 C:\Users\Bhagawat\AppData\Local\Temp\cc0Th2ok.o
                0x0000000040018694                rPOR_Init
 .text          0x0000000040019ec8      0xde4 C:\Users\Bhagawat\AppData\Local\Temp\ccbuJliF.o
                0x0000000040019ef0                rHILS_payload
                0x0000000040019f6c                HILS_mode_enable
                0x0000000040019fa0                HILS_mode_disable
                0x0000000040019fd4                rHAL_pl1_ON
                0x000000004001a054                rHAL_pl1_OFF
                0x000000004001a0a4                rHAL_pl2_ON
                0x000000004001a124                rHAL_pl2_OFF
                0x000000004001a174                rHAL_tm_ds_en
                0x000000004001a1b0                rHAL_X_Tx_ON
                0x000000004001a1e4                rHAL_X_Tx_OFF
                0x000000004001a218                rHAL_pl_sts_check
                0x000000004001a248                rHAL_pl_cmd_hlt
                0x000000004001a2c0                rHAL_pl_debug
                0x000000004001a380                rHAL_pl_x_tx_data_on
                0x000000004001a470                rHAL_pl_cmd_acq
                0x000000004001a550                rHAL_pl_x_tx_data_off
                0x000000004001a590                rHAL_pl_diag
                0x000000004001a608                pl_tx_tm
                0x000000004001a730                pl_tx_tm_2
                0x000000004001a800                rpl_read
                0x000000004001a8ec                rpl_tm_write
 .text          0x000000004001acac      0x4a8 C:\Users\Bhagawat\AppData\Local\Temp\ccA5VOh9.o
                0x000000004001acac                rHAL_EPS_Hardware_Status
                0x000000004001ad14                rHAL_Battery_load_shedding
                0x000000004001ad70                rHAL_EPS_shunt_switch
 .text          0x000000004001b154      0x188 C:\Users\Bhagawat\AppData\Local\Temp\cclg7QQI.o
                0x000000004001b154                rIMU_Init
                0x000000004001b1c0                HAL_IMU_Read
 .text          0x000000004001b2dc      0x44c C:\Users\Bhagawat\AppData\Local\Temp\cc4J82Fr.o
                0x000000004001b2dc                rHAL_ADC_Read
                0x000000004001b338                rHAL_ADC_TM_Copy
                0x000000004001b5e0                sun_Sensor_data
                0x000000004001b6f4                rHAL_ADC_StatusREG_Enable
 .text          0x000000004001b728     0x1064 C:\Users\Bhagawat\AppData\Local\Temp\ccP2pYow.o
                0x000000004001b728                rGPS_Buffer_Init
                0x000000004001b990                rHAL_GPS_Read
                0x000000004001bc44                GPS_1_DATA
                0x000000004001bc98                rGPS_OBT_timer
                0x000000004001bd0c                rHAL_GPS_Config
                0x000000004001c3ec                rGPS_TM_Extract
                0x000000004001c728                ST_TM_gps_data
 .text          0x000000004001c78c     0x1114 C:\Users\Bhagawat\AppData\Local\Temp\cc5opyBQ.o
                0x000000004001c78c                Thermister_select
                0x000000004001c7d0                UTP_selection
                0x000000004001c824                LTP_selection
                0x000000004001c884                Heater_1_auto_control
                0x000000004001c8f4                Heater_2_auto_control
                0x000000004001c964                Heater_3_auto_control
                0x000000004001c9d4                Heater_4_auto_control
                0x000000004001ca44                Heater_5_auto_control
                0x000000004001cab4                Heater_6_auto_control
                0x000000004001cb24                Heater_7_auto_control
                0x000000004001cb78                Heater_8_auto_control
                0x000000004001cbcc                Heater_9_auto_control
                0x000000004001cc20                Heater_10_auto_control
                0x000000004001cc74                Heater_11_auto_control
                0x000000004001ccc8                Heater_12_auto_control
                0x000000004001cd1c                Heater_13_auto_control
                0x000000004001cd78                Heater_14_auto_control
                0x000000004001cdd4                Heater_1_manual_control
                0x000000004001ce40                Heater_2_manual_control
                0x000000004001ceac                Heater_3_manual_control
                0x000000004001cf18                Heater_4_manual_control
                0x000000004001cf84                Heater_5_manual_control
                0x000000004001cff0                Heater_6_manual_control
                0x000000004001d05c                Heater_control_auto_manual
                0x000000004001d700                Heater_7_manual_control
                0x000000004001d730                Heater_8_manual_control
                0x000000004001d760                Heater_9_manual_control
                0x000000004001d790                Heater_10_manual_control
                0x000000004001d7c0                Heater_11_manual_control
                0x000000004001d7f0                Heater_12_manual_control
                0x000000004001d820                Heater_13_manual_control
                0x000000004001d860                Heater_14_manual_control
 .text          0x000000004001d8a0      0x8dc C:\Users\Bhagawat\AppData\Local\Temp\ccjU9hyn.o
                0x000000004001d8a0                rHAL_MTR_ON
                0x000000004001d8d4                rHAL_MTR_OFF
                0x000000004001d908                rHAL_MTR
                0x000000004001df40                MTR_Monitoring
                0x000000004001df6c                rHAL_MTR_TC
 .text          0x000000004001e17c     0x1910 C:\Users\Bhagawat\AppData\Local\Temp\ccBLkweo.o
                0x000000004001e17c                RW_Init
                0x000000004001e2f8                HAL_RW_CRC_Check
                0x000000004001e364                rHAL_RW_TM_Read
                0x000000004001e73c                rRW_SlipFrame_Check
                0x000000004001eafc                rHAL_RW_TC_Write
                0x000000004001ec54                rHAL_RW_TM_Write
                0x000000004001eca0                rHAL_RW_ConfigBuffer_Write
                0x000000004001ed44                rRW_Data_Write
                0x000000004001f4c0                rRW_Data_Request
                0x000000004001f648                rRW_Data_Read
                0x000000004001f914                rRW_init_cmd
 .text          0x000000004001fa8c      0x814 C:\Users\Bhagawat\AppData\Local\Temp\ccsgz4so.o
                0x000000004001fa8c                antennaCommand1
                0x000000004001fad8                antennaCommand2
                0x000000004001fb24                antennaCommand3
                0x000000004001fb70                antennaCommand4
                0x000000004001fbbc                antennaCommand5
                0x000000004001fc08                antennaCommand6
                0x000000004001fc60                antennaCommand7
                0x000000004001fcb4                antennaCommand8
                0x000000004001fd0c                antennaCommand9
                0x000000004001fd64                rHAL_Antenna_Read
                0x000000004001fdb0                antenna_TM
                0x000000004001fea0                rHAL_SA_MAIN_Deploy_on
                0x000000004001ff10                rHAL_SA_RED_Deploy_on
                0x000000004001ff78                rHAL_SA1_Deploy_status_check
                0x0000000040020060                rHAL_SA2_Deploy_status_check
                0x0000000040020148                rHAL_SA_Deploy_Status_new
 .text          0x00000000400202a0     0x66a0 C:\Users\Bhagawat\AppData\Local\Temp\ccAFUHm4.o
                0x0000000040020720                rQuestDataProcessing
                0x0000000040020a74                rDAD_quest
                0x0000000040021cd0                rErrorComputation
                0x0000000040022364                rExtendedKalmanFilter1_p1
                0x000000004002309c                rExtendedKalmanFilter1_p2
                0x0000000040023a38                rExtendedKalmanFilter2_p1
                0x00000000400254fc                rExtendedKalmanFilter2_Prop
                0x0000000040025f3c                rExtendedKalmanFilter2_p2
 .text          0x0000000040026940     0x2acc C:\Users\Bhagawat\AppData\Local\Temp\ccRqxX1h.o
                0x0000000040026940                rGH_generation
                0x0000000040026ae8                rMagFieldComp
                0x00000000400275c0                rSun_Ephemeris
                0x0000000040027810                rReferenceQuatComputation
                0x00000000400285f4                rRefVectorGeneration
                0x0000000040028e2c                rRefRate_Computation
                0x0000000040029064                rSl_Ecl_OnBrd_detection
 .text          0x000000004002940c        0x0 C:\Users\Bhagawat\AppData\Local\Temp\ccyPto1B.o
 .text          0x000000004002940c     0x1fbc C:\Users\Bhagawat\AppData\Local\Temp\ccZvvD0p.o
                0x000000004002940c                rDutyCycleGeneration
                0x0000000040029574                rTorquer_Polarity_Check
                0x00000000400296f4                rLinearController
                0x000000004002aff0                rAngularMomentumDumping
 .text          0x000000004002b3c8      0xe6c C:\Users\Bhagawat\AppData\Local\Temp\cciSMCHz.o
                0x000000004002b440                rScModeSelection
 .text          0x000000004002c234     0x3ae0 C:\Users\Bhagawat\AppData\Local\Temp\ccYmJqpt.o
                0x000000004002c234                rADCS_Pon_vars
 .text          0x000000004002fd14     0x36f4 C:\Users\Bhagawat\AppData\Local\Temp\cc5ogaUY.o
                0x0000000040031880                rIMU_Angle_Reset
                0x00000000400318c8                rIMUDataProcessing
                0x0000000040032d7c                rBDOT_Computation
                0x0000000040032f80                rSunSensorDataProcessing
 .text          0x0000000040033408        0x0 C:\Users\Bhagawat\AppData\Local\Temp\ccCmOWXC.o
 .text          0x0000000040033408     0x44c0 C:\Users\Bhagawat\AppData\Local\Temp\ccQjljxZ.o
                0x0000000040034ba8                rGPSTLEProcessing
                0x0000000040035570                rOrbit_Initialization
                0x00000000400364f4                rOrbit_Propagation
                0x0000000040037748                rOrbitalElements_computation
                0x0000000040037770                rJulian_Day
                0x00000000400377ac                rNEDtoECEF
                0x00000000400378a0                rECEFtoECItoECEF
 .text          0x00000000400378c8      0xd4c C:\Users\Bhagawat\AppData\Local\Temp\ccgDYObG.o
                0x00000000400378c8                rsign_f
                0x0000000040037908                rxRot
                0x0000000040037998                ryRot
                0x0000000040037a28                rzRot
                0x0000000040037ab0                rMatInv
                0x0000000040037c68                rCross_Product
                0x0000000040037cd0                rMatMul3x1
                0x0000000040037d48                rMatMul3x3
                0x0000000040037e00                rRM_to_Quat
                0x0000000040038120                rQs_Normalization
                0x0000000040038214                rQs_Multiplication
                0x00000000400382f0                rVectorNorm
                0x00000000400383a8                rMat_adjoint3
                0x00000000400384a4                rMatMul34x1
                0x0000000040038520                rMatMul43x1
                0x000000004003859c                rMatMul44x1
 .text          0x0000000040038614     0x3330 C:\Users\Bhagawat\AppData\Local\Temp\ccyKrZ4y.o
                0x0000000040038614                rSus_mode_remote_entry_hook
                0x0000000040038620                rSus_mode_remote_exit_hook
                0x000000004003862c                rDBDOT_mode_remote_entry_hook
                0x0000000040038638                rDBDOT_mode_remote_exit_hook
                0x0000000040038644                rDGYRO_mode_remote_entry_hook
                0x0000000040038650                rDGYRO_mode_remote_exit_hook
                0x000000004003865c                rSACQ_mode_remote_entry_hook
                0x0000000040038668                rSACQ_mode_remote_exit_hook
                0x0000000040038674                r3AXIS_mode_remote_entry_hook
                0x0000000040038680                r3AXIS_mode_remote_exit_hook
                0x000000004003868c                rSAFE_mode_remote_entry_hook
                0x0000000040038698                rSAFE_mode_remote_exit_hook
                0x00000000400386a4                rRemote_patch_area_S1
                0x00000000400389d8                rRemote_patch_area_S2
                0x0000000040038d0c                rRemote_patch_area_S3
                0x0000000040039040                rRemote_patch_area_S4
                0x0000000040039374                rRemote_patch_area_S5
                0x00000000400396a8                rRemote_patch_area_S6
                0x00000000400399dc                rRemote_patch_area_L1
                0x000000004003a990                rRemote_patch_area_L2
 .text          0x000000004003b944      0x2d0 c:/opt/bcc-2.0.2-gcc/bin/../lib/gcc/sparc-gaisler-elf/7.2.0/../../../../sparc-gaisler-elf/lib/leon/mfix-at697f\libm.a(lib_a-s_atan.o)
                0x000000004003b944                atan
 .text          0x000000004003bc14       0xe4 c:/opt/bcc-2.0.2-gcc/bin/../lib/gcc/sparc-gaisler-elf/7.2.0/../../../../sparc-gaisler-elf/lib/leon/mfix-at697f\libm.a(lib_a-s_cos.o)
                0x000000004003bc14                cos
 .text          0x000000004003bcf8       0x28 c:/opt/bcc-2.0.2-gcc/bin/../lib/gcc/sparc-gaisler-elf/7.2.0/../../../../sparc-gaisler-elf/lib/leon/mfix-at697f\libm.a(lib_a-s_fabs.o)
                0x000000004003bcf8                fabs
 .text          0x000000004003bd20      0x1f0 c:/opt/bcc-2.0.2-gcc/bin/../lib/gcc/sparc-gaisler-elf/7.2.0/../../../../sparc-gaisler-elf/lib/leon/mfix-at697f\libm.a(lib_a-s_floor.o)
                0x000000004003bd20                floor
 .text          0x000000004003bf10       0xe8 c:/opt/bcc-2.0.2-gcc/bin/../lib/gcc/sparc-gaisler-elf/7.2.0/../../../../sparc-gaisler-elf/lib/leon/mfix-at697f\libm.a(lib_a-s_sin.o)
                0x000000004003bf10                sin
 .text          0x000000004003bff8       0x9c c:/opt/bcc-2.0.2-gcc/bin/../lib/gcc/sparc-gaisler-elf/7.2.0/../../../../sparc-gaisler-elf/lib/leon/mfix-at697f\libm.a(lib_a-s_tan.o)
                0x000000004003bff8                tan
 .text          0x000000004003c094      0x128 c:/opt/bcc-2.0.2-gcc/bin/../lib/gcc/sparc-gaisler-elf/7.2.0/../../../../sparc-gaisler-elf/lib/leon/mfix-at697f\libm.a(lib_a-w_acos.o)
                0x000000004003c094                acos
 .text          0x000000004003c1bc        0xc c:/opt/bcc-2.0.2-gcc/bin/../lib/gcc/sparc-gaisler-elf/7.2.0/../../../../sparc-gaisler-elf/lib/leon/mfix-at697f\libm.a(lib_a-w_atan2.o)
                0x000000004003c1bc                atan2
 .text          0x000000004003c1c8      0x148 c:/opt/bcc-2.0.2-gcc/bin/../lib/gcc/sparc-gaisler-elf/7.2.0/../../../../sparc-gaisler-elf/lib/leon/mfix-at697f\libm.a(lib_a-w_fmod.o)
                0x000000004003c1c8                fmod
 .text          0x000000004003c310      0x4a8 c:/opt/bcc-2.0.2-gcc/bin/../lib/gcc/sparc-gaisler-elf/7.2.0/../../../../sparc-gaisler-elf/lib/leon/mfix-at697f\libm.a(lib_a-w_pow.o)
                0x000000004003c310                pow
 .text          0x000000004003c7b8       0xfc c:/opt/bcc-2.0.2-gcc/bin/../lib/gcc/sparc-gaisler-elf/7.2.0/../../../../sparc-gaisler-elf/lib/leon/mfix-at697f\libm.a(lib_a-w_sqrt.o)
                0x000000004003c7b8                sqrt
 .text          0x000000004003c8b4      0x37c c:/opt/bcc-2.0.2-gcc/bin/../lib/gcc/sparc-gaisler-elf/7.2.0/../../../../sparc-gaisler-elf/lib/leon/mfix-at697f\libm.a(lib_a-e_acos.o)
                0x000000004003c8b4                __ieee754_acos
 .text          0x000000004003cc30      0x2b4 c:/opt/bcc-2.0.2-gcc/bin/../lib/gcc/sparc-gaisler-elf/7.2.0/../../../../sparc-gaisler-elf/lib/leon/mfix-at697f\libm.a(lib_a-e_atan2.o)
                0x000000004003cc30                __ieee754_atan2
 .text          0x000000004003cee4      0x3ac c:/opt/bcc-2.0.2-gcc/bin/../lib/gcc/sparc-gaisler-elf/7.2.0/../../../../sparc-gaisler-elf/lib/leon/mfix-at697f\libm.a(lib_a-e_fmod.o)
                0x000000004003cee4                __ieee754_fmod
 .text          0x000000004003d290      0x8dc c:/opt/bcc-2.0.2-gcc/bin/../lib/gcc/sparc-gaisler-elf/7.2.0/../../../../sparc-gaisler-elf/lib/leon/mfix-at697f\libm.a(lib_a-e_pow.o)
                0x000000004003d290                __ieee754_pow
 .text          0x000000004003db6c      0x39c c:/opt/bcc-2.0.2-gcc/bin/../lib/gcc/sparc-gaisler-elf/7.2.0/../../../../sparc-gaisler-elf/lib/leon/mfix-at697f\libm.a(lib_a-e_rem_pio2.o)
                0x000000004003db6c                __ieee754_rem_pio2
 .text          0x000000004003df08      0x270 c:/opt/bcc-2.0.2-gcc/bin/../lib/gcc/sparc-gaisler-elf/7.2.0/../../../../sparc-gaisler-elf/lib/leon/mfix-at697f\libm.a(lib_a-e_sqrt.o)
                0x000000004003df08                __ieee754_sqrt
 .text          0x000000004003e178      0x1bc c:/opt/bcc-2.0.2-gcc/bin/../lib/gcc/sparc-gaisler-elf/7.2.0/../../../../sparc-gaisler-elf/lib/leon/mfix-at697f\libm.a(lib_a-k_cos.o)
                0x000000004003e178                __kernel_cos
 .text          0x000000004003e334      0xbdc c:/opt/bcc-2.0.2-gcc/bin/../lib/gcc/sparc-gaisler-elf/7.2.0/../../../../sparc-gaisler-elf/lib/leon/mfix-at697f\libm.a(lib_a-k_rem_pio2.o)
                0x000000004003e334                __kernel_rem_pio2
 .text          0x000000004003ef10      0x100 c:/opt/bcc-2.0.2-gcc/bin/../lib/gcc/sparc-gaisler-elf/7.2.0/../../../../sparc-gaisler-elf/lib/leon/mfix-at697f\libm.a(lib_a-k_sin.o)
                0x000000004003ef10                __kernel_sin
 .text          0x000000004003f010      0x290 c:/opt/bcc-2.0.2-gcc/bin/../lib/gcc/sparc-gaisler-elf/7.2.0/../../../../sparc-gaisler-elf/lib/leon/mfix-at697f\libm.a(lib_a-k_tan.o)
                0x000000004003f010                __kernel_tan
 .text          0x000000004003f2a0       0x18 c:/opt/bcc-2.0.2-gcc/bin/../lib/gcc/sparc-gaisler-elf/7.2.0/../../../../sparc-gaisler-elf/lib/leon/mfix-at697f\libm.a(lib_a-s_finite.o)
                0x000000004003f2a0                finite
 .text          0x000000004003f2b8        0x0 c:/opt/bcc-2.0.2-gcc/bin/../lib/gcc/sparc-gaisler-elf/7.2.0/../../../../sparc-gaisler-elf/lib/leon/mfix-at697f\libm.a(lib_a-s_lib_ver.o)
 .text          0x000000004003f2b8        0x8 c:/opt/bcc-2.0.2-gcc/bin/../lib/gcc/sparc-gaisler-elf/7.2.0/../../../../sparc-gaisler-elf/lib/leon/mfix-at697f\libm.a(lib_a-s_matherr.o)
                0x000000004003f2b8                matherr
 .text          0x000000004003f2c0        0xc c:/opt/bcc-2.0.2-gcc/bin/../lib/gcc/sparc-gaisler-elf/7.2.0/../../../../sparc-gaisler-elf/lib/leon/mfix-at697f\libm.a(lib_a-s_nan.o)
                0x000000004003f2c0                nan
 .text          0x000000004003f2cc      0x1ac c:/opt/bcc-2.0.2-gcc/bin/../lib/gcc/sparc-gaisler-elf/7.2.0/../../../../sparc-gaisler-elf/lib/leon/mfix-at697f\libm.a(lib_a-s_rint.o)
                0x000000004003f2cc                rint
 .text          0x000000004003f478      0x14c c:/opt/bcc-2.0.2-gcc/bin/../lib/gcc/sparc-gaisler-elf/7.2.0/../../../../sparc-gaisler-elf/lib/leon/mfix-at697f\libm.a(lib_a-s_scalbn.o)
                0x000000004003f478                scalbn
 .text          0x000000004003f5c4       0x30 c:/opt/bcc-2.0.2-gcc/bin/../lib/gcc/sparc-gaisler-elf/7.2.0/../../../../sparc-gaisler-elf/lib/leon/mfix-at697f\libm.a(lib_a-s_copysign.o)
                0x000000004003f5c4                copysign
 .text          0x000000004003f5f4       0x7c c:/opt/bcc-2.0.2-gcc/bin/../sparc-gaisler-elf/bsp/leon2/leon/mfix-at697f\libbcc.a(reset_trap_mvt.S.o)
                0x000000004003f5f4                __bcc_trap_reset_mvt
 .text          0x000000004003f670       0xb0 c:/opt/bcc-2.0.2-gcc/bin/../sparc-gaisler-elf/bsp/leon2/leon/mfix-at697f\libbcc.a(window_trap.S.o)
                0x000000004003f670                __bcc_trap_window_overflow
                0x000000004003f6c0                __bcc_trap_window_underflow
 .text          0x000000004003f720      0x1b4 c:/opt/bcc-2.0.2-gcc/bin/../sparc-gaisler-elf/bsp/leon2/leon/mfix-at697f\libbcc.a(interrupt_trap.S.o)
                0x000000004003f720                __bcc_trap_interrupt_svt
                0x000000004003f724                __bcc_trap_interrupt
 .text          0x000000004003f8d4       0x88 c:/opt/bcc-2.0.2-gcc/bin/../sparc-gaisler-elf/bsp/leon2/leon/mfix-at697f\libbcc.a(flush_windows_trap.S.o)
                0x000000004003f8d4                __bcc_trap_flush_windows
 .text          0x000000004003f95c       0x2c c:/opt/bcc-2.0.2-gcc/bin/../sparc-gaisler-elf/bsp/leon2/leon/mfix-at697f\libbcc.a(sw_trap_set_pil.S.o)
                0x000000004003f95c                __bcc_trap_sw_set_pil
 .text          0x000000004003f988       0xb0 c:/opt/bcc-2.0.2-gcc/bin/../sparc-gaisler-elf/bsp/leon2/leon/mfix-at697f\libbcc.a(trap.c.o)
                0x000000004003f988                bcc_set_trap
 .text          0x000000004003fa38        0x0 c:/opt/bcc-2.0.2-gcc/bin/../sparc-gaisler-elf/bsp/leon2/leon/mfix-at697f\libbcc.a(isr.c.o)
 .text          0x000000004003fa38        0x0 c:/opt/bcc-2.0.2-gcc/bin/../sparc-gaisler-elf/bsp/leon2/leon/mfix-at697f\libbcc.a(int_nest.c.o)
 .text          0x000000004003fa38        0x8 c:/opt/bcc-2.0.2-gcc/bin/../sparc-gaisler-elf/bsp/leon2/leon/mfix-at697f\libbcc.a(init.S.o)
                0x000000004003fa38                __bcc_init40
                0x000000004003fa38                __bcc_init70
                0x000000004003fa38                __bcc_init60
                0x000000004003fa38                __bcc_init50
 .text          0x000000004003fa40       0x84 c:/opt/bcc-2.0.2-gcc/bin/../sparc-gaisler-elf/bsp/leon2/leon/mfix-at697f\libbcc.a(leon_info.S.o)
                0x000000004003fa40                __bcc_get_leon_info
                0x000000004003fab4                bcc_get_cpuid
 .text          0x000000004003fac4       0x2c c:/opt/bcc-2.0.2-gcc/bin/../sparc-gaisler-elf/bsp/leon2/leon/mfix-at697f\libbcc.a(dwzero.S.o)
                0x000000004003fac4                bcc_dwzero
 .text          0x000000004003faf0       0x5c c:/opt/bcc-2.0.2-gcc/bin/../sparc-gaisler-elf/bsp/leon2/leon/mfix-at697f\libbcc.a(copy_data.c.o)
                0x000000004003faf0                __bcc_copy_data
 *fill*         0x000000004003fb4c        0x4 
 .text          0x000000004003fb50       0x90 c:/opt/bcc-2.0.2-gcc/bin/../sparc-gaisler-elf/bsp/leon2/leon/mfix-at697f\libbcc.a(lowlevel.S.o)
                0x000000004003fb50                bcc_loadnocache
                0x000000004003fb5c                bcc_loadnocache16
                0x000000004003fb68                bcc_loadnocache8
                0x000000004003fb80                bcc_ldstub
                0x000000004003fb8c                bcc_set_psr
                0x000000004003fba4                bcc_get_psr
                0x000000004003fbac                bcc_get_pil
                0x000000004003fbbc                bcc_set_tbr
                0x000000004003fbd4                bcc_get_tbr
 .text          0x000000004003fbe0       0x50 c:/opt/bcc-2.0.2-gcc/bin/../sparc-gaisler-elf/bsp/leon2/leon/mfix-at697f\libbcc.a(lowlevel_leon2.S.o)
                0x000000004003fbe0                bcc_set_ccr
                0x000000004003fbf0                bcc_get_ccr
                0x000000004003fc00                bcc_flush_cache
                0x000000004003fc0c                bcc_flush_icache
                0x000000004003fc14                bcc_flush_dcache
                0x000000004003fc1c                bcc_power_down
 .text          0x000000004003fc30      0x160 c:/opt/bcc-2.0.2-gcc/bin/../sparc-gaisler-elf/bsp/leon2/leon/mfix-at697f\libbcc.a(int_leon2.c.o)
                0x000000004003fc30                bcc_int_mask
                0x000000004003fc80                bcc_int_unmask
                0x000000004003fcd0                bcc_int_clear
                0x000000004003fd08                bcc_int_force
                0x000000004003fd4c                bcc_int_pend
 .text          0x000000004003fd90        0x8 c:/opt/bcc-2.0.2-gcc/bin/../sparc-gaisler-elf/bsp/leon2/leon/mfix-at697f\libbcc.a(int_leon2_get_source.c.o)
                0x000000004003fd90                __bcc_int_get_source
 .text          0x000000004003fd98        0x8 c:/opt/bcc-2.0.2-gcc/bin/../sparc-gaisler-elf/bsp/leon2/leon/mfix-at697f\libbcc.a(int_leon2_init.c.o)
                0x000000004003fd98                __bcc_int_init
 .text          0x000000004003fda0       0x70 c:/opt/bcc-2.0.2-gcc/bin/../sparc-gaisler-elf/bsp/leon2/leon/mfix-at697f\libbcc.a(con_leon2.c.o)
                0x000000004003fda0                __bcc_con_init
                0x000000004003fda8                __bcc_con_outbyte
                0x000000004003fddc                __bcc_con_inbyte
 .text          0x000000004003fe10       0x30 c:/opt/bcc-2.0.2-gcc/bin/../sparc-gaisler-elf/bsp/leon2/leon/mfix-at697f\libbcc.a(timer_leon2.c.o)
                0x000000004003fe10                __bcc_timer_init
                0x000000004003fe18                bcc_timer_get_us
 .text          0x000000004003fe40        0xc c:/opt/bcc-2.0.2-gcc/bin/../sparc-gaisler-elf/bsp/leon2/leon/mfix-at697f\libbcc.a(set_pil.S.o)
                0x000000004003fe40                bcc_set_pil
 .text          0x000000004003fe4c        0x0 c:/opt/bcc-2.0.2-gcc/bin/../sparc-gaisler-elf/bsp/leon2/leon/mfix-at697f\libbcc.a(int_leon2_handle.c.o)
 .text          0x000000004003fe4c        0x0 c:/opt/bcc-2.0.2-gcc/bin/../sparc-gaisler-elf/bsp/leon2/leon/mfix-at697f\libbcc.a(con_handle.c.o)
 .text          0x000000004003fe4c        0x0 c:/opt/bcc-2.0.2-gcc/bin/../sparc-gaisler-elf/bsp/leon2/leon/mfix-at697f\libbcc.a(timer_handle.c.o)
 .text          0x000000004003fe4c       0x1c c:/opt/bcc-2.0.2-gcc/bin/../lib/gcc/sparc-gaisler-elf/7.2.0/../../../../sparc-gaisler-elf/lib/leon/mfix-at697f\libc.a(lib_a-atexit.o)
                0x000000004003fe4c                atexit
 .text          0x000000004003fe68        0xc c:/opt/bcc-2.0.2-gcc/bin/../lib/gcc/sparc-gaisler-elf/7.2.0/../../../../sparc-gaisler-elf/lib/leon/mfix-at697f\libc.a(lib_a-errno.o)
                0x000000004003fe68                __errno
 .text          0x000000004003fe74       0x3c c:/opt/bcc-2.0.2-gcc/bin/../lib/gcc/sparc-gaisler-elf/7.2.0/../../../../sparc-gaisler-elf/lib/leon/mfix-at697f\libc.a(lib_a-exit.o)
                0x000000004003fe74                exit
 .text          0x000000004003feb0        0x0 c:/opt/bcc-2.0.2-gcc/bin/../lib/gcc/sparc-gaisler-elf/7.2.0/../../../../sparc-gaisler-elf/lib/leon/mfix-at697f\libc.a(lib_a-impure.o)
 .text          0x000000004003feb0      0x19c c:/opt/bcc-2.0.2-gcc/bin/../lib/gcc/sparc-gaisler-elf/7.2.0/../../../../sparc-gaisler-elf/lib/leon/mfix-at697f\libc.a(lib_a-memcpy.o)
                0x000000004003feb0                memcpy
 .text          0x000000004004004c      0x158 c:/opt/bcc-2.0.2-gcc/bin/../lib/gcc/sparc-gaisler-elf/7.2.0/../../../../sparc-gaisler-elf/lib/leon/mfix-at697f\libc.a(lib_a-__atexit.o)
                0x000000004004004c                __register_exitproc
 .text          0x00000000400401a4      0x2b4 c:/opt/bcc-2.0.2-gcc/bin/../lib/gcc/sparc-gaisler-elf/7.2.0/../../../../sparc-gaisler-elf/lib/leon/mfix-at697f\libc.a(lib_a-__call_atexit.o)
                0x00000000400401a4                __call_exitprocs
 .text          0x0000000040040458       0x18 c:/opt/bcc-2.0.2-gcc/bin/../sparc-gaisler-elf/bsp/leon2/leon/mfix-at697f\libbcc.a(_exit.S.o)
                0x0000000040040458                _exit
 .text          0x0000000040040470       0x48 c:/opt/bcc-2.0.2-gcc/bin/../lib/gcc/sparc-gaisler-elf/7.2.0/leon/mfix-at697f/crtend.o
 .text          0x00000000400404b8        0x0 c:/opt/bcc-2.0.2-gcc/bin/../lib/gcc/sparc-gaisler-elf/7.2.0/leon/mfix-at697f/crtn.o
                0x00000000400404c0                . = ALIGN (0x10)
 *fill*         0x00000000400404b8        0x8 
 *(.eh_frame)
 .eh_frame      0x00000000400404c0        0x0 c:/opt/bcc-2.0.2-gcc/bin/../lib/gcc/sparc-gaisler-elf/7.2.0/leon/mfix-at697f/crtbegin.o
 .eh_frame      0x00000000400404c0        0x4 c:/opt/bcc-2.0.2-gcc/bin/../lib/gcc/sparc-gaisler-elf/7.2.0/leon/mfix-at697f/crtend.o
                0x00000000400404d0                . = ALIGN (0x10)
 *fill*         0x00000000400404c4        0xc 
 *(.gnu.linkonce.t*)
                0x00000000400404d0                ___CTOR_LIST__ = .
                0x00000000400404d0        0x4 LONG 0x2 (((___CTOR_END__ - ___CTOR_LIST__) / 0x4) - 0x2)
 *(SORT(.ctors.*))
 *(.ctors)
 .ctors         0x00000000400404d4        0x4 c:/opt/bcc-2.0.2-gcc/bin/../lib/gcc/sparc-gaisler-elf/7.2.0/leon/mfix-at697f/crtbegin.o
 .ctors         0x00000000400404d8        0x4 c:/opt/bcc-2.0.2-gcc/bin/../lib/gcc/sparc-gaisler-elf/7.2.0/leon/mfix-at697f/crtend.o
                0x00000000400404dc        0x4 LONG 0x0
                0x00000000400404e0                ___CTOR_END__ = .
                0x00000000400404e0                ___DTOR_LIST__ = .
                0x00000000400404e0        0x4 LONG 0x2 (((___DTOR_END__ - ___DTOR_LIST__) / 0x4) - 0x2)
 *(SORT(.dtors.*))
 *(.dtors)
 .dtors         0x00000000400404e4        0x4 c:/opt/bcc-2.0.2-gcc/bin/../lib/gcc/sparc-gaisler-elf/7.2.0/leon/mfix-at697f/crtbegin.o
 .dtors         0x00000000400404e8        0x4 c:/opt/bcc-2.0.2-gcc/bin/../lib/gcc/sparc-gaisler-elf/7.2.0/leon/mfix-at697f/crtend.o
                0x00000000400404e8                __DTOR_END__
                0x00000000400404ec        0x4 LONG 0x0
                0x00000000400404f0                ___DTOR_END__ = .
 *(.gnu.linkonce*)
 *(.init)
 .init          0x00000000400404f0        0x4 c:/opt/bcc-2.0.2-gcc/bin/../lib/gcc/sparc-gaisler-elf/7.2.0/leon/mfix-at697f/crti.o
                0x00000000400404f0                _init
 .init          0x00000000400404f4        0x8 c:/opt/bcc-2.0.2-gcc/bin/../lib/gcc/sparc-gaisler-elf/7.2.0/leon/mfix-at697f/crtbegin.o
 .init          0x00000000400404fc        0x8 c:/opt/bcc-2.0.2-gcc/bin/../lib/gcc/sparc-gaisler-elf/7.2.0/leon/mfix-at697f/crtend.o
 .init          0x0000000040040504        0xc c:/opt/bcc-2.0.2-gcc/bin/../lib/gcc/sparc-gaisler-elf/7.2.0/leon/mfix-at697f/crtn.o
 *(.fini)
 .fini          0x0000000040040510        0x4 c:/opt/bcc-2.0.2-gcc/bin/../lib/gcc/sparc-gaisler-elf/7.2.0/leon/mfix-at697f/crti.o
                0x0000000040040510                _fini
 .fini          0x0000000040040514        0x8 c:/opt/bcc-2.0.2-gcc/bin/../lib/gcc/sparc-gaisler-elf/7.2.0/leon/mfix-at697f/crtbegin.o
 .fini          0x000000004004051c        0xc c:/opt/bcc-2.0.2-gcc/bin/../lib/gcc/sparc-gaisler-elf/7.2.0/leon/mfix-at697f/crtn.o
 *(.lit)
 *(.shdata)
                0x0000000040040530                . = ALIGN (0x10)
 *fill*         0x0000000040040528        0x8 
                0x0000000040040530                __text_end = .

.gcc_except_table
 *(.gcc_except_table)

.rodata         0x0000000040040530     0x2d90
                0x0000000040040530                __rodata_start = .
 *(.rodata*)
 .rodata.cst8   0x0000000040040530       0x38 C:\Users\Bhagawat\AppData\Local\Temp\ccmG331P.o
 .rodata        0x0000000040040568        0x0 C:\Users\Bhagawat\AppData\Local\Temp\ccFLNK2X.o
 .rodata        0x0000000040040568       0x10 C:\Users\Bhagawat\AppData\Local\Temp\ccF3JHAe.o
 .rodata.cst8   0x0000000040040578       0x18 C:\Users\Bhagawat\AppData\Local\Temp\ccSFvBJa.o
 .rodata.cst4   0x0000000040040590        0x4 C:\Users\Bhagawat\AppData\Local\Temp\ccSFvBJa.o
 .rodata        0x0000000040040594        0x0 C:\Users\Bhagawat\AppData\Local\Temp\ccSFvBJa.o
 .rodata        0x0000000040040594        0x0 C:\Users\Bhagawat\AppData\Local\Temp\ccbuJliF.o
 *fill*         0x0000000040040594        0x4 
 .rodata.cst8   0x0000000040040598        0x8 C:\Users\Bhagawat\AppData\Local\Temp\ccBLkweo.o
 .rodata.cst8   0x00000000400405a0       0x68 C:\Users\Bhagawat\AppData\Local\Temp\ccAFUHm4.o
                                        0x150 (size before relaxing)
 .rodata.cst8   0x0000000040040608       0x28 C:\Users\Bhagawat\AppData\Local\Temp\ccRqxX1h.o
                                         0x78 (size before relaxing)
 .rodata        0x0000000040040630     0x22cc C:\Users\Bhagawat\AppData\Local\Temp\ccyPto1B.o
                0x0000000040040630                c_I_nine_cross_nine
                0x00000000400408b8                c_I_three_cross_three
                0x0000000040040900                c_MagBias_act_LUT
                0x0000000040040b88                c_DPM_Pol_LookUpTable
                0x0000000040040cd0                c_B2wh_mat_0234
                0x0000000040040d30                c_B2wh_mat_1034
                0x0000000040040d90                c_B2wh_mat_1204
                0x0000000040040df0                c_B2wh_mat_1230
                0x0000000040040e50                c_B2wh_mat_4RW
                0x0000000040040eb0                c_wh2B_mat_0234
                0x0000000040040f10                c_wh2B_mat_1034
                0x0000000040040f70                c_wh2B_mat_1204
                0x0000000040040fd0                c_wh2B_mat_1230
                0x0000000040041030                c_wh2B_mat_4RW
                0x0000000040041090                c_MOI_wh
                0x0000000040041098                TC_Hmin
                0x00000000400410a0                TC_T_RW_MAX
                0x00000000400410a8                c_RADps2RPM
                0x00000000400410b0                c_RPM2RADpS
                0x00000000400410b8                c_DPMMAX
                0x00000000400410c0                c_wkm_sunmag
                0x00000000400410c8                c_wks_sunmag
                0x00000000400410d0                c_wkm_mag
                0x00000000400410d8                c_wks_mag
                0x00000000400410e0                c_ss2b4156
                0x0000000040041128                c_ss2b3456
                0x0000000040041170                c_ss2b2356
                0x00000000400411b8                c_ss2b1256
                0x0000000040041200                c_misaln_cor146
                0x0000000040041248                c_misaln_cor145
                0x0000000040041290                c_misaln_cor346
                0x00000000400412d8                c_misaln_cor345
                0x0000000040041320                c_misaln_cor326
                0x0000000040041368                c_misaln_cor325
                0x00000000400413b0                c_misaln_cor126
                0x00000000400413f8                c_misaln_cor125
                0x0000000040041440                c_AngDev_SAMtransit_thrsld
                0x0000000040041448                c_AngDev_SMtransit_thrsld
                0x0000000040041450                c_Sunlit_Thrsld
                0x0000000040041458                c_SSThrsld
                0x0000000040041460                c_Imax_YN_Main
                0x0000000040041468                c_Imax_YP_Main
                0x0000000040041470                c_Imax_PN_Main
                0x0000000040041478                c_Imax_PP_Main
                0x0000000040041480                c_Imax_RNND_Main
                0x0000000040041488                c_Imax_RPND_Main
                0x0000000040041490                c_Imax_RND_Main
                0x0000000040041498                c_Imax_RPD_Main
                0x00000000400414a0                c_Imax_YN_Red
                0x00000000400414a8                c_Imax_YP_Red
                0x00000000400414b0                c_Imax_PN_Red
                0x00000000400414b8                c_Imax_PP_Red
                0x00000000400414c0                c_Imax_RNND_Red
                0x00000000400414c8                c_Imax_RPND_Red
                0x00000000400414d0                c_Imax_RND_Red
                0x00000000400414d8                c_Imax_RPD_Red
                0x00000000400414e0                c_KDset3
                0x00000000400414e8                c_KDset2
                0x00000000400414f0                c_KDset1
                0x00000000400414f8                c_Epsilon2
                0x0000000040041500                c_Epsilon1
                0x0000000040041508                c_Sun_Dis3
                0x0000000040041510                c_Sun_Dis2
                0x0000000040041518                c_Sun_Dis1
                0x0000000040041520                c_L_Ecliptic2
                0x0000000040041528                c_L_Ecliptic1
                0x0000000040041530                c_Msun2
                0x0000000040041538                c_Msun1
                0x0000000040041540                c_L_Msun2
                0x0000000040041548                c_L_Msun1
                0x0000000040041550                c_hsval
                0x0000000040041890                c_hval
                0x0000000040041bd0                c_gsval
                0x0000000040041f10                c_gval
                0x0000000040042250                c_sdmax
                0x0000000040042258                c_a
                0x0000000040042260                c_Pibytwo
                0x0000000040042268                c_Kmax
                0x000000004004226c                c_Nmax
                0x0000000040042270                c_rk_T
                0x00000000400424f8                c_rk
                0x0000000040042780                c_I_four_cross_four
                0x00000000400427c0                c_onesecond
                0x00000000400427c4                c_oneminute
                0x00000000400427c8                c_halfhour
                0x00000000400427d0                c_Mmax
                0x00000000400427d8                c_AS2R
                0x00000000400427e0                c_R2D
                0x00000000400427e8                c_D2R
                0x00000000400427f0                c_min_per_day
                0x00000000400427f8                c_temp4
                0x0000000040042800                c_j4
                0x0000000040042808                c_j3oj2
                0x0000000040042810                c_qzms2t
                0x0000000040042818                c_ss
                0x0000000040042820                c_xpdotp
                0x0000000040042828                c_Pi
                0x0000000040042830                c_Day_To_Seconds
                0x0000000040042838                c_invmu
                0x0000000040042840                c_mu
                0x0000000040042848                c_dividebyzerovalue
                0x0000000040042850                c_xke
                0x0000000040042858                c_x2o3
                0x0000000040042860                c_Twopi
                0x0000000040042868                c_j2
                0x0000000040042870                c_au
                0x0000000040042878                c_auer
                0x0000000040042880                c_ecc_ellip
                0x0000000040042888                c_polarradiuskm
                0x0000000040042890                c_radiusearthkm
                0x0000000040042898                c_vkmpersec
                0x00000000400428a0                c_OMEGAE
                0x00000000400428a8                c_tsince_min
                0x00000000400428b0                c_twomu
                0x00000000400428b8                c_MiC
                0x00000000400428c0                c_MaC
                0x00000000400428c8                c_TM_RW_Resol
                0x00000000400428d0                c_TM_Resol_B
                0x00000000400428d8                c_TM_Resol_w
                0x00000000400428e0                c_TM_Resol_DelThta
                0x00000000400428e8                c_Resol_DelThta
                0x00000000400428f0                c_Resol_B
                0x00000000400428f8                c_FFFF
 *fill*         0x00000000400428fc        0x4 
 .rodata.cst8   0x0000000040042900       0x50 C:\Users\Bhagawat\AppData\Local\Temp\ccZvvD0p.o
                                         0x88 (size before relaxing)
 .rodata.cst8   0x0000000040042950       0x10 C:\Users\Bhagawat\AppData\Local\Temp\cciSMCHz.o
                                         0x38 (size before relaxing)
 .rodata        0x0000000040042960        0x0 C:\Users\Bhagawat\AppData\Local\Temp\cciSMCHz.o
 .rodata.cst8   0x0000000040042960      0x148 C:\Users\Bhagawat\AppData\Local\Temp\ccYmJqpt.o
                                        0x168 (size before relaxing)
 .rodata.cst8   0x0000000040042aa8       0x30 C:\Users\Bhagawat\AppData\Local\Temp\cc5ogaUY.o
                                         0x88 (size before relaxing)
 .rodata.cst8   0x0000000040042ad8      0x268 C:\Users\Bhagawat\AppData\Local\Temp\ccQjljxZ.o
                                        0x3a8 (size before relaxing)
 .rodata.cst8   0x0000000040042d40       0xa0 C:\Users\Bhagawat\AppData\Local\Temp\ccgDYObG.o
 .rodata.cst8   0x0000000040042d40       0xa8 c:/opt/bcc-2.0.2-gcc/bin/../lib/gcc/sparc-gaisler-elf/7.2.0/../../../../sparc-gaisler-elf/lib/leon/mfix-at697f\libm.a(lib_a-s_atan.o)
                                         0xd0 (size before relaxing)
 .rodata.cst8   0x0000000040042de8       0x10 c:/opt/bcc-2.0.2-gcc/bin/../lib/gcc/sparc-gaisler-elf/7.2.0/../../../../sparc-gaisler-elf/lib/leon/mfix-at697f\libm.a(lib_a-s_floor.o)
 .rodata.str1.8
                0x0000000040042de8        0x9 c:/opt/bcc-2.0.2-gcc/bin/../lib/gcc/sparc-gaisler-elf/7.2.0/../../../../sparc-gaisler-elf/lib/leon/mfix-at697f\libm.a(lib_a-w_acos.o)
 .rodata.cst8   0x0000000040042df1        0x8 c:/opt/bcc-2.0.2-gcc/bin/../lib/gcc/sparc-gaisler-elf/7.2.0/../../../../sparc-gaisler-elf/lib/leon/mfix-at697f\libm.a(lib_a-w_acos.o)
 *fill*         0x0000000040042df1        0x7 
 .rodata.str1.8
                0x0000000040042df8        0x5 c:/opt/bcc-2.0.2-gcc/bin/../lib/gcc/sparc-gaisler-elf/7.2.0/../../../../sparc-gaisler-elf/lib/leon/mfix-at697f\libm.a(lib_a-w_fmod.o)
 .rodata.cst8   0x0000000040042dfd        0x8 c:/opt/bcc-2.0.2-gcc/bin/../lib/gcc/sparc-gaisler-elf/7.2.0/../../../../sparc-gaisler-elf/lib/leon/mfix-at697f\libm.a(lib_a-w_fmod.o)
 *fill*         0x0000000040042dfd        0x3 
 .rodata.str1.8
                0x0000000040042e00        0x4 c:/opt/bcc-2.0.2-gcc/bin/../lib/gcc/sparc-gaisler-elf/7.2.0/../../../../sparc-gaisler-elf/lib/leon/mfix-at697f\libm.a(lib_a-w_pow.o)
 *fill*         0x0000000040042e04        0x4 
 .rodata.cst8   0x0000000040042e08       0x20 c:/opt/bcc-2.0.2-gcc/bin/../lib/gcc/sparc-gaisler-elf/7.2.0/../../../../sparc-gaisler-elf/lib/leon/mfix-at697f\libm.a(lib_a-w_pow.o)
                                         0x38 (size before relaxing)
 .rodata.str1.8
                0x0000000040042e28        0x8 c:/opt/bcc-2.0.2-gcc/bin/../lib/gcc/sparc-gaisler-elf/7.2.0/../../../../sparc-gaisler-elf/lib/leon/mfix-at697f\libm.a(lib_a-w_sqrt.o)
                                          0x5 (size before relaxing)
 .rodata.cst8   0x0000000040042e30        0x8 c:/opt/bcc-2.0.2-gcc/bin/../lib/gcc/sparc-gaisler-elf/7.2.0/../../../../sparc-gaisler-elf/lib/leon/mfix-at697f\libm.a(lib_a-w_sqrt.o)
 .rodata.cst8   0x0000000040042e30       0x50 c:/opt/bcc-2.0.2-gcc/bin/../lib/gcc/sparc-gaisler-elf/7.2.0/../../../../sparc-gaisler-elf/lib/leon/mfix-at697f\libm.a(lib_a-e_acos.o)
                                         0x80 (size before relaxing)
 .rodata.cst8   0x0000000040042e80       0x28 c:/opt/bcc-2.0.2-gcc/bin/../lib/gcc/sparc-gaisler-elf/7.2.0/../../../../sparc-gaisler-elf/lib/leon/mfix-at697f\libm.a(lib_a-e_atan2.o)
                                         0x58 (size before relaxing)
 .rodata        0x0000000040042ea8       0x10 c:/opt/bcc-2.0.2-gcc/bin/../lib/gcc/sparc-gaisler-elf/7.2.0/../../../../sparc-gaisler-elf/lib/leon/mfix-at697f\libm.a(lib_a-e_fmod.o)
 .rodata.str1.8
                0x0000000040042eb8        0x1 c:/opt/bcc-2.0.2-gcc/bin/../lib/gcc/sparc-gaisler-elf/7.2.0/../../../../sparc-gaisler-elf/lib/leon/mfix-at697f\libm.a(lib_a-e_pow.o)
 .rodata.cst8   0x0000000040042eb8       0xc8 c:/opt/bcc-2.0.2-gcc/bin/../lib/gcc/sparc-gaisler-elf/7.2.0/../../../../sparc-gaisler-elf/lib/leon/mfix-at697f\libm.a(lib_a-e_pow.o)
                                        0x120 (size before relaxing)
 .rodata.cst8   0x0000000040042f80       0x40 c:/opt/bcc-2.0.2-gcc/bin/../lib/gcc/sparc-gaisler-elf/7.2.0/../../../../sparc-gaisler-elf/lib/leon/mfix-at697f\libm.a(lib_a-e_rem_pio2.o)
                                         0x50 (size before relaxing)
 .rodata        0x0000000040042fc0      0x188 c:/opt/bcc-2.0.2-gcc/bin/../lib/gcc/sparc-gaisler-elf/7.2.0/../../../../sparc-gaisler-elf/lib/leon/mfix-at697f\libm.a(lib_a-e_rem_pio2.o)
 .rodata.cst8   0x0000000040043148       0x40 c:/opt/bcc-2.0.2-gcc/bin/../lib/gcc/sparc-gaisler-elf/7.2.0/../../../../sparc-gaisler-elf/lib/leon/mfix-at697f\libm.a(lib_a-k_cos.o)
                                         0x50 (size before relaxing)
 .rodata.cst8   0x0000000040043188       0x50 c:/opt/bcc-2.0.2-gcc/bin/../lib/gcc/sparc-gaisler-elf/7.2.0/../../../../sparc-gaisler-elf/lib/leon/mfix-at697f\libm.a(lib_a-k_rem_pio2.o)
                                         0x78 (size before relaxing)
 .rodata        0x00000000400431d8       0x10 c:/opt/bcc-2.0.2-gcc/bin/../lib/gcc/sparc-gaisler-elf/7.2.0/../../../../sparc-gaisler-elf/lib/leon/mfix-at697f\libm.a(lib_a-k_rem_pio2.o)
 .rodata.cst8   0x00000000400431e8       0x30 c:/opt/bcc-2.0.2-gcc/bin/../lib/gcc/sparc-gaisler-elf/7.2.0/../../../../sparc-gaisler-elf/lib/leon/mfix-at697f\libm.a(lib_a-k_sin.o)
                                         0x38 (size before relaxing)
 .rodata.cst8   0x0000000040043218       0x68 c:/opt/bcc-2.0.2-gcc/bin/../lib/gcc/sparc-gaisler-elf/7.2.0/../../../../sparc-gaisler-elf/lib/leon/mfix-at697f\libm.a(lib_a-k_tan.o)
                                         0x90 (size before relaxing)
 .rodata.cst8   0x0000000040043280        0x8 c:/opt/bcc-2.0.2-gcc/bin/../lib/gcc/sparc-gaisler-elf/7.2.0/../../../../sparc-gaisler-elf/lib/leon/mfix-at697f\libm.a(lib_a-s_nan.o)
 .rodata        0x0000000040043288       0x10 c:/opt/bcc-2.0.2-gcc/bin/../lib/gcc/sparc-gaisler-elf/7.2.0/../../../../sparc-gaisler-elf/lib/leon/mfix-at697f\libm.a(lib_a-s_rint.o)
 .rodata.cst8   0x0000000040043298       0x18 c:/opt/bcc-2.0.2-gcc/bin/../lib/gcc/sparc-gaisler-elf/7.2.0/../../../../sparc-gaisler-elf/lib/leon/mfix-at697f\libm.a(lib_a-s_scalbn.o)
                                         0x20 (size before relaxing)
 .rodata        0x00000000400432b0        0x4 c:/opt/bcc-2.0.2-gcc/bin/../lib/gcc/sparc-gaisler-elf/7.2.0/../../../../sparc-gaisler-elf/lib/leon/mfix-at697f\libc.a(lib_a-impure.o)
                0x00000000400432b0                _global_impure_ptr
 *(.gnu.linkonce.r*)
                0x00000000400432c0                . = ALIGN (0x10)
 *fill*         0x00000000400432b4        0xc 
                0x00000000400432c0                __rodata_end = .

.rela.dyn       0x00000000400432c0        0x0
 .rela.iplt     0x00000000400432c0        0x0 c:/opt/bcc-2.0.2-gcc/bin/../sparc-gaisler-elf/bsp/leon2/leon/mfix-at697f/trap_table_mvt.S.o
 .rela.text.traptable
                0x00000000400432c0        0x0 c:/opt/bcc-2.0.2-gcc/bin/../sparc-gaisler-elf/bsp/leon2/leon/mfix-at697f/trap_table_mvt.S.o
 .rela.text     0x00000000400432c0        0x0 c:/opt/bcc-2.0.2-gcc/bin/../sparc-gaisler-elf/bsp/leon2/leon/mfix-at697f/trap_table_mvt.S.o
 .rela.text.startup
                0x00000000400432c0        0x0 c:/opt/bcc-2.0.2-gcc/bin/../sparc-gaisler-elf/bsp/leon2/leon/mfix-at697f/trap_table_mvt.S.o
 .rela.data     0x00000000400432c0        0x0 c:/opt/bcc-2.0.2-gcc/bin/../sparc-gaisler-elf/bsp/leon2/leon/mfix-at697f/trap_table_mvt.S.o

.ext.data       0x00000000400432c0        0x0
                0x00000000400432c0                . = ALIGN (0x8)
                0x00000000400432c0                __extdata_start = .
 *(.data.ext)
                0x00000000400432c0                . = ALIGN (0x8)
                0x00000000400432c0                __extdata_end = .
                0x00000000400432c0                __extdata_start_lma = LOADADDR (.ext.data)
                0x0000000000000000                __extdata_size = SIZEOF (.ext.data)

.data           0x00000000400432c0      0x718
                0x00000000400432c0                . = ALIGN (0x8)
                0x00000000400432c0                __data_start = .
 *(.data .data.*)
 .data          0x00000000400432c0        0x0 c:/opt/bcc-2.0.2-gcc/bin/../sparc-gaisler-elf/bsp/leon2/leon/mfix-at697f/trap_table_mvt.S.o
 .data          0x00000000400432c0        0x0 c:/opt/bcc-2.0.2-gcc/bin/../sparc-gaisler-elf/bsp/leon2/leon/mfix-at697f/crt0.S.o
 .data          0x00000000400432c0        0x0 c:/opt/bcc-2.0.2-gcc/bin/../lib/gcc/sparc-gaisler-elf/7.2.0/leon/mfix-at697f/crti.o
 .data          0x00000000400432c0        0x4 c:/opt/bcc-2.0.2-gcc/bin/../lib/gcc/sparc-gaisler-elf/7.2.0/leon/mfix-at697f/crtbegin.o
                0x00000000400432c0                __dso_handle
 .data          0x00000000400432c4        0x0 C:\Users\Bhagawat\AppData\Local\Temp\ccmG331P.o
 .data          0x00000000400432c4        0x0 C:\Users\Bhagawat\AppData\Local\Temp\ccFLNK2X.o
 .data          0x00000000400432c4       0x18 C:\Users\Bhagawat\AppData\Local\Temp\ccF3JHAe.o
                0x00000000400432d8                real_tm_wait
 .data          0x00000000400432dc      0x3e0 C:\Users\Bhagawat\AppData\Local\Temp\ccSFvBJa.o
                0x00000000400432dc                Resol_Table_Adcs
                0x00000000400433dc                BlkExe_Status
                0x00000000400433e0                FuncExecute_Table
                0x0000000040043650                Resol_Table
 .data          0x00000000400436bc        0x0 C:\Users\Bhagawat\AppData\Local\Temp\ccLxi9Ri.o
 .data          0x00000000400436bc        0x0 C:\Users\Bhagawat\AppData\Local\Temp\cc0Th2ok.o
 .data          0x00000000400436bc        0x8 C:\Users\Bhagawat\AppData\Local\Temp\ccbuJliF.o
                0x00000000400436bc                PL_Debug_Data
 .data          0x00000000400436c4       0x20 C:\Users\Bhagawat\AppData\Local\Temp\ccA5VOh9.o
                0x00000000400436c4                inter_HAL_EPS_Hardware_Status_SEL
 .data          0x00000000400436e4        0x0 C:\Users\Bhagawat\AppData\Local\Temp\cclg7QQI.o
 .data          0x00000000400436e4        0x0 C:\Users\Bhagawat\AppData\Local\Temp\cc4J82Fr.o
 .data          0x00000000400436e4        0x0 C:\Users\Bhagawat\AppData\Local\Temp\ccP2pYow.o
 .data          0x00000000400436e4       0xbc C:\Users\Bhagawat\AppData\Local\Temp\cc5opyBQ.o
                0x00000000400436e4                Auto_manual
                0x00000000400436e8                UTP
                0x0000000040043728                LTP
                0x0000000040043768                Thermister_index_select
 .data          0x00000000400437a0        0x0 C:\Users\Bhagawat\AppData\Local\Temp\ccjU9hyn.o
 .data          0x00000000400437a0        0x4 C:\Users\Bhagawat\AppData\Local\Temp\ccBLkweo.o
                0x00000000400437a0                NSP_addr_table
 .data          0x00000000400437a4        0x0 C:\Users\Bhagawat\AppData\Local\Temp\ccsgz4so.o
 .data          0x00000000400437a4        0x0 C:\Users\Bhagawat\AppData\Local\Temp\ccAFUHm4.o
 .data          0x00000000400437a4        0x0 C:\Users\Bhagawat\AppData\Local\Temp\ccRqxX1h.o
 *fill*         0x00000000400437a4        0x4 
 .data          0x00000000400437a8      0x190 C:\Users\Bhagawat\AppData\Local\Temp\ccyPto1B.o
                0x00000000400437a8                c_MOI_wh_mat
                0x0000000040043828                c_MOI_wh_mat_Inv
                0x00000000400438a8                c_I_MAT_Inv
                0x00000000400438f0                c_I_MAT
 .data          0x0000000040043938        0x0 C:\Users\Bhagawat\AppData\Local\Temp\ccZvvD0p.o
 .data          0x0000000040043938        0x0 C:\Users\Bhagawat\AppData\Local\Temp\cciSMCHz.o
 .data          0x0000000040043938        0x0 C:\Users\Bhagawat\AppData\Local\Temp\ccYmJqpt.o
 .data          0x0000000040043938        0x0 C:\Users\Bhagawat\AppData\Local\Temp\cc5ogaUY.o
 .data          0x0000000040043938        0x0 C:\Users\Bhagawat\AppData\Local\Temp\ccCmOWXC.o
 .data          0x0000000040043938        0x0 C:\Users\Bhagawat\AppData\Local\Temp\ccQjljxZ.o
 .data          0x0000000040043938        0x0 C:\Users\Bhagawat\AppData\Local\Temp\ccgDYObG.o
 .data          0x0000000040043938        0x0 C:\Users\Bhagawat\AppData\Local\Temp\ccyKrZ4y.o
 .data          0x0000000040043938        0x0 c:/opt/bcc-2.0.2-gcc/bin/../lib/gcc/sparc-gaisler-elf/7.2.0/../../../../sparc-gaisler-elf/lib/leon/mfix-at697f\libm.a(lib_a-s_atan.o)
 .data          0x0000000040043938        0x0 c:/opt/bcc-2.0.2-gcc/bin/../lib/gcc/sparc-gaisler-elf/7.2.0/../../../../sparc-gaisler-elf/lib/leon/mfix-at697f\libm.a(lib_a-s_cos.o)
 .data          0x0000000040043938        0x0 c:/opt/bcc-2.0.2-gcc/bin/../lib/gcc/sparc-gaisler-elf/7.2.0/../../../../sparc-gaisler-elf/lib/leon/mfix-at697f\libm.a(lib_a-s_fabs.o)
 .data          0x0000000040043938        0x0 c:/opt/bcc-2.0.2-gcc/bin/../lib/gcc/sparc-gaisler-elf/7.2.0/../../../../sparc-gaisler-elf/lib/leon/mfix-at697f\libm.a(lib_a-s_floor.o)
 .data          0x0000000040043938        0x0 c:/opt/bcc-2.0.2-gcc/bin/../lib/gcc/sparc-gaisler-elf/7.2.0/../../../../sparc-gaisler-elf/lib/leon/mfix-at697f\libm.a(lib_a-s_sin.o)
 .data          0x0000000040043938        0x0 c:/opt/bcc-2.0.2-gcc/bin/../lib/gcc/sparc-gaisler-elf/7.2.0/../../../../sparc-gaisler-elf/lib/leon/mfix-at697f\libm.a(lib_a-s_tan.o)
 .data          0x0000000040043938        0x0 c:/opt/bcc-2.0.2-gcc/bin/../lib/gcc/sparc-gaisler-elf/7.2.0/../../../../sparc-gaisler-elf/lib/leon/mfix-at697f\libm.a(lib_a-w_acos.o)
 .data          0x0000000040043938        0x0 c:/opt/bcc-2.0.2-gcc/bin/../lib/gcc/sparc-gaisler-elf/7.2.0/../../../../sparc-gaisler-elf/lib/leon/mfix-at697f\libm.a(lib_a-w_atan2.o)
 .data          0x0000000040043938        0x0 c:/opt/bcc-2.0.2-gcc/bin/../lib/gcc/sparc-gaisler-elf/7.2.0/../../../../sparc-gaisler-elf/lib/leon/mfix-at697f\libm.a(lib_a-w_fmod.o)
 .data          0x0000000040043938        0x0 c:/opt/bcc-2.0.2-gcc/bin/../lib/gcc/sparc-gaisler-elf/7.2.0/../../../../sparc-gaisler-elf/lib/leon/mfix-at697f\libm.a(lib_a-w_pow.o)
 .data          0x0000000040043938        0x0 c:/opt/bcc-2.0.2-gcc/bin/../lib/gcc/sparc-gaisler-elf/7.2.0/../../../../sparc-gaisler-elf/lib/leon/mfix-at697f\libm.a(lib_a-w_sqrt.o)
 .data          0x0000000040043938        0x0 c:/opt/bcc-2.0.2-gcc/bin/../lib/gcc/sparc-gaisler-elf/7.2.0/../../../../sparc-gaisler-elf/lib/leon/mfix-at697f\libm.a(lib_a-e_acos.o)
 .data          0x0000000040043938        0x0 c:/opt/bcc-2.0.2-gcc/bin/../lib/gcc/sparc-gaisler-elf/7.2.0/../../../../sparc-gaisler-elf/lib/leon/mfix-at697f\libm.a(lib_a-e_atan2.o)
 .data          0x0000000040043938        0x0 c:/opt/bcc-2.0.2-gcc/bin/../lib/gcc/sparc-gaisler-elf/7.2.0/../../../../sparc-gaisler-elf/lib/leon/mfix-at697f\libm.a(lib_a-e_fmod.o)
 .data          0x0000000040043938        0x0 c:/opt/bcc-2.0.2-gcc/bin/../lib/gcc/sparc-gaisler-elf/7.2.0/../../../../sparc-gaisler-elf/lib/leon/mfix-at697f\libm.a(lib_a-e_pow.o)
 .data          0x0000000040043938        0x0 c:/opt/bcc-2.0.2-gcc/bin/../lib/gcc/sparc-gaisler-elf/7.2.0/../../../../sparc-gaisler-elf/lib/leon/mfix-at697f\libm.a(lib_a-e_rem_pio2.o)
 .data          0x0000000040043938        0x0 c:/opt/bcc-2.0.2-gcc/bin/../lib/gcc/sparc-gaisler-elf/7.2.0/../../../../sparc-gaisler-elf/lib/leon/mfix-at697f\libm.a(lib_a-e_sqrt.o)
 .data          0x0000000040043938        0x0 c:/opt/bcc-2.0.2-gcc/bin/../lib/gcc/sparc-gaisler-elf/7.2.0/../../../../sparc-gaisler-elf/lib/leon/mfix-at697f\libm.a(lib_a-k_cos.o)
 .data          0x0000000040043938        0x0 c:/opt/bcc-2.0.2-gcc/bin/../lib/gcc/sparc-gaisler-elf/7.2.0/../../../../sparc-gaisler-elf/lib/leon/mfix-at697f\libm.a(lib_a-k_rem_pio2.o)
 .data          0x0000000040043938        0x0 c:/opt/bcc-2.0.2-gcc/bin/../lib/gcc/sparc-gaisler-elf/7.2.0/../../../../sparc-gaisler-elf/lib/leon/mfix-at697f\libm.a(lib_a-k_sin.o)
 .data          0x0000000040043938        0x0 c:/opt/bcc-2.0.2-gcc/bin/../lib/gcc/sparc-gaisler-elf/7.2.0/../../../../sparc-gaisler-elf/lib/leon/mfix-at697f\libm.a(lib_a-k_tan.o)
 .data          0x0000000040043938        0x0 c:/opt/bcc-2.0.2-gcc/bin/../lib/gcc/sparc-gaisler-elf/7.2.0/../../../../sparc-gaisler-elf/lib/leon/mfix-at697f\libm.a(lib_a-s_finite.o)
 .data          0x0000000040043938        0x4 c:/opt/bcc-2.0.2-gcc/bin/../lib/gcc/sparc-gaisler-elf/7.2.0/../../../../sparc-gaisler-elf/lib/leon/mfix-at697f\libm.a(lib_a-s_lib_ver.o)
                0x0000000040043938                __fdlib_version
 .data          0x000000004004393c        0x0 c:/opt/bcc-2.0.2-gcc/bin/../lib/gcc/sparc-gaisler-elf/7.2.0/../../../../sparc-gaisler-elf/lib/leon/mfix-at697f\libm.a(lib_a-s_matherr.o)
 .data          0x000000004004393c        0x0 c:/opt/bcc-2.0.2-gcc/bin/../lib/gcc/sparc-gaisler-elf/7.2.0/../../../../sparc-gaisler-elf/lib/leon/mfix-at697f\libm.a(lib_a-s_nan.o)
 .data          0x000000004004393c        0x0 c:/opt/bcc-2.0.2-gcc/bin/../lib/gcc/sparc-gaisler-elf/7.2.0/../../../../sparc-gaisler-elf/lib/leon/mfix-at697f\libm.a(lib_a-s_rint.o)
 .data          0x000000004004393c        0x0 c:/opt/bcc-2.0.2-gcc/bin/../lib/gcc/sparc-gaisler-elf/7.2.0/../../../../sparc-gaisler-elf/lib/leon/mfix-at697f\libm.a(lib_a-s_scalbn.o)
 .data          0x000000004004393c        0x0 c:/opt/bcc-2.0.2-gcc/bin/../lib/gcc/sparc-gaisler-elf/7.2.0/../../../../sparc-gaisler-elf/lib/leon/mfix-at697f\libm.a(lib_a-s_copysign.o)
 .data          0x000000004004393c        0x0 c:/opt/bcc-2.0.2-gcc/bin/../sparc-gaisler-elf/bsp/leon2/leon/mfix-at697f\libbcc.a(reset_trap_mvt.S.o)
 .data          0x000000004004393c        0x0 c:/opt/bcc-2.0.2-gcc/bin/../sparc-gaisler-elf/bsp/leon2/leon/mfix-at697f\libbcc.a(window_trap.S.o)
 .data          0x000000004004393c        0x0 c:/opt/bcc-2.0.2-gcc/bin/../sparc-gaisler-elf/bsp/leon2/leon/mfix-at697f\libbcc.a(interrupt_trap.S.o)
 .data          0x000000004004393c        0x0 c:/opt/bcc-2.0.2-gcc/bin/../sparc-gaisler-elf/bsp/leon2/leon/mfix-at697f\libbcc.a(flush_windows_trap.S.o)
 .data          0x000000004004393c        0x0 c:/opt/bcc-2.0.2-gcc/bin/../sparc-gaisler-elf/bsp/leon2/leon/mfix-at697f\libbcc.a(sw_trap_set_pil.S.o)
 .data          0x000000004004393c        0x0 c:/opt/bcc-2.0.2-gcc/bin/../sparc-gaisler-elf/bsp/leon2/leon/mfix-at697f\libbcc.a(trap.c.o)
 .data          0x000000004004393c        0x0 c:/opt/bcc-2.0.2-gcc/bin/../sparc-gaisler-elf/bsp/leon2/leon/mfix-at697f\libbcc.a(isr.c.o)
 *fill*         0x000000004004393c        0x4 
 .data          0x0000000040043940       0x10 c:/opt/bcc-2.0.2-gcc/bin/../sparc-gaisler-elf/bsp/leon2/leon/mfix-at697f\libbcc.a(int_nest.c.o)
                0x0000000040043940                __bcc_int_nest
 .data          0x0000000040043950        0x0 c:/opt/bcc-2.0.2-gcc/bin/../sparc-gaisler-elf/bsp/leon2/leon/mfix-at697f\libbcc.a(init.S.o)
 .data          0x0000000040043950       0x10 c:/opt/bcc-2.0.2-gcc/bin/../sparc-gaisler-elf/bsp/leon2/leon/mfix-at697f\libbcc.a(leon_info.S.o)
                0x0000000040043950                __bcc_leon_version
                0x0000000040043954                __bcc_nwindows_min1
                0x0000000040043958                __bcc_nwindows
                0x000000004004395c                __bcc_cpuid
 .data          0x0000000040043960        0x0 c:/opt/bcc-2.0.2-gcc/bin/../sparc-gaisler-elf/bsp/leon2/leon/mfix-at697f\libbcc.a(dwzero.S.o)
 .data          0x0000000040043960        0x0 c:/opt/bcc-2.0.2-gcc/bin/../sparc-gaisler-elf/bsp/leon2/leon/mfix-at697f\libbcc.a(copy_data.c.o)
 .data          0x0000000040043960        0x0 c:/opt/bcc-2.0.2-gcc/bin/../sparc-gaisler-elf/bsp/leon2/leon/mfix-at697f\libbcc.a(lowlevel.S.o)
 .data          0x0000000040043960        0x0 c:/opt/bcc-2.0.2-gcc/bin/../sparc-gaisler-elf/bsp/leon2/leon/mfix-at697f\libbcc.a(lowlevel_leon2.S.o)
 .data          0x0000000040043960        0x0 c:/opt/bcc-2.0.2-gcc/bin/../sparc-gaisler-elf/bsp/leon2/leon/mfix-at697f\libbcc.a(int_leon2.c.o)
 .data          0x0000000040043960        0x0 c:/opt/bcc-2.0.2-gcc/bin/../sparc-gaisler-elf/bsp/leon2/leon/mfix-at697f\libbcc.a(int_leon2_get_source.c.o)
 .data          0x0000000040043960        0x0 c:/opt/bcc-2.0.2-gcc/bin/../sparc-gaisler-elf/bsp/leon2/leon/mfix-at697f\libbcc.a(int_leon2_init.c.o)
 .data          0x0000000040043960        0x0 c:/opt/bcc-2.0.2-gcc/bin/../sparc-gaisler-elf/bsp/leon2/leon/mfix-at697f\libbcc.a(con_leon2.c.o)
 .data          0x0000000040043960        0x0 c:/opt/bcc-2.0.2-gcc/bin/../sparc-gaisler-elf/bsp/leon2/leon/mfix-at697f\libbcc.a(timer_leon2.c.o)
 .data          0x0000000040043960        0x0 c:/opt/bcc-2.0.2-gcc/bin/../sparc-gaisler-elf/bsp/leon2/leon/mfix-at697f\libbcc.a(set_pil.S.o)
 .data          0x0000000040043960        0x4 c:/opt/bcc-2.0.2-gcc/bin/../sparc-gaisler-elf/bsp/leon2/leon/mfix-at697f\libbcc.a(int_leon2_handle.c.o)
                0x0000000040043960                __bcc_int_handle
 .data          0x0000000040043964        0x4 c:/opt/bcc-2.0.2-gcc/bin/../sparc-gaisler-elf/bsp/leon2/leon/mfix-at697f\libbcc.a(con_handle.c.o)
                0x0000000040043964                __bcc_con_handle
 .data          0x0000000040043968        0x8 c:/opt/bcc-2.0.2-gcc/bin/../sparc-gaisler-elf/bsp/leon2/leon/mfix-at697f\libbcc.a(timer_handle.c.o)
                0x0000000040043968                __bcc_timer_interrupt
                0x000000004004396c                __bcc_timer_handle
 .data          0x0000000040043970        0x0 c:/opt/bcc-2.0.2-gcc/bin/../lib/gcc/sparc-gaisler-elf/7.2.0/../../../../sparc-gaisler-elf/lib/leon/mfix-at697f\libc.a(lib_a-atexit.o)
 .data          0x0000000040043970        0x0 c:/opt/bcc-2.0.2-gcc/bin/../lib/gcc/sparc-gaisler-elf/7.2.0/../../../../sparc-gaisler-elf/lib/leon/mfix-at697f\libc.a(lib_a-errno.o)
 .data          0x0000000040043970        0x0 c:/opt/bcc-2.0.2-gcc/bin/../lib/gcc/sparc-gaisler-elf/7.2.0/../../../../sparc-gaisler-elf/lib/leon/mfix-at697f\libc.a(lib_a-exit.o)
 .data          0x0000000040043970       0x64 c:/opt/bcc-2.0.2-gcc/bin/../lib/gcc/sparc-gaisler-elf/7.2.0/../../../../sparc-gaisler-elf/lib/leon/mfix-at697f\libc.a(lib_a-impure.o)
                0x0000000040043970                _impure_ptr
 .data          0x00000000400439d4        0x0 c:/opt/bcc-2.0.2-gcc/bin/../lib/gcc/sparc-gaisler-elf/7.2.0/../../../../sparc-gaisler-elf/lib/leon/mfix-at697f\libc.a(lib_a-memcpy.o)
 .data          0x00000000400439d4        0x0 c:/opt/bcc-2.0.2-gcc/bin/../lib/gcc/sparc-gaisler-elf/7.2.0/../../../../sparc-gaisler-elf/lib/leon/mfix-at697f\libc.a(lib_a-__atexit.o)
 .data          0x00000000400439d4        0x0 c:/opt/bcc-2.0.2-gcc/bin/../lib/gcc/sparc-gaisler-elf/7.2.0/../../../../sparc-gaisler-elf/lib/leon/mfix-at697f\libc.a(lib_a-__call_atexit.o)
 .data          0x00000000400439d4        0x0 c:/opt/bcc-2.0.2-gcc/bin/../sparc-gaisler-elf/bsp/leon2/leon/mfix-at697f\libbcc.a(_exit.S.o)
 .data          0x00000000400439d4        0x0 c:/opt/bcc-2.0.2-gcc/bin/../lib/gcc/sparc-gaisler-elf/7.2.0/leon/mfix-at697f/crtend.o
 .data          0x00000000400439d4        0x0 c:/opt/bcc-2.0.2-gcc/bin/../lib/gcc/sparc-gaisler-elf/7.2.0/leon/mfix-at697f/crtn.o
                0x00000000400439d8                . = ALIGN (0x8)
 *fill*         0x00000000400439d4        0x4 
                0x00000000400439d8                __data_end = .
                0x00000000400432c0                __data_start_lma = LOADADDR (.data)
                0x0000000000000718                __data_size = SIZEOF (.data)

.iplt           0x00000000400439d8        0x0
 .iplt          0x00000000400439d8        0x0 c:/opt/bcc-2.0.2-gcc/bin/../sparc-gaisler-elf/bsp/leon2/leon/mfix-at697f/trap_table_mvt.S.o

.tm_clone_table
                0x00000000400439d8        0x0
 .tm_clone_table
                0x00000000400439d8        0x0 c:/opt/bcc-2.0.2-gcc/bin/../lib/gcc/sparc-gaisler-elf/7.2.0/leon/mfix-at697f/crtbegin.o
 .tm_clone_table
                0x00000000400439d8        0x0 c:/opt/bcc-2.0.2-gcc/bin/../lib/gcc/sparc-gaisler-elf/7.2.0/leon/mfix-at697f/crtend.o

.bss            0x00000000400439d8    0x8fc38
                0x00000000400439d8                . = ALIGN (0x8)
                0x00000000400439d8                __bss_start = .
 *(.bss .bss.*)
 .bss           0x00000000400439d8        0x0 c:/opt/bcc-2.0.2-gcc/bin/../sparc-gaisler-elf/bsp/leon2/leon/mfix-at697f/trap_table_mvt.S.o
 .bss           0x00000000400439d8        0x4 c:/opt/bcc-2.0.2-gcc/bin/../sparc-gaisler-elf/bsp/leon2/leon/mfix-at697f/crt0.S.o
                0x00000000400439d8                __bcc_sp_at_entry
 .bss           0x00000000400439dc        0x0 c:/opt/bcc-2.0.2-gcc/bin/../lib/gcc/sparc-gaisler-elf/7.2.0/leon/mfix-at697f/crti.o
 .bss           0x00000000400439dc       0x20 c:/opt/bcc-2.0.2-gcc/bin/../lib/gcc/sparc-gaisler-elf/7.2.0/leon/mfix-at697f/crtbegin.o
 .bss           0x00000000400439fc        0x0 C:\Users\Bhagawat\AppData\Local\Temp\ccmG331P.o
 .bss           0x00000000400439fc        0x0 C:\Users\Bhagawat\AppData\Local\Temp\ccFLNK2X.o
 .bss           0x00000000400439fc        0x8 C:\Users\Bhagawat\AppData\Local\Temp\ccF3JHAe.o
                0x00000000400439fc                test_st_sp
                0x00000000400439fd                filler_byte
                0x0000000040043a00                repeat_count
 .bss           0x0000000040043a04       0x24 C:\Users\Bhagawat\AppData\Local\Temp\ccSFvBJa.o
                0x0000000040043a04                Diff_stop_srl_num
                0x0000000040043a08                Diff_start_srl_num
                0x0000000040043a0c                DTTC_count
                0x0000000040043a10                ATTC_count
                0x0000000040043a14                ATTC_exe_en
                0x0000000040043a18                ATTC_Master_en
                0x0000000040043a1c                Nodeptrempty_flag
                0x0000000040043a20                ComputedParity
                0x0000000040043a21                RcvdParity
                0x0000000040043a24                head
 .bss           0x0000000040043a28        0x0 C:\Users\Bhagawat\AppData\Local\Temp\ccLxi9Ri.o
 .bss           0x0000000040043a28        0x0 C:\Users\Bhagawat\AppData\Local\Temp\cc0Th2ok.o
 .bss           0x0000000040043a28        0x0 C:\Users\Bhagawat\AppData\Local\Temp\ccbuJliF.o
 .bss           0x0000000040043a28        0x8 C:\Users\Bhagawat\AppData\Local\Temp\ccA5VOh9.o
                0x0000000040043a28                load_shedding_flag
                0x0000000040043a29                low_battery_voltage
                0x0000000040043a2c                inter_HAL_EPS_Hardware_Status_count
 .bss           0x0000000040043a30        0x0 C:\Users\Bhagawat\AppData\Local\Temp\cclg7QQI.o
 .bss           0x0000000040043a30        0x0 C:\Users\Bhagawat\AppData\Local\Temp\cc4J82Fr.o
 .bss           0x0000000040043a30        0x8 C:\Users\Bhagawat\AppData\Local\Temp\ccP2pYow.o
                0x0000000040043a30                GPS_GSV_FLAG
                0x0000000040043a34                gps_ready_bit
 .bss           0x0000000040043a38        0x0 C:\Users\Bhagawat\AppData\Local\Temp\cc5opyBQ.o
 .bss           0x0000000040043a38        0x4 C:\Users\Bhagawat\AppData\Local\Temp\ccjU9hyn.o
                0x0000000040043a38                MTR_Reset_Flag
 .bss           0x0000000040043a3c        0xe C:\Users\Bhagawat\AppData\Local\Temp\ccBLkweo.o
                0x0000000040043a48                crc_test
 *fill*         0x0000000040043a4a        0x2 
 .bss           0x0000000040043a4c       0x18 C:\Users\Bhagawat\AppData\Local\Temp\ccsgz4so.o
                0x0000000040043a4c                SA2_status
                0x0000000040043a50                SA1_status
                0x0000000040043a54                TC_HAL_SA_Deploy
                0x0000000040043a58                SA_Command_Type
                0x0000000040043a5c                SA2_Deploy_cmd_rcvd_time
                0x0000000040043a60                SA1_Deploy_cmd_rcvd_time
 .bss           0x0000000040043a64        0x0 C:\Users\Bhagawat\AppData\Local\Temp\ccAFUHm4.o
 .bss           0x0000000040043a64        0x0 C:\Users\Bhagawat\AppData\Local\Temp\ccRqxX1h.o
 .bss           0x0000000040043a64        0x0 C:\Users\Bhagawat\AppData\Local\Temp\ccyPto1B.o
 .bss           0x0000000040043a64        0x0 C:\Users\Bhagawat\AppData\Local\Temp\ccZvvD0p.o
 .bss           0x0000000040043a64        0x0 C:\Users\Bhagawat\AppData\Local\Temp\cciSMCHz.o
 .bss           0x0000000040043a64        0x0 C:\Users\Bhagawat\AppData\Local\Temp\ccYmJqpt.o
 .bss           0x0000000040043a64        0x0 C:\Users\Bhagawat\AppData\Local\Temp\cc5ogaUY.o
 .bss           0x0000000040043a64        0x0 C:\Users\Bhagawat\AppData\Local\Temp\ccCmOWXC.o
 .bss           0x0000000040043a64        0x0 C:\Users\Bhagawat\AppData\Local\Temp\ccQjljxZ.o
 .bss           0x0000000040043a64        0x0 C:\Users\Bhagawat\AppData\Local\Temp\ccgDYObG.o
 .bss           0x0000000040043a64        0x0 C:\Users\Bhagawat\AppData\Local\Temp\ccyKrZ4y.o
 .bss           0x0000000040043a64        0x0 c:/opt/bcc-2.0.2-gcc/bin/../lib/gcc/sparc-gaisler-elf/7.2.0/../../../../sparc-gaisler-elf/lib/leon/mfix-at697f\libm.a(lib_a-s_atan.o)
 .bss           0x0000000040043a64        0x0 c:/opt/bcc-2.0.2-gcc/bin/../lib/gcc/sparc-gaisler-elf/7.2.0/../../../../sparc-gaisler-elf/lib/leon/mfix-at697f\libm.a(lib_a-s_cos.o)
 .bss           0x0000000040043a64        0x0 c:/opt/bcc-2.0.2-gcc/bin/../lib/gcc/sparc-gaisler-elf/7.2.0/../../../../sparc-gaisler-elf/lib/leon/mfix-at697f\libm.a(lib_a-s_fabs.o)
 .bss           0x0000000040043a64        0x0 c:/opt/bcc-2.0.2-gcc/bin/../lib/gcc/sparc-gaisler-elf/7.2.0/../../../../sparc-gaisler-elf/lib/leon/mfix-at697f\libm.a(lib_a-s_floor.o)
 .bss           0x0000000040043a64        0x0 c:/opt/bcc-2.0.2-gcc/bin/../lib/gcc/sparc-gaisler-elf/7.2.0/../../../../sparc-gaisler-elf/lib/leon/mfix-at697f\libm.a(lib_a-s_sin.o)
 .bss           0x0000000040043a64        0x0 c:/opt/bcc-2.0.2-gcc/bin/../lib/gcc/sparc-gaisler-elf/7.2.0/../../../../sparc-gaisler-elf/lib/leon/mfix-at697f\libm.a(lib_a-s_tan.o)
 .bss           0x0000000040043a64        0x0 c:/opt/bcc-2.0.2-gcc/bin/../lib/gcc/sparc-gaisler-elf/7.2.0/../../../../sparc-gaisler-elf/lib/leon/mfix-at697f\libm.a(lib_a-w_acos.o)
 .bss           0x0000000040043a64        0x0 c:/opt/bcc-2.0.2-gcc/bin/../lib/gcc/sparc-gaisler-elf/7.2.0/../../../../sparc-gaisler-elf/lib/leon/mfix-at697f\libm.a(lib_a-w_atan2.o)
 .bss           0x0000000040043a64        0x0 c:/opt/bcc-2.0.2-gcc/bin/../lib/gcc/sparc-gaisler-elf/7.2.0/../../../../sparc-gaisler-elf/lib/leon/mfix-at697f\libm.a(lib_a-w_fmod.o)
 .bss           0x0000000040043a64        0x0 c:/opt/bcc-2.0.2-gcc/bin/../lib/gcc/sparc-gaisler-elf/7.2.0/../../../../sparc-gaisler-elf/lib/leon/mfix-at697f\libm.a(lib_a-w_pow.o)
 .bss           0x0000000040043a64        0x0 c:/opt/bcc-2.0.2-gcc/bin/../lib/gcc/sparc-gaisler-elf/7.2.0/../../../../sparc-gaisler-elf/lib/leon/mfix-at697f\libm.a(lib_a-w_sqrt.o)
 .bss           0x0000000040043a64        0x0 c:/opt/bcc-2.0.2-gcc/bin/../lib/gcc/sparc-gaisler-elf/7.2.0/../../../../sparc-gaisler-elf/lib/leon/mfix-at697f\libm.a(lib_a-e_acos.o)
 .bss           0x0000000040043a64        0x0 c:/opt/bcc-2.0.2-gcc/bin/../lib/gcc/sparc-gaisler-elf/7.2.0/../../../../sparc-gaisler-elf/lib/leon/mfix-at697f\libm.a(lib_a-e_atan2.o)
 .bss           0x0000000040043a64        0x0 c:/opt/bcc-2.0.2-gcc/bin/../lib/gcc/sparc-gaisler-elf/7.2.0/../../../../sparc-gaisler-elf/lib/leon/mfix-at697f\libm.a(lib_a-e_fmod.o)
 .bss           0x0000000040043a64        0x0 c:/opt/bcc-2.0.2-gcc/bin/../lib/gcc/sparc-gaisler-elf/7.2.0/../../../../sparc-gaisler-elf/lib/leon/mfix-at697f\libm.a(lib_a-e_pow.o)
 .bss           0x0000000040043a64        0x0 c:/opt/bcc-2.0.2-gcc/bin/../lib/gcc/sparc-gaisler-elf/7.2.0/../../../../sparc-gaisler-elf/lib/leon/mfix-at697f\libm.a(lib_a-e_rem_pio2.o)
 .bss           0x0000000040043a64        0x0 c:/opt/bcc-2.0.2-gcc/bin/../lib/gcc/sparc-gaisler-elf/7.2.0/../../../../sparc-gaisler-elf/lib/leon/mfix-at697f\libm.a(lib_a-e_sqrt.o)
 .bss           0x0000000040043a64        0x0 c:/opt/bcc-2.0.2-gcc/bin/../lib/gcc/sparc-gaisler-elf/7.2.0/../../../../sparc-gaisler-elf/lib/leon/mfix-at697f\libm.a(lib_a-k_cos.o)
 .bss           0x0000000040043a64        0x0 c:/opt/bcc-2.0.2-gcc/bin/../lib/gcc/sparc-gaisler-elf/7.2.0/../../../../sparc-gaisler-elf/lib/leon/mfix-at697f\libm.a(lib_a-k_rem_pio2.o)
 .bss           0x0000000040043a64        0x0 c:/opt/bcc-2.0.2-gcc/bin/../lib/gcc/sparc-gaisler-elf/7.2.0/../../../../sparc-gaisler-elf/lib/leon/mfix-at697f\libm.a(lib_a-k_sin.o)
 .bss           0x0000000040043a64        0x0 c:/opt/bcc-2.0.2-gcc/bin/../lib/gcc/sparc-gaisler-elf/7.2.0/../../../../sparc-gaisler-elf/lib/leon/mfix-at697f\libm.a(lib_a-k_tan.o)
 .bss           0x0000000040043a64        0x0 c:/opt/bcc-2.0.2-gcc/bin/../lib/gcc/sparc-gaisler-elf/7.2.0/../../../../sparc-gaisler-elf/lib/leon/mfix-at697f\libm.a(lib_a-s_finite.o)
 .bss           0x0000000040043a64        0x0 c:/opt/bcc-2.0.2-gcc/bin/../lib/gcc/sparc-gaisler-elf/7.2.0/../../../../sparc-gaisler-elf/lib/leon/mfix-at697f\libm.a(lib_a-s_lib_ver.o)
 .bss           0x0000000040043a64        0x0 c:/opt/bcc-2.0.2-gcc/bin/../lib/gcc/sparc-gaisler-elf/7.2.0/../../../../sparc-gaisler-elf/lib/leon/mfix-at697f\libm.a(lib_a-s_matherr.o)
 .bss           0x0000000040043a64        0x0 c:/opt/bcc-2.0.2-gcc/bin/../lib/gcc/sparc-gaisler-elf/7.2.0/../../../../sparc-gaisler-elf/lib/leon/mfix-at697f\libm.a(lib_a-s_nan.o)
 .bss           0x0000000040043a64        0x0 c:/opt/bcc-2.0.2-gcc/bin/../lib/gcc/sparc-gaisler-elf/7.2.0/../../../../sparc-gaisler-elf/lib/leon/mfix-at697f\libm.a(lib_a-s_rint.o)
 .bss           0x0000000040043a64        0x0 c:/opt/bcc-2.0.2-gcc/bin/../lib/gcc/sparc-gaisler-elf/7.2.0/../../../../sparc-gaisler-elf/lib/leon/mfix-at697f\libm.a(lib_a-s_scalbn.o)
 .bss           0x0000000040043a64        0x0 c:/opt/bcc-2.0.2-gcc/bin/../lib/gcc/sparc-gaisler-elf/7.2.0/../../../../sparc-gaisler-elf/lib/leon/mfix-at697f\libm.a(lib_a-s_copysign.o)
 .bss           0x0000000040043a64        0x0 c:/opt/bcc-2.0.2-gcc/bin/../sparc-gaisler-elf/bsp/leon2/leon/mfix-at697f\libbcc.a(reset_trap_mvt.S.o)
 .bss           0x0000000040043a64        0x0 c:/opt/bcc-2.0.2-gcc/bin/../sparc-gaisler-elf/bsp/leon2/leon/mfix-at697f\libbcc.a(window_trap.S.o)
 .bss           0x0000000040043a64        0x0 c:/opt/bcc-2.0.2-gcc/bin/../sparc-gaisler-elf/bsp/leon2/leon/mfix-at697f\libbcc.a(interrupt_trap.S.o)
 *fill*         0x0000000040043a64        0x4 
 .bss           0x0000000040043a68       0x14 c:/opt/bcc-2.0.2-gcc/bin/../sparc-gaisler-elf/bsp/leon2/leon/mfix-at697f\libbcc.a(flush_windows_trap.S.o)
 .bss           0x0000000040043a7c        0x0 c:/opt/bcc-2.0.2-gcc/bin/../sparc-gaisler-elf/bsp/leon2/leon/mfix-at697f\libbcc.a(sw_trap_set_pil.S.o)
 .bss           0x0000000040043a7c        0x0 c:/opt/bcc-2.0.2-gcc/bin/../sparc-gaisler-elf/bsp/leon2/leon/mfix-at697f\libbcc.a(trap.c.o)
 .bss           0x0000000040043a7c        0x0 c:/opt/bcc-2.0.2-gcc/bin/../sparc-gaisler-elf/bsp/leon2/leon/mfix-at697f\libbcc.a(isr.c.o)
 .bss           0x0000000040043a7c        0x0 c:/opt/bcc-2.0.2-gcc/bin/../sparc-gaisler-elf/bsp/leon2/leon/mfix-at697f\libbcc.a(int_nest.c.o)
 .bss           0x0000000040043a7c        0x0 c:/opt/bcc-2.0.2-gcc/bin/../sparc-gaisler-elf/bsp/leon2/leon/mfix-at697f\libbcc.a(init.S.o)
 .bss           0x0000000040043a7c        0x0 c:/opt/bcc-2.0.2-gcc/bin/../sparc-gaisler-elf/bsp/leon2/leon/mfix-at697f\libbcc.a(leon_info.S.o)
 .bss           0x0000000040043a7c        0x0 c:/opt/bcc-2.0.2-gcc/bin/../sparc-gaisler-elf/bsp/leon2/leon/mfix-at697f\libbcc.a(dwzero.S.o)
 .bss           0x0000000040043a7c        0x0 c:/opt/bcc-2.0.2-gcc/bin/../sparc-gaisler-elf/bsp/leon2/leon/mfix-at697f\libbcc.a(copy_data.c.o)
 .bss           0x0000000040043a7c        0x0 c:/opt/bcc-2.0.2-gcc/bin/../sparc-gaisler-elf/bsp/leon2/leon/mfix-at697f\libbcc.a(lowlevel.S.o)
 .bss           0x0000000040043a7c        0x0 c:/opt/bcc-2.0.2-gcc/bin/../sparc-gaisler-elf/bsp/leon2/leon/mfix-at697f\libbcc.a(lowlevel_leon2.S.o)
 .bss           0x0000000040043a7c        0x0 c:/opt/bcc-2.0.2-gcc/bin/../sparc-gaisler-elf/bsp/leon2/leon/mfix-at697f\libbcc.a(int_leon2.c.o)
 .bss           0x0000000040043a7c        0x0 c:/opt/bcc-2.0.2-gcc/bin/../sparc-gaisler-elf/bsp/leon2/leon/mfix-at697f\libbcc.a(int_leon2_get_source.c.o)
 .bss           0x0000000040043a7c        0x0 c:/opt/bcc-2.0.2-gcc/bin/../sparc-gaisler-elf/bsp/leon2/leon/mfix-at697f\libbcc.a(int_leon2_init.c.o)
 .bss           0x0000000040043a7c        0x0 c:/opt/bcc-2.0.2-gcc/bin/../sparc-gaisler-elf/bsp/leon2/leon/mfix-at697f\libbcc.a(con_leon2.c.o)
 .bss           0x0000000040043a7c        0x0 c:/opt/bcc-2.0.2-gcc/bin/../sparc-gaisler-elf/bsp/leon2/leon/mfix-at697f\libbcc.a(timer_leon2.c.o)
 .bss           0x0000000040043a7c        0x0 c:/opt/bcc-2.0.2-gcc/bin/../sparc-gaisler-elf/bsp/leon2/leon/mfix-at697f\libbcc.a(set_pil.S.o)
 .bss           0x0000000040043a7c        0x0 c:/opt/bcc-2.0.2-gcc/bin/../sparc-gaisler-elf/bsp/leon2/leon/mfix-at697f\libbcc.a(int_leon2_handle.c.o)
 .bss           0x0000000040043a7c        0x0 c:/opt/bcc-2.0.2-gcc/bin/../sparc-gaisler-elf/bsp/leon2/leon/mfix-at697f\libbcc.a(con_handle.c.o)
 .bss           0x0000000040043a7c        0x0 c:/opt/bcc-2.0.2-gcc/bin/../sparc-gaisler-elf/bsp/leon2/leon/mfix-at697f\libbcc.a(timer_handle.c.o)
 .bss           0x0000000040043a7c        0x0 c:/opt/bcc-2.0.2-gcc/bin/../lib/gcc/sparc-gaisler-elf/7.2.0/../../../../sparc-gaisler-elf/lib/leon/mfix-at697f\libc.a(lib_a-atexit.o)
 .bss           0x0000000040043a7c        0x0 c:/opt/bcc-2.0.2-gcc/bin/../lib/gcc/sparc-gaisler-elf/7.2.0/../../../../sparc-gaisler-elf/lib/leon/mfix-at697f\libc.a(lib_a-errno.o)
 .bss           0x0000000040043a7c        0x0 c:/opt/bcc-2.0.2-gcc/bin/../lib/gcc/sparc-gaisler-elf/7.2.0/../../../../sparc-gaisler-elf/lib/leon/mfix-at697f\libc.a(lib_a-exit.o)
 .bss           0x0000000040043a7c        0x0 c:/opt/bcc-2.0.2-gcc/bin/../lib/gcc/sparc-gaisler-elf/7.2.0/../../../../sparc-gaisler-elf/lib/leon/mfix-at697f\libc.a(lib_a-impure.o)
 .bss           0x0000000040043a7c        0x0 c:/opt/bcc-2.0.2-gcc/bin/../lib/gcc/sparc-gaisler-elf/7.2.0/../../../../sparc-gaisler-elf/lib/leon/mfix-at697f\libc.a(lib_a-memcpy.o)
 .bss           0x0000000040043a7c       0x8c c:/opt/bcc-2.0.2-gcc/bin/../lib/gcc/sparc-gaisler-elf/7.2.0/../../../../sparc-gaisler-elf/lib/leon/mfix-at697f\libc.a(lib_a-__atexit.o)
 .bss           0x0000000040043b08        0x4 c:/opt/bcc-2.0.2-gcc/bin/../lib/gcc/sparc-gaisler-elf/7.2.0/../../../../sparc-gaisler-elf/lib/leon/mfix-at697f\libc.a(lib_a-__call_atexit.o)
                0x0000000040043b08                _global_atexit
 .bss           0x0000000040043b0c        0x0 c:/opt/bcc-2.0.2-gcc/bin/../sparc-gaisler-elf/bsp/leon2/leon/mfix-at697f\libbcc.a(_exit.S.o)
 .bss           0x0000000040043b0c        0x0 c:/opt/bcc-2.0.2-gcc/bin/../lib/gcc/sparc-gaisler-elf/7.2.0/leon/mfix-at697f/crtend.o
 .bss           0x0000000040043b0c        0x0 c:/opt/bcc-2.0.2-gcc/bin/../lib/gcc/sparc-gaisler-elf/7.2.0/leon/mfix-at697f/crtn.o
 *(COMMON)
 *fill*         0x0000000040043b0c        0x4 
 COMMON         0x0000000040043b10    0x6d741 C:\Users\Bhagawat\AppData\Local\Temp\ccmG331P.o
                0x0000000040043b10                Out_Latch_1
                0x0000000040043b14                IO_Latch_Register_5_Data
                0x0000000040043b18                inter_HAL_TM_Write_Word_Count
                0x0000000040043b1c                TC_gain_select_u
                0x0000000040043b38                ST_TC_history_Buffer
                0x0000000040043c38                rt_tm_frame_finish
                0x0000000040043c3c                minor_cycle_counter_test
                0x0000000040043c40                eeprom_cur_addr
                0x0000000040043c44                Normal_st_table_page1
                0x0000000040043c48                count_tc_hist
                0x0000000040043c4c                MUX_1
                0x0000000040043c50                GPS1
                0x0000000040043c90                Special_st_table_page3
                0x0000000040043c94                Norm_ST_Table
                0x0000000040045cbc                eeprom_chksum
                0x0000000040045cc0                Pl_tm_data
                0x0000000040045dc0                TM
                0x00000000400465c1                SWHW_STATUS
                0x00000000400465c6                ST_TCH_frame_count
                0x00000000400465c8                TCH_dump_finish
                0x00000000400465cc                Major_Cycle_Count
                0x00000000400465d0                inter_TM_Pl_Buffer
                0x00000000400465d4                inter_ST_TC_TM_Minor_Cycle_Count
                0x00000000400465d8                ST_normal
                0x0000000040046720                TC_input_cmd
                0x0000000040046728                ST_end_read
                0x000000004004672c                ST_start_read
                0x0000000040046730                ADC_Buffer
                0x00000000400467ec                TC_ST_Table_Row_No
                0x00000000400467f0                ST_Out_Latch_3
                0x00000000400467f8                Special_source
                0x00000000400468f8                eeprom_blk_end_addr
                0x00000000400468fc                ADCS_TC_data_command_Table
                0x00000000400469fc                GPIO_pins
                0x00000000400469fe                Station_tracking_mode
                0x0000000040046a00                Normal_source
                0x0000000040046b00                Dest_TC_final_end_addr
                0x0000000040046b04                MUX_3
                0x0000000040046b06                ST_NM_Buffer
                0x0000000040046c4e                input_latch_2
                0x0000000040046c50                TCH_full_dump_finish
                0x0000000040046c58                TC_hist_data
                0x0000000040056658                Out_latch_4
                0x000000004005665c                inter_at697f_checksum
                0x0000000040056660                inter_TM_Byte_Count
                0x0000000040056668                TM_Buffer
                0x0000000040056768                ST_SP_Buffer
                0x0000000040056a68                TCH_read_ptr
                0x0000000040056a6c                inter_TM_Source_Addr
                0x0000000040056a70                nml_output_latch_data
                0x0000000040056a73                TM_Table
                0x000000004005eb00                gain_set
                0x000000004005f460                pl_data_command
                0x000000004005f46c                inter_TM_ST_TC_NS_Write_Source_Addr
                0x000000004005f470                ST_Out_Latch_2
                0x000000004005f474                inter_TM_Dest_Addr
                0x000000004005f478                Out_latch_6
                0x000000004005f47a                heaters
                0x000000004005f47c                chksum_arr
                0x000000004005f49c                IO_Latch_Register_4_Data
                0x000000004005f4a0                storage_page_count
                0x000000004005f4a4                ST_output_latch
                0x000000004005f4a8                Out_latch_5
                0x000000004005f4b0                Storage
                0x000000004009dcb0                ST_special
                0x000000004009dfad                GAIN_DATA_SET
                0x000000004009e4bd                Out_Latch_2
                0x000000004009e4c0                inter_TM_Status_Data
                0x000000004009e4c2                MUX_4
                0x000000004009e4c4                inter_TM_Main_Buffer_Empty
                0x000000004009e4c8                read_str_ptr
                0x000000004009e4cc                Storage_tm_status
                0x000000004009e4d0                ram_scrub_addr
                0x000000004009e4d4                TC_str_ptr
                0x000000004009e4d8                inter_TM_DP_Addr
                0x000000004009e4dc                TMTC_gain_select_u
                0x000000004009e4e4                ram_scrub_cnt
                0x000000004009e4e8                inter_at697_var
                0x000000004009e4ec                TC_history_table
                0x000000004009ecfc                ST_TC_header_Buffer
                0x000000004009ed08                Spec_ST_Table_Row_No
                0x000000004009ed0c                TC_data_command_Table
                0x000000004009ed74                Minor_Cycle_Count
                0x000000004009ed78                ee_blk_no
                0x000000004009ed7a                ST_frame_count
                0x000000004009ed7c                ST_Dest_Addr
                0x000000004009ed80                ST_Out_latch_5
                0x000000004009ed82                chk_sum_u8
                0x000000004009ed84                TCH_read_full_ptr
                0x000000004009ed88                HILS_packet
                0x000000004009edc8                inter_at697f_count
                0x000000004009edcc                TMTC_boolean_u
                0x000000004009edd8                ST_TC_history_final_Buffer
                0x00000000400ae7d8                TM_IMU2
                0x00000000400ae7f0                Norm_ST_Table_Row_No
                0x00000000400ae7f4                Normal_st_table_page3
                0x00000000400ae7f8                dt_ar
                0x00000000400ae820                Special_st_table_page2
                0x00000000400ae824                eeprom_flag
                0x00000000400ae828                addr_pointer_TM
                0x00000000400ae82c                Spec_ST_Table
                0x00000000400b0854                Buffer
                0x00000000400b1055                Out_Latch_3
                0x00000000400b1058                Dest_end_addr
                0x00000000400b105c                GPS2
                0x00000000400b109c                IO_In_Latch_Register_4_Data
                0x00000000400b10a0                IO_Latch_Register_3_Data
                0x00000000400b10a4                TM_IMU1
                0x00000000400b10bc                FDI_NMI_Count
                0x00000000400b10c0                Normal_st_table_page2
                0x00000000400b10c4                MUX_2
                0x00000000400b10c8                write_str_ptr
                0x00000000400b10cc                TC_boolean_u
                0x00000000400b1120                ST_source_Buffer
                0x00000000400b1220                TM_page_count
                0x00000000400b1224                heaters_manual
                0x00000000400b1228                Remote_data_addr
                0x00000000400b122c                Special_st_table_page1
                0x00000000400b1230                NMI_fail_count
                0x00000000400b1234                inter_TM_real_Minor_Cycle_Count
                0x00000000400b1238                inter_ST_TM_Minor_Cycle_Count
                0x00000000400b123c                inter_TM_Minor_Cycle_Count
                0x00000000400b1240                input_latch_1
                0x00000000400b1244                TM_Table_Row_No
                0x00000000400b1248                TCH_cpy_ptr
                0x00000000400b124c                IO_Latch_Register_2_Data
                0x00000000400b1250                TCH_start_buffer_ready
 *fill*         0x00000000400b1251        0x7 
 COMMON         0x00000000400b1258    0x149d8 C:\Users\Bhagawat\AppData\Local\Temp\ccFLNK2X.o
                0x00000000400b1258                RW1s
                0x00000000400b125a                MUX_data2
                0x00000000400b125c                BlkCurrent_Cmd
                0x00000000400b1260                TC_count
                0x00000000400b1262                Nodearray
                0x00000000400b4144                TC_w_miscor_IMU2
                0x00000000400b415c                RW2s
                0x00000000400b4160                TC_w_sf_IMU2
                0x00000000400b416c                TC_w_sf_IMU1
                0x00000000400b4178                abc
                0x00000000400b417c                TC_SSredt_ImaxF
                0x00000000400b41a0                TC_exe
                0x00000000400b41a8                MUX_data3
                0x00000000400b41ac                TC_storing_buffer
                0x00000000400b45ac                TC_pend_data
                0x00000000400b45b4                TC_cmd_executed
                0x00000000400b45b6                test_data_3
                0x00000000400b45b8                MUX_data1
                0x00000000400b45bc                TC_hist_read_ptr
                0x00000000400b45c0                TC_drift_compensation_IMU1
                0x00000000400b45cc                Remote_Addr
                0x00000000400b45d0                TC_SSmain_ImaxF
                0x00000000400b45f0                RW3s
                0x00000000400b45f8                Block_array
                0x00000000400c45f8                TC_w_miscor_IMU1
                0x00000000400c4610                TC_Status_Data
                0x00000000400c4614                MUX_data4
                0x00000000400c4618                TC_authentic_pulse_rcvd
                0x00000000400c461c                TC_STS_data
                0x00000000400c4620                TC_DATA
                0x00000000400c4628                TC_magbias_compensation_IMU2
                0x00000000400c4634                RW4s
                0x00000000400c4638                TC_drift_compensation_IMU2
                0x00000000400c4644                Remote_minotoring_addr
                0x00000000400c4648                Top_index
                0x00000000400c464c                TC_B_ECI
                0x00000000400c4658                Block_Index
                0x00000000400c4758                Nodeptr
                0x00000000400c56f8                TC_buffer_count
                0x00000000400c5ba8                Absolutetime
                0x00000000400c5bac                TLE_data
                0x00000000400c5be8                TC_S_ECI
                0x00000000400c5bf4                commandptr
                0x00000000400c5bf8                TC_flag
                0x00000000400c5bfc                TC_Buffer_Addr
                0x00000000400c5c00                Next_exe_TC
                0x00000000400c5c08                flag_mni
                0x00000000400c5c0c                TC_magbias_compensation_IMU1
                0x00000000400c5c18                TC_command_pending
                0x00000000400c5c1c                TC_hist_write_ptr
                0x00000000400c5c20                Remote_data
                0x00000000400c5c24                Telecommand_ptr
                0x00000000400c5c28                TC_Rcvd
                0x00000000400c5c2c                TC_cmd_executed_count
 COMMON         0x00000000400c5c30       0x24 C:\Users\Bhagawat\AppData\Local\Temp\ccF3JHAe.o
                0x00000000400c5c30                sampling_rate_count
                0x00000000400c5c34                cp_cnt1
                0x00000000400c5c38                TC_OBT_Start
                0x00000000400c5c3c                flag_for_test
                0x00000000400c5c40                normal_count1
                0x00000000400c5c44                copy_frame_count
                0x00000000400c5c48                cp_cnt
                0x00000000400c5c4c                real_storage
                0x00000000400c5c50                real_tm_finish
 *fill*         0x00000000400c5c54        0x4 
 COMMON         0x00000000400c5c58      0x210 C:\Users\Bhagawat\AppData\Local\Temp\ccSFvBJa.o
                0x00000000400c5c58                inter_HAL_IMU_Data
                0x00000000400c5c5c                IMU_On
                0x00000000400c5c60                TC_ptr_count
                0x00000000400c5c64                inter_HAL_IMU_Configure_Address
                0x00000000400c5c68                tos
                0x00000000400c5c6c                inter_HAL_IMU_Control_Data
                0x00000000400c5c70                ab_test1
                0x00000000400c5c74                TLE_chksum
                0x00000000400c5c76                inter_HAL_IMU_Status_Data_2
                0x00000000400c5c78                tempat
                0x00000000400c5c7c                BLK_opn
                0x00000000400c5c80                DTTCtime_reference
                0x00000000400c5c84                IMU_Diag_Done
                0x00000000400c5c88                tc_ecv_test
                0x00000000400c5e18                inter_HAL_IMU_Locations
                0x00000000400c5e1c                tc_cnt_test
                0x00000000400c5e20                inter_HAL_IMU_Buffer_Addr
                0x00000000400c5e24                ab_test
                0x00000000400c5e28                temp_data_rw
                0x00000000400c5e2a                BLK_number
                0x00000000400c5e2c                IMU_Config_Done
                0x00000000400c5e30                IMU_Data_Available
                0x00000000400c5e34                inter_HAL_IMU_Status_Data
                0x00000000400c5e38                IMU_1
                0x00000000400c5e48                inter_HAL_IMU_Addr_Count
                0x00000000400c5e4c                i_tc_test
                0x00000000400c5e50                rw_data
                0x00000000400c5e52                sus_data
                0x00000000400c5e54                IMU_2
                0x00000000400c5e64                atp
 COMMON         0x00000000400c5e68      0x1ac C:\Users\Bhagawat\AppData\Local\Temp\ccbuJliF.o
                0x00000000400c5e68                PL_Exe_Flag
                0x00000000400c5e6c                hils_ptr_sh
                0x00000000400c5e70                pl_configure_data
                0x00000000400c5e74                PL_TM_write_Flag
                0x00000000400c5e78                Hils_ptr
                0x00000000400c5e7c                PL_2_on_off_flag
                0x00000000400c5e80                pl_cmd_id
                0x00000000400c5e84                pl_data_rcvd
                0x00000000400c5e88                PL_TM_Status_flag
                0x00000000400c5e8c                length
                0x00000000400c5e90                pl_x_tx_data_on_flag
                0x00000000400c5e94                pl_buffer_len
                0x00000000400c5e98                PL_TX_TM_2_EN
                0x00000000400c5e9c                TC_command
                0x00000000400c5ea0                inter_PL_TM_Source_Addr
                0x00000000400c5ea4                pl_buffer_addr
                0x00000000400c5ea8                pl_test10
                0x00000000400c5eac                pl_tx_tm_flag
                0x00000000400c5eb0                PL_1_on_off_flag
                0x00000000400c5eb4                Enable_PL_TM_flag
                0x00000000400c5eb8                pl_mode
                0x00000000400c5eba                pl_data_rx
                0x00000000400c5ecc                pl_config_addr_ptr
                0x00000000400c5ed0                pl_ack_count
                0x00000000400c5ed2                temp_data_2_pl
                0x00000000400c5ed4                PL_on_off_sts_flag
                0x00000000400c5ed8                pl_test12
                0x00000000400c5edc                pl_HLT_en
                0x00000000400c5ee0                data
                0x00000000400c5ee4                pl_x_tx_data_off_flag
                0x00000000400c5ee8                hils_datas
                0x00000000400c5fe4                pl_hlt_flag
                0x00000000400c5fe8                pl_acq_flag
                0x00000000400c5fec                pl_diag_flag
                0x00000000400c5ff0                PL_ACK
                0x00000000400c5ff4                data_nc
                0x00000000400c5ff8                pl_sts_chk_flag
                0x00000000400c5ffc                pl_i
                0x00000000400c6000                data_x_tx
                0x00000000400c6004                temp_data_1_pl
                0x00000000400c6008                inter_PL_TM_Dest_Addr
                0x00000000400c600c                tm_ds_en_flag
                0x00000000400c6010                pl_tm_ptr
 *fill*         0x00000000400c6014        0x4 
 COMMON         0x00000000400c6018       0x80 C:\Users\Bhagawat\AppData\Local\Temp\cc4J82Fr.o
                0x00000000400c6018                ADC_Buffer_Addr
                0x00000000400c601c                ADC_Status_Data
                0x00000000400c6020                ss_data_2
                0x00000000400c6030                thermistor_15
                0x00000000400c6034                inter_Update_TM_With_ADC_byte_offset
                0x00000000400c6038                SA_thermistor1
                0x00000000400c603c                battery_temp_2
                0x00000000400c6040                SA_thermistor2
                0x00000000400c6044                thermistor_lsb
                0x00000000400c605c                ADC_Locations
                0x00000000400c6060                inter_HAL_ADC_Data_Ready
                0x00000000400c6064                battery_temp_1
                0x00000000400c6068                ss_data
                0x00000000400c6088                inter_Update_TM_With_ADC_offset
                0x00000000400c608c                SA_STS
                0x00000000400c6090                ADC_Addr_Count
                0x00000000400c6094                ADC_Data
 COMMON         0x00000000400c6098      0x614 C:\Users\Bhagawat\AppData\Local\Temp\ccP2pYow.o
                0x00000000400c6098                GPS_count_TM
                0x00000000400c609c                GPS_Status_Data
                0x00000000400c60a0                GPS_OBT_Read_2
                0x00000000400c60a4                gpstestbuff
                0x00000000400c60e8                GPS_Config_ptr
                0x00000000400c60ec                GPS_msg_header_MSB
                0x00000000400c60f0                GPS_counter
                0x00000000400c60f4                bist_data
                0x00000000400c60f8                GPS_Config_Status
                0x00000000400c60fc                GPS_Config_Msg
                0x00000000400c6108                gps_pulse_mic_cnt
                0x00000000400c610c                gps_data_length
                0x00000000400c6110                GPS_OBT_Read_1
                0x00000000400c6114                GPS_Buffer_Data
                0x00000000400c62bc                GPS_Buffer_Addr
                0x00000000400c62c0                gps_data_test
                0x00000000400c6468                GPS_msg_header
                0x00000000400c646c                GPS_Data_Read_Status
                0x00000000400c6470                gps_obt_count_prev
                0x00000000400c6474                GPS_obc_checkum
                0x00000000400c6478                GPS2_ptr
                0x00000000400c647c                GPS1_ptr
                0x00000000400c6480                GPS_Status2_Msg
                0x00000000400c6482                maha
                0x00000000400c6484                GPS_Data
                0x00000000400c6486                GPS_RCVD_DATA
                0x00000000400c6688                gps_obt_counter
                0x00000000400c668c                GPS_TM_Buffer_Addr_USC
                0x00000000400c6690                GPS_msg_header_LSB
                0x00000000400c6694                GPS_Addr_Count
                0x00000000400c6698                GPS_OBT_Latch_enable
                0x00000000400c669c                f_GPS_Valid_Data
                0x00000000400c66a0                GPS_Locations
                0x00000000400c66a4                i_GPS_B_Count
                0x00000000400c66a8                db_gps_start_address
 COMMON         0x00000000400c66ac       0x92 C:\Users\Bhagawat\AppData\Local\Temp\cc5opyBQ.o
                0x00000000400c66ac                heater_update_buffer
                0x00000000400c66ec                IMU_temperature
                0x00000000400c66f0                heater_manual_tc
                0x00000000400c66f4                ltp12
                0x00000000400c66f8                Thermistor_Selection
                0x00000000400c6730                manual_on_off
                0x00000000400c6734                LTP_data
                0x00000000400c6738                heaters_auto
                0x00000000400c673c                UTP_data
 *fill*         0x00000000400c673e        0x2 
 COMMON         0x00000000400c6740        0xc C:\Users\Bhagawat\AppData\Local\Temp\ccjU9hyn.o
                0x00000000400c6740                Roll_Pol
                0x00000000400c6744                Pitch_Pol
                0x00000000400c6748                Yaw_Pol
 *fill*         0x00000000400c674c        0x4 
 COMMON         0x00000000400c6750      0x94c C:\Users\Bhagawat\AppData\Local\Temp\ccBLkweo.o
                0x00000000400c6750                rw_count_test
                0x00000000400c6758                RW_Data_SlipFrame_TC
                0x00000000400c6770                RW_Data_SlipFrame_Init
                0x00000000400c6784                RW_TM_ptr
                0x00000000400c6788                Auto_manual_speed_sel
                0x00000000400c678c                NOB_SFC_Init
                0x00000000400c6790                rw_init
                0x00000000400c679c                rw_test_array
                0x00000000400c699c                temp_short
                0x00000000400c69a0                NOB_CRC_Init
                0x00000000400c69a4                RW_TMC
                0x00000000400c69ac                NOB_SFC_TC
                0x00000000400c69b0                RW_3
                0x00000000400c69c0                RW_2
                0x00000000400c69d0                aa
                0x00000000400c69d8                RW_Data_SlipFrame_TMC
                0x00000000400c69ec                rw_tmtc_count
                0x00000000400c69f0                Init_data_ptr
                0x00000000400c69f4                RW_TM_ptr_init
                0x00000000400c69f8                NOB_CRC_TC
                0x00000000400c69fc                Init_ptr
                0x00000000400c6a00                RW_Wheel_Speed
                0x00000000400c6a10                RW_TC
                0x00000000400c6a20                RW_Buffer_u_rx
                0x00000000400c6c20                RW_Write_ptr
                0x00000000400c6c24                RW_TM_Raw_Data_ptr
                0x00000000400c6c28                RW_4
                0x00000000400c6c38                rw_tm_count
                0x00000000400c6c40                RW_Write_Data
                0x00000000400c6c54                RW_TM
                0x00000000400c6e54                inter_HAL_RW_Read_Addr
                0x00000000400c6e58                dak
                0x00000000400c6e5c                inter_HAL_RW_Read_Limit
                0x00000000400c6e60                RW_Buffer_u
                0x00000000400c7060                RW_Measured
                0x00000000400c7070                NOB_CRC_TMC
                0x00000000400c7074                NOB_SFC_TMC
                0x00000000400c7078                RWS
                0x00000000400c7088                USIF_u
                0x00000000400c708c                RW_1
 COMMON         0x00000000400c709c       0x11 C:\Users\Bhagawat\AppData\Local\Temp\ccsgz4so.o
                0x00000000400c709c                TC_HAL_SA_Heater_Timer
                0x00000000400c70a0                Antenna_ACKf
                0x00000000400c70a2                Antenna_ACK
                0x00000000400c70a4                sa_data
                0x00000000400c70a6                panel_deploy_sts
                0x00000000400c70a8                inter_HAL_Antenna_Addr
                0x00000000400c70ac                Antenna_data_raedy
 *fill*         0x00000000400c70ad        0x3 
 COMMON         0x00000000400c70b0     0x2ef8 C:\Users\Bhagawat\AppData\Local\Temp\ccZvvD0p.o
                0x00000000400c70b0                u_DTTC
                0x00000000400c70bc                u_TC
                0x00000000400c70c8                DTTCarray
 COMMON         0x00000000400c9fa8     0x95e4 C:\Users\Bhagawat\AppData\Local\Temp\ccCmOWXC.o
                0x00000000400c9fa8                inclo
                0x00000000400c9fb0                rk_Qk
                0x00000000400ca238                DPM_Polarity
                0x00000000400ca248                rl
                0x00000000400ca250                X_MDO2ECI
                0x00000000400ca268                CB_Q_propagation
                0x00000000400ca270                TC_lat_station
                0x00000000400ca278                BDOT_Reduction_Count
                0x00000000400ca280                vz
                0x00000000400ca288                f_EKF2_prop_en
                0x00000000400ca28c                i_jday
                0x00000000400ca290                Rho
                0x00000000400ca298                OrbitModel_Start
                0x00000000400ca2a0                delmo
                0x00000000400ca2a8                d_DAD
                0x00000000400ca2b0                q_prop_out
                0x00000000400ca2d0                ActWhMom
                0x00000000400ca2f0                JDTDT
                0x00000000400ca2f8                Z_EPO2ECI
                0x00000000400ca310                DeltaT_Updated
                0x00000000400ca318                R_MDO_CB
                0x00000000400ca360                J_MAGAD
                0x00000000400ca368                trueanomoly_GPS
                0x00000000400ca370                latitude_temp
                0x00000000400ca378                wcreci
                0x00000000400ca390                xlm
                0x00000000400ca398                Qk_temp4
                0x00000000400ca3a0                Q_MDO2ECI
                0x00000000400ca3c0                tut
                0x00000000400ca3c8                del
                0x00000000400ca3d0                kfv_dot
                0x00000000400ca3f0                epochdays_sel
                0x00000000400ca3f8                Orbit_Period_Comp
                0x00000000400ca400                t3
                0x00000000400ca408                HB
                0x00000000400ca420                Tdes
                0x00000000400ca438                wkm
                0x00000000400ca440                sun_quadrant
                0x00000000400ca448                func_prev_DAD
                0x00000000400ca450                pk_plus
                0x00000000400ca6d8                pbk
                0x00000000400ca6e0                nodedf
                0x00000000400ca6e8                BNorth
                0x00000000400ca6f0                NRB_sunmag
                0x00000000400ca7b0                mod_of_w_k
                0x00000000400ca7b8                B_rawdata
                0x00000000400ca7c8                Del_Q
                0x00000000400ca7e8                longitude_tan_den
                0x00000000400ca7f0                pow_psisq
                0x00000000400ca7f8                wcrecef
                0x00000000400ca810                argpdf
                0x00000000400ca818                rvdot
                0x00000000400ca820                q_by_two
                0x00000000400ca880                SS_M8
                0x00000000400ca888                theta_prsn
                0x00000000400ca890                mag_noise
                0x00000000400ca898                Y_SVO2ECI
                0x00000000400ca8b0                b_k
                0x00000000400ca8c8                cc2
                0x00000000400ca8d0                TC_delAT
                0x00000000400ca8d8                mat_sm_DataCounter
                0x00000000400ca8e0                delomg
                0x00000000400ca8e8                root_DAD
                0x00000000400ca8f0                func_DAD
                0x00000000400ca8f8                cosi
                0x00000000400ca900                xhdot1
                0x00000000400ca908                ibexp_TLE_tc
                0x00000000400ca910                omgcof
                0x00000000400ca918                phi_11_temp4
                0x00000000400ca960                w_REF
                0x00000000400ca978                tempe
                0x00000000400ca980                mu_m
                0x00000000400ca998                el2
                0x00000000400ca9a0                w_k
                0x00000000400ca9b8                Q_angle
                0x00000000400ca9c0                BDOT_Counter
                0x00000000400ca9c8                a_DAD
                0x00000000400ca9d0                Orbit_Period
                0x00000000400ca9d8                hk_xk_minus
                0x00000000400ca9f0                f_Sunlit_Presence_timer
                0x00000000400ca9f8                nutation
                0x00000000400caa40                bstar_sel
                0x00000000400caa48                Y_SFDO2ECI
                0x00000000400caa60                az1
                0x00000000400caa68                Zt_DAD
                0x00000000400caa80                aft_statn_cnt
                0x00000000400caa88                sine_of_Wk1_Delta
                0x00000000400caa90                delmo_temp
                0x00000000400caa98                temp_or_init
                0x00000000400caaa0                vsatx_eci
                0x00000000400caaa8                TTDT
                0x00000000400caab0                mm
                0x00000000400caab8                ecc_temp1
                0x00000000400caac0                bstar_tc
                0x00000000400caac8                intermediate
                0x00000000400caad0                gN_MAGAD
                0x00000000400caad8                kfI_MAT_w0
                0x00000000400caaf0                Delta_TLE
                0x00000000400caaf8                rtom
                0x00000000400cab00                sinu
                0x00000000400cab08                CB_OrbitModel
                0x00000000400cab0c                j
                0x00000000400cab10                Ry
                0x00000000400cab58                ch_obs_whsp
                0x00000000400cab78                k_kf
                0x00000000400cab80                u_perp
                0x00000000400cab98                Ton
                0x00000000400caba8                determinant
                0x00000000400cabb0                Pitch_MTREnable
                0x00000000400cabb8                gyrodet_B
                0x00000000400cabd0                SunAcq3ThreeAx_trsit_cnt
                0x00000000400cabd8                TTDB2
                0x00000000400cabe0                eccsq
                0x00000000400cabe8                eccanomaly
                0x00000000400cabf0                spin_up_avg_count
                0x00000000400cabf4                TC_GPS2TLE_Switch
                0x00000000400cabf8                ecc_GPS
                0x00000000400cac00                radialdistance
                0x00000000400cac08                BNorth_old
                0x00000000400cac10                uy
                0x00000000400cac18                DFCcountHigh
                0x00000000400cac1c                hr_TLE_tc
                0x00000000400cac20                q_magad
                0x00000000400caf70                aynl
                0x00000000400caf78                perigee
                0x00000000400caf80                Day_Of_Year_DeltaT
                0x00000000400caf88                Del_R_theta
                0x00000000400caf90                Z_SVO2ECI
                0x00000000400cafa8                UT1
                0x00000000400cafb0                nut_temp
                0x00000000400caff8                SB_RED
                0x00000000400cb010                inter_sunsensor_i
                0x00000000400cb018                T_RWBn
                0x00000000400cb030                SC6ImaxF
                0x00000000400cb038                Roll_MTR_Pol_Reversal
                0x00000000400cb03c                GYRO_Counter
                0x00000000400cb040                trueanomoly
                0x00000000400cb048                temp2
                0x00000000400cb050                B_LPF
                0x00000000400cb068                TC_TLE_Elements_select
                0x00000000400cb06c                TLE_Select
                0x00000000400cb070                cos_and_sin
                0x00000000400cb0f0                SunAcq2DetMode_counter
                0x00000000400cb0f8                f
                0x00000000400cb120                TC_MDk
                0x00000000400cb128                Vel_ECIn
                0x00000000400cb140                UTC_mon_GPS
                0x00000000400cb148                B2wh_mat
                0x00000000400cb1a8                SC5
                0x00000000400cb1b0                Delta_by2
                0x00000000400cb1b8                Q_EPO2ECI
                0x00000000400cb1d8                inter_imu_i
                0x00000000400cb1e0                old_cos
                0x00000000400cb1e8                kfk4
                0x00000000400cb208                eccanomaly_GPS
                0x00000000400cb210                angmomentumvec
                0x00000000400cb228                B_RPY
                0x00000000400cb240                out_Quat_norm
                0x00000000400cb260                cc5
                0x00000000400cb268                gast
                0x00000000400cb270                IMU1_DATA
                0x00000000400cb2a0                temp_magad
                0x00000000400cb2a8                nut_sid_temp
                0x00000000400cb2f0                sec_sel
                0x00000000400cb2f8                K_MAGAD
                0x00000000400cb300                B_REF
                0x00000000400cb318                omecc
                0x00000000400cb320                del_v0a
                0x00000000400cb328                argofperigee
                0x00000000400cb330                phi_k_T
                0x00000000400cb5b8                argpo_tc
                0x00000000400cb5c0                Alti_GPS
                0x00000000400cb5c8                SC5ImaxF
                0x00000000400cb5d0                IMU2_DATA
                0x00000000400cb600                T_RWB
                0x00000000400cb618                Y_MDO2ECI
                0x00000000400cb630                s_magad
                0x00000000400cb638                TC_SS_Main_Cells_Sel
                0x00000000400cb63c                Sunlit_presence_timer
                0x00000000400cb640                Toff
                0x00000000400cb650                rdotrst
                0x00000000400cb658                Spacecraft_Mode
                0x00000000400cb660                h_gcgd
                0x00000000400cb668                B_NED
                0x00000000400cb680                alpha_2RW
                0x00000000400cb688                temp1_or_init
                0x00000000400cb690                prev_obs_whsp_ch
                0x00000000400cb6b0                Wk1_one
                0x00000000400cb6f8                d1
                0x00000000400cb700                coskp
                0x00000000400cb708                TDB
                0x00000000400cb710                SunAcquisition2ThreeAxis_autotransit
                0x00000000400cb718                S_BODY
                0x00000000400cb730                AngDev_SAMtransit_thrsld
                0x00000000400cb738                f_RW_control
                0x00000000400cb740                Zt_Ssqr_Z_DAD
                0x00000000400cb748                f_DataSort_SUNMAG
                0x00000000400cb74c                wheel_spin_logic
                0x00000000400cb750                sine1
                0x00000000400cb758                con42
                0x00000000400cb760                Epochyear_GPS
                0x00000000400cb768                Z_MDO2ECI
                0x00000000400cb780                CB_DutyCycleGeneration
                0x00000000400cb788                inclination_GPS
                0x00000000400cb790                Matout341
                0x00000000400cb7a8                wh2B_mat
                0x00000000400cb808                kfv03
                0x00000000400cb828                xmy
                0x00000000400cb830                uuu
                0x00000000400cb838                TAI
                0x00000000400cb840                NMB_sunmag
                0x00000000400cb900                nodeo_GPS
                0x00000000400cb908                TC_GPSvalidity_Threshold
                0x00000000400cb90c                CB_Torquer_Polarity_Check
                0x00000000400cb910                x7thm1
                0x00000000400cb918                ak
                0x00000000400cb920                ecc_TLE_tc
                0x00000000400cb928                Tv_wof
                0x00000000400cb970                CB_AngularMomentumDumping
                0x00000000400cb978                LossWhMomFilt
                0x00000000400cb998                temp12
                0x00000000400cb9a0                Panel_Deployment
                0x00000000400cb9a8                del_temp
                0x00000000400cb9b0                qqbk
                0x00000000400cb9b8                mua_gcgd
                0x00000000400cb9c0                g
                0x00000000400cc140                TC_eesqrd
                0x00000000400cc148                eeta
                0x00000000400cc150                w_ABC
                0x00000000400cc168                OBT_at_TLE_epoch
                0x00000000400cc170                T_NETk
                0x00000000400cc188                xnode
                0x00000000400cc190                tor_counter
                0x00000000400cc198                B_Rho
                0x00000000400cc1a0                rdotl
                0x00000000400cc1a8                QRD_vect_norm
                0x00000000400cc1b0                Z_DAD
                0x00000000400cc1c8                semimajoraxis
                0x00000000400cc1d0                gmm
                0x00000000400cc1d8                S_REFn
                0x00000000400cc1f0                F_k4_temp2
                0x00000000400cc238                mat_adj
                0x00000000400cc280                TorquerPolaritySetFlag
                0x00000000400cc284                CB_RefRate_Computation
                0x00000000400cc288                B_IMU
                0x00000000400cc2a0                GPS_Elements_Available
                0x00000000400cc2a8                NRBt_mag
                0x00000000400cc4e8                Kk_Hk
                0x00000000400cc770                kfk3
                0x00000000400cc790                X_EPO2ECI
                0x00000000400cc7a8                tempse
                0x00000000400cc7b0                cosim
                0x00000000400cc7b8                CB_SpeedBasedMomentumDumping
                0x00000000400cc7bc                i_comr
                0x00000000400cc7c0                mo_tc
                0x00000000400cc7c8                hr_sel
                0x00000000400cc7d0                inclm
                0x00000000400cc7d8                TC_BDOT_Compute_Count
                0x00000000400cc7e0                kfv01
                0x00000000400cc800                mod_of_Wk1
                0x00000000400cc808                qzms24_temp
                0x00000000400cc810                GPS_READ_OBT
                0x00000000400cc818                S_DAD
                0x00000000400cc860                mm_temp
                0x00000000400cc868                GPS_PPS_OBT
                0x00000000400cc86c                chksum_tle
                0x00000000400cc870                temp_temp
                0x00000000400cc878                pk_HkT_Hk_Rk
                0x00000000400cc8c0                u_temp
                0x00000000400cc8c8                TC_BDOT_Det_Thresh
                0x00000000400cc8d0                NMB_NRBt
                0x00000000400cc918                A3_magad
                0x00000000400cc920                ecc_temp2
                0x00000000400cc928                sun_sf
                0x00000000400cc940                year_GPS
                0x00000000400cc948                Y_SPO2ECI
                0x00000000400cc960                sigma_m
                0x00000000400cc968                CB_ReferenceQuatComputation
                0x00000000400cc970                rhoa_gcgd
                0x00000000400cc978                sinkp
                0x00000000400cc980                adj_S_DAD
                0x00000000400cc9c8                p_magad
                0x00000000400ccd18                GYRO_max_threshold_count
                0x00000000400ccd1c                day_TLE_tc
                0x00000000400ccd20                TC_SpeedDumpTime
                0x00000000400ccd28                H_retn
                0x00000000400ccd30                w_RPY
                0x00000000400ccd48                Epochyear_TLE_tc
                0x00000000400ccd50                bstar
                0x00000000400ccd58                argpo_GPS
                0x00000000400ccd60                Ang_Deviation
                0x00000000400ccd68                Q_SFDO2ECI
                0x00000000400ccd88                B_BODY_IMU2
                0x00000000400ccda0                X_DAD
                0x00000000400ccdb8                SunNPP_SAMtransit
                0x00000000400ccdc0                ss_temp
                0x00000000400ccdd8                ecc_temp4
                0x00000000400ccde0                Vel_ECEF_GPS
                0x00000000400ccdf8                PolCheck_LUT
                0x00000000400cce00                nodecf
                0x00000000400cce08                Tdeficit
                0x00000000400cce20                vecnorm_mag
                0x00000000400cce28                Vel_ECI_GPS
                0x00000000400cce40                Q_REF_pres
                0x00000000400cce60                phi_12_temp3
                0x00000000400ccea8                epochdays
                0x00000000400cceb0                adel
                0x00000000400cceb8                xmcof
                0x00000000400ccec0                k
                0x00000000400ccec8                TC_momentum_dumping_gain
                0x00000000400cced0                cosio2
                0x00000000400cced8                Yk_minus_hk_Kk
                0x00000000400ccf20                mvt
                0x00000000400ccf28                Rz
                0x00000000400ccf70                St_DAD
                0x00000000400ccfb8                x1mth2
                0x00000000400ccfc0                t2
                0x00000000400ccfc8                B_REFn
                0x00000000400ccfe0                z_prsn
                0x00000000400ccfe8                Tsince
                0x00000000400ccff0                B_BODYn
                0x00000000400cd008                r_delta
                0x00000000400cd010                F_k4_temp1
                0x00000000400cd058                var1
                0x00000000400cd060                epochyr_sel
                0x00000000400cd064                entrytime2eclipse
                0x00000000400cd068                em
                0x00000000400cd070                Qk_temp2
                0x00000000400cd078                Xk_plus_temp
                0x00000000400cd090                Q_SPO2ECI
                0x00000000400cd0b0                W_cross
                0x00000000400cd0f8                Vel_ECI
                0x00000000400cd110                pk_HkT_Hk
                0x00000000400cd158                Tcv_temp
                0x00000000400cd170                NRS
                0x00000000400cd230                Tdeficit_temp1
                0x00000000400cd248                gmst_
                0x00000000400cd250                psi_sl_ecl
                0x00000000400cd258                Pitch_MTR_Pol_Reversal
                0x00000000400cd260                rsun
                0x00000000400cd278                Yk
                0x00000000400cd290                CB_Wheel_Spin_updown
                0x00000000400cd298                SB_MAIN
                0x00000000400cd2b0                vx
                0x00000000400cd2b8                inttemp
                0x00000000400cd2c0                Q_REF_prev
                0x00000000400cd2e0                TLE_Data_Available
                0x00000000400cd2e8                BEast
                0x00000000400cd2f0                SC7
                0x00000000400cd2f8                SunAcq_Ang_Thres
                0x00000000400cd300                DutyCycleGenEnable
                0x00000000400cd308                Tmm_actual
                0x00000000400cd320                SC2
                0x00000000400cd328                CB_MagFieldComp
                0x00000000400cd330                tempa
                0x00000000400cd338                kfmeas
                0x00000000400cd340                IMU1_Corr
                0x00000000400cd488                xsaty_eci
                0x00000000400cd490                pinvsq
                0x00000000400cd498                mod_of_Wk1_square
                0x00000000400cd4a0                ecc_temp3
                0x00000000400cd4a8                count_arc_w3
                0x00000000400cd4ac                DFCcountLow
                0x00000000400cd4b0                CB_ExtendedKalmanFilter
                0x00000000400cd4b8                B_BODY
                0x00000000400cd4d0                kfH_wh_ind
                0x00000000400cd4f0                no_TLE_tc
                0x00000000400cd4f8                semi_den
                0x00000000400cd500                STATION_vector
                0x00000000400cd518                wks
                0x00000000400cd520                Thta_BODY_IMU2
                0x00000000400cd538                days_sel
                0x00000000400cd540                lpfb_k_prev
                0x00000000400cd558                big_omega
                0x00000000400cd5d8                tempdays
                0x00000000400cd5dc                Present_OBT
                0x00000000400cd5e0                Tsince_TLE_tc
                0x00000000400cd5e8                X_SPO2ECI_mag
                0x00000000400cd5f0                temparg
                0x00000000400cd5f8                ibexp_sel
                0x00000000400cd600                VelZ_ECEF_GPS
                0x00000000400cd608                TC_detumbling_bdot_gain
                0x00000000400cd620                LPFK1HighSL
                0x00000000400cd628                xinc
                0x00000000400cd630                Twof_veh
                0x00000000400cd678                mdot
                0x00000000400cd680                w_AMSC
                0x00000000400cd698                kfw02
                0x00000000400cd6b0                kfg2
                0x00000000400cd6c8                kfT_NET
                0x00000000400cd6e0                LossWhMom
                0x00000000400cd700                b_DAD
                0x00000000400cd708                NMS
                0x00000000400cd7c8                f_station_tracking_enabled
                0x00000000400cd7d0                kfom
                0x00000000400cd850                xa_gcgd
                0x00000000400cd858                TC_GPS_pulse_duration
                0x00000000400cd860                phi_k
                0x00000000400cdae8                xin_temp
                0x00000000400cdaf0                UTC_hr_GPS
                0x00000000400cdaf8                Yaw_ang_err
                0x00000000400cdb00                B_BODY_IMU1
                0x00000000400cdb18                axnl
                0x00000000400cdb20                TC_min_whsp_spdump
                0x00000000400cdb28                X_SVO2ECI_mag
                0x00000000400cdb30                LPFK1SL
                0x00000000400cdb50                coef1
                0x00000000400cdb58                bstar_TLE_tc
                0x00000000400cdb60                ang
                0x00000000400cdb68                temp_lic
                0x00000000400cdb70                rsat
                0x00000000400cdb88                R_SFAO2ECI
                0x00000000400cdbd0                magPitch_angle
                0x00000000400cdbd8                beta_S_DAD
                0x00000000400cdc20                inclination_sel
                0x00000000400cdc28                SS_M4
                0x00000000400cdc30                Eclipse_presence_timer
                0x00000000400cdc38                exp_whsp_ch
                0x00000000400cdc58                Q_SVO2ECI
                0x00000000400cdc78                DelThta_cat_z
                0x00000000400cdc80                Y_SFAO2ECI
                0x00000000400cdc98                mo_TLE_tc
                0x00000000400cdca0                delta_HB
                0x00000000400cdcb8                cos_of_Wk1_Delta
                0x00000000400cdcc0                f_station_tracking_enabled_pre
                0x00000000400cdcc8                PosZ_ECEF_GPS
                0x00000000400cdcd0                SC1
                0x00000000400cdcd8                OBC_Quest_update
                0x00000000400cdce0                Tsince_TLE
                0x00000000400cdce8                pk_HkT
                0x00000000400cddc0                sumX_DAD
                0x00000000400cde08                kfq02
                0x00000000400cde28                phi_11_temp1
                0x00000000400cde70                kfI_MAT_w0_HW2B
                0x00000000400cde88                j_lict
                0x00000000400cde90                pps_deltaT
                0x00000000400cde98                Kk_matrix
                0x00000000400ce120                comb1
                0x00000000400ce128                f_Momentum_Dumping
                0x00000000400ce130                SUN_ECI_mag
                0x00000000400ce138                Tcv
                0x00000000400ce150                t4
                0x00000000400ce158                cnod
                0x00000000400ce160                mon_sel
                0x00000000400ce168                sidereal
                0x00000000400ce1b0                tau_ms
                0x00000000400ce1b8                inter_theta
                0x00000000400ce1c0                j_kf
                0x00000000400ce1c8                sine
                0x00000000400ce1d0                Z_SVO2ECI_mag
                0x00000000400ce1d8                Qprop_prev
                0x00000000400ce1f8                uz
                0x00000000400ce200                TC_KR
                0x00000000400ce218                ExWhMom
                0x00000000400ce238                B_BODYtesla
                0x00000000400ce250                T_MT_2RW
                0x00000000400ce268                DPM_Pol_prev
                0x00000000400ce278                one_magad
                0x00000000400ce280                S_ECI
                0x00000000400ce298                Q_quest_DAD_den
                0x00000000400ce2a0                gyrodet_w
                0x00000000400ce2b8                SunNPP_SMtransit
                0x00000000400ce2c0                two_magad
                0x00000000400ce2c8                Hk_temp
                0x00000000400ce3a0                xincp
                0x00000000400ce3a8                RWSpeedk
                0x00000000400ce3c8                Rx
                0x00000000400ce410                MTR_ActuationCycle
                0x00000000400ce418                lpfy_magbk
                0x00000000400ce420                BDOTnorm
                0x00000000400ce428                B_ECI
                0x00000000400ce440                SAT_ANGLE_STAT
                0x00000000400ce448                sigma_DAD
                0x00000000400ce450                f_DataSort_MAG
                0x00000000400ce458                Thta_rawdata
                0x00000000400ce470                aycof
                0x00000000400ce478                kfv3
                0x00000000400ce498                argpo_TLE_tc
                0x00000000400ce4a0                count_arc_w1
                0x00000000400ce4a4                j_gh
                0x00000000400ce4a8                SC8
                0x00000000400ce4b0                temp1
                0x00000000400ce4b8                coef
                0x00000000400ce4c0                w_BODYdeg
                0x00000000400ce4d8                sigma_u
                0x00000000400ce4e0                etasq
                0x00000000400ce4e8                T_SD_RW
                0x00000000400ce508                ele2
                0x00000000400ce510                cos2u
                0x00000000400ce518                st_magad
                0x00000000400ce520                F_k1
                0x00000000400ce568                Tc
                0x00000000400ce580                B_BiasCor
                0x00000000400ce598                out_Quat_mult
                0x00000000400ce5b8                CB_Wheel_Auto_Reconfiguration
                0x00000000400ce5c0                Del_P_theta
                0x00000000400ce5c8                diff_obs_exp_ch
                0x00000000400ce5e8                GPSDataReady
                0x00000000400ce5f0                mo_sel
                0x00000000400ce5f8                NRBt_sunmag
                0x00000000400ce6b8                kfq03
                0x00000000400ce6d8                trace_S_DAD
                0x00000000400ce6e0                SS_Redundant_2Exe_DB
                0x00000000400ce968                ct_magad
                0x00000000400ce970                BDOT_Threshold_Count
                0x00000000400ce974                i
                0x00000000400ce978                mu_m_temp
                0x00000000400ce990                Bcap_DAD
                0x00000000400ce9d8                SC1ImaxF
                0x00000000400ce9e0                TC_yp
                0x00000000400ce9e8                CB_Two_RW_control
                0x00000000400ce9ec                j_rfc
                0x00000000400ce9f0                IMU_Sen2Bdy
                0x00000000400cea38                LPFK2SL
                0x00000000400cea58                ktr
                0x00000000400cea5c                I_MFC
                0x00000000400cea60                DelThta_cat_y
                0x00000000400cea68                magYaw_angle
                0x00000000400cea70                R_MDO2ECI
                0x00000000400ceab8                epochdays_TLE_tc
                0x00000000400ceac0                CB_DAD_quest
                0x00000000400ceac8                kfv4
                0x00000000400ceae8                T_RW_sdump
                0x00000000400ceb08                theta1_se
                0x00000000400ceb10                no_sel
                0x00000000400ceb18                po
                0x00000000400ceb20                NMB_mag
                0x00000000400ced60                Vel_ECEFn
                0x00000000400ced78                j_MatEq
                0x00000000400ced80                xmdf
                0x00000000400ced88                cc3
                0x00000000400ced90                hils_mode_select
                0x00000000400ced98                Rk
                0x00000000400cede0                TC_Hmax
                0x00000000400cede8                Trwa
                0x00000000400cee08                qzms24
                0x00000000400cee10                w_LPF
                0x00000000400cee28                T_RW
                0x00000000400cee48                longitude_GPS
                0x00000000400cee50                RWSpeed_RAD
                0x00000000400cee70                F_k4
                0x00000000400ceeb8                sini
                0x00000000400ceec0                xsatz_eci
                0x00000000400ceec8                DFCGainLow
                0x00000000400ceed0                i_pini
                0x00000000400ceed8                SC3ImaxF
                0x00000000400ceee0                Hk
                0x00000000400cefb8                Delta
                0x00000000400cefc0                kfq_dot
                0x00000000400cefe0                Z_SFDO2ECI_mag
                0x00000000400cefe8                u_parl
                0x00000000400cf000                B_AMSC
                0x00000000400cf018                I_DAD
                0x00000000400cf020                kfv02
                0x00000000400cf040                i_MatEq
                0x00000000400cf044                year_TLE_tc
                0x00000000400cf048                ecose
                0x00000000400cf050                Pos_ECEF
                0x00000000400cf068                NRB_mag
                0x00000000400cf2a8                w_BiasCor
                0x00000000400cf2c0                SunNPP_SAMtransit_counter
                0x00000000400cf2c8                ecc_temp6
                0x00000000400cf2d0                j_pini
                0x00000000400cf2d8                jw_cross
                0x00000000400cf320                Q_REF_diff
                0x00000000400cf340                ECEFtoECI
                0x00000000400cf388                t5cof
                0x00000000400cf390                ep
                0x00000000400cf398                check_dump_wh
                0x00000000400cf3a8                epochyr
                0x00000000400cf3b0                Bpresent
                0x00000000400cf3c8                Q_svn_off
                0x00000000400cf3e8                dmu_gcgd
                0x00000000400cf3f0                Yaw_MTR_Pol_Reversal
                0x00000000400cf3f8                nodem
                0x00000000400cf400                STATION_ECIn
                0x00000000400cf418                TC_xp
                0x00000000400cf420                argpp
                0x00000000400cf428                TC_ARC_Time_Cycle
                0x00000000400cf42c                count_arc_w0
                0x00000000400cf430                TC_ARC_RPM_Thres
                0x00000000400cf438                ECItoECEF
                0x00000000400cf480                sinip
                0x00000000400cf488                Bt_DAD
                0x00000000400cf4d0                inclo_tc
                0x00000000400cf4d8                rot_ang
                0x00000000400cf4e0                alpha_2RW_temp
                0x00000000400cf4f8                coslongacnode
                0x00000000400cf500                temp11
                0x00000000400cf508                f_threeaxis2safe
                0x00000000400cf510                B_BODY_LUT
                0x00000000400cf528                DeltaT_MFC
                0x00000000400cf530                TC_detumbling_rate_gain
                0x00000000400cf548                esine
                0x00000000400cf550                SSMAIN_ARRAY
                0x00000000400cf590                T_RW_spin
                0x00000000400cf5b0                Wk1
                0x00000000400cf5f8                wc_qst
                0x00000000400cf600                Cross_Product
                0x00000000400cf618                sd_magad
                0x00000000400cf620                i_QDP
                0x00000000400cf624                f_aft_statn_wait
                0x00000000400cf628                Z_SPO2ECI
                0x00000000400cf640                d2
                0x00000000400cf648                tor_counterk
                0x00000000400cf64c                f_Sunlit_Presence
                0x00000000400cf650                pps_delta_utc
                0x00000000400cf658                pl
                0x00000000400cf660                Norm_out
                0x00000000400cf678                NRSt
                0x00000000400cf738                wheel_index
                0x00000000400cf748                L_Msun
                0x00000000400cf750                vpef
                0x00000000400cf768                inclination
                0x00000000400cf770                FirstSpeed
                0x00000000400cf780                cosio
                0x00000000400cf788                i_kf
                0x00000000400cf790                sinlongacnode
                0x00000000400cf798                f_Sunlit_Presence_sensor
                0x00000000400cf79c                minute_sel
                0x00000000400cf7a0                SS_M5
                0x00000000400cf7a8                f_Sunlit_Presence_orbit
                0x00000000400cf7b0                mrt
                0x00000000400cf7b8                SunAcq2ThreeAx_trsit_cnt_thres
                0x00000000400cf7c0                Qk
                0x00000000400cfa48                VelY_ECEF_GPS
                0x00000000400cfa50                Bprev
                0x00000000400cfa68                inter_sunsensor_j
                0x00000000400cfa70                SC4ImaxF
                0x00000000400cfa78                Matout33
                0x00000000400cfac0                mon_TLE_tc
                0x00000000400cfac8                TC_GYRO_Det_Min_Thresh
                0x00000000400cfad0                betal
                0x00000000400cfad8                Qquest_update
                0x00000000400cfaf8                i_god
                0x00000000400cfb00                mo
                0x00000000400cfb08                tt
                0x00000000400cfb28                dpsi
                0x00000000400cfb30                con41
                0x00000000400cfb38                CB_Sun_model
                0x00000000400cfb3c                SunNPP_SAMtransit_count_limit
                0x00000000400cfb40                R_SVO2ECI
                0x00000000400cfb88                qk_plus_temp
                0x00000000400cfba8                f_Sunlit_Presence_previous
                0x00000000400cfbb0                delta_hmag
                0x00000000400cfbb8                kfg4
                0x00000000400cfbd0                kfk1
                0x00000000400cfbf0                kfw01
                0x00000000400cfc08                ecl_ekf
                0x00000000400cfc10                Q_REF_conj
                0x00000000400cfc30                RW_ARC_Logic
                0x00000000400cfc34                RW_nominal_speed_cnt
                0x00000000400cfc38                Matout31
                0x00000000400cfc50                DelThta_cat_x
                0x00000000400cfc58                TC_wh_speed_cutoff
                0x00000000400cfc60                inclination_temp
                0x00000000400cfc68                Xk_plus
                0x00000000400cfcb0                IMU2_Corr
                0x00000000400cfdf8                eol
                0x00000000400cfe00                spin_up_avg_count_2
                0x00000000400cfe08                tsi
                0x00000000400cfe10                BDOT
                0x00000000400cfe28                phi_11
                0x00000000400cfe70                tempta
                0x00000000400cfe78                Cond1
                0x00000000400cfe80                phi_12_temp1
                0x00000000400cfec8                Yaw_MTREnable
                0x00000000400cfecc                J_DAD
                0x00000000400cfed0                CB_RefVectorGeneration
                0x00000000400cfed8                magrsun
                0x00000000400cfee0                w_REF_prev
                0x00000000400cfef8                ao_temp
                0x00000000400cff00                TachoHyst
                0x00000000400cff10                lpfb_k
                0x00000000400cff28                TC_wp_QDP
                0x00000000400cff30                pk_plus_one
                0x00000000400d01b8                CB_Wheel_Dynamic_Friction
                0x00000000400d01c0                B_ECEF
                0x00000000400d01d8                Sun_Dis
                0x00000000400d01e0                A_R
                0x00000000400d01e8                Mk
                0x00000000400d0200                vy
                0x00000000400d0208                no
                0x00000000400d0210                beta_DAD
                0x00000000400d0218                mo_GPS
                0x00000000400d0220                alpha_DAD
                0x00000000400d0228                B_ASC
                0x00000000400d0240                SC3
                0x00000000400d0248                DCM2Q_out
                0x00000000400d0268                SS_prcd_data
                0x00000000400d0280                Q_SFAO2ECI
                0x00000000400d02a0                rk_Qk_rk_T
                0x00000000400d0528                ao
                0x00000000400d0530                Numofdays
                0x00000000400d0534                TC_SunMagAD
                0x00000000400d0538                longitude
                0x00000000400d0540                Quest_update_available
                0x00000000400d0548                S_ECIn
                0x00000000400d0560                N_ecc
                0x00000000400d0568                M_MAGAD
                0x00000000400d056c                minute_TLE_tc
                0x00000000400d0570                cossu
                0x00000000400d0578                sin_of_W_norm_Delta_by2_W_norm_and_big_omega
                0x00000000400d05f8                cc4
                0x00000000400d0600                phi_k_pk_plus
                0x00000000400d0888                trueanomoly_sel
                0x00000000400d0890                STATION_ECEF
                0x00000000400d08a8                ele1
                0x00000000400d08b0                fN_MAGAD
                0x00000000400d08b8                DFCGainSL
                0x00000000400d08d8                sinmao
                0x00000000400d08e0                f_EKF2_mag_bias_dis
                0x00000000400d08e8                snod
                0x00000000400d08f0                cos_of_W_norm_Delta_by2_with_I
                0x00000000400d0970                cl_magad
                0x00000000400d09e0                i_gh
                0x00000000400d09e8                Tdet
                0x00000000400d0a00                nm
                0x00000000400d0a08                TTDB3
                0x00000000400d0a10                del_Vw
                0x00000000400d0a30                d4
                0x00000000400d0a38                SC6
                0x00000000400d0a40                alpha_I_DAD
                0x00000000400d0a88                sc_qst
                0x00000000400d0a90                t2cof
                0x00000000400d0a98                rpef
                0x00000000400d0ab0                kfw03
                0x00000000400d0ac8                CB_LinearController
                0x00000000400d0acc                f_RW_nominal
                0x00000000400d0ad0                LPFK2HighSL
                0x00000000400d0ad8                suu
                0x00000000400d0ae0                Pos_ECI_GPS
                0x00000000400d0af8                Alti_Mod
                0x00000000400d0b00                Msun
                0x00000000400d0b08                alpha_2RW_tempnorm
                0x00000000400d0b10                X_SFAO2ECI
                0x00000000400d0b28                Q_REF
                0x00000000400d0b48                rp
                0x00000000400d0b50                nodeo_tc
                0x00000000400d0b58                DelThta_rawdata
                0x00000000400d0b70                Y_EPO2ECI
                0x00000000400d0b88                w_BODYnorm
                0x00000000400d0b90                radialdistance_ecef
                0x00000000400d0b98                CB_QuestDataProcessing
                0x00000000400d0ba0                Q_stn_off
                0x00000000400d0bc0                year_sel
                0x00000000400d0bc8                sinio
                0x00000000400d0bd0                Epsilon
                0x00000000400d0bd8                j_god
                0x00000000400d0be0                Qk_temp1
                0x00000000400d0be8                TTDB
                0x00000000400d0bf0                pre_temp
                0x00000000400d0c38                VelX_ECEF_GPS
                0x00000000400d0c40                Z_SFDO2ECI
                0x00000000400d0c58                X_SFDO2ECI_mag
                0x00000000400d0c60                LPFK1LowSL
                0x00000000400d0c68                DFCCountLimSL
                0x00000000400d0c78                distsqrd
                0x00000000400d0c80                am_temp
                0x00000000400d0c88                k_DAD
                0x00000000400d0c90                Qk_temp3
                0x00000000400d0c98                sec_TLE_tc
                0x00000000400d0ca0                SS_M1
                0x00000000400d0ca8                invangmomentumvecmag
                0x00000000400d0cb0                rvdotl
                0x00000000400d0cb8                qk_plus_conj
                0x00000000400d0cd8                Pos_ECEFn
                0x00000000400d0cf0                X_EPO2ECI_mag
                0x00000000400d0cf8                emsq
                0x00000000400d0d00                c_DAD
                0x00000000400d0d08                NEDtoECEF
                0x00000000400d0d50                kfq01
                0x00000000400d0d70                sine2
                0x00000000400d0d78                TB_sMD
                0x00000000400d0d90                GPSDataReady_NA_count
                0x00000000400d0d98                ecc
                0x00000000400d0da0                ref_cross
                0x00000000400d0de8                cosip
                0x00000000400d0df0                CB_ErrorComputation
                0x00000000400d0df8                SSREDT_ARRAY
                0x00000000400d0e38                l_gcgd
                0x00000000400d0e40                ecc_r
                0x00000000400d0e48                Thta_BODY_IMU1
                0x00000000400d0e60                TC_long_station
                0x00000000400d0e68                PolChec_LUT_res
                0x00000000400d0e70                H_wh
                0x00000000400d0e90                SS_Data
                0x00000000400d0f10                wh_sdump_start
                0x00000000400d0f20                temp_prop
                0x00000000400d0f28                Z_SFAO2ECI_mag
                0x00000000400d0f30                Tsince_GPS
                0x00000000400d0f38                SC2ImaxF
                0x00000000400d0f40                pres_exp_whsp_ch
                0x00000000400d0f60                m_gh
                0x00000000400d0f68                B_ECItesla
                0x00000000400d0f80                Result_of_sine_Delta_cube
                0x00000000400d0f88                kfT_RW_NET
                0x00000000400d0fa0                Pse_Inv_Dist_Mat
                0x00000000400d1000                LPFK2LowSL
                0x00000000400d1008                ux
                0x00000000400d1010                TC_KP
                0x00000000400d1028                cos_of_W_norm_and_Delta_by2
                0x00000000400d1030                Q_StP2ECI
                0x00000000400d1050                phi_11_temp3
                0x00000000400d1098                phi_11_temp2
                0x00000000400d10e0                wo
                0x00000000400d10e8                kfg1
                0x00000000400d1100                gamma_DAD
                0x00000000400d1108                epochdays_GPS
                0x00000000400d1110                UTC_min_GPS
                0x00000000400d1114                CB_Detumbling_Mode
                0x00000000400d1118                K_DADAD
                0x00000000400d1120                comb2
                0x00000000400d1128                phi_k_pk_plus_phi_k_T
                0x00000000400d13b0                imu2_db_checksum_obc
                0x00000000400d13b8                Qerror
                0x00000000400d13d8                TC_delUT1
                0x00000000400d13e0                argpo
                0x00000000400d13e8                am_den
                0x00000000400d13f0                mat_mult
                0x00000000400d1438                delm
                0x00000000400d1440                Tdefnorm
                0x00000000400d1448                WhMom0
                0x00000000400d1468                Pos_ECIn
                0x00000000400d1480                cc1sq
                0x00000000400d1488                I_MAGAD
                0x00000000400d1490                ecc_temp5
                0x00000000400d1498                jd_time
                0x00000000400d14a0                ecco
                0x00000000400d14a8                vsaty_eci
                0x00000000400d14b0                xlcof
                0x00000000400d14b8                K_temp
                0x00000000400d1500                h
                0x00000000400d1c80                NMS_NRSt
                0x00000000400d1cc8                latitude
                0x00000000400d1cd0                den_gcgd
                0x00000000400d1cd8                TC_Det_Bprev_Count
                0x00000000400d1ce0                Vel_ECEF_temp
                0x00000000400d1cf8                count_arc_w2
                0x00000000400d1d00                Y_EPO2ECI_mag
                0x00000000400d1d08                cd_magad
                0x00000000400d1d10                imu1_db_checksum_obc
                0x00000000400d1d18                latitude_GPS
                0x00000000400d1d20                del_v0
                0x00000000400d1d40                RW_ARC_Count
                0x00000000400d1d44                TC_AutoTransitAnyMode2Det
                0x00000000400d1d48                DFCTorq
                0x00000000400d1d68                sinim
                0x00000000400d1d70                var
                0x00000000400d1d78                qk_minus
                0x00000000400d1d98                Q_REF_prev_conj
                0x00000000400d1db8                cosu
                0x00000000400d1dc0                BDOT_Norm_Count
                0x00000000400d1dc4                Susp_cnt
                0x00000000400d1dc8                ao_sfour
                0x00000000400d1dd0                precession
                0x00000000400d1e18                Z_SFAO2ECI
                0x00000000400d1e30                S_sqr_DAD
                0x00000000400d1e78                nodeo
                0x00000000400d1e80                R_StP2ECI
                0x00000000400d1ec8                kfv1
                0x00000000400d1ee8                sun_noise
                0x00000000400d1ef0                ecc_sel
                0x00000000400d1ef8                n_gh
                0x00000000400d1f00                ecc_temp7
                0x00000000400d1f08                asqrd
                0x00000000400d1f10                etempe
                0x00000000400d1f18                kfw_dot_temp
                0x00000000400d1f30                A1_magad
                0x00000000400d1f38                R_SPO2ECI
                0x00000000400d1f80                xsatx_eci
                0x00000000400d1f88                UTC_EE
                0x00000000400d1f90                no_GPS
                0x00000000400d1f98                Yk_minus_hk
                0x00000000400d1fb0                TDT
                0x00000000400d1fb8                w_BODY_IMU1
                0x00000000400d1fd0                qk_DCM
                0x00000000400d2018                mat_mag_DataCounter
                0x00000000400d2020                argpo_sel
                0x00000000400d2028                SunNPP_SMtransit_counter
                0x00000000400d2030                kfT_RW_NET_temp
                0x00000000400d2050                psetasq
                0x00000000400d2058                TC_RW_Nominal
                0x00000000400d2068                f_battery_safemode
                0x00000000400d2070                Pos_ECI
                0x00000000400d2088                e_vecdtr
                0x00000000400d2090                nodeo_TLE_tc
                0x00000000400d2098                L_Ecliptic
                0x00000000400d20a0                trueanomoly_TLE_tc
                0x00000000400d20a8                kfv2
                0x00000000400d20c8                w_q_update_satisfy
                0x00000000400d20d0                rteosq
                0x00000000400d20d8                lmonth
                0x00000000400d2110                R_SFDO2ECI
                0x00000000400d2158                UTC_sec_GPS
                0x00000000400d2160                M_quad
                0x00000000400d2168                ss2b
                0x00000000400d21b0                speedDFCch
                0x00000000400d21b8                dc_qst
                0x00000000400d21c0                theta2_se
                0x00000000400d21c8                cc1
                0x00000000400d21d0                X_SVO2ECI
                0x00000000400d21e8                tut1
                0x00000000400d21f0                Tdeficit_temp2
                0x00000000400d2208                Delta_T
                0x00000000400d2210                Kk_Hk_with_minus_one
                0x00000000400d2498                Bsq
                0x00000000400d24a0                BDown
                0x00000000400d24a8                dumping_on
                0x00000000400d24ac                wAD_updatecount
                0x00000000400d24b0                polarmotion
                0x00000000400d24f8                posq
                0x00000000400d2500                X_SFDO2ECI
                0x00000000400d2518                TC_AngMomDump_Thrsld
                0x00000000400d2520                t3cof
                0x00000000400d2528                T_MTk
                0x00000000400d2540                ThreeAxis2DetMode_counter
                0x00000000400d2548                co_dec
                0x00000000400d2550                Roll_MTREnable
                0x00000000400d2554                k_comr
                0x00000000400d2558                STATION_ECI
                0x00000000400d2570                eps
                0x00000000400d2578                Y_SPO2ECI_mag
                0x00000000400d2580                lpfx_magbk
                0x00000000400d2588                gd_gcgd
                0x00000000400d2590                B_ECIn
                0x00000000400d25a8                vsatz_eci
                0x00000000400d25b0                mod_of_Wk1_cube
                0x00000000400d25b8                F_k
                0x00000000400d2840                sin2u
                0x00000000400d2848                inter_imu_j
                0x00000000400d2850                velmag
                0x00000000400d2858                A2_magad
                0x00000000400d2860                sl_magad
                0x00000000400d28d0                Result_of_sine_Delta
                0x00000000400d28d8                Dfunc_DAD
                0x00000000400d28e0                cosio4
                0x00000000400d28e8                temp_om
                0x00000000400d28f0                TC_max_whsp_spdump
                0x00000000400d28f8                templ_op
                0x00000000400d2900                Pos_ECEF_GPS
                0x00000000400d2918                w_ASC
                0x00000000400d2930                min_TW
                0x00000000400d2938                Zt_S_Z_DAD
                0x00000000400d2940                deps
                0x00000000400d2948                Ndte_vec
                0x00000000400d2950                CB_Wheel_OverSpeed_TorqueCutOff
                0x00000000400d2958                W_norm
                0x00000000400d2960                Det_BDOT_MC_Count
                0x00000000400d2964                TC_KalmanFilter_ENABLE
                0x00000000400d2968                xmx
                0x00000000400d2970                Q_quest_DAD
                0x00000000400d2990                DFCGainHigh
                0x00000000400d2998                kfH_wh2body
                0x00000000400d29b0                Torquer_Shutdown
                0x00000000400d29b8                nodeo_sel
                0x00000000400d29c0                qk_plus
                0x00000000400d29e0                magRoll_angle
                0x00000000400d29e8                sigma_v
                0x00000000400d29f0                j_comr
                0x00000000400d29f8                SS_M2
                0x00000000400d2a00                sin_of_W_norm_and_Delta_by2
                0x00000000400d2a08                ibexp
                0x00000000400d2a10                GYRO_Threshold_Count
                0x00000000400d2a18                kfw0crossI_MAT_w0_HW2B
                0x00000000400d2a30                inclination_TLE_tc
                0x00000000400d2a38                PosY_ECEF_GPS
                0x00000000400d2a40                Roll_ang_err
                0x00000000400d2a48                CB_BDOT_Computation
                0x00000000400d2a50                Qbody
                0x00000000400d2a70                S_BODYn
                0x00000000400d2a88                s_hk
                0x00000000400d2aa0                i_lict
                0x00000000400d2aa4                elapsed_running_timer
                0x00000000400d2aa8                IMU_prcd_data
                0x00000000400d2ad8                delta_DAD
                0x00000000400d2ae0                kfk2
                0x00000000400d2b00                temp3
                0x00000000400d2b08                B_Tef_ANG
                0x00000000400d2b10                X_SPO2ECI
                0x00000000400d2b28                sine_of_Wk1_Delta_by_Wk1
                0x00000000400d2b30                PosX_ECEF_GPS
                0x00000000400d2b38                RWSpeed_RPM
                0x00000000400d2b58                SS_M7
                0x00000000400d2b60                SS_M6
                0x00000000400d2b68                Q_axis
                0x00000000400d2b80                Wheel_Config
                0x00000000400d2b88                psisq
                0x00000000400d2b90                N_MAGAD
                0x00000000400d2b98                ra_gcgd
                0x00000000400d2ba0                argpm
                0x00000000400d2ba8                mp
                0x00000000400d2bb0                am
                0x00000000400d2bb8                TC_comd_pitch_rate
                0x00000000400d2bc0                TorquerDutyCycle
                0x00000000400d2bd0                xl
                0x00000000400d2bd8                dayofyr
                0x00000000400d2be0                adotb
                0x00000000400d2be8                eta
                0x00000000400d2bf0                w_BODY
                0x00000000400d2c08                ibexp_tc
                0x00000000400d2c10                SunNPP_SMtransit_count_limit
                0x00000000400d2c18                bsqrd
                0x00000000400d2c20                dlambda_gcgd
                0x00000000400d2c28                TC_BDOT_Norm_Threshold
                0x00000000400d2c30                CB_IMUDataProcessing
                0x00000000400d2c38                nodep
                0x00000000400d2c40                Vel_ECI_temp
                0x00000000400d2c58                T_RW_NETk
                0x00000000400d2c70                omeosq
                0x00000000400d2c78                Matout431
                0x00000000400d2c98                R_EPO2ECI
                0x00000000400d2ce0                lpfz_magbk
                0x00000000400d2ce8                phi_12
                0x00000000400d2d30                Alti
                0x00000000400d2d38                kfw_dot
                0x00000000400d2d50                temp_jday
                0x00000000400d2d58                Del_Y_theta
                0x00000000400d2d60                pk
                0x00000000400d2fe8                longitude_tan_num
                0x00000000400d2ff0                DFCCount
                0x00000000400d3000                cos_of_Wk1_Delta_by_Wk1_square
                0x00000000400d3008                Julian_day
                0x00000000400d3010                SS_M3
                0x00000000400d3018                GPS_Select
                0x00000000400d3020                Trwa_mt_comp
                0x00000000400d3038                ak_temp
                0x00000000400d3040                BDOT_deltaT
                0x00000000400d3048                sinsu
                0x00000000400d3050                zeta
                0x00000000400d3058                velmagsq
                0x00000000400d3060                CB_Sl_Ecl_OnBrd_detection
                0x00000000400d3068                nodedot
                0x00000000400d3070                e_vec
                0x00000000400d3088                wheel_index_ARCsum
                0x00000000400d3090                sin_of_W_norm_Delta_by2_and_W_norm
                0x00000000400d3098                S_REF
                0x00000000400d30b0                Xk
                0x00000000400d30f8                RAAN
                0x00000000400d3100                w_BODY_IMU2
                0x00000000400d3118                Zt_Z_DAD
                0x00000000400d3120                nm_temp
                0x00000000400d3128                Vel_ECEF
                0x00000000400d3140                REF_FRAME_DCM
                0x00000000400d3188                sfour
                0x00000000400d3190                angmomentumvecmag
                0x00000000400d3198                kfg3
                0x00000000400d31b0                Invmatout33
                0x00000000400d31f8                Matout441
                0x00000000400d3218                gmst0
                0x00000000400d3220                Q_REF_GND
                0x00000000400d3240                argpdot
                0x00000000400d3248                cose
                0x00000000400d3250                DPM
                0x00000000400d3268                TC_SpeedDumpLimit
                0x00000000400d3270                d3
                0x00000000400d3278                SC4
                0x00000000400d3280                t4cof
                0x00000000400d3288                rdtv
                0x00000000400d3290                semimajoraxis_GPS
                0x00000000400d3298                JDTDB
                0x00000000400d32a0                phi_12_temp2
                0x00000000400d32e8                SS_Main_2Exe_DB
                0x00000000400d3570                X_SFAO2ECI_mag
                0x00000000400d3578                tmin
                0x00000000400d3580                UTC_day_GPS
                0x00000000400d3584                i_rfc
                0x00000000400d3588                CB_SunSensorDataProcessing
 COMMON         0x00000000400d358c       0x80 c:/opt/bcc-2.0.2-gcc/bin/../sparc-gaisler-elf/bsp/leon2/leon/mfix-at697f\libbcc.a(isr.c.o)
                0x00000000400d358c                __bcc_isr_list
                0x00000000400d3610                . = ALIGN (0x8)
 *fill*         0x00000000400d360c        0x4 
                0x00000000400d3610                __bss_end = .
                0x00000000400d3610                __heap_min = .
                0x00000000400d3610                . = ALIGN (0x8)

.jcr
 *(.jcr)

.stab
 *(.stab)

.stabstr
 *(.stabstr)

.debug
 *(.debug)

.line
 *(.line)

.debug_srcinfo
 *(.debug_srcinfo)

.debug_sfnames
 *(.debug_sfnames)

.debug_aranges  0x0000000000000000      0xaa0
 *(.debug_aranges)
 .debug_aranges
                0x0000000000000000       0x20 c:/opt/bcc-2.0.2-gcc/bin/../sparc-gaisler-elf/bsp/leon2/leon/mfix-at697f/trap_table_mvt.S.o
 .debug_aranges
                0x0000000000000020       0x20 c:/opt/bcc-2.0.2-gcc/bin/../sparc-gaisler-elf/bsp/leon2/leon/mfix-at697f/crt0.S.o
 .debug_aranges
                0x0000000000000040       0x28 C:\Users\Bhagawat\AppData\Local\Temp\ccmG331P.o
 .debug_aranges
                0x0000000000000068       0x20 C:\Users\Bhagawat\AppData\Local\Temp\ccFLNK2X.o
 .debug_aranges
                0x0000000000000088       0x20 C:\Users\Bhagawat\AppData\Local\Temp\ccF3JHAe.o
 .debug_aranges
                0x00000000000000a8       0x20 C:\Users\Bhagawat\AppData\Local\Temp\ccSFvBJa.o
 .debug_aranges
                0x00000000000000c8       0x20 C:\Users\Bhagawat\AppData\Local\Temp\ccLxi9Ri.o
 .debug_aranges
                0x00000000000000e8       0x20 C:\Users\Bhagawat\AppData\Local\Temp\cc0Th2ok.o
 .debug_aranges
                0x0000000000000108       0x20 C:\Users\Bhagawat\AppData\Local\Temp\ccbuJliF.o
 .debug_aranges
                0x0000000000000128       0x20 C:\Users\Bhagawat\AppData\Local\Temp\ccA5VOh9.o
 .debug_aranges
                0x0000000000000148       0x20 C:\Users\Bhagawat\AppData\Local\Temp\cclg7QQI.o
 .debug_aranges
                0x0000000000000168       0x20 C:\Users\Bhagawat\AppData\Local\Temp\cc4J82Fr.o
 .debug_aranges
                0x0000000000000188       0x20 C:\Users\Bhagawat\AppData\Local\Temp\ccP2pYow.o
 .debug_aranges
                0x00000000000001a8       0x20 C:\Users\Bhagawat\AppData\Local\Temp\cc5opyBQ.o
 .debug_aranges
                0x00000000000001c8       0x20 C:\Users\Bhagawat\AppData\Local\Temp\ccjU9hyn.o
 .debug_aranges
                0x00000000000001e8       0x20 C:\Users\Bhagawat\AppData\Local\Temp\ccBLkweo.o
 .debug_aranges
                0x0000000000000208       0x20 C:\Users\Bhagawat\AppData\Local\Temp\ccsgz4so.o
 .debug_aranges
                0x0000000000000228       0x20 C:\Users\Bhagawat\AppData\Local\Temp\ccAFUHm4.o
 .debug_aranges
                0x0000000000000248       0x20 C:\Users\Bhagawat\AppData\Local\Temp\ccRqxX1h.o
 .debug_aranges
                0x0000000000000268       0x18 C:\Users\Bhagawat\AppData\Local\Temp\ccyPto1B.o
 .debug_aranges
                0x0000000000000280       0x20 C:\Users\Bhagawat\AppData\Local\Temp\ccZvvD0p.o
 .debug_aranges
                0x00000000000002a0       0x20 C:\Users\Bhagawat\AppData\Local\Temp\cciSMCHz.o
 .debug_aranges
                0x00000000000002c0       0x20 C:\Users\Bhagawat\AppData\Local\Temp\ccYmJqpt.o
 .debug_aranges
                0x00000000000002e0       0x20 C:\Users\Bhagawat\AppData\Local\Temp\cc5ogaUY.o
 .debug_aranges
                0x0000000000000300       0x18 C:\Users\Bhagawat\AppData\Local\Temp\ccCmOWXC.o
 .debug_aranges
                0x0000000000000318       0x20 C:\Users\Bhagawat\AppData\Local\Temp\ccQjljxZ.o
 .debug_aranges
                0x0000000000000338       0x20 C:\Users\Bhagawat\AppData\Local\Temp\ccgDYObG.o
 .debug_aranges
                0x0000000000000358       0x20 C:\Users\Bhagawat\AppData\Local\Temp\ccyKrZ4y.o
 .debug_aranges
                0x0000000000000378       0x20 c:/opt/bcc-2.0.2-gcc/bin/../lib/gcc/sparc-gaisler-elf/7.2.0/../../../../sparc-gaisler-elf/lib/leon/mfix-at697f\libm.a(lib_a-s_atan.o)
 .debug_aranges
                0x0000000000000398       0x20 c:/opt/bcc-2.0.2-gcc/bin/../lib/gcc/sparc-gaisler-elf/7.2.0/../../../../sparc-gaisler-elf/lib/leon/mfix-at697f\libm.a(lib_a-s_cos.o)
 .debug_aranges
                0x00000000000003b8       0x20 c:/opt/bcc-2.0.2-gcc/bin/../lib/gcc/sparc-gaisler-elf/7.2.0/../../../../sparc-gaisler-elf/lib/leon/mfix-at697f\libm.a(lib_a-s_fabs.o)
 .debug_aranges
                0x00000000000003d8       0x20 c:/opt/bcc-2.0.2-gcc/bin/../lib/gcc/sparc-gaisler-elf/7.2.0/../../../../sparc-gaisler-elf/lib/leon/mfix-at697f\libm.a(lib_a-s_floor.o)
 .debug_aranges
                0x00000000000003f8       0x20 c:/opt/bcc-2.0.2-gcc/bin/../lib/gcc/sparc-gaisler-elf/7.2.0/../../../../sparc-gaisler-elf/lib/leon/mfix-at697f\libm.a(lib_a-s_sin.o)
 .debug_aranges
                0x0000000000000418       0x20 c:/opt/bcc-2.0.2-gcc/bin/../lib/gcc/sparc-gaisler-elf/7.2.0/../../../../sparc-gaisler-elf/lib/leon/mfix-at697f\libm.a(lib_a-s_tan.o)
 .debug_aranges
                0x0000000000000438       0x20 c:/opt/bcc-2.0.2-gcc/bin/../lib/gcc/sparc-gaisler-elf/7.2.0/../../../../sparc-gaisler-elf/lib/leon/mfix-at697f\libm.a(lib_a-w_acos.o)
 .debug_aranges
                0x0000000000000458       0x20 c:/opt/bcc-2.0.2-gcc/bin/../lib/gcc/sparc-gaisler-elf/7.2.0/../../../../sparc-gaisler-elf/lib/leon/mfix-at697f\libm.a(lib_a-w_atan2.o)
 .debug_aranges
                0x0000000000000478       0x20 c:/opt/bcc-2.0.2-gcc/bin/../lib/gcc/sparc-gaisler-elf/7.2.0/../../../../sparc-gaisler-elf/lib/leon/mfix-at697f\libm.a(lib_a-w_fmod.o)
 .debug_aranges
                0x0000000000000498       0x20 c:/opt/bcc-2.0.2-gcc/bin/../lib/gcc/sparc-gaisler-elf/7.2.0/../../../../sparc-gaisler-elf/lib/leon/mfix-at697f\libm.a(lib_a-w_pow.o)
 .debug_aranges
                0x00000000000004b8       0x20 c:/opt/bcc-2.0.2-gcc/bin/../lib/gcc/sparc-gaisler-elf/7.2.0/../../../../sparc-gaisler-elf/lib/leon/mfix-at697f\libm.a(lib_a-w_sqrt.o)
 .debug_aranges
                0x00000000000004d8       0x20 c:/opt/bcc-2.0.2-gcc/bin/../lib/gcc/sparc-gaisler-elf/7.2.0/../../../../sparc-gaisler-elf/lib/leon/mfix-at697f\libm.a(lib_a-e_acos.o)
 .debug_aranges
                0x00000000000004f8       0x20 c:/opt/bcc-2.0.2-gcc/bin/../lib/gcc/sparc-gaisler-elf/7.2.0/../../../../sparc-gaisler-elf/lib/leon/mfix-at697f\libm.a(lib_a-e_atan2.o)
 .debug_aranges
                0x0000000000000518       0x20 c:/opt/bcc-2.0.2-gcc/bin/../lib/gcc/sparc-gaisler-elf/7.2.0/../../../../sparc-gaisler-elf/lib/leon/mfix-at697f\libm.a(lib_a-e_fmod.o)
 .debug_aranges
                0x0000000000000538       0x20 c:/opt/bcc-2.0.2-gcc/bin/../lib/gcc/sparc-gaisler-elf/7.2.0/../../../../sparc-gaisler-elf/lib/leon/mfix-at697f\libm.a(lib_a-e_pow.o)
 .debug_aranges
                0x0000000000000558       0x20 c:/opt/bcc-2.0.2-gcc/bin/../lib/gcc/sparc-gaisler-elf/7.2.0/../../../../sparc-gaisler-elf/lib/leon/mfix-at697f\libm.a(lib_a-e_rem_pio2.o)
 .debug_aranges
                0x0000000000000578       0x20 c:/opt/bcc-2.0.2-gcc/bin/../lib/gcc/sparc-gaisler-elf/7.2.0/../../../../sparc-gaisler-elf/lib/leon/mfix-at697f\libm.a(lib_a-e_sqrt.o)
 .debug_aranges
                0x0000000000000598       0x20 c:/opt/bcc-2.0.2-gcc/bin/../lib/gcc/sparc-gaisler-elf/7.2.0/../../../../sparc-gaisler-elf/lib/leon/mfix-at697f\libm.a(lib_a-k_cos.o)
 .debug_aranges
                0x00000000000005b8       0x20 c:/opt/bcc-2.0.2-gcc/bin/../lib/gcc/sparc-gaisler-elf/7.2.0/../../../../sparc-gaisler-elf/lib/leon/mfix-at697f\libm.a(lib_a-k_rem_pio2.o)
 .debug_aranges
                0x00000000000005d8       0x20 c:/opt/bcc-2.0.2-gcc/bin/../lib/gcc/sparc-gaisler-elf/7.2.0/../../../../sparc-gaisler-elf/lib/leon/mfix-at697f\libm.a(lib_a-k_sin.o)
 .debug_aranges
                0x00000000000005f8       0x20 c:/opt/bcc-2.0.2-gcc/bin/../lib/gcc/sparc-gaisler-elf/7.2.0/../../../../sparc-gaisler-elf/lib/leon/mfix-at697f\libm.a(lib_a-k_tan.o)
 .debug_aranges
                0x0000000000000618       0x20 c:/opt/bcc-2.0.2-gcc/bin/../lib/gcc/sparc-gaisler-elf/7.2.0/../../../../sparc-gaisler-elf/lib/leon/mfix-at697f\libm.a(lib_a-s_finite.o)
 .debug_aranges
                0x0000000000000638       0x18 c:/opt/bcc-2.0.2-gcc/bin/../lib/gcc/sparc-gaisler-elf/7.2.0/../../../../sparc-gaisler-elf/lib/leon/mfix-at697f\libm.a(lib_a-s_lib_ver.o)
 .debug_aranges
                0x0000000000000650       0x20 c:/opt/bcc-2.0.2-gcc/bin/../lib/gcc/sparc-gaisler-elf/7.2.0/../../../../sparc-gaisler-elf/lib/leon/mfix-at697f\libm.a(lib_a-s_matherr.o)
 .debug_aranges
                0x0000000000000670       0x20 c:/opt/bcc-2.0.2-gcc/bin/../lib/gcc/sparc-gaisler-elf/7.2.0/../../../../sparc-gaisler-elf/lib/leon/mfix-at697f\libm.a(lib_a-s_nan.o)
 .debug_aranges
                0x0000000000000690       0x20 c:/opt/bcc-2.0.2-gcc/bin/../lib/gcc/sparc-gaisler-elf/7.2.0/../../../../sparc-gaisler-elf/lib/leon/mfix-at697f\libm.a(lib_a-s_rint.o)
 .debug_aranges
                0x00000000000006b0       0x20 c:/opt/bcc-2.0.2-gcc/bin/../lib/gcc/sparc-gaisler-elf/7.2.0/../../../../sparc-gaisler-elf/lib/leon/mfix-at697f\libm.a(lib_a-s_scalbn.o)
 .debug_aranges
                0x00000000000006d0       0x20 c:/opt/bcc-2.0.2-gcc/bin/../lib/gcc/sparc-gaisler-elf/7.2.0/../../../../sparc-gaisler-elf/lib/leon/mfix-at697f\libm.a(lib_a-s_copysign.o)
 .debug_aranges
                0x00000000000006f0       0x20 c:/opt/bcc-2.0.2-gcc/bin/../sparc-gaisler-elf/bsp/leon2/leon/mfix-at697f\libbcc.a(reset_trap_mvt.S.o)
 .debug_aranges
                0x0000000000000710       0x20 c:/opt/bcc-2.0.2-gcc/bin/../sparc-gaisler-elf/bsp/leon2/leon/mfix-at697f\libbcc.a(window_trap.S.o)
 .debug_aranges
                0x0000000000000730       0x20 c:/opt/bcc-2.0.2-gcc/bin/../sparc-gaisler-elf/bsp/leon2/leon/mfix-at697f\libbcc.a(interrupt_trap.S.o)
 .debug_aranges
                0x0000000000000750       0x20 c:/opt/bcc-2.0.2-gcc/bin/../sparc-gaisler-elf/bsp/leon2/leon/mfix-at697f\libbcc.a(flush_windows_trap.S.o)
 .debug_aranges
                0x0000000000000770       0x20 c:/opt/bcc-2.0.2-gcc/bin/../sparc-gaisler-elf/bsp/leon2/leon/mfix-at697f\libbcc.a(sw_trap_set_pil.S.o)
 .debug_aranges
                0x0000000000000790       0x20 c:/opt/bcc-2.0.2-gcc/bin/../sparc-gaisler-elf/bsp/leon2/leon/mfix-at697f\libbcc.a(trap.c.o)
 .debug_aranges
                0x00000000000007b0       0x18 c:/opt/bcc-2.0.2-gcc/bin/../sparc-gaisler-elf/bsp/leon2/leon/mfix-at697f\libbcc.a(isr.c.o)
 .debug_aranges
                0x00000000000007c8       0x18 c:/opt/bcc-2.0.2-gcc/bin/../sparc-gaisler-elf/bsp/leon2/leon/mfix-at697f\libbcc.a(int_nest.c.o)
 .debug_aranges
                0x00000000000007e0       0x20 c:/opt/bcc-2.0.2-gcc/bin/../sparc-gaisler-elf/bsp/leon2/leon/mfix-at697f\libbcc.a(init.S.o)
 .debug_aranges
                0x0000000000000800       0x20 c:/opt/bcc-2.0.2-gcc/bin/../sparc-gaisler-elf/bsp/leon2/leon/mfix-at697f\libbcc.a(leon_info.S.o)
 .debug_aranges
                0x0000000000000820       0x20 c:/opt/bcc-2.0.2-gcc/bin/../sparc-gaisler-elf/bsp/leon2/leon/mfix-at697f\libbcc.a(dwzero.S.o)
 .debug_aranges
                0x0000000000000840       0x20 c:/opt/bcc-2.0.2-gcc/bin/../sparc-gaisler-elf/bsp/leon2/leon/mfix-at697f\libbcc.a(copy_data.c.o)
 .debug_aranges
                0x0000000000000860       0x20 c:/opt/bcc-2.0.2-gcc/bin/../sparc-gaisler-elf/bsp/leon2/leon/mfix-at697f\libbcc.a(lowlevel.S.o)
 .debug_aranges
                0x0000000000000880       0x20 c:/opt/bcc-2.0.2-gcc/bin/../sparc-gaisler-elf/bsp/leon2/leon/mfix-at697f\libbcc.a(lowlevel_leon2.S.o)
 .debug_aranges
                0x00000000000008a0       0x20 c:/opt/bcc-2.0.2-gcc/bin/../sparc-gaisler-elf/bsp/leon2/leon/mfix-at697f\libbcc.a(int_leon2.c.o)
 .debug_aranges
                0x00000000000008c0       0x20 c:/opt/bcc-2.0.2-gcc/bin/../sparc-gaisler-elf/bsp/leon2/leon/mfix-at697f\libbcc.a(int_leon2_get_source.c.o)
 .debug_aranges
                0x00000000000008e0       0x20 c:/opt/bcc-2.0.2-gcc/bin/../sparc-gaisler-elf/bsp/leon2/leon/mfix-at697f\libbcc.a(int_leon2_init.c.o)
 .debug_aranges
                0x0000000000000900       0x20 c:/opt/bcc-2.0.2-gcc/bin/../sparc-gaisler-elf/bsp/leon2/leon/mfix-at697f\libbcc.a(con_leon2.c.o)
 .debug_aranges
                0x0000000000000920       0x20 c:/opt/bcc-2.0.2-gcc/bin/../sparc-gaisler-elf/bsp/leon2/leon/mfix-at697f\libbcc.a(timer_leon2.c.o)
 .debug_aranges
                0x0000000000000940       0x20 c:/opt/bcc-2.0.2-gcc/bin/../sparc-gaisler-elf/bsp/leon2/leon/mfix-at697f\libbcc.a(set_pil.S.o)
 .debug_aranges
                0x0000000000000960       0x18 c:/opt/bcc-2.0.2-gcc/bin/../sparc-gaisler-elf/bsp/leon2/leon/mfix-at697f\libbcc.a(int_leon2_handle.c.o)
 .debug_aranges
                0x0000000000000978       0x18 c:/opt/bcc-2.0.2-gcc/bin/../sparc-gaisler-elf/bsp/leon2/leon/mfix-at697f\libbcc.a(con_handle.c.o)
 .debug_aranges
                0x0000000000000990       0x18 c:/opt/bcc-2.0.2-gcc/bin/../sparc-gaisler-elf/bsp/leon2/leon/mfix-at697f\libbcc.a(timer_handle.c.o)
 .debug_aranges
                0x00000000000009a8       0x20 c:/opt/bcc-2.0.2-gcc/bin/../lib/gcc/sparc-gaisler-elf/7.2.0/../../../../sparc-gaisler-elf/lib/leon/mfix-at697f\libc.a(lib_a-atexit.o)
 .debug_aranges
                0x00000000000009c8       0x20 c:/opt/bcc-2.0.2-gcc/bin/../lib/gcc/sparc-gaisler-elf/7.2.0/../../../../sparc-gaisler-elf/lib/leon/mfix-at697f\libc.a(lib_a-errno.o)
 .debug_aranges
                0x00000000000009e8       0x20 c:/opt/bcc-2.0.2-gcc/bin/../lib/gcc/sparc-gaisler-elf/7.2.0/../../../../sparc-gaisler-elf/lib/leon/mfix-at697f\libc.a(lib_a-exit.o)
 .debug_aranges
                0x0000000000000a08       0x18 c:/opt/bcc-2.0.2-gcc/bin/../lib/gcc/sparc-gaisler-elf/7.2.0/../../../../sparc-gaisler-elf/lib/leon/mfix-at697f\libc.a(lib_a-impure.o)
 .debug_aranges
                0x0000000000000a20       0x20 c:/opt/bcc-2.0.2-gcc/bin/../lib/gcc/sparc-gaisler-elf/7.2.0/../../../../sparc-gaisler-elf/lib/leon/mfix-at697f\libc.a(lib_a-memcpy.o)
 .debug_aranges
                0x0000000000000a40       0x20 c:/opt/bcc-2.0.2-gcc/bin/../lib/gcc/sparc-gaisler-elf/7.2.0/../../../../sparc-gaisler-elf/lib/leon/mfix-at697f\libc.a(lib_a-__atexit.o)
 .debug_aranges
                0x0000000000000a60       0x20 c:/opt/bcc-2.0.2-gcc/bin/../lib/gcc/sparc-gaisler-elf/7.2.0/../../../../sparc-gaisler-elf/lib/leon/mfix-at697f\libc.a(lib_a-__call_atexit.o)
 .debug_aranges
                0x0000000000000a80       0x20 c:/opt/bcc-2.0.2-gcc/bin/../sparc-gaisler-elf/bsp/leon2/leon/mfix-at697f\libbcc.a(_exit.S.o)

.debug_pubnames
 *(.debug_pubnames)

.debug_info     0x0000000000000000    0xe16fe
 *(.debug_info)
 .debug_info    0x0000000000000000       0xd0 c:/opt/bcc-2.0.2-gcc/bin/../sparc-gaisler-elf/bsp/leon2/leon/mfix-at697f/trap_table_mvt.S.o
 .debug_info    0x00000000000000d0       0xc1 c:/opt/bcc-2.0.2-gcc/bin/../sparc-gaisler-elf/bsp/leon2/leon/mfix-at697f/crt0.S.o
 .debug_info    0x0000000000000191     0xa2ec C:\Users\Bhagawat\AppData\Local\Temp\ccmG331P.o
 .debug_info    0x000000000000a47d     0x68a2 C:\Users\Bhagawat\AppData\Local\Temp\ccFLNK2X.o
 .debug_info    0x0000000000010d1f     0xb8b2 C:\Users\Bhagawat\AppData\Local\Temp\ccF3JHAe.o
 .debug_info    0x000000000001c5d1     0xc8c1 C:\Users\Bhagawat\AppData\Local\Temp\ccSFvBJa.o
 .debug_info    0x0000000000028e92       0x6f C:\Users\Bhagawat\AppData\Local\Temp\ccLxi9Ri.o
 .debug_info    0x0000000000028f01     0x77b8 C:\Users\Bhagawat\AppData\Local\Temp\cc0Th2ok.o
 .debug_info    0x00000000000306b9     0x6d3c C:\Users\Bhagawat\AppData\Local\Temp\ccbuJliF.o
 .debug_info    0x00000000000373f5     0x659d C:\Users\Bhagawat\AppData\Local\Temp\ccA5VOh9.o
 .debug_info    0x000000000003d992     0x4250 C:\Users\Bhagawat\AppData\Local\Temp\cclg7QQI.o
 .debug_info    0x0000000000041be2     0x3daf C:\Users\Bhagawat\AppData\Local\Temp\cc4J82Fr.o
 .debug_info    0x0000000000045991     0x77d1 C:\Users\Bhagawat\AppData\Local\Temp\ccP2pYow.o
 .debug_info    0x000000000004d162     0x724e C:\Users\Bhagawat\AppData\Local\Temp\cc5opyBQ.o
 .debug_info    0x00000000000543b0     0x6dbd C:\Users\Bhagawat\AppData\Local\Temp\ccjU9hyn.o
 .debug_info    0x000000000005b16d     0x76d1 C:\Users\Bhagawat\AppData\Local\Temp\ccBLkweo.o
 .debug_info    0x000000000006283e     0x58d3 C:\Users\Bhagawat\AppData\Local\Temp\ccsgz4so.o
 .debug_info    0x0000000000068111     0xb13d C:\Users\Bhagawat\AppData\Local\Temp\ccAFUHm4.o
 .debug_info    0x000000000007324e     0xa8d2 C:\Users\Bhagawat\AppData\Local\Temp\ccRqxX1h.o
 .debug_info    0x000000000007db20     0x1033 C:\Users\Bhagawat\AppData\Local\Temp\ccyPto1B.o
 .debug_info    0x000000000007eb53     0xa0c2 C:\Users\Bhagawat\AppData\Local\Temp\ccZvvD0p.o
 .debug_info    0x0000000000088c15     0xb13f C:\Users\Bhagawat\AppData\Local\Temp\cciSMCHz.o
 .debug_info    0x0000000000093d54     0x8430 C:\Users\Bhagawat\AppData\Local\Temp\ccYmJqpt.o
 .debug_info    0x000000000009c184     0xb42e C:\Users\Bhagawat\AppData\Local\Temp\cc5ogaUY.o
 .debug_info    0x00000000000a75b2     0x7c8c C:\Users\Bhagawat\AppData\Local\Temp\ccCmOWXC.o
 .debug_info    0x00000000000af23e     0xb675 C:\Users\Bhagawat\AppData\Local\Temp\ccQjljxZ.o
 .debug_info    0x00000000000ba8b3     0x5026 C:\Users\Bhagawat\AppData\Local\Temp\ccgDYObG.o
 .debug_info    0x00000000000bf8d9     0x81cd C:\Users\Bhagawat\AppData\Local\Temp\ccyKrZ4y.o
 .debug_info    0x00000000000c7aa6      0xb79 c:/opt/bcc-2.0.2-gcc/bin/../lib/gcc/sparc-gaisler-elf/7.2.0/../../../../sparc-gaisler-elf/lib/leon/mfix-at697f\libm.a(lib_a-s_atan.o)
 .debug_info    0x00000000000c861f      0xa78 c:/opt/bcc-2.0.2-gcc/bin/../lib/gcc/sparc-gaisler-elf/7.2.0/../../../../sparc-gaisler-elf/lib/leon/mfix-at697f\libm.a(lib_a-s_cos.o)
 .debug_info    0x00000000000c9097      0xa44 c:/opt/bcc-2.0.2-gcc/bin/../lib/gcc/sparc-gaisler-elf/7.2.0/../../../../sparc-gaisler-elf/lib/leon/mfix-at697f\libm.a(lib_a-s_fabs.o)
 .debug_info    0x00000000000c9adb      0xaa1 c:/opt/bcc-2.0.2-gcc/bin/../lib/gcc/sparc-gaisler-elf/7.2.0/../../../../sparc-gaisler-elf/lib/leon/mfix-at697f\libm.a(lib_a-s_floor.o)
 .debug_info    0x00000000000ca57c      0xa78 c:/opt/bcc-2.0.2-gcc/bin/../lib/gcc/sparc-gaisler-elf/7.2.0/../../../../sparc-gaisler-elf/lib/leon/mfix-at697f\libm.a(lib_a-s_sin.o)
 .debug_info    0x00000000000caff4      0xa78 c:/opt/bcc-2.0.2-gcc/bin/../lib/gcc/sparc-gaisler-elf/7.2.0/../../../../sparc-gaisler-elf/lib/leon/mfix-at697f\libm.a(lib_a-s_tan.o)
 .debug_info    0x00000000000cba6c      0xa60 c:/opt/bcc-2.0.2-gcc/bin/../lib/gcc/sparc-gaisler-elf/7.2.0/../../../../sparc-gaisler-elf/lib/leon/mfix-at697f\libm.a(lib_a-w_acos.o)
 .debug_info    0x00000000000cc4cc      0x9ef c:/opt/bcc-2.0.2-gcc/bin/../lib/gcc/sparc-gaisler-elf/7.2.0/../../../../sparc-gaisler-elf/lib/leon/mfix-at697f\libm.a(lib_a-w_atan2.o)
 .debug_info    0x00000000000ccebb      0xa6d c:/opt/bcc-2.0.2-gcc/bin/../lib/gcc/sparc-gaisler-elf/7.2.0/../../../../sparc-gaisler-elf/lib/leon/mfix-at697f\libm.a(lib_a-w_fmod.o)
 .debug_info    0x00000000000cd928      0xa6d c:/opt/bcc-2.0.2-gcc/bin/../lib/gcc/sparc-gaisler-elf/7.2.0/../../../../sparc-gaisler-elf/lib/leon/mfix-at697f\libm.a(lib_a-w_pow.o)
 .debug_info    0x00000000000ce395      0xa60 c:/opt/bcc-2.0.2-gcc/bin/../lib/gcc/sparc-gaisler-elf/7.2.0/../../../../sparc-gaisler-elf/lib/leon/mfix-at697f\libm.a(lib_a-w_sqrt.o)
 .debug_info    0x00000000000cedf5      0xbfe c:/opt/bcc-2.0.2-gcc/bin/../lib/gcc/sparc-gaisler-elf/7.2.0/../../../../sparc-gaisler-elf/lib/leon/mfix-at697f\libm.a(lib_a-e_acos.o)
 .debug_info    0x00000000000cf9f3      0xb76 c:/opt/bcc-2.0.2-gcc/bin/../lib/gcc/sparc-gaisler-elf/7.2.0/../../../../sparc-gaisler-elf/lib/leon/mfix-at697f\libm.a(lib_a-e_atan2.o)
 .debug_info    0x00000000000d0569      0xb62 c:/opt/bcc-2.0.2-gcc/bin/../lib/gcc/sparc-gaisler-elf/7.2.0/../../../../sparc-gaisler-elf/lib/leon/mfix-at697f\libm.a(lib_a-e_fmod.o)
 .debug_info    0x00000000000d10cb      0xfb9 c:/opt/bcc-2.0.2-gcc/bin/../lib/gcc/sparc-gaisler-elf/7.2.0/../../../../sparc-gaisler-elf/lib/leon/mfix-at697f\libm.a(lib_a-e_pow.o)
 .debug_info    0x00000000000d2084      0xc9d c:/opt/bcc-2.0.2-gcc/bin/../lib/gcc/sparc-gaisler-elf/7.2.0/../../../../sparc-gaisler-elf/lib/leon/mfix-at697f\libm.a(lib_a-e_rem_pio2.o)
 .debug_info    0x00000000000d2d21      0xb2d c:/opt/bcc-2.0.2-gcc/bin/../lib/gcc/sparc-gaisler-elf/7.2.0/../../../../sparc-gaisler-elf/lib/leon/mfix-at697f\libm.a(lib_a-e_sqrt.o)
 .debug_info    0x00000000000d384e      0xb37 c:/opt/bcc-2.0.2-gcc/bin/../lib/gcc/sparc-gaisler-elf/7.2.0/../../../../sparc-gaisler-elf/lib/leon/mfix-at697f\libm.a(lib_a-k_cos.o)
 .debug_info    0x00000000000d4385      0xbd5 c:/opt/bcc-2.0.2-gcc/bin/../lib/gcc/sparc-gaisler-elf/7.2.0/../../../../sparc-gaisler-elf/lib/leon/mfix-at697f\libm.a(lib_a-k_rem_pio2.o)
 .debug_info    0x00000000000d4f5a      0xb0a c:/opt/bcc-2.0.2-gcc/bin/../lib/gcc/sparc-gaisler-elf/7.2.0/../../../../sparc-gaisler-elf/lib/leon/mfix-at697f\libm.a(lib_a-k_sin.o)
 .debug_info    0x00000000000d5a64      0xbeb c:/opt/bcc-2.0.2-gcc/bin/../lib/gcc/sparc-gaisler-elf/7.2.0/../../../../sparc-gaisler-elf/lib/leon/mfix-at697f\libm.a(lib_a-k_tan.o)
 .debug_info    0x00000000000d664f      0xa30 c:/opt/bcc-2.0.2-gcc/bin/../lib/gcc/sparc-gaisler-elf/7.2.0/../../../../sparc-gaisler-elf/lib/leon/mfix-at697f\libm.a(lib_a-s_finite.o)
 .debug_info    0x00000000000d707f      0x98c c:/opt/bcc-2.0.2-gcc/bin/../lib/gcc/sparc-gaisler-elf/7.2.0/../../../../sparc-gaisler-elf/lib/leon/mfix-at697f\libm.a(lib_a-s_lib_ver.o)
 .debug_info    0x00000000000d7a0b      0xa2a c:/opt/bcc-2.0.2-gcc/bin/../lib/gcc/sparc-gaisler-elf/7.2.0/../../../../sparc-gaisler-elf/lib/leon/mfix-at697f\libm.a(lib_a-s_matherr.o)
 .debug_info    0x00000000000d8435      0x9c0 c:/opt/bcc-2.0.2-gcc/bin/../lib/gcc/sparc-gaisler-elf/7.2.0/../../../../sparc-gaisler-elf/lib/leon/mfix-at697f\libm.a(lib_a-s_nan.o)
 .debug_info    0x00000000000d8df5      0xb1e c:/opt/bcc-2.0.2-gcc/bin/../lib/gcc/sparc-gaisler-elf/7.2.0/../../../../sparc-gaisler-elf/lib/leon/mfix-at697f\libm.a(lib_a-s_rint.o)
 .debug_info    0x00000000000d9913      0xb0a c:/opt/bcc-2.0.2-gcc/bin/../lib/gcc/sparc-gaisler-elf/7.2.0/../../../../sparc-gaisler-elf/lib/leon/mfix-at697f\libm.a(lib_a-s_scalbn.o)
 .debug_info    0x00000000000da41d      0xa6c c:/opt/bcc-2.0.2-gcc/bin/../lib/gcc/sparc-gaisler-elf/7.2.0/../../../../sparc-gaisler-elf/lib/leon/mfix-at697f\libm.a(lib_a-s_copysign.o)
 .debug_info    0x00000000000dae89       0xd0 c:/opt/bcc-2.0.2-gcc/bin/../sparc-gaisler-elf/bsp/leon2/leon/mfix-at697f\libbcc.a(reset_trap_mvt.S.o)
 .debug_info    0x00000000000daf59       0xcd c:/opt/bcc-2.0.2-gcc/bin/../sparc-gaisler-elf/bsp/leon2/leon/mfix-at697f\libbcc.a(window_trap.S.o)
 .debug_info    0x00000000000db026       0xd0 c:/opt/bcc-2.0.2-gcc/bin/../sparc-gaisler-elf/bsp/leon2/leon/mfix-at697f\libbcc.a(interrupt_trap.S.o)
 .debug_info    0x00000000000db0f6       0xd4 c:/opt/bcc-2.0.2-gcc/bin/../sparc-gaisler-elf/bsp/leon2/leon/mfix-at697f\libbcc.a(flush_windows_trap.S.o)
 .debug_info    0x00000000000db1ca       0xd1 c:/opt/bcc-2.0.2-gcc/bin/../sparc-gaisler-elf/bsp/leon2/leon/mfix-at697f\libbcc.a(sw_trap_set_pil.S.o)
 .debug_info    0x00000000000db29b      0x2d1 c:/opt/bcc-2.0.2-gcc/bin/../sparc-gaisler-elf/bsp/leon2/leon/mfix-at697f\libbcc.a(trap.c.o)
 .debug_info    0x00000000000db56c      0x9e6 c:/opt/bcc-2.0.2-gcc/bin/../sparc-gaisler-elf/bsp/leon2/leon/mfix-at697f\libbcc.a(isr.c.o)
 .debug_info    0x00000000000dbf52       0xc5 c:/opt/bcc-2.0.2-gcc/bin/../sparc-gaisler-elf/bsp/leon2/leon/mfix-at697f\libbcc.a(int_nest.c.o)
 .debug_info    0x00000000000dc017       0xc1 c:/opt/bcc-2.0.2-gcc/bin/../sparc-gaisler-elf/bsp/leon2/leon/mfix-at697f\libbcc.a(init.S.o)
 .debug_info    0x00000000000dc0d8       0xc6 c:/opt/bcc-2.0.2-gcc/bin/../sparc-gaisler-elf/bsp/leon2/leon/mfix-at697f\libbcc.a(leon_info.S.o)
 .debug_info    0x00000000000dc19e       0xc3 c:/opt/bcc-2.0.2-gcc/bin/../sparc-gaisler-elf/bsp/leon2/leon/mfix-at697f\libbcc.a(dwzero.S.o)
 .debug_info    0x00000000000dc261       0xe9 c:/opt/bcc-2.0.2-gcc/bin/../sparc-gaisler-elf/bsp/leon2/leon/mfix-at697f\libbcc.a(copy_data.c.o)
 .debug_info    0x00000000000dc34a       0xc5 c:/opt/bcc-2.0.2-gcc/bin/../sparc-gaisler-elf/bsp/leon2/leon/mfix-at697f\libbcc.a(lowlevel.S.o)
 .debug_info    0x00000000000dc40f       0xcb c:/opt/bcc-2.0.2-gcc/bin/../sparc-gaisler-elf/bsp/leon2/leon/mfix-at697f\libbcc.a(lowlevel_leon2.S.o)
 .debug_info    0x00000000000dc4da      0x366 c:/opt/bcc-2.0.2-gcc/bin/../sparc-gaisler-elf/bsp/leon2/leon/mfix-at697f\libbcc.a(int_leon2.c.o)
 .debug_info    0x00000000000dc840       0x57 c:/opt/bcc-2.0.2-gcc/bin/../sparc-gaisler-elf/bsp/leon2/leon/mfix-at697f\libbcc.a(int_leon2_get_source.c.o)
 .debug_info    0x00000000000dc897      0x139 c:/opt/bcc-2.0.2-gcc/bin/../sparc-gaisler-elf/bsp/leon2/leon/mfix-at697f\libbcc.a(int_leon2_init.c.o)
 .debug_info    0x00000000000dc9d0      0x1fb c:/opt/bcc-2.0.2-gcc/bin/../sparc-gaisler-elf/bsp/leon2/leon/mfix-at697f\libbcc.a(con_leon2.c.o)
 .debug_info    0x00000000000dcbcb      0x216 c:/opt/bcc-2.0.2-gcc/bin/../sparc-gaisler-elf/bsp/leon2/leon/mfix-at697f\libbcc.a(timer_leon2.c.o)
 .debug_info    0x00000000000dcde1       0xc4 c:/opt/bcc-2.0.2-gcc/bin/../sparc-gaisler-elf/bsp/leon2/leon/mfix-at697f\libbcc.a(set_pil.S.o)
 .debug_info    0x00000000000dcea5      0x10b c:/opt/bcc-2.0.2-gcc/bin/../sparc-gaisler-elf/bsp/leon2/leon/mfix-at697f\libbcc.a(int_leon2_handle.c.o)
 .debug_info    0x00000000000dcfb0      0x10b c:/opt/bcc-2.0.2-gcc/bin/../sparc-gaisler-elf/bsp/leon2/leon/mfix-at697f\libbcc.a(con_handle.c.o)
 .debug_info    0x00000000000dd0bb      0x118 c:/opt/bcc-2.0.2-gcc/bin/../sparc-gaisler-elf/bsp/leon2/leon/mfix-at697f\libbcc.a(timer_handle.c.o)
 .debug_info    0x00000000000dd1d3      0x998 c:/opt/bcc-2.0.2-gcc/bin/../lib/gcc/sparc-gaisler-elf/7.2.0/../../../../sparc-gaisler-elf/lib/leon/mfix-at697f\libc.a(lib_a-atexit.o)
 .debug_info    0x00000000000ddb6b      0x992 c:/opt/bcc-2.0.2-gcc/bin/../lib/gcc/sparc-gaisler-elf/7.2.0/../../../../sparc-gaisler-elf/lib/leon/mfix-at697f\libc.a(lib_a-errno.o)
 .debug_info    0x00000000000de4fd      0x9cb c:/opt/bcc-2.0.2-gcc/bin/../lib/gcc/sparc-gaisler-elf/7.2.0/../../../../sparc-gaisler-elf/lib/leon/mfix-at697f\libc.a(lib_a-exit.o)
 .debug_info    0x00000000000deec8      0x964 c:/opt/bcc-2.0.2-gcc/bin/../lib/gcc/sparc-gaisler-elf/7.2.0/../../../../sparc-gaisler-elf/lib/leon/mfix-at697f\libc.a(lib_a-impure.o)
 .debug_info    0x00000000000df82c      0x9ef c:/opt/bcc-2.0.2-gcc/bin/../lib/gcc/sparc-gaisler-elf/7.2.0/../../../../sparc-gaisler-elf/lib/leon/mfix-at697f\libc.a(lib_a-memcpy.o)
 .debug_info    0x00000000000e021b      0xa0d c:/opt/bcc-2.0.2-gcc/bin/../lib/gcc/sparc-gaisler-elf/7.2.0/../../../../sparc-gaisler-elf/lib/leon/mfix-at697f\libc.a(lib_a-__atexit.o)
 .debug_info    0x00000000000e0c28      0xa14 c:/opt/bcc-2.0.2-gcc/bin/../lib/gcc/sparc-gaisler-elf/7.2.0/../../../../sparc-gaisler-elf/lib/leon/mfix-at697f\libc.a(lib_a-__call_atexit.o)
 .debug_info    0x00000000000e163c       0xc2 c:/opt/bcc-2.0.2-gcc/bin/../sparc-gaisler-elf/bsp/leon2/leon/mfix-at697f\libbcc.a(_exit.S.o)

.debug_abbrev   0x0000000000000000     0x9459
 *(.debug_abbrev)
 .debug_abbrev  0x0000000000000000       0x14 c:/opt/bcc-2.0.2-gcc/bin/../sparc-gaisler-elf/bsp/leon2/leon/mfix-at697f/trap_table_mvt.S.o
 .debug_abbrev  0x0000000000000014       0x14 c:/opt/bcc-2.0.2-gcc/bin/../sparc-gaisler-elf/bsp/leon2/leon/mfix-at697f/crt0.S.o
 .debug_abbrev  0x0000000000000028      0x34e C:\Users\Bhagawat\AppData\Local\Temp\ccmG331P.o
 .debug_abbrev  0x0000000000000376      0x337 C:\Users\Bhagawat\AppData\Local\Temp\ccFLNK2X.o
 .debug_abbrev  0x00000000000006ad      0x446 C:\Users\Bhagawat\AppData\Local\Temp\ccF3JHAe.o
 .debug_abbrev  0x0000000000000af3      0x491 C:\Users\Bhagawat\AppData\Local\Temp\ccSFvBJa.o
 .debug_abbrev  0x0000000000000f84       0x14 C:\Users\Bhagawat\AppData\Local\Temp\ccLxi9Ri.o
 .debug_abbrev  0x0000000000000f98      0x2bc C:\Users\Bhagawat\AppData\Local\Temp\cc0Th2ok.o
 .debug_abbrev  0x0000000000001254      0x318 C:\Users\Bhagawat\AppData\Local\Temp\ccbuJliF.o
 .debug_abbrev  0x000000000000156c      0x29a C:\Users\Bhagawat\AppData\Local\Temp\ccA5VOh9.o
 .debug_abbrev  0x0000000000001806      0x28d C:\Users\Bhagawat\AppData\Local\Temp\cclg7QQI.o
 .debug_abbrev  0x0000000000001a93      0x2bc C:\Users\Bhagawat\AppData\Local\Temp\cc4J82Fr.o
 .debug_abbrev  0x0000000000001d4f      0x30d C:\Users\Bhagawat\AppData\Local\Temp\ccP2pYow.o
 .debug_abbrev  0x000000000000205c      0x323 C:\Users\Bhagawat\AppData\Local\Temp\cc5opyBQ.o
 .debug_abbrev  0x000000000000237f      0x2dd C:\Users\Bhagawat\AppData\Local\Temp\ccjU9hyn.o
 .debug_abbrev  0x000000000000265c      0x3d0 C:\Users\Bhagawat\AppData\Local\Temp\ccBLkweo.o
 .debug_abbrev  0x0000000000002a2c      0x2c2 C:\Users\Bhagawat\AppData\Local\Temp\ccsgz4so.o
 .debug_abbrev  0x0000000000002cee      0x376 C:\Users\Bhagawat\AppData\Local\Temp\ccAFUHm4.o
 .debug_abbrev  0x0000000000003064      0x2b9 C:\Users\Bhagawat\AppData\Local\Temp\ccRqxX1h.o
 .debug_abbrev  0x000000000000331d       0xda C:\Users\Bhagawat\AppData\Local\Temp\ccyPto1B.o
 .debug_abbrev  0x00000000000033f7      0x323 C:\Users\Bhagawat\AppData\Local\Temp\ccZvvD0p.o
 .debug_abbrev  0x000000000000371a      0x303 C:\Users\Bhagawat\AppData\Local\Temp\cciSMCHz.o
 .debug_abbrev  0x0000000000003a1d      0x299 C:\Users\Bhagawat\AppData\Local\Temp\ccYmJqpt.o
 .debug_abbrev  0x0000000000003cb6      0x394 C:\Users\Bhagawat\AppData\Local\Temp\cc5ogaUY.o
 .debug_abbrev  0x000000000000404a      0x13f C:\Users\Bhagawat\AppData\Local\Temp\ccCmOWXC.o
 .debug_abbrev  0x0000000000004189      0x3b4 C:\Users\Bhagawat\AppData\Local\Temp\ccQjljxZ.o
 .debug_abbrev  0x000000000000453d      0x286 C:\Users\Bhagawat\AppData\Local\Temp\ccgDYObG.o
 .debug_abbrev  0x00000000000047c3      0x309 C:\Users\Bhagawat\AppData\Local\Temp\ccyKrZ4y.o
 .debug_abbrev  0x0000000000004acc      0x216 c:/opt/bcc-2.0.2-gcc/bin/../lib/gcc/sparc-gaisler-elf/7.2.0/../../../../sparc-gaisler-elf/lib/leon/mfix-at697f\libm.a(lib_a-s_atan.o)
 .debug_abbrev  0x0000000000004ce2      0x1f3 c:/opt/bcc-2.0.2-gcc/bin/../lib/gcc/sparc-gaisler-elf/7.2.0/../../../../sparc-gaisler-elf/lib/leon/mfix-at697f\libm.a(lib_a-s_cos.o)
 .debug_abbrev  0x0000000000004ed5      0x1d3 c:/opt/bcc-2.0.2-gcc/bin/../lib/gcc/sparc-gaisler-elf/7.2.0/../../../../sparc-gaisler-elf/lib/leon/mfix-at697f\libm.a(lib_a-s_fabs.o)
 .debug_abbrev  0x00000000000050a8      0x1f1 c:/opt/bcc-2.0.2-gcc/bin/../lib/gcc/sparc-gaisler-elf/7.2.0/../../../../sparc-gaisler-elf/lib/leon/mfix-at697f\libm.a(lib_a-s_floor.o)
 .debug_abbrev  0x0000000000005299      0x1f3 c:/opt/bcc-2.0.2-gcc/bin/../lib/gcc/sparc-gaisler-elf/7.2.0/../../../../sparc-gaisler-elf/lib/leon/mfix-at697f\libm.a(lib_a-s_sin.o)
 .debug_abbrev  0x000000000000548c      0x1f3 c:/opt/bcc-2.0.2-gcc/bin/../lib/gcc/sparc-gaisler-elf/7.2.0/../../../../sparc-gaisler-elf/lib/leon/mfix-at697f\libm.a(lib_a-s_tan.o)
 .debug_abbrev  0x000000000000567f      0x1b4 c:/opt/bcc-2.0.2-gcc/bin/../lib/gcc/sparc-gaisler-elf/7.2.0/../../../../sparc-gaisler-elf/lib/leon/mfix-at697f\libm.a(lib_a-w_acos.o)
 .debug_abbrev  0x0000000000005833      0x196 c:/opt/bcc-2.0.2-gcc/bin/../lib/gcc/sparc-gaisler-elf/7.2.0/../../../../sparc-gaisler-elf/lib/leon/mfix-at697f\libm.a(lib_a-w_atan2.o)
 .debug_abbrev  0x00000000000059c9      0x1b4 c:/opt/bcc-2.0.2-gcc/bin/../lib/gcc/sparc-gaisler-elf/7.2.0/../../../../sparc-gaisler-elf/lib/leon/mfix-at697f\libm.a(lib_a-w_fmod.o)
 .debug_abbrev  0x0000000000005b7d      0x1b4 c:/opt/bcc-2.0.2-gcc/bin/../lib/gcc/sparc-gaisler-elf/7.2.0/../../../../sparc-gaisler-elf/lib/leon/mfix-at697f\libm.a(lib_a-w_pow.o)
 .debug_abbrev  0x0000000000005d31      0x1b4 c:/opt/bcc-2.0.2-gcc/bin/../lib/gcc/sparc-gaisler-elf/7.2.0/../../../../sparc-gaisler-elf/lib/leon/mfix-at697f\libm.a(lib_a-w_sqrt.o)
 .debug_abbrev  0x0000000000005ee5      0x207 c:/opt/bcc-2.0.2-gcc/bin/../lib/gcc/sparc-gaisler-elf/7.2.0/../../../../sparc-gaisler-elf/lib/leon/mfix-at697f\libm.a(lib_a-e_acos.o)
 .debug_abbrev  0x00000000000060ec      0x227 c:/opt/bcc-2.0.2-gcc/bin/../lib/gcc/sparc-gaisler-elf/7.2.0/../../../../sparc-gaisler-elf/lib/leon/mfix-at697f\libm.a(lib_a-e_atan2.o)
 .debug_abbrev  0x0000000000006313      0x211 c:/opt/bcc-2.0.2-gcc/bin/../lib/gcc/sparc-gaisler-elf/7.2.0/../../../../sparc-gaisler-elf/lib/leon/mfix-at697f\libm.a(lib_a-e_fmod.o)
 .debug_abbrev  0x0000000000006524      0x234 c:/opt/bcc-2.0.2-gcc/bin/../lib/gcc/sparc-gaisler-elf/7.2.0/../../../../sparc-gaisler-elf/lib/leon/mfix-at697f\libm.a(lib_a-e_pow.o)
 .debug_abbrev  0x0000000000006758      0x235 c:/opt/bcc-2.0.2-gcc/bin/../lib/gcc/sparc-gaisler-elf/7.2.0/../../../../sparc-gaisler-elf/lib/leon/mfix-at697f\libm.a(lib_a-e_rem_pio2.o)
 .debug_abbrev  0x000000000000698d      0x213 c:/opt/bcc-2.0.2-gcc/bin/../lib/gcc/sparc-gaisler-elf/7.2.0/../../../../sparc-gaisler-elf/lib/leon/mfix-at697f\libm.a(lib_a-e_sqrt.o)
 .debug_abbrev  0x0000000000006ba0      0x202 c:/opt/bcc-2.0.2-gcc/bin/../lib/gcc/sparc-gaisler-elf/7.2.0/../../../../sparc-gaisler-elf/lib/leon/mfix-at697f\libm.a(lib_a-k_cos.o)
 .debug_abbrev  0x0000000000006da2      0x1fd c:/opt/bcc-2.0.2-gcc/bin/../lib/gcc/sparc-gaisler-elf/7.2.0/../../../../sparc-gaisler-elf/lib/leon/mfix-at697f\libm.a(lib_a-k_rem_pio2.o)
 .debug_abbrev  0x0000000000006f9f      0x1f7 c:/opt/bcc-2.0.2-gcc/bin/../lib/gcc/sparc-gaisler-elf/7.2.0/../../../../sparc-gaisler-elf/lib/leon/mfix-at697f\libm.a(lib_a-k_sin.o)
 .debug_abbrev  0x0000000000007196      0x207 c:/opt/bcc-2.0.2-gcc/bin/../lib/gcc/sparc-gaisler-elf/7.2.0/../../../../sparc-gaisler-elf/lib/leon/mfix-at697f\libm.a(lib_a-k_tan.o)
 .debug_abbrev  0x000000000000739d      0x1c6 c:/opt/bcc-2.0.2-gcc/bin/../lib/gcc/sparc-gaisler-elf/7.2.0/../../../../sparc-gaisler-elf/lib/leon/mfix-at697f\libm.a(lib_a-s_finite.o)
 .debug_abbrev  0x0000000000007563      0x163 c:/opt/bcc-2.0.2-gcc/bin/../lib/gcc/sparc-gaisler-elf/7.2.0/../../../../sparc-gaisler-elf/lib/leon/mfix-at697f\libm.a(lib_a-s_lib_ver.o)
 .debug_abbrev  0x00000000000076c6      0x191 c:/opt/bcc-2.0.2-gcc/bin/../lib/gcc/sparc-gaisler-elf/7.2.0/../../../../sparc-gaisler-elf/lib/leon/mfix-at697f\libm.a(lib_a-s_matherr.o)
 .debug_abbrev  0x0000000000007857      0x18f c:/opt/bcc-2.0.2-gcc/bin/../lib/gcc/sparc-gaisler-elf/7.2.0/../../../../sparc-gaisler-elf/lib/leon/mfix-at697f\libm.a(lib_a-s_nan.o)
 .debug_abbrev  0x00000000000079e6      0x212 c:/opt/bcc-2.0.2-gcc/bin/../lib/gcc/sparc-gaisler-elf/7.2.0/../../../../sparc-gaisler-elf/lib/leon/mfix-at697f\libm.a(lib_a-s_rint.o)
 .debug_abbrev  0x0000000000007bf8      0x202 c:/opt/bcc-2.0.2-gcc/bin/../lib/gcc/sparc-gaisler-elf/7.2.0/../../../../sparc-gaisler-elf/lib/leon/mfix-at697f\libm.a(lib_a-s_scalbn.o)
 .debug_abbrev  0x0000000000007dfa      0x1e0 c:/opt/bcc-2.0.2-gcc/bin/../lib/gcc/sparc-gaisler-elf/7.2.0/../../../../sparc-gaisler-elf/lib/leon/mfix-at697f\libm.a(lib_a-s_copysign.o)
 .debug_abbrev  0x0000000000007fda       0x14 c:/opt/bcc-2.0.2-gcc/bin/../sparc-gaisler-elf/bsp/leon2/leon/mfix-at697f\libbcc.a(reset_trap_mvt.S.o)
 .debug_abbrev  0x0000000000007fee       0x14 c:/opt/bcc-2.0.2-gcc/bin/../sparc-gaisler-elf/bsp/leon2/leon/mfix-at697f\libbcc.a(window_trap.S.o)
 .debug_abbrev  0x0000000000008002       0x14 c:/opt/bcc-2.0.2-gcc/bin/../sparc-gaisler-elf/bsp/leon2/leon/mfix-at697f\libbcc.a(interrupt_trap.S.o)
 .debug_abbrev  0x0000000000008016       0x14 c:/opt/bcc-2.0.2-gcc/bin/../sparc-gaisler-elf/bsp/leon2/leon/mfix-at697f\libbcc.a(flush_windows_trap.S.o)
 .debug_abbrev  0x000000000000802a       0x14 c:/opt/bcc-2.0.2-gcc/bin/../sparc-gaisler-elf/bsp/leon2/leon/mfix-at697f\libbcc.a(sw_trap_set_pil.S.o)
 .debug_abbrev  0x000000000000803e      0x17e c:/opt/bcc-2.0.2-gcc/bin/../sparc-gaisler-elf/bsp/leon2/leon/mfix-at697f\libbcc.a(trap.c.o)
 .debug_abbrev  0x00000000000081bc      0x153 c:/opt/bcc-2.0.2-gcc/bin/../sparc-gaisler-elf/bsp/leon2/leon/mfix-at697f\libbcc.a(isr.c.o)
 .debug_abbrev  0x000000000000830f       0x79 c:/opt/bcc-2.0.2-gcc/bin/../sparc-gaisler-elf/bsp/leon2/leon/mfix-at697f\libbcc.a(int_nest.c.o)
 .debug_abbrev  0x0000000000008388       0x14 c:/opt/bcc-2.0.2-gcc/bin/../sparc-gaisler-elf/bsp/leon2/leon/mfix-at697f\libbcc.a(init.S.o)
 .debug_abbrev  0x000000000000839c       0x14 c:/opt/bcc-2.0.2-gcc/bin/../sparc-gaisler-elf/bsp/leon2/leon/mfix-at697f\libbcc.a(leon_info.S.o)
 .debug_abbrev  0x00000000000083b0       0x14 c:/opt/bcc-2.0.2-gcc/bin/../sparc-gaisler-elf/bsp/leon2/leon/mfix-at697f\libbcc.a(dwzero.S.o)
 .debug_abbrev  0x00000000000083c4       0x7c c:/opt/bcc-2.0.2-gcc/bin/../sparc-gaisler-elf/bsp/leon2/leon/mfix-at697f\libbcc.a(copy_data.c.o)
 .debug_abbrev  0x0000000000008440       0x14 c:/opt/bcc-2.0.2-gcc/bin/../sparc-gaisler-elf/bsp/leon2/leon/mfix-at697f\libbcc.a(lowlevel.S.o)
 .debug_abbrev  0x0000000000008454       0x14 c:/opt/bcc-2.0.2-gcc/bin/../sparc-gaisler-elf/bsp/leon2/leon/mfix-at697f\libbcc.a(lowlevel_leon2.S.o)
 .debug_abbrev  0x0000000000008468      0x162 c:/opt/bcc-2.0.2-gcc/bin/../sparc-gaisler-elf/bsp/leon2/leon/mfix-at697f\libbcc.a(int_leon2.c.o)
 .debug_abbrev  0x00000000000085ca       0x47 c:/opt/bcc-2.0.2-gcc/bin/../sparc-gaisler-elf/bsp/leon2/leon/mfix-at697f\libbcc.a(int_leon2_get_source.c.o)
 .debug_abbrev  0x0000000000008611       0x7e c:/opt/bcc-2.0.2-gcc/bin/../sparc-gaisler-elf/bsp/leon2/leon/mfix-at697f\libbcc.a(int_leon2_init.c.o)
 .debug_abbrev  0x000000000000868f       0xd8 c:/opt/bcc-2.0.2-gcc/bin/../sparc-gaisler-elf/bsp/leon2/leon/mfix-at697f\libbcc.a(con_leon2.c.o)
 .debug_abbrev  0x0000000000008767       0xec c:/opt/bcc-2.0.2-gcc/bin/../sparc-gaisler-elf/bsp/leon2/leon/mfix-at697f\libbcc.a(timer_leon2.c.o)
 .debug_abbrev  0x0000000000008853       0x14 c:/opt/bcc-2.0.2-gcc/bin/../sparc-gaisler-elf/bsp/leon2/leon/mfix-at697f\libbcc.a(set_pil.S.o)
 .debug_abbrev  0x0000000000008867       0x5a c:/opt/bcc-2.0.2-gcc/bin/../sparc-gaisler-elf/bsp/leon2/leon/mfix-at697f\libbcc.a(int_leon2_handle.c.o)
 .debug_abbrev  0x00000000000088c1       0x5a c:/opt/bcc-2.0.2-gcc/bin/../sparc-gaisler-elf/bsp/leon2/leon/mfix-at697f\libbcc.a(con_handle.c.o)
 .debug_abbrev  0x000000000000891b       0x5a c:/opt/bcc-2.0.2-gcc/bin/../sparc-gaisler-elf/bsp/leon2/leon/mfix-at697f\libbcc.a(timer_handle.c.o)
 .debug_abbrev  0x0000000000008975      0x188 c:/opt/bcc-2.0.2-gcc/bin/../lib/gcc/sparc-gaisler-elf/7.2.0/../../../../sparc-gaisler-elf/lib/leon/mfix-at697f\libc.a(lib_a-atexit.o)
 .debug_abbrev  0x0000000000008afd      0x166 c:/opt/bcc-2.0.2-gcc/bin/../lib/gcc/sparc-gaisler-elf/7.2.0/../../../../sparc-gaisler-elf/lib/leon/mfix-at697f\libc.a(lib_a-errno.o)
 .debug_abbrev  0x0000000000008c63      0x16e c:/opt/bcc-2.0.2-gcc/bin/../lib/gcc/sparc-gaisler-elf/7.2.0/../../../../sparc-gaisler-elf/lib/leon/mfix-at697f\libc.a(lib_a-exit.o)
 .debug_abbrev  0x0000000000008dd1      0x14d c:/opt/bcc-2.0.2-gcc/bin/../lib/gcc/sparc-gaisler-elf/7.2.0/../../../../sparc-gaisler-elf/lib/leon/mfix-at697f\libc.a(lib_a-impure.o)
 .debug_abbrev  0x0000000000008f1e      0x184 c:/opt/bcc-2.0.2-gcc/bin/../lib/gcc/sparc-gaisler-elf/7.2.0/../../../../sparc-gaisler-elf/lib/leon/mfix-at697f\libc.a(lib_a-memcpy.o)
 .debug_abbrev  0x00000000000090a2      0x1cd c:/opt/bcc-2.0.2-gcc/bin/../lib/gcc/sparc-gaisler-elf/7.2.0/../../../../sparc-gaisler-elf/lib/leon/mfix-at697f\libc.a(lib_a-__atexit.o)
 .debug_abbrev  0x000000000000926f      0x1d6 c:/opt/bcc-2.0.2-gcc/bin/../lib/gcc/sparc-gaisler-elf/7.2.0/../../../../sparc-gaisler-elf/lib/leon/mfix-at697f\libc.a(lib_a-__call_atexit.o)
 .debug_abbrev  0x0000000000009445       0x14 c:/opt/bcc-2.0.2-gcc/bin/../sparc-gaisler-elf/bsp/leon2/leon/mfix-at697f\libbcc.a(_exit.S.o)

.debug_line     0x0000000000000000    0x13914
 *(.debug_line)
 .debug_line    0x0000000000000000       0xda c:/opt/bcc-2.0.2-gcc/bin/../sparc-gaisler-elf/bsp/leon2/leon/mfix-at697f/trap_table_mvt.S.o
 .debug_line    0x00000000000000da       0x84 c:/opt/bcc-2.0.2-gcc/bin/../sparc-gaisler-elf/bsp/leon2/leon/mfix-at697f/crt0.S.o
 .debug_line    0x000000000000015e      0x3a5 C:\Users\Bhagawat\AppData\Local\Temp\ccmG331P.o
 .debug_line    0x0000000000000503      0x312 C:\Users\Bhagawat\AppData\Local\Temp\ccFLNK2X.o
 .debug_line    0x0000000000000815     0x47ac C:\Users\Bhagawat\AppData\Local\Temp\ccF3JHAe.o
 .debug_line    0x0000000000004fc1     0x11f3 C:\Users\Bhagawat\AppData\Local\Temp\ccSFvBJa.o
 .debug_line    0x00000000000061b4       0x47 C:\Users\Bhagawat\AppData\Local\Temp\ccLxi9Ri.o
 .debug_line    0x00000000000061fb      0x5ce C:\Users\Bhagawat\AppData\Local\Temp\cc0Th2ok.o
 .debug_line    0x00000000000067c9      0x2ce C:\Users\Bhagawat\AppData\Local\Temp\ccbuJliF.o
 .debug_line    0x0000000000006a97       0xfe C:\Users\Bhagawat\AppData\Local\Temp\ccA5VOh9.o
 .debug_line    0x0000000000006b95       0xde C:\Users\Bhagawat\AppData\Local\Temp\cclg7QQI.o
 .debug_line    0x0000000000006c73      0x17c C:\Users\Bhagawat\AppData\Local\Temp\cc4J82Fr.o
 .debug_line    0x0000000000006def      0x35e C:\Users\Bhagawat\AppData\Local\Temp\ccP2pYow.o
 .debug_line    0x000000000000714d      0x365 C:\Users\Bhagawat\AppData\Local\Temp\cc5opyBQ.o
 .debug_line    0x00000000000074b2      0x261 C:\Users\Bhagawat\AppData\Local\Temp\ccjU9hyn.o
 .debug_line    0x0000000000007713      0x416 C:\Users\Bhagawat\AppData\Local\Temp\ccBLkweo.o
 .debug_line    0x0000000000007b29      0x17b C:\Users\Bhagawat\AppData\Local\Temp\ccsgz4so.o
 .debug_line    0x0000000000007ca4     0x1161 C:\Users\Bhagawat\AppData\Local\Temp\ccAFUHm4.o
 .debug_line    0x0000000000008e05      0x8c3 C:\Users\Bhagawat\AppData\Local\Temp\ccRqxX1h.o
 .debug_line    0x00000000000096c8       0x5f C:\Users\Bhagawat\AppData\Local\Temp\ccyPto1B.o
 .debug_line    0x0000000000009727      0x65c C:\Users\Bhagawat\AppData\Local\Temp\ccZvvD0p.o
 .debug_line    0x0000000000009d83      0x46b C:\Users\Bhagawat\AppData\Local\Temp\cciSMCHz.o
 .debug_line    0x000000000000a1ee      0xd20 C:\Users\Bhagawat\AppData\Local\Temp\ccYmJqpt.o
 .debug_line    0x000000000000af0e      0xac3 C:\Users\Bhagawat\AppData\Local\Temp\cc5ogaUY.o
 .debug_line    0x000000000000b9d1      0x100 C:\Users\Bhagawat\AppData\Local\Temp\ccCmOWXC.o
 .debug_line    0x000000000000bad1      0xbeb C:\Users\Bhagawat\AppData\Local\Temp\ccQjljxZ.o
 .debug_line    0x000000000000c6bc      0x348 C:\Users\Bhagawat\AppData\Local\Temp\ccgDYObG.o
 .debug_line    0x000000000000ca04      0x31e C:\Users\Bhagawat\AppData\Local\Temp\ccyKrZ4y.o
 .debug_line    0x000000000000cd22      0x2b6 c:/opt/bcc-2.0.2-gcc/bin/../lib/gcc/sparc-gaisler-elf/7.2.0/../../../../sparc-gaisler-elf/lib/leon/mfix-at697f\libm.a(lib_a-s_atan.o)
 .debug_line    0x000000000000cfd8      0x273 c:/opt/bcc-2.0.2-gcc/bin/../lib/gcc/sparc-gaisler-elf/7.2.0/../../../../sparc-gaisler-elf/lib/leon/mfix-at697f\libm.a(lib_a-s_cos.o)
 .debug_line    0x000000000000d24b      0x260 c:/opt/bcc-2.0.2-gcc/bin/../lib/gcc/sparc-gaisler-elf/7.2.0/../../../../sparc-gaisler-elf/lib/leon/mfix-at697f\libm.a(lib_a-s_fabs.o)
 .debug_line    0x000000000000d4ab      0x295 c:/opt/bcc-2.0.2-gcc/bin/../lib/gcc/sparc-gaisler-elf/7.2.0/../../../../sparc-gaisler-elf/lib/leon/mfix-at697f\libm.a(lib_a-s_floor.o)
 .debug_line    0x000000000000d740      0x274 c:/opt/bcc-2.0.2-gcc/bin/../lib/gcc/sparc-gaisler-elf/7.2.0/../../../../sparc-gaisler-elf/lib/leon/mfix-at697f\libm.a(lib_a-s_sin.o)
 .debug_line    0x000000000000d9b4      0x26e c:/opt/bcc-2.0.2-gcc/bin/../lib/gcc/sparc-gaisler-elf/7.2.0/../../../../sparc-gaisler-elf/lib/leon/mfix-at697f\libm.a(lib_a-s_tan.o)
 .debug_line    0x000000000000dc22      0x1de c:/opt/bcc-2.0.2-gcc/bin/../lib/gcc/sparc-gaisler-elf/7.2.0/../../../../sparc-gaisler-elf/lib/leon/mfix-at697f\libm.a(lib_a-w_acos.o)
 .debug_line    0x000000000000de00      0x1c3 c:/opt/bcc-2.0.2-gcc/bin/../lib/gcc/sparc-gaisler-elf/7.2.0/../../../../sparc-gaisler-elf/lib/leon/mfix-at697f\libm.a(lib_a-w_atan2.o)
 .debug_line    0x000000000000dfc3      0x1df c:/opt/bcc-2.0.2-gcc/bin/../lib/gcc/sparc-gaisler-elf/7.2.0/../../../../sparc-gaisler-elf/lib/leon/mfix-at697f\libm.a(lib_a-w_fmod.o)
 .debug_line    0x000000000000e1a2      0x257 c:/opt/bcc-2.0.2-gcc/bin/../lib/gcc/sparc-gaisler-elf/7.2.0/../../../../sparc-gaisler-elf/lib/leon/mfix-at697f\libm.a(lib_a-w_pow.o)
 .debug_line    0x000000000000e3f9      0x1d8 c:/opt/bcc-2.0.2-gcc/bin/../lib/gcc/sparc-gaisler-elf/7.2.0/../../../../sparc-gaisler-elf/lib/leon/mfix-at697f\libm.a(lib_a-w_sqrt.o)
 .debug_line    0x000000000000e5d1      0x2c7 c:/opt/bcc-2.0.2-gcc/bin/../lib/gcc/sparc-gaisler-elf/7.2.0/../../../../sparc-gaisler-elf/lib/leon/mfix-at697f\libm.a(lib_a-e_acos.o)
 .debug_line    0x000000000000e898      0x2b1 c:/opt/bcc-2.0.2-gcc/bin/../lib/gcc/sparc-gaisler-elf/7.2.0/../../../../sparc-gaisler-elf/lib/leon/mfix-at697f\libm.a(lib_a-e_atan2.o)
 .debug_line    0x000000000000eb49      0x2d1 c:/opt/bcc-2.0.2-gcc/bin/../lib/gcc/sparc-gaisler-elf/7.2.0/../../../../sparc-gaisler-elf/lib/leon/mfix-at697f\libm.a(lib_a-e_fmod.o)
 .debug_line    0x000000000000ee1a      0x3c1 c:/opt/bcc-2.0.2-gcc/bin/../lib/gcc/sparc-gaisler-elf/7.2.0/../../../../sparc-gaisler-elf/lib/leon/mfix-at697f\libm.a(lib_a-e_pow.o)
 .debug_line    0x000000000000f1db      0x2e1 c:/opt/bcc-2.0.2-gcc/bin/../lib/gcc/sparc-gaisler-elf/7.2.0/../../../../sparc-gaisler-elf/lib/leon/mfix-at697f\libm.a(lib_a-e_rem_pio2.o)
 .debug_line    0x000000000000f4bc      0x2b8 c:/opt/bcc-2.0.2-gcc/bin/../lib/gcc/sparc-gaisler-elf/7.2.0/../../../../sparc-gaisler-elf/lib/leon/mfix-at697f\libm.a(lib_a-e_sqrt.o)
 .debug_line    0x000000000000f774      0x280 c:/opt/bcc-2.0.2-gcc/bin/../lib/gcc/sparc-gaisler-elf/7.2.0/../../../../sparc-gaisler-elf/lib/leon/mfix-at697f\libm.a(lib_a-k_cos.o)
 .debug_line    0x000000000000f9f4      0x339 c:/opt/bcc-2.0.2-gcc/bin/../lib/gcc/sparc-gaisler-elf/7.2.0/../../../../sparc-gaisler-elf/lib/leon/mfix-at697f\libm.a(lib_a-k_rem_pio2.o)
 .debug_line    0x000000000000fd2d      0x270 c:/opt/bcc-2.0.2-gcc/bin/../lib/gcc/sparc-gaisler-elf/7.2.0/../../../../sparc-gaisler-elf/lib/leon/mfix-at697f\libm.a(lib_a-k_sin.o)
 .debug_line    0x000000000000ff9d      0x2a9 c:/opt/bcc-2.0.2-gcc/bin/../lib/gcc/sparc-gaisler-elf/7.2.0/../../../../sparc-gaisler-elf/lib/leon/mfix-at697f\libm.a(lib_a-k_tan.o)
 .debug_line    0x0000000000010246      0x21f c:/opt/bcc-2.0.2-gcc/bin/../lib/gcc/sparc-gaisler-elf/7.2.0/../../../../sparc-gaisler-elf/lib/leon/mfix-at697f\libm.a(lib_a-s_finite.o)
 .debug_line    0x0000000000010465      0x1ab c:/opt/bcc-2.0.2-gcc/bin/../lib/gcc/sparc-gaisler-elf/7.2.0/../../../../sparc-gaisler-elf/lib/leon/mfix-at697f\libm.a(lib_a-s_lib_ver.o)
 .debug_line    0x0000000000010610      0x1bc c:/opt/bcc-2.0.2-gcc/bin/../lib/gcc/sparc-gaisler-elf/7.2.0/../../../../sparc-gaisler-elf/lib/leon/mfix-at697f\libm.a(lib_a-s_matherr.o)
 .debug_line    0x00000000000107cc      0x1b8 c:/opt/bcc-2.0.2-gcc/bin/../lib/gcc/sparc-gaisler-elf/7.2.0/../../../../sparc-gaisler-elf/lib/leon/mfix-at697f\libm.a(lib_a-s_nan.o)
 .debug_line    0x0000000000010984      0x253 c:/opt/bcc-2.0.2-gcc/bin/../lib/gcc/sparc-gaisler-elf/7.2.0/../../../../sparc-gaisler-elf/lib/leon/mfix-at697f\libm.a(lib_a-s_rint.o)
 .debug_line    0x0000000000010bd7      0x241 c:/opt/bcc-2.0.2-gcc/bin/../lib/gcc/sparc-gaisler-elf/7.2.0/../../../../sparc-gaisler-elf/lib/leon/mfix-at697f\libm.a(lib_a-s_scalbn.o)
 .debug_line    0x0000000000010e18      0x223 c:/opt/bcc-2.0.2-gcc/bin/../lib/gcc/sparc-gaisler-elf/7.2.0/../../../../sparc-gaisler-elf/lib/leon/mfix-at697f\libm.a(lib_a-s_copysign.o)
 .debug_line    0x000000000001103b       0x87 c:/opt/bcc-2.0.2-gcc/bin/../sparc-gaisler-elf/bsp/leon2/leon/mfix-at697f\libbcc.a(reset_trap_mvt.S.o)
 .debug_line    0x00000000000110c2       0x90 c:/opt/bcc-2.0.2-gcc/bin/../sparc-gaisler-elf/bsp/leon2/leon/mfix-at697f\libbcc.a(window_trap.S.o)
 .debug_line    0x0000000000011152       0xd4 c:/opt/bcc-2.0.2-gcc/bin/../sparc-gaisler-elf/bsp/leon2/leon/mfix-at697f\libbcc.a(interrupt_trap.S.o)
 .debug_line    0x0000000000011226       0x8d c:/opt/bcc-2.0.2-gcc/bin/../sparc-gaisler-elf/bsp/leon2/leon/mfix-at697f\libbcc.a(flush_windows_trap.S.o)
 .debug_line    0x00000000000112b3       0x75 c:/opt/bcc-2.0.2-gcc/bin/../sparc-gaisler-elf/bsp/leon2/leon/mfix-at697f\libbcc.a(sw_trap_set_pil.S.o)
 .debug_line    0x0000000000011328      0x202 c:/opt/bcc-2.0.2-gcc/bin/../sparc-gaisler-elf/bsp/leon2/leon/mfix-at697f\libbcc.a(trap.c.o)
 .debug_line    0x000000000001152a      0x1ec c:/opt/bcc-2.0.2-gcc/bin/../sparc-gaisler-elf/bsp/leon2/leon/mfix-at697f\libbcc.a(isr.c.o)
 .debug_line    0x0000000000011716      0x1aa c:/opt/bcc-2.0.2-gcc/bin/../sparc-gaisler-elf/bsp/leon2/leon/mfix-at697f\libbcc.a(int_nest.c.o)
 .debug_line    0x00000000000118c0       0x5c c:/opt/bcc-2.0.2-gcc/bin/../sparc-gaisler-elf/bsp/leon2/leon/mfix-at697f\libbcc.a(init.S.o)
 .debug_line    0x000000000001191c       0x7f c:/opt/bcc-2.0.2-gcc/bin/../sparc-gaisler-elf/bsp/leon2/leon/mfix-at697f\libbcc.a(leon_info.S.o)
 .debug_line    0x000000000001199b       0x67 c:/opt/bcc-2.0.2-gcc/bin/../sparc-gaisler-elf/bsp/leon2/leon/mfix-at697f\libbcc.a(dwzero.S.o)
 .debug_line    0x0000000000011a02      0x1ac c:/opt/bcc-2.0.2-gcc/bin/../sparc-gaisler-elf/bsp/leon2/leon/mfix-at697f\libbcc.a(copy_data.c.o)
 .debug_line    0x0000000000011bae       0x7e c:/opt/bcc-2.0.2-gcc/bin/../sparc-gaisler-elf/bsp/leon2/leon/mfix-at697f\libbcc.a(lowlevel.S.o)
 .debug_line    0x0000000000011c2c       0x78 c:/opt/bcc-2.0.2-gcc/bin/../sparc-gaisler-elf/bsp/leon2/leon/mfix-at697f\libbcc.a(lowlevel_leon2.S.o)
 .debug_line    0x0000000000011ca4      0x27f c:/opt/bcc-2.0.2-gcc/bin/../sparc-gaisler-elf/bsp/leon2/leon/mfix-at697f\libbcc.a(int_leon2.c.o)
 .debug_line    0x0000000000011f23       0x76 c:/opt/bcc-2.0.2-gcc/bin/../sparc-gaisler-elf/bsp/leon2/leon/mfix-at697f\libbcc.a(int_leon2_get_source.c.o)
 .debug_line    0x0000000000011f99      0x200 c:/opt/bcc-2.0.2-gcc/bin/../sparc-gaisler-elf/bsp/leon2/leon/mfix-at697f\libbcc.a(int_leon2_init.c.o)
 .debug_line    0x0000000000012199      0x246 c:/opt/bcc-2.0.2-gcc/bin/../sparc-gaisler-elf/bsp/leon2/leon/mfix-at697f\libbcc.a(con_leon2.c.o)
 .debug_line    0x00000000000123df      0x243 c:/opt/bcc-2.0.2-gcc/bin/../sparc-gaisler-elf/bsp/leon2/leon/mfix-at697f\libbcc.a(timer_leon2.c.o)
 .debug_line    0x0000000000012622       0x60 c:/opt/bcc-2.0.2-gcc/bin/../sparc-gaisler-elf/bsp/leon2/leon/mfix-at697f\libbcc.a(set_pil.S.o)
 .debug_line    0x0000000000012682      0x1e9 c:/opt/bcc-2.0.2-gcc/bin/../sparc-gaisler-elf/bsp/leon2/leon/mfix-at697f\libbcc.a(int_leon2_handle.c.o)
 .debug_line    0x000000000001286b      0x1e1 c:/opt/bcc-2.0.2-gcc/bin/../sparc-gaisler-elf/bsp/leon2/leon/mfix-at697f\libbcc.a(con_handle.c.o)
 .debug_line    0x0000000000012a4c      0x1e1 c:/opt/bcc-2.0.2-gcc/bin/../sparc-gaisler-elf/bsp/leon2/leon/mfix-at697f\libbcc.a(timer_handle.c.o)
 .debug_line    0x0000000000012c2d      0x1c6 c:/opt/bcc-2.0.2-gcc/bin/../lib/gcc/sparc-gaisler-elf/7.2.0/../../../../sparc-gaisler-elf/lib/leon/mfix-at697f\libc.a(lib_a-atexit.o)
 .debug_line    0x0000000000012df3      0x17c c:/opt/bcc-2.0.2-gcc/bin/../lib/gcc/sparc-gaisler-elf/7.2.0/../../../../sparc-gaisler-elf/lib/leon/mfix-at697f\libc.a(lib_a-errno.o)
 .debug_line    0x0000000000012f6f      0x1c7 c:/opt/bcc-2.0.2-gcc/bin/../lib/gcc/sparc-gaisler-elf/7.2.0/../../../../sparc-gaisler-elf/lib/leon/mfix-at697f\libc.a(lib_a-exit.o)
 .debug_line    0x0000000000013136      0x161 c:/opt/bcc-2.0.2-gcc/bin/../lib/gcc/sparc-gaisler-elf/7.2.0/../../../../sparc-gaisler-elf/lib/leon/mfix-at697f\libc.a(lib_a-impure.o)
 .debug_line    0x0000000000013297      0x1ed c:/opt/bcc-2.0.2-gcc/bin/../lib/gcc/sparc-gaisler-elf/7.2.0/../../../../sparc-gaisler-elf/lib/leon/mfix-at697f\libc.a(lib_a-memcpy.o)
 .debug_line    0x0000000000013484      0x202 c:/opt/bcc-2.0.2-gcc/bin/../lib/gcc/sparc-gaisler-elf/7.2.0/../../../../sparc-gaisler-elf/lib/leon/mfix-at697f\libc.a(lib_a-__atexit.o)
 .debug_line    0x0000000000013686      0x22d c:/opt/bcc-2.0.2-gcc/bin/../lib/gcc/sparc-gaisler-elf/7.2.0/../../../../sparc-gaisler-elf/lib/leon/mfix-at697f\libc.a(lib_a-__call_atexit.o)
 .debug_line    0x00000000000138b3       0x61 c:/opt/bcc-2.0.2-gcc/bin/../sparc-gaisler-elf/bsp/leon2/leon/mfix-at697f\libbcc.a(_exit.S.o)

.debug_frame    0x0000000000000000     0x2778
 *(.debug_frame)
 .debug_frame   0x0000000000000000       0x60 C:\Users\Bhagawat\AppData\Local\Temp\ccmG331P.o
 .debug_frame   0x0000000000000060       0xf4 C:\Users\Bhagawat\AppData\Local\Temp\ccFLNK2X.o
 .debug_frame   0x0000000000000154      0x1e0 C:\Users\Bhagawat\AppData\Local\Temp\ccF3JHAe.o
 .debug_frame   0x0000000000000334      0xf18 C:\Users\Bhagawat\AppData\Local\Temp\ccSFvBJa.o
 .debug_frame   0x000000000000124c       0x28 C:\Users\Bhagawat\AppData\Local\Temp\cc0Th2ok.o
 .debug_frame   0x0000000000001274      0x168 C:\Users\Bhagawat\AppData\Local\Temp\ccbuJliF.o
 .debug_frame   0x00000000000013dc       0x50 C:\Users\Bhagawat\AppData\Local\Temp\ccA5VOh9.o
 .debug_frame   0x000000000000142c       0x38 C:\Users\Bhagawat\AppData\Local\Temp\cclg7QQI.o
 .debug_frame   0x0000000000001464       0x60 C:\Users\Bhagawat\AppData\Local\Temp\cc4J82Fr.o
 .debug_frame   0x00000000000014c4       0xa8 C:\Users\Bhagawat\AppData\Local\Temp\ccP2pYow.o
 .debug_frame   0x000000000000156c      0x218 C:\Users\Bhagawat\AppData\Local\Temp\cc5opyBQ.o
 .debug_frame   0x0000000000001784       0x68 C:\Users\Bhagawat\AppData\Local\Temp\ccjU9hyn.o
 .debug_frame   0x00000000000017ec      0x120 C:\Users\Bhagawat\AppData\Local\Temp\ccBLkweo.o
 .debug_frame   0x000000000000190c      0x118 C:\Users\Bhagawat\AppData\Local\Temp\ccsgz4so.o
 .debug_frame   0x0000000000001a24      0x100 C:\Users\Bhagawat\AppData\Local\Temp\ccAFUHm4.o
 .debug_frame   0x0000000000001b24       0xb8 C:\Users\Bhagawat\AppData\Local\Temp\ccRqxX1h.o
 .debug_frame   0x0000000000001bdc       0x64 C:\Users\Bhagawat\AppData\Local\Temp\ccZvvD0p.o
 .debug_frame   0x0000000000001c40       0x40 C:\Users\Bhagawat\AppData\Local\Temp\cciSMCHz.o
 .debug_frame   0x0000000000001c80       0x28 C:\Users\Bhagawat\AppData\Local\Temp\ccYmJqpt.o
 .debug_frame   0x0000000000001ca8       0x98 C:\Users\Bhagawat\AppData\Local\Temp\cc5ogaUY.o
 .debug_frame   0x0000000000001d40       0xf0 C:\Users\Bhagawat\AppData\Local\Temp\ccQjljxZ.o
 .debug_frame   0x0000000000001e30      0x164 C:\Users\Bhagawat\AppData\Local\Temp\ccgDYObG.o
 .debug_frame   0x0000000000001f94      0x190 C:\Users\Bhagawat\AppData\Local\Temp\ccyKrZ4y.o
 .debug_frame   0x0000000000002124       0x28 c:/opt/bcc-2.0.2-gcc/bin/../lib/gcc/sparc-gaisler-elf/7.2.0/../../../../sparc-gaisler-elf/lib/leon/mfix-at697f\libm.a(lib_a-s_atan.o)
 .debug_frame   0x000000000000214c       0x28 c:/opt/bcc-2.0.2-gcc/bin/../lib/gcc/sparc-gaisler-elf/7.2.0/../../../../sparc-gaisler-elf/lib/leon/mfix-at697f\libm.a(lib_a-s_cos.o)
 .debug_frame   0x0000000000002174       0x24 c:/opt/bcc-2.0.2-gcc/bin/../lib/gcc/sparc-gaisler-elf/7.2.0/../../../../sparc-gaisler-elf/lib/leon/mfix-at697f\libm.a(lib_a-s_fabs.o)
 .debug_frame   0x0000000000002198       0x24 c:/opt/bcc-2.0.2-gcc/bin/../lib/gcc/sparc-gaisler-elf/7.2.0/../../../../sparc-gaisler-elf/lib/leon/mfix-at697f\libm.a(lib_a-s_floor.o)
 .debug_frame   0x00000000000021bc       0x28 c:/opt/bcc-2.0.2-gcc/bin/../lib/gcc/sparc-gaisler-elf/7.2.0/../../../../sparc-gaisler-elf/lib/leon/mfix-at697f\libm.a(lib_a-s_sin.o)
 .debug_frame   0x00000000000021e4       0x28 c:/opt/bcc-2.0.2-gcc/bin/../lib/gcc/sparc-gaisler-elf/7.2.0/../../../../sparc-gaisler-elf/lib/leon/mfix-at697f\libm.a(lib_a-s_tan.o)
 .debug_frame   0x000000000000220c       0x28 c:/opt/bcc-2.0.2-gcc/bin/../lib/gcc/sparc-gaisler-elf/7.2.0/../../../../sparc-gaisler-elf/lib/leon/mfix-at697f\libm.a(lib_a-w_acos.o)
 .debug_frame   0x0000000000002234       0x20 c:/opt/bcc-2.0.2-gcc/bin/../lib/gcc/sparc-gaisler-elf/7.2.0/../../../../sparc-gaisler-elf/lib/leon/mfix-at697f\libm.a(lib_a-w_atan2.o)
 .debug_frame   0x0000000000002254       0x28 c:/opt/bcc-2.0.2-gcc/bin/../lib/gcc/sparc-gaisler-elf/7.2.0/../../../../sparc-gaisler-elf/lib/leon/mfix-at697f\libm.a(lib_a-w_fmod.o)
 .debug_frame   0x000000000000227c       0x28 c:/opt/bcc-2.0.2-gcc/bin/../lib/gcc/sparc-gaisler-elf/7.2.0/../../../../sparc-gaisler-elf/lib/leon/mfix-at697f\libm.a(lib_a-w_pow.o)
 .debug_frame   0x00000000000022a4       0x28 c:/opt/bcc-2.0.2-gcc/bin/../lib/gcc/sparc-gaisler-elf/7.2.0/../../../../sparc-gaisler-elf/lib/leon/mfix-at697f\libm.a(lib_a-w_sqrt.o)
 .debug_frame   0x00000000000022cc       0x28 c:/opt/bcc-2.0.2-gcc/bin/../lib/gcc/sparc-gaisler-elf/7.2.0/../../../../sparc-gaisler-elf/lib/leon/mfix-at697f\libm.a(lib_a-e_acos.o)
 .debug_frame   0x00000000000022f4       0x28 c:/opt/bcc-2.0.2-gcc/bin/../lib/gcc/sparc-gaisler-elf/7.2.0/../../../../sparc-gaisler-elf/lib/leon/mfix-at697f\libm.a(lib_a-e_atan2.o)
 .debug_frame   0x000000000000231c       0x24 c:/opt/bcc-2.0.2-gcc/bin/../lib/gcc/sparc-gaisler-elf/7.2.0/../../../../sparc-gaisler-elf/lib/leon/mfix-at697f\libm.a(lib_a-e_fmod.o)
 .debug_frame   0x0000000000002340       0x28 c:/opt/bcc-2.0.2-gcc/bin/../lib/gcc/sparc-gaisler-elf/7.2.0/../../../../sparc-gaisler-elf/lib/leon/mfix-at697f\libm.a(lib_a-e_pow.o)
 .debug_frame   0x0000000000002368       0x28 c:/opt/bcc-2.0.2-gcc/bin/../lib/gcc/sparc-gaisler-elf/7.2.0/../../../../sparc-gaisler-elf/lib/leon/mfix-at697f\libm.a(lib_a-e_rem_pio2.o)
 .debug_frame   0x0000000000002390       0x28 c:/opt/bcc-2.0.2-gcc/bin/../lib/gcc/sparc-gaisler-elf/7.2.0/../../../../sparc-gaisler-elf/lib/leon/mfix-at697f\libm.a(lib_a-e_sqrt.o)
 .debug_frame   0x00000000000023b8       0x24 c:/opt/bcc-2.0.2-gcc/bin/../lib/gcc/sparc-gaisler-elf/7.2.0/../../../../sparc-gaisler-elf/lib/leon/mfix-at697f\libm.a(lib_a-k_cos.o)
 .debug_frame   0x00000000000023dc       0x28 c:/opt/bcc-2.0.2-gcc/bin/../lib/gcc/sparc-gaisler-elf/7.2.0/../../../../sparc-gaisler-elf/lib/leon/mfix-at697f\libm.a(lib_a-k_rem_pio2.o)
 .debug_frame   0x0000000000002404       0x24 c:/opt/bcc-2.0.2-gcc/bin/../lib/gcc/sparc-gaisler-elf/7.2.0/../../../../sparc-gaisler-elf/lib/leon/mfix-at697f\libm.a(lib_a-k_sin.o)
 .debug_frame   0x0000000000002428       0x28 c:/opt/bcc-2.0.2-gcc/bin/../lib/gcc/sparc-gaisler-elf/7.2.0/../../../../sparc-gaisler-elf/lib/leon/mfix-at697f\libm.a(lib_a-k_tan.o)
 .debug_frame   0x0000000000002450       0x20 c:/opt/bcc-2.0.2-gcc/bin/../lib/gcc/sparc-gaisler-elf/7.2.0/../../../../sparc-gaisler-elf/lib/leon/mfix-at697f\libm.a(lib_a-s_finite.o)
 .debug_frame   0x0000000000002470       0x20 c:/opt/bcc-2.0.2-gcc/bin/../lib/gcc/sparc-gaisler-elf/7.2.0/../../../../sparc-gaisler-elf/lib/leon/mfix-at697f\libm.a(lib_a-s_matherr.o)
 .debug_frame   0x0000000000002490       0x20 c:/opt/bcc-2.0.2-gcc/bin/../lib/gcc/sparc-gaisler-elf/7.2.0/../../../../sparc-gaisler-elf/lib/leon/mfix-at697f\libm.a(lib_a-s_nan.o)
 .debug_frame   0x00000000000024b0       0x24 c:/opt/bcc-2.0.2-gcc/bin/../lib/gcc/sparc-gaisler-elf/7.2.0/../../../../sparc-gaisler-elf/lib/leon/mfix-at697f\libm.a(lib_a-s_rint.o)
 .debug_frame   0x00000000000024d4       0x28 c:/opt/bcc-2.0.2-gcc/bin/../lib/gcc/sparc-gaisler-elf/7.2.0/../../../../sparc-gaisler-elf/lib/leon/mfix-at697f\libm.a(lib_a-s_scalbn.o)
 .debug_frame   0x00000000000024fc       0x24 c:/opt/bcc-2.0.2-gcc/bin/../lib/gcc/sparc-gaisler-elf/7.2.0/../../../../sparc-gaisler-elf/lib/leon/mfix-at697f\libm.a(lib_a-s_copysign.o)
 .debug_frame   0x0000000000002520       0x28 c:/opt/bcc-2.0.2-gcc/bin/../sparc-gaisler-elf/bsp/leon2/leon/mfix-at697f\libbcc.a(trap.c.o)
 .debug_frame   0x0000000000002548       0x20 c:/opt/bcc-2.0.2-gcc/bin/../sparc-gaisler-elf/bsp/leon2/leon/mfix-at697f\libbcc.a(copy_data.c.o)
 .debug_frame   0x0000000000002568       0x80 c:/opt/bcc-2.0.2-gcc/bin/../sparc-gaisler-elf/bsp/leon2/leon/mfix-at697f\libbcc.a(int_leon2.c.o)
 .debug_frame   0x00000000000025e8       0x20 c:/opt/bcc-2.0.2-gcc/bin/../sparc-gaisler-elf/bsp/leon2/leon/mfix-at697f\libbcc.a(int_leon2_get_source.c.o)
 .debug_frame   0x0000000000002608       0x20 c:/opt/bcc-2.0.2-gcc/bin/../sparc-gaisler-elf/bsp/leon2/leon/mfix-at697f\libbcc.a(int_leon2_init.c.o)
 .debug_frame   0x0000000000002628       0x40 c:/opt/bcc-2.0.2-gcc/bin/../sparc-gaisler-elf/bsp/leon2/leon/mfix-at697f\libbcc.a(con_leon2.c.o)
 .debug_frame   0x0000000000002668       0x30 c:/opt/bcc-2.0.2-gcc/bin/../sparc-gaisler-elf/bsp/leon2/leon/mfix-at697f\libbcc.a(timer_leon2.c.o)
 .debug_frame   0x0000000000002698       0x20 c:/opt/bcc-2.0.2-gcc/bin/../lib/gcc/sparc-gaisler-elf/7.2.0/../../../../sparc-gaisler-elf/lib/leon/mfix-at697f\libc.a(lib_a-atexit.o)
 .debug_frame   0x00000000000026b8       0x20 c:/opt/bcc-2.0.2-gcc/bin/../lib/gcc/sparc-gaisler-elf/7.2.0/../../../../sparc-gaisler-elf/lib/leon/mfix-at697f\libc.a(lib_a-errno.o)
 .debug_frame   0x00000000000026d8       0x28 c:/opt/bcc-2.0.2-gcc/bin/../lib/gcc/sparc-gaisler-elf/7.2.0/../../../../sparc-gaisler-elf/lib/leon/mfix-at697f\libc.a(lib_a-exit.o)
 .debug_frame   0x0000000000002700       0x28 c:/opt/bcc-2.0.2-gcc/bin/../lib/gcc/sparc-gaisler-elf/7.2.0/../../../../sparc-gaisler-elf/lib/leon/mfix-at697f\libc.a(lib_a-memcpy.o)
 .debug_frame   0x0000000000002728       0x28 c:/opt/bcc-2.0.2-gcc/bin/../lib/gcc/sparc-gaisler-elf/7.2.0/../../../../sparc-gaisler-elf/lib/leon/mfix-at697f\libc.a(lib_a-__atexit.o)
 .debug_frame   0x0000000000002750       0x28 c:/opt/bcc-2.0.2-gcc/bin/../lib/gcc/sparc-gaisler-elf/7.2.0/../../../../sparc-gaisler-elf/lib/leon/mfix-at697f\libc.a(lib_a-__call_atexit.o)

.debug_str      0x0000000000000000     0xcd76
 *(.debug_str)
 .debug_str     0x0000000000000000     0x7937 C:\Users\Bhagawat\AppData\Local\Temp\ccmG331P.o
                                       0x7f28 (size before relaxing)
 .debug_str     0x0000000000007937      0x6bb C:\Users\Bhagawat\AppData\Local\Temp\ccFLNK2X.o
                                       0x4f45 (size before relaxing)
 .debug_str     0x0000000000007ff2      0x3f8 C:\Users\Bhagawat\AppData\Local\Temp\ccF3JHAe.o
                                       0x887a (size before relaxing)
 .debug_str     0x00000000000083ea     0x131b C:\Users\Bhagawat\AppData\Local\Temp\ccSFvBJa.o
                                       0x97fe (size before relaxing)
 .debug_str     0x0000000000009705       0x1c C:\Users\Bhagawat\AppData\Local\Temp\cc0Th2ok.o
                                       0x58e9 (size before relaxing)
 .debug_str     0x0000000000009721      0x423 C:\Users\Bhagawat\AppData\Local\Temp\ccbuJliF.o
                                       0x51b7 (size before relaxing)
 .debug_str     0x0000000000009b44       0x9a C:\Users\Bhagawat\AppData\Local\Temp\ccA5VOh9.o
                                       0x4d63 (size before relaxing)
 .debug_str     0x0000000000009bde       0x31 C:\Users\Bhagawat\AppData\Local\Temp\cclg7QQI.o
                                       0x2c1b (size before relaxing)
 .debug_str     0x0000000000009c0f      0x230 C:\Users\Bhagawat\AppData\Local\Temp\cc4J82Fr.o
                                       0x265a (size before relaxing)
 .debug_str     0x0000000000009e3f      0x2e6 C:\Users\Bhagawat\AppData\Local\Temp\ccP2pYow.o
                                       0x5d00 (size before relaxing)
 .debug_str     0x000000000000a125      0x3e6 C:\Users\Bhagawat\AppData\Local\Temp\cc5opyBQ.o
                                       0x50c3 (size before relaxing)
 .debug_str     0x000000000000a50b       0x78 C:\Users\Bhagawat\AppData\Local\Temp\ccjU9hyn.o
                                       0x536a (size before relaxing)
 .debug_str     0x000000000000a583      0x558 C:\Users\Bhagawat\AppData\Local\Temp\ccBLkweo.o
                                       0x58f6 (size before relaxing)
 .debug_str     0x000000000000aadb      0x1e4 C:\Users\Bhagawat\AppData\Local\Temp\ccsgz4so.o
                                       0x490e (size before relaxing)
 .debug_str     0x000000000000acbf      0x11b C:\Users\Bhagawat\AppData\Local\Temp\ccAFUHm4.o
                                       0x85b2 (size before relaxing)
 .debug_str     0x000000000000adda       0x97 C:\Users\Bhagawat\AppData\Local\Temp\ccRqxX1h.o
                                       0x7e98 (size before relaxing)
 .debug_str     0x000000000000ae71       0x11 C:\Users\Bhagawat\AppData\Local\Temp\ccyPto1B.o
                                        0x75c (size before relaxing)
 .debug_str     0x000000000000ae82       0xc2 C:\Users\Bhagawat\AppData\Local\Temp\ccZvvD0p.o
                                       0x7e5b (size before relaxing)
 .debug_str     0x000000000000af44       0xeb C:\Users\Bhagawat\AppData\Local\Temp\cciSMCHz.o
                                       0x8582 (size before relaxing)
 .debug_str     0x000000000000b02f       0x1c C:\Users\Bhagawat\AppData\Local\Temp\ccYmJqpt.o
                                       0x6c5d (size before relaxing)
 .debug_str     0x000000000000b04b       0xf3 C:\Users\Bhagawat\AppData\Local\Temp\cc5ogaUY.o
                                       0x8682 (size before relaxing)
 .debug_str     0x000000000000b13e       0x17 C:\Users\Bhagawat\AppData\Local\Temp\ccCmOWXC.o
                                       0x3476 (size before relaxing)
 .debug_str     0x000000000000b155       0xd6 C:\Users\Bhagawat\AppData\Local\Temp\ccQjljxZ.o
                                       0x878c (size before relaxing)
 .debug_str     0x000000000000b22b      0x18a C:\Users\Bhagawat\AppData\Local\Temp\ccgDYObG.o
                                       0x3a6e (size before relaxing)
 .debug_str     0x000000000000b3b5      0x219 C:\Users\Bhagawat\AppData\Local\Temp\ccyKrZ4y.o
                                       0x6221 (size before relaxing)
 .debug_str     0x000000000000b5ce      0x184 c:/opt/bcc-2.0.2-gcc/bin/../lib/gcc/sparc-gaisler-elf/7.2.0/../../../../sparc-gaisler-elf/lib/leon/mfix-at697f\libm.a(lib_a-s_atan.o)
                                        0x682 (size before relaxing)
 .debug_str     0x000000000000b752       0x41 c:/opt/bcc-2.0.2-gcc/bin/../lib/gcc/sparc-gaisler-elf/7.2.0/../../../../sparc-gaisler-elf/lib/leon/mfix-at697f\libm.a(lib_a-s_cos.o)
                                        0x664 (size before relaxing)
 .debug_str     0x000000000000b793       0x51 c:/opt/bcc-2.0.2-gcc/bin/../lib/gcc/sparc-gaisler-elf/7.2.0/../../../../sparc-gaisler-elf/lib/leon/mfix-at697f\libm.a(lib_a-s_fabs.o)
                                        0x66a (size before relaxing)
 .debug_str     0x000000000000b7e4       0x53 c:/opt/bcc-2.0.2-gcc/bin/../lib/gcc/sparc-gaisler-elf/7.2.0/../../../../sparc-gaisler-elf/lib/leon/mfix-at697f\libm.a(lib_a-s_floor.o)
                                        0x676 (size before relaxing)
 .debug_str     0x000000000000b837       0x41 c:/opt/bcc-2.0.2-gcc/bin/../lib/gcc/sparc-gaisler-elf/7.2.0/../../../../sparc-gaisler-elf/lib/leon/mfix-at697f\libm.a(lib_a-s_sin.o)
                                        0x664 (size before relaxing)
 .debug_str     0x000000000000b878       0x41 c:/opt/bcc-2.0.2-gcc/bin/../lib/gcc/sparc-gaisler-elf/7.2.0/../../../../sparc-gaisler-elf/lib/leon/mfix-at697f\libm.a(lib_a-s_tan.o)
                                        0x664 (size before relaxing)
 .debug_str     0x000000000000b8b9       0x79 c:/opt/bcc-2.0.2-gcc/bin/../lib/gcc/sparc-gaisler-elf/7.2.0/../../../../sparc-gaisler-elf/lib/leon/mfix-at697f\libm.a(lib_a-w_acos.o)
                                        0x669 (size before relaxing)
 .debug_str     0x000000000000b932       0x43 c:/opt/bcc-2.0.2-gcc/bin/../lib/gcc/sparc-gaisler-elf/7.2.0/../../../../sparc-gaisler-elf/lib/leon/mfix-at697f\libm.a(lib_a-w_atan2.o)
                                        0x646 (size before relaxing)
 .debug_str     0x000000000000b975       0x42 c:/opt/bcc-2.0.2-gcc/bin/../lib/gcc/sparc-gaisler-elf/7.2.0/../../../../sparc-gaisler-elf/lib/leon/mfix-at697f\libm.a(lib_a-w_fmod.o)
                                        0x669 (size before relaxing)
 .debug_str     0x000000000000b9b7       0x41 c:/opt/bcc-2.0.2-gcc/bin/../lib/gcc/sparc-gaisler-elf/7.2.0/../../../../sparc-gaisler-elf/lib/leon/mfix-at697f\libm.a(lib_a-w_pow.o)
                                        0x663 (size before relaxing)
 .debug_str     0x000000000000b9f8       0x42 c:/opt/bcc-2.0.2-gcc/bin/../lib/gcc/sparc-gaisler-elf/7.2.0/../../../../sparc-gaisler-elf/lib/leon/mfix-at697f\libm.a(lib_a-w_sqrt.o)
                                        0x669 (size before relaxing)
 .debug_str     0x000000000000ba3a       0x66 c:/opt/bcc-2.0.2-gcc/bin/../lib/gcc/sparc-gaisler-elf/7.2.0/../../../../sparc-gaisler-elf/lib/leon/mfix-at697f\libm.a(lib_a-e_acos.o)
                                        0x68e (size before relaxing)
 .debug_str     0x000000000000baa0       0x71 c:/opt/bcc-2.0.2-gcc/bin/../lib/gcc/sparc-gaisler-elf/7.2.0/../../../../sparc-gaisler-elf/lib/leon/mfix-at697f\libm.a(lib_a-e_atan2.o)
                                        0x69e (size before relaxing)
 .debug_str     0x000000000000bb11       0x56 c:/opt/bcc-2.0.2-gcc/bin/../lib/gcc/sparc-gaisler-elf/7.2.0/../../../../sparc-gaisler-elf/lib/leon/mfix-at697f\libm.a(lib_a-e_fmod.o)
                                        0x67e (size before relaxing)
 .debug_str     0x000000000000bb67       0x92 c:/opt/bcc-2.0.2-gcc/bin/../lib/gcc/sparc-gaisler-elf/7.2.0/../../../../sparc-gaisler-elf/lib/leon/mfix-at697f\libm.a(lib_a-e_pow.o)
                                        0x6d3 (size before relaxing)
 .debug_str     0x000000000000bbf9       0xae c:/opt/bcc-2.0.2-gcc/bin/../lib/gcc/sparc-gaisler-elf/7.2.0/../../../../sparc-gaisler-elf/lib/leon/mfix-at697f\libm.a(lib_a-e_rem_pio2.o)
                                        0x6ea (size before relaxing)
 .debug_str     0x000000000000bca7       0x51 c:/opt/bcc-2.0.2-gcc/bin/../lib/gcc/sparc-gaisler-elf/7.2.0/../../../../sparc-gaisler-elf/lib/leon/mfix-at697f\libm.a(lib_a-e_sqrt.o)
                                        0x683 (size before relaxing)
 .debug_str     0x000000000000bcf8       0x4e c:/opt/bcc-2.0.2-gcc/bin/../lib/gcc/sparc-gaisler-elf/7.2.0/../../../../sparc-gaisler-elf/lib/leon/mfix-at697f\libm.a(lib_a-k_cos.o)
                                        0x676 (size before relaxing)
 .debug_str     0x000000000000bd46       0x82 c:/opt/bcc-2.0.2-gcc/bin/../lib/gcc/sparc-gaisler-elf/7.2.0/../../../../sparc-gaisler-elf/lib/leon/mfix-at697f\libm.a(lib_a-k_rem_pio2.o)
                                        0x682 (size before relaxing)
 .debug_str     0x000000000000bdc8       0x4e c:/opt/bcc-2.0.2-gcc/bin/../lib/gcc/sparc-gaisler-elf/7.2.0/../../../../sparc-gaisler-elf/lib/leon/mfix-at697f\libm.a(lib_a-k_sin.o)
                                        0x676 (size before relaxing)
 .debug_str     0x000000000000be16       0x5a c:/opt/bcc-2.0.2-gcc/bin/../lib/gcc/sparc-gaisler-elf/7.2.0/../../../../sparc-gaisler-elf/lib/leon/mfix-at697f\libm.a(lib_a-k_tan.o)
                                        0x687 (size before relaxing)
 .debug_str     0x000000000000be70       0xeb c:/opt/bcc-2.0.2-gcc/bin/../lib/gcc/sparc-gaisler-elf/7.2.0/../../../../sparc-gaisler-elf/lib/leon/mfix-at697f\libm.a(lib_a-s_finite.o)
                                        0x672 (size before relaxing)
 .debug_str     0x000000000000bf5b       0x47 c:/opt/bcc-2.0.2-gcc/bin/../lib/gcc/sparc-gaisler-elf/7.2.0/../../../../sparc-gaisler-elf/lib/leon/mfix-at697f\libm.a(lib_a-s_lib_ver.o)
                                        0x62f (size before relaxing)
 .debug_str     0x000000000000bfa2       0x4f c:/opt/bcc-2.0.2-gcc/bin/../lib/gcc/sparc-gaisler-elf/7.2.0/../../../../sparc-gaisler-elf/lib/leon/mfix-at697f\libm.a(lib_a-s_matherr.o)
                                        0x65c (size before relaxing)
 .debug_str     0x000000000000bff1       0x4a c:/opt/bcc-2.0.2-gcc/bin/../lib/gcc/sparc-gaisler-elf/7.2.0/../../../../sparc-gaisler-elf/lib/leon/mfix-at697f\libm.a(lib_a-s_nan.o)
                                        0x632 (size before relaxing)
 .debug_str     0x000000000000c03b       0x4f c:/opt/bcc-2.0.2-gcc/bin/../lib/gcc/sparc-gaisler-elf/7.2.0/../../../../sparc-gaisler-elf/lib/leon/mfix-at697f\libm.a(lib_a-s_rint.o)
                                        0x683 (size before relaxing)
 .debug_str     0x000000000000c08a       0x5a c:/opt/bcc-2.0.2-gcc/bin/../lib/gcc/sparc-gaisler-elf/7.2.0/../../../../sparc-gaisler-elf/lib/leon/mfix-at697f\libm.a(lib_a-s_scalbn.o)
                                        0x693 (size before relaxing)
 .debug_str     0x000000000000c0e4       0x51 c:/opt/bcc-2.0.2-gcc/bin/../lib/gcc/sparc-gaisler-elf/7.2.0/../../../../sparc-gaisler-elf/lib/leon/mfix-at697f\libm.a(lib_a-s_copysign.o)
                                        0x671 (size before relaxing)
 .debug_str     0x000000000000c135      0x1e4 c:/opt/bcc-2.0.2-gcc/bin/../sparc-gaisler-elf/bsp/leon2/leon/mfix-at697f\libbcc.a(trap.c.o)
                                        0x293 (size before relaxing)
 .debug_str     0x000000000000c319       0x51 c:/opt/bcc-2.0.2-gcc/bin/../sparc-gaisler-elf/bsp/leon2/leon/mfix-at697f\libbcc.a(isr.c.o)
                                        0x5b4 (size before relaxing)
 .debug_str     0x000000000000c36a       0x6d c:/opt/bcc-2.0.2-gcc/bin/../sparc-gaisler-elf/bsp/leon2/leon/mfix-at697f\libbcc.a(int_nest.c.o)
                                        0x1b2 (size before relaxing)
 .debug_str     0x000000000000c3d7       0x6a c:/opt/bcc-2.0.2-gcc/bin/../sparc-gaisler-elf/bsp/leon2/leon/mfix-at697f\libbcc.a(copy_data.c.o)
                                        0x1b1 (size before relaxing)
 .debug_str     0x000000000000c441      0x151 c:/opt/bcc-2.0.2-gcc/bin/../sparc-gaisler-elf/bsp/leon2/leon/mfix-at697f\libbcc.a(int_leon2.c.o)
                                        0x2d8 (size before relaxing)
 .debug_str     0x000000000000c592       0x5b c:/opt/bcc-2.0.2-gcc/bin/../sparc-gaisler-elf/bsp/leon2/leon/mfix-at697f\libbcc.a(int_leon2_get_source.c.o)
                                        0x10a (size before relaxing)
 .debug_str     0x000000000000c5ed       0x4f c:/opt/bcc-2.0.2-gcc/bin/../sparc-gaisler-elf/bsp/leon2/leon/mfix-at697f\libbcc.a(int_leon2_init.c.o)
                                        0x261 (size before relaxing)
 .debug_str     0x000000000000c63c       0x84 c:/opt/bcc-2.0.2-gcc/bin/../sparc-gaisler-elf/bsp/leon2/leon/mfix-at697f\libbcc.a(con_leon2.c.o)
                                        0x2b2 (size before relaxing)
 .debug_str     0x000000000000c6c0       0xa6 c:/opt/bcc-2.0.2-gcc/bin/../sparc-gaisler-elf/bsp/leon2/leon/mfix-at697f\libbcc.a(timer_leon2.c.o)
                                        0x2d7 (size before relaxing)
 .debug_str     0x000000000000c766       0x42 c:/opt/bcc-2.0.2-gcc/bin/../sparc-gaisler-elf/bsp/leon2/leon/mfix-at697f\libbcc.a(int_leon2_handle.c.o)
                                        0x232 (size before relaxing)
 .debug_str     0x000000000000c7a8       0x3a c:/opt/bcc-2.0.2-gcc/bin/../sparc-gaisler-elf/bsp/leon2/leon/mfix-at697f\libbcc.a(con_handle.c.o)
                                        0x22a (size before relaxing)
 .debug_str     0x000000000000c7e2       0x3a c:/opt/bcc-2.0.2-gcc/bin/../sparc-gaisler-elf/bsp/leon2/leon/mfix-at697f\libbcc.a(timer_handle.c.o)
                                        0x22a (size before relaxing)
 .debug_str     0x000000000000c81c      0x112 c:/opt/bcc-2.0.2-gcc/bin/../lib/gcc/sparc-gaisler-elf/7.2.0/../../../../sparc-gaisler-elf/lib/leon/mfix-at697f\libc.a(lib_a-atexit.o)
                                        0x605 (size before relaxing)
 .debug_str     0x000000000000c92e       0xe7 c:/opt/bcc-2.0.2-gcc/bin/../lib/gcc/sparc-gaisler-elf/7.2.0/../../../../sparc-gaisler-elf/lib/leon/mfix-at697f\libc.a(lib_a-errno.o)
                                        0x5e0 (size before relaxing)
 .debug_str     0x000000000000ca15       0x6d c:/opt/bcc-2.0.2-gcc/bin/../lib/gcc/sparc-gaisler-elf/7.2.0/../../../../sparc-gaisler-elf/lib/leon/mfix-at697f\libc.a(lib_a-exit.o)
                                        0x603 (size before relaxing)
 .debug_str     0x000000000000ca82       0xec c:/opt/bcc-2.0.2-gcc/bin/../lib/gcc/sparc-gaisler-elf/7.2.0/../../../../sparc-gaisler-elf/lib/leon/mfix-at697f\libc.a(lib_a-impure.o)
                                        0x5ce (size before relaxing)
 .debug_str     0x000000000000cb6e      0x117 c:/opt/bcc-2.0.2-gcc/bin/../lib/gcc/sparc-gaisler-elf/7.2.0/../../../../sparc-gaisler-elf/lib/leon/mfix-at697f\libc.a(lib_a-memcpy.o)
                                        0x5f9 (size before relaxing)
 .debug_str     0x000000000000cc85       0x79 c:/opt/bcc-2.0.2-gcc/bin/../lib/gcc/sparc-gaisler-elf/7.2.0/../../../../sparc-gaisler-elf/lib/leon/mfix-at697f\libc.a(lib_a-__atexit.o)
                                        0x63d (size before relaxing)
 .debug_str     0x000000000000ccfe       0x78 c:/opt/bcc-2.0.2-gcc/bin/../lib/gcc/sparc-gaisler-elf/7.2.0/../../../../sparc-gaisler-elf/lib/leon/mfix-at697f\libc.a(lib_a-__call_atexit.o)
                                        0x60c (size before relaxing)

.debug_loc      0x0000000000000000     0x6b85
 *(.debug_loc)
 .debug_loc     0x0000000000000000       0xc7 C:\Users\Bhagawat\AppData\Local\Temp\ccmG331P.o
 .debug_loc     0x00000000000000c7      0x2cf C:\Users\Bhagawat\AppData\Local\Temp\ccFLNK2X.o
 .debug_loc     0x0000000000000396      0x577 C:\Users\Bhagawat\AppData\Local\Temp\ccF3JHAe.o
 .debug_loc     0x000000000000090d      0xaa7 C:\Users\Bhagawat\AppData\Local\Temp\ccSFvBJa.o
 .debug_loc     0x00000000000013b4       0x20 C:\Users\Bhagawat\AppData\Local\Temp\cc0Th2ok.o
 .debug_loc     0x00000000000013d4      0x1af C:\Users\Bhagawat\AppData\Local\Temp\ccbuJliF.o
 .debug_loc     0x0000000000001583       0xc4 C:\Users\Bhagawat\AppData\Local\Temp\ccA5VOh9.o
 .debug_loc     0x0000000000001647       0x49 C:\Users\Bhagawat\AppData\Local\Temp\cclg7QQI.o
 .debug_loc     0x0000000000001690      0x10f C:\Users\Bhagawat\AppData\Local\Temp\cc4J82Fr.o
 .debug_loc     0x000000000000179f      0x1f3 C:\Users\Bhagawat\AppData\Local\Temp\ccP2pYow.o
 .debug_loc     0x0000000000001992      0x211 C:\Users\Bhagawat\AppData\Local\Temp\cc5opyBQ.o
 .debug_loc     0x0000000000001ba3       0x92 C:\Users\Bhagawat\AppData\Local\Temp\ccjU9hyn.o
 .debug_loc     0x0000000000001c35      0x4c6 C:\Users\Bhagawat\AppData\Local\Temp\ccBLkweo.o
 .debug_loc     0x00000000000020fb       0xe4 C:\Users\Bhagawat\AppData\Local\Temp\ccsgz4so.o
 .debug_loc     0x00000000000021df      0x1b8 C:\Users\Bhagawat\AppData\Local\Temp\ccAFUHm4.o
 .debug_loc     0x0000000000002397       0xe0 C:\Users\Bhagawat\AppData\Local\Temp\ccRqxX1h.o
 .debug_loc     0x0000000000002477      0x141 C:\Users\Bhagawat\AppData\Local\Temp\ccZvvD0p.o
 .debug_loc     0x00000000000025b8       0x40 C:\Users\Bhagawat\AppData\Local\Temp\cciSMCHz.o
 .debug_loc     0x00000000000025f8       0x20 C:\Users\Bhagawat\AppData\Local\Temp\ccYmJqpt.o
 .debug_loc     0x0000000000002618      0x2e9 C:\Users\Bhagawat\AppData\Local\Temp\cc5ogaUY.o
 .debug_loc     0x0000000000002901      0x2f2 C:\Users\Bhagawat\AppData\Local\Temp\ccQjljxZ.o
 .debug_loc     0x0000000000002bf3      0x637 C:\Users\Bhagawat\AppData\Local\Temp\ccgDYObG.o
 .debug_loc     0x000000000000322a      0x100 C:\Users\Bhagawat\AppData\Local\Temp\ccyKrZ4y.o
 .debug_loc     0x000000000000332a      0x1a4 c:/opt/bcc-2.0.2-gcc/bin/../lib/gcc/sparc-gaisler-elf/7.2.0/../../../../sparc-gaisler-elf/lib/leon/mfix-at697f\libm.a(lib_a-s_atan.o)
 .debug_loc     0x00000000000034ce       0x84 c:/opt/bcc-2.0.2-gcc/bin/../lib/gcc/sparc-gaisler-elf/7.2.0/../../../../sparc-gaisler-elf/lib/leon/mfix-at697f\libm.a(lib_a-s_cos.o)
 .debug_loc     0x0000000000003552       0x61 c:/opt/bcc-2.0.2-gcc/bin/../lib/gcc/sparc-gaisler-elf/7.2.0/../../../../sparc-gaisler-elf/lib/leon/mfix-at697f\libm.a(lib_a-s_fabs.o)
 .debug_loc     0x00000000000035b3      0x1f0 c:/opt/bcc-2.0.2-gcc/bin/../lib/gcc/sparc-gaisler-elf/7.2.0/../../../../sparc-gaisler-elf/lib/leon/mfix-at697f\libm.a(lib_a-s_floor.o)
 .debug_loc     0x00000000000037a3       0x84 c:/opt/bcc-2.0.2-gcc/bin/../lib/gcc/sparc-gaisler-elf/7.2.0/../../../../sparc-gaisler-elf/lib/leon/mfix-at697f\libm.a(lib_a-s_sin.o)
 .debug_loc     0x0000000000003827       0x84 c:/opt/bcc-2.0.2-gcc/bin/../lib/gcc/sparc-gaisler-elf/7.2.0/../../../../sparc-gaisler-elf/lib/leon/mfix-at697f\libm.a(lib_a-s_tan.o)
 .debug_loc     0x00000000000038ab       0x62 c:/opt/bcc-2.0.2-gcc/bin/../lib/gcc/sparc-gaisler-elf/7.2.0/../../../../sparc-gaisler-elf/lib/leon/mfix-at697f\libm.a(lib_a-w_acos.o)
 .debug_loc     0x000000000000390d       0x9c c:/opt/bcc-2.0.2-gcc/bin/../lib/gcc/sparc-gaisler-elf/7.2.0/../../../../sparc-gaisler-elf/lib/leon/mfix-at697f\libm.a(lib_a-w_fmod.o)
 .debug_loc     0x00000000000039a9      0x128 c:/opt/bcc-2.0.2-gcc/bin/../lib/gcc/sparc-gaisler-elf/7.2.0/../../../../sparc-gaisler-elf/lib/leon/mfix-at697f\libm.a(lib_a-w_pow.o)
 .debug_loc     0x0000000000003ad1       0x74 c:/opt/bcc-2.0.2-gcc/bin/../lib/gcc/sparc-gaisler-elf/7.2.0/../../../../sparc-gaisler-elf/lib/leon/mfix-at697f\libm.a(lib_a-w_sqrt.o)
 .debug_loc     0x0000000000003b45      0x134 c:/opt/bcc-2.0.2-gcc/bin/../lib/gcc/sparc-gaisler-elf/7.2.0/../../../../sparc-gaisler-elf/lib/leon/mfix-at697f\libm.a(lib_a-e_acos.o)
 .debug_loc     0x0000000000003c79      0x1aa c:/opt/bcc-2.0.2-gcc/bin/../lib/gcc/sparc-gaisler-elf/7.2.0/../../../../sparc-gaisler-elf/lib/leon/mfix-at697f\libm.a(lib_a-e_atan2.o)
 .debug_loc     0x0000000000003e23      0x499 c:/opt/bcc-2.0.2-gcc/bin/../lib/gcc/sparc-gaisler-elf/7.2.0/../../../../sparc-gaisler-elf/lib/leon/mfix-at697f\libm.a(lib_a-e_fmod.o)
 .debug_loc     0x00000000000042bc      0xb51 c:/opt/bcc-2.0.2-gcc/bin/../lib/gcc/sparc-gaisler-elf/7.2.0/../../../../sparc-gaisler-elf/lib/leon/mfix-at697f\libm.a(lib_a-e_pow.o)
 .debug_loc     0x0000000000004e0d      0x3b9 c:/opt/bcc-2.0.2-gcc/bin/../lib/gcc/sparc-gaisler-elf/7.2.0/../../../../sparc-gaisler-elf/lib/leon/mfix-at697f\libm.a(lib_a-e_rem_pio2.o)
 .debug_loc     0x00000000000051c6      0x2ed c:/opt/bcc-2.0.2-gcc/bin/../lib/gcc/sparc-gaisler-elf/7.2.0/../../../../sparc-gaisler-elf/lib/leon/mfix-at697f\libm.a(lib_a-e_sqrt.o)
 .debug_loc     0x00000000000054b3      0x122 c:/opt/bcc-2.0.2-gcc/bin/../lib/gcc/sparc-gaisler-elf/7.2.0/../../../../sparc-gaisler-elf/lib/leon/mfix-at697f\libm.a(lib_a-k_cos.o)
 .debug_loc     0x00000000000055d5      0x694 c:/opt/bcc-2.0.2-gcc/bin/../lib/gcc/sparc-gaisler-elf/7.2.0/../../../../sparc-gaisler-elf/lib/leon/mfix-at697f\libm.a(lib_a-k_rem_pio2.o)
 .debug_loc     0x0000000000005c69       0xa5 c:/opt/bcc-2.0.2-gcc/bin/../lib/gcc/sparc-gaisler-elf/7.2.0/../../../../sparc-gaisler-elf/lib/leon/mfix-at697f\libm.a(lib_a-k_sin.o)
 .debug_loc     0x0000000000005d0e      0x2ed c:/opt/bcc-2.0.2-gcc/bin/../lib/gcc/sparc-gaisler-elf/7.2.0/../../../../sparc-gaisler-elf/lib/leon/mfix-at697f\libm.a(lib_a-k_tan.o)
 .debug_loc     0x0000000000005ffb       0x18 c:/opt/bcc-2.0.2-gcc/bin/../lib/gcc/sparc-gaisler-elf/7.2.0/../../../../sparc-gaisler-elf/lib/leon/mfix-at697f\libm.a(lib_a-s_finite.o)
 .debug_loc     0x0000000000006013       0x13 c:/opt/bcc-2.0.2-gcc/bin/../lib/gcc/sparc-gaisler-elf/7.2.0/../../../../sparc-gaisler-elf/lib/leon/mfix-at697f\libm.a(lib_a-s_matherr.o)
 .debug_loc     0x0000000000006026      0x1e1 c:/opt/bcc-2.0.2-gcc/bin/../lib/gcc/sparc-gaisler-elf/7.2.0/../../../../sparc-gaisler-elf/lib/leon/mfix-at697f\libm.a(lib_a-s_rint.o)
 .debug_loc     0x0000000000006207      0x1b9 c:/opt/bcc-2.0.2-gcc/bin/../lib/gcc/sparc-gaisler-elf/7.2.0/../../../../sparc-gaisler-elf/lib/leon/mfix-at697f\libm.a(lib_a-s_scalbn.o)
 .debug_loc     0x00000000000063c0       0x79 c:/opt/bcc-2.0.2-gcc/bin/../lib/gcc/sparc-gaisler-elf/7.2.0/../../../../sparc-gaisler-elf/lib/leon/mfix-at697f\libm.a(lib_a-s_copysign.o)
 .debug_loc     0x0000000000006439      0x10a c:/opt/bcc-2.0.2-gcc/bin/../sparc-gaisler-elf/bsp/leon2/leon/mfix-at697f\libbcc.a(trap.c.o)
 .debug_loc     0x0000000000006543      0x155 c:/opt/bcc-2.0.2-gcc/bin/../sparc-gaisler-elf/bsp/leon2/leon/mfix-at697f\libbcc.a(int_leon2.c.o)
 .debug_loc     0x0000000000006698       0x13 c:/opt/bcc-2.0.2-gcc/bin/../sparc-gaisler-elf/bsp/leon2/leon/mfix-at697f\libbcc.a(con_leon2.c.o)
 .debug_loc     0x00000000000066ab       0x13 c:/opt/bcc-2.0.2-gcc/bin/../sparc-gaisler-elf/bsp/leon2/leon/mfix-at697f\libbcc.a(timer_leon2.c.o)
 .debug_loc     0x00000000000066be       0x1e c:/opt/bcc-2.0.2-gcc/bin/../lib/gcc/sparc-gaisler-elf/7.2.0/../../../../sparc-gaisler-elf/lib/leon/mfix-at697f\libc.a(lib_a-atexit.o)
 .debug_loc     0x00000000000066dc       0x3e c:/opt/bcc-2.0.2-gcc/bin/../lib/gcc/sparc-gaisler-elf/7.2.0/../../../../sparc-gaisler-elf/lib/leon/mfix-at697f\libc.a(lib_a-exit.o)
 .debug_loc     0x000000000000671a      0x197 c:/opt/bcc-2.0.2-gcc/bin/../lib/gcc/sparc-gaisler-elf/7.2.0/../../../../sparc-gaisler-elf/lib/leon/mfix-at697f\libc.a(lib_a-memcpy.o)
 .debug_loc     0x00000000000068b1      0x121 c:/opt/bcc-2.0.2-gcc/bin/../lib/gcc/sparc-gaisler-elf/7.2.0/../../../../sparc-gaisler-elf/lib/leon/mfix-at697f\libc.a(lib_a-__atexit.o)
 .debug_loc     0x00000000000069d2      0x1b3 c:/opt/bcc-2.0.2-gcc/bin/../lib/gcc/sparc-gaisler-elf/7.2.0/../../../../sparc-gaisler-elf/lib/leon/mfix-at697f\libc.a(lib_a-__call_atexit.o)

.comment        0x0000000000000000       0x18
 .comment       0x0000000000000000       0x18 c:/opt/bcc-2.0.2-gcc/bin/../lib/gcc/sparc-gaisler-elf/7.2.0/leon/mfix-at697f/crtbegin.o
                                         0x19 (size before relaxing)
 .comment       0x0000000000000018       0x19 C:\Users\Bhagawat\AppData\Local\Temp\ccmG331P.o
 .comment       0x0000000000000018       0x19 C:\Users\Bhagawat\AppData\Local\Temp\ccFLNK2X.o
 .comment       0x0000000000000018       0x19 C:\Users\Bhagawat\AppData\Local\Temp\ccF3JHAe.o
 .comment       0x0000000000000018       0x19 C:\Users\Bhagawat\AppData\Local\Temp\ccSFvBJa.o
 .comment       0x0000000000000018       0x19 C:\Users\Bhagawat\AppData\Local\Temp\cc0Th2ok.o
 .comment       0x0000000000000018       0x19 C:\Users\Bhagawat\AppData\Local\Temp\ccbuJliF.o
 .comment       0x0000000000000018       0x19 C:\Users\Bhagawat\AppData\Local\Temp\ccA5VOh9.o
 .comment       0x0000000000000018       0x19 C:\Users\Bhagawat\AppData\Local\Temp\cclg7QQI.o
 .comment       0x0000000000000018       0x19 C:\Users\Bhagawat\AppData\Local\Temp\cc4J82Fr.o
 .comment       0x0000000000000018       0x19 C:\Users\Bhagawat\AppData\Local\Temp\ccP2pYow.o
 .comment       0x0000000000000018       0x19 C:\Users\Bhagawat\AppData\Local\Temp\cc5opyBQ.o
 .comment       0x0000000000000018       0x19 C:\Users\Bhagawat\AppData\Local\Temp\ccjU9hyn.o
 .comment       0x0000000000000018       0x19 C:\Users\Bhagawat\AppData\Local\Temp\ccBLkweo.o
 .comment       0x0000000000000018       0x19 C:\Users\Bhagawat\AppData\Local\Temp\ccsgz4so.o
 .comment       0x0000000000000018       0x19 C:\Users\Bhagawat\AppData\Local\Temp\ccAFUHm4.o
 .comment       0x0000000000000018       0x19 C:\Users\Bhagawat\AppData\Local\Temp\ccRqxX1h.o
 .comment       0x0000000000000018       0x19 C:\Users\Bhagawat\AppData\Local\Temp\ccyPto1B.o
 .comment       0x0000000000000018       0x19 C:\Users\Bhagawat\AppData\Local\Temp\ccZvvD0p.o
 .comment       0x0000000000000018       0x19 C:\Users\Bhagawat\AppData\Local\Temp\cciSMCHz.o
 .comment       0x0000000000000018       0x19 C:\Users\Bhagawat\AppData\Local\Temp\ccYmJqpt.o
 .comment       0x0000000000000018       0x19 C:\Users\Bhagawat\AppData\Local\Temp\cc5ogaUY.o
 .comment       0x0000000000000018       0x19 C:\Users\Bhagawat\AppData\Local\Temp\ccCmOWXC.o
 .comment       0x0000000000000018       0x19 C:\Users\Bhagawat\AppData\Local\Temp\ccQjljxZ.o
 .comment       0x0000000000000018       0x19 C:\Users\Bhagawat\AppData\Local\Temp\ccgDYObG.o
 .comment       0x0000000000000018       0x19 C:\Users\Bhagawat\AppData\Local\Temp\ccyKrZ4y.o
 .comment       0x0000000000000018       0x19 c:/opt/bcc-2.0.2-gcc/bin/../lib/gcc/sparc-gaisler-elf/7.2.0/../../../../sparc-gaisler-elf/lib/leon/mfix-at697f\libm.a(lib_a-s_atan.o)
 .comment       0x0000000000000018       0x19 c:/opt/bcc-2.0.2-gcc/bin/../lib/gcc/sparc-gaisler-elf/7.2.0/../../../../sparc-gaisler-elf/lib/leon/mfix-at697f\libm.a(lib_a-s_cos.o)
 .comment       0x0000000000000018       0x19 c:/opt/bcc-2.0.2-gcc/bin/../lib/gcc/sparc-gaisler-elf/7.2.0/../../../../sparc-gaisler-elf/lib/leon/mfix-at697f\libm.a(lib_a-s_fabs.o)
 .comment       0x0000000000000018       0x19 c:/opt/bcc-2.0.2-gcc/bin/../lib/gcc/sparc-gaisler-elf/7.2.0/../../../../sparc-gaisler-elf/lib/leon/mfix-at697f\libm.a(lib_a-s_floor.o)
 .comment       0x0000000000000018       0x19 c:/opt/bcc-2.0.2-gcc/bin/../lib/gcc/sparc-gaisler-elf/7.2.0/../../../../sparc-gaisler-elf/lib/leon/mfix-at697f\libm.a(lib_a-s_sin.o)
 .comment       0x0000000000000018       0x19 c:/opt/bcc-2.0.2-gcc/bin/../lib/gcc/sparc-gaisler-elf/7.2.0/../../../../sparc-gaisler-elf/lib/leon/mfix-at697f\libm.a(lib_a-s_tan.o)
 .comment       0x0000000000000018       0x19 c:/opt/bcc-2.0.2-gcc/bin/../lib/gcc/sparc-gaisler-elf/7.2.0/../../../../sparc-gaisler-elf/lib/leon/mfix-at697f\libm.a(lib_a-w_acos.o)
 .comment       0x0000000000000018       0x19 c:/opt/bcc-2.0.2-gcc/bin/../lib/gcc/sparc-gaisler-elf/7.2.0/../../../../sparc-gaisler-elf/lib/leon/mfix-at697f\libm.a(lib_a-w_atan2.o)
 .comment       0x0000000000000018       0x19 c:/opt/bcc-2.0.2-gcc/bin/../lib/gcc/sparc-gaisler-elf/7.2.0/../../../../sparc-gaisler-elf/lib/leon/mfix-at697f\libm.a(lib_a-w_fmod.o)
 .comment       0x0000000000000018       0x19 c:/opt/bcc-2.0.2-gcc/bin/../lib/gcc/sparc-gaisler-elf/7.2.0/../../../../sparc-gaisler-elf/lib/leon/mfix-at697f\libm.a(lib_a-w_pow.o)
 .comment       0x0000000000000018       0x19 c:/opt/bcc-2.0.2-gcc/bin/../lib/gcc/sparc-gaisler-elf/7.2.0/../../../../sparc-gaisler-elf/lib/leon/mfix-at697f\libm.a(lib_a-w_sqrt.o)
 .comment       0x0000000000000018       0x19 c:/opt/bcc-2.0.2-gcc/bin/../lib/gcc/sparc-gaisler-elf/7.2.0/../../../../sparc-gaisler-elf/lib/leon/mfix-at697f\libm.a(lib_a-e_acos.o)
 .comment       0x0000000000000018       0x19 c:/opt/bcc-2.0.2-gcc/bin/../lib/gcc/sparc-gaisler-elf/7.2.0/../../../../sparc-gaisler-elf/lib/leon/mfix-at697f\libm.a(lib_a-e_atan2.o)
 .comment       0x0000000000000018       0x19 c:/opt/bcc-2.0.2-gcc/bin/../lib/gcc/sparc-gaisler-elf/7.2.0/../../../../sparc-gaisler-elf/lib/leon/mfix-at697f\libm.a(lib_a-e_fmod.o)
 .comment       0x0000000000000018       0x19 c:/opt/bcc-2.0.2-gcc/bin/../lib/gcc/sparc-gaisler-elf/7.2.0/../../../../sparc-gaisler-elf/lib/leon/mfix-at697f\libm.a(lib_a-e_pow.o)
 .comment       0x0000000000000018       0x19 c:/opt/bcc-2.0.2-gcc/bin/../lib/gcc/sparc-gaisler-elf/7.2.0/../../../../sparc-gaisler-elf/lib/leon/mfix-at697f\libm.a(lib_a-e_rem_pio2.o)
 .comment       0x0000000000000018       0x19 c:/opt/bcc-2.0.2-gcc/bin/../lib/gcc/sparc-gaisler-elf/7.2.0/../../../../sparc-gaisler-elf/lib/leon/mfix-at697f\libm.a(lib_a-e_sqrt.o)
 .comment       0x0000000000000018       0x19 c:/opt/bcc-2.0.2-gcc/bin/../lib/gcc/sparc-gaisler-elf/7.2.0/../../../../sparc-gaisler-elf/lib/leon/mfix-at697f\libm.a(lib_a-k_cos.o)
 .comment       0x0000000000000018       0x19 c:/opt/bcc-2.0.2-gcc/bin/../lib/gcc/sparc-gaisler-elf/7.2.0/../../../../sparc-gaisler-elf/lib/leon/mfix-at697f\libm.a(lib_a-k_rem_pio2.o)
 .comment       0x0000000000000018       0x19 c:/opt/bcc-2.0.2-gcc/bin/../lib/gcc/sparc-gaisler-elf/7.2.0/../../../../sparc-gaisler-elf/lib/leon/mfix-at697f\libm.a(lib_a-k_sin.o)
 .comment       0x0000000000000018       0x19 c:/opt/bcc-2.0.2-gcc/bin/../lib/gcc/sparc-gaisler-elf/7.2.0/../../../../sparc-gaisler-elf/lib/leon/mfix-at697f\libm.a(lib_a-k_tan.o)
 .comment       0x0000000000000018       0x19 c:/opt/bcc-2.0.2-gcc/bin/../lib/gcc/sparc-gaisler-elf/7.2.0/../../../../sparc-gaisler-elf/lib/leon/mfix-at697f\libm.a(lib_a-s_finite.o)
 .comment       0x0000000000000018       0x19 c:/opt/bcc-2.0.2-gcc/bin/../lib/gcc/sparc-gaisler-elf/7.2.0/../../../../sparc-gaisler-elf/lib/leon/mfix-at697f\libm.a(lib_a-s_lib_ver.o)
 .comment       0x0000000000000018       0x19 c:/opt/bcc-2.0.2-gcc/bin/../lib/gcc/sparc-gaisler-elf/7.2.0/../../../../sparc-gaisler-elf/lib/leon/mfix-at697f\libm.a(lib_a-s_matherr.o)
 .comment       0x0000000000000018       0x19 c:/opt/bcc-2.0.2-gcc/bin/../lib/gcc/sparc-gaisler-elf/7.2.0/../../../../sparc-gaisler-elf/lib/leon/mfix-at697f\libm.a(lib_a-s_nan.o)
 .comment       0x0000000000000018       0x19 c:/opt/bcc-2.0.2-gcc/bin/../lib/gcc/sparc-gaisler-elf/7.2.0/../../../../sparc-gaisler-elf/lib/leon/mfix-at697f\libm.a(lib_a-s_rint.o)
 .comment       0x0000000000000018       0x19 c:/opt/bcc-2.0.2-gcc/bin/../lib/gcc/sparc-gaisler-elf/7.2.0/../../../../sparc-gaisler-elf/lib/leon/mfix-at697f\libm.a(lib_a-s_scalbn.o)
 .comment       0x0000000000000018       0x19 c:/opt/bcc-2.0.2-gcc/bin/../lib/gcc/sparc-gaisler-elf/7.2.0/../../../../sparc-gaisler-elf/lib/leon/mfix-at697f\libm.a(lib_a-s_copysign.o)
 .comment       0x0000000000000018       0x19 c:/opt/bcc-2.0.2-gcc/bin/../sparc-gaisler-elf/bsp/leon2/leon/mfix-at697f\libbcc.a(trap.c.o)
 .comment       0x0000000000000018       0x19 c:/opt/bcc-2.0.2-gcc/bin/../sparc-gaisler-elf/bsp/leon2/leon/mfix-at697f\libbcc.a(isr.c.o)
 .comment       0x0000000000000018       0x19 c:/opt/bcc-2.0.2-gcc/bin/../sparc-gaisler-elf/bsp/leon2/leon/mfix-at697f\libbcc.a(int_nest.c.o)
 .comment       0x0000000000000018       0x19 c:/opt/bcc-2.0.2-gcc/bin/../sparc-gaisler-elf/bsp/leon2/leon/mfix-at697f\libbcc.a(copy_data.c.o)
 .comment       0x0000000000000018       0x19 c:/opt/bcc-2.0.2-gcc/bin/../sparc-gaisler-elf/bsp/leon2/leon/mfix-at697f\libbcc.a(int_leon2.c.o)
 .comment       0x0000000000000018       0x19 c:/opt/bcc-2.0.2-gcc/bin/../sparc-gaisler-elf/bsp/leon2/leon/mfix-at697f\libbcc.a(int_leon2_get_source.c.o)
 .comment       0x0000000000000018       0x19 c:/opt/bcc-2.0.2-gcc/bin/../sparc-gaisler-elf/bsp/leon2/leon/mfix-at697f\libbcc.a(int_leon2_init.c.o)
 .comment       0x0000000000000018       0x19 c:/opt/bcc-2.0.2-gcc/bin/../sparc-gaisler-elf/bsp/leon2/leon/mfix-at697f\libbcc.a(con_leon2.c.o)
 .comment       0x0000000000000018       0x19 c:/opt/bcc-2.0.2-gcc/bin/../sparc-gaisler-elf/bsp/leon2/leon/mfix-at697f\libbcc.a(timer_leon2.c.o)
 .comment       0x0000000000000018       0x19 c:/opt/bcc-2.0.2-gcc/bin/../sparc-gaisler-elf/bsp/leon2/leon/mfix-at697f\libbcc.a(int_leon2_handle.c.o)
 .comment       0x0000000000000018       0x19 c:/opt/bcc-2.0.2-gcc/bin/../sparc-gaisler-elf/bsp/leon2/leon/mfix-at697f\libbcc.a(con_handle.c.o)
 .comment       0x0000000000000018       0x19 c:/opt/bcc-2.0.2-gcc/bin/../sparc-gaisler-elf/bsp/leon2/leon/mfix-at697f\libbcc.a(timer_handle.c.o)
 .comment       0x0000000000000018       0x19 c:/opt/bcc-2.0.2-gcc/bin/../lib/gcc/sparc-gaisler-elf/7.2.0/../../../../sparc-gaisler-elf/lib/leon/mfix-at697f\libc.a(lib_a-atexit.o)
 .comment       0x0000000000000018       0x19 c:/opt/bcc-2.0.2-gcc/bin/../lib/gcc/sparc-gaisler-elf/7.2.0/../../../../sparc-gaisler-elf/lib/leon/mfix-at697f\libc.a(lib_a-errno.o)
 .comment       0x0000000000000018       0x19 c:/opt/bcc-2.0.2-gcc/bin/../lib/gcc/sparc-gaisler-elf/7.2.0/../../../../sparc-gaisler-elf/lib/leon/mfix-at697f\libc.a(lib_a-exit.o)
 .comment       0x0000000000000018       0x19 c:/opt/bcc-2.0.2-gcc/bin/../lib/gcc/sparc-gaisler-elf/7.2.0/../../../../sparc-gaisler-elf/lib/leon/mfix-at697f\libc.a(lib_a-impure.o)
 .comment       0x0000000000000018       0x19 c:/opt/bcc-2.0.2-gcc/bin/../lib/gcc/sparc-gaisler-elf/7.2.0/../../../../sparc-gaisler-elf/lib/leon/mfix-at697f\libc.a(lib_a-memcpy.o)
 .comment       0x0000000000000018       0x19 c:/opt/bcc-2.0.2-gcc/bin/../lib/gcc/sparc-gaisler-elf/7.2.0/../../../../sparc-gaisler-elf/lib/leon/mfix-at697f\libc.a(lib_a-__atexit.o)
 .comment       0x0000000000000018       0x19 c:/opt/bcc-2.0.2-gcc/bin/../lib/gcc/sparc-gaisler-elf/7.2.0/../../../../sparc-gaisler-elf/lib/leon/mfix-at697f\libc.a(lib_a-__call_atexit.o)
 .comment       0x0000000000000018       0x19 c:/opt/bcc-2.0.2-gcc/bin/../lib/gcc/sparc-gaisler-elf/7.2.0/leon/mfix-at697f/crtend.o

.gnu.attributes
                0x0000000000000000       0x10
 .gnu.attributes
                0x0000000000000000       0x10 C:\Users\Bhagawat\AppData\Local\Temp\ccRqxX1h.o
 .gnu.attributes
                0x0000000000000010       0x10 C:\Users\Bhagawat\AppData\Local\Temp\ccZvvD0p.o
 .gnu.attributes
                0x0000000000000020       0x10 C:\Users\Bhagawat\AppData\Local\Temp\ccgDYObG.o
 .gnu.attributes
                0x0000000000000030       0x10 c:/opt/bcc-2.0.2-gcc/bin/../lib/gcc/sparc-gaisler-elf/7.2.0/../../../../sparc-gaisler-elf/lib/leon/mfix-at697f\libm.a(lib_a-k_rem_pio2.o)

.debug_macinfo
 *(.debug_macinfo)

.debug_weaknames
 *(.debug_weaknames)

.debug_funcnames
 *(.debug_funcnames)

.debug_typenames
 *(.debug_typenames)

.debug_varnames
 *(.debug_varnames)
LOAD c:/opt/bcc-2.0.2-gcc/bin/../lib/gcc/sparc-gaisler-elf/7.2.0/leon/mfix-at697f\libgcc.a
START GROUP
LOAD c:/opt/bcc-2.0.2-gcc/bin/../sparc-gaisler-elf/bsp/leon2/leon/mfix-at697f\libbcc.a
LOAD c:/opt/bcc-2.0.2-gcc/bin/../lib/gcc/sparc-gaisler-elf/7.2.0/../../../../sparc-gaisler-elf/lib/leon/mfix-at697f\libc.a
END GROUP
LOAD c:/opt/bcc-2.0.2-gcc/bin/../lib/gcc/sparc-gaisler-elf/7.2.0/leon/mfix-at697f\libgcc.a
LOAD c:/opt/bcc-2.0.2-gcc/bin/../lib/gcc/sparc-gaisler-elf/7.2.0/leon/mfix-at697f/crtend.o
LOAD c:/opt/bcc-2.0.2-gcc/bin/../lib/gcc/sparc-gaisler-elf/7.2.0/leon/mfix-at697f/crtn.o
OUTPUT(rsat-obc.elf elf32-sparc)
